
C:/Users/assem.KEVINTHOMAS/OneDrive/Documents/Embedded-Hacking/drivers/0x04_pwm/build/0x04_pwm.elf:     file format elf32-littlearm

Sections:
Idx Name          Size      VMA       LMA       File off  Algn
  0 .text         00003714  10000000  10000000  00001000  2**3
                  CONTENTS, ALLOC, LOAD, READONLY, CODE
  1 .rodata       000001d0  10003718  10003718  00004718  2**3
                  CONTENTS, ALLOC, LOAD, READONLY, DATA
  2 .ARM.exidx    00000008  100038e8  100038e8  000048e8  2**2
                  CONTENTS, ALLOC, LOAD, READONLY, DATA
  3 .binary_info  0000002c  100038f0  100038f0  000048f0  2**2
                  CONTENTS, ALLOC, LOAD, READONLY, DATA
  4 .ram_vector_table 00000110  20000000  20000000  00006000  2**2
                  ALLOC
  5 .uninitialized_data 00000000  20000110  20000110  00005e4c  2**0
                  CONTENTS
  6 .data         0000051c  20000110  1000391c  00005110  2**3
                  CONTENTS, ALLOC, LOAD, READONLY, CODE
  7 .tdata        00000000  2000062c  2000062c  00005e4c  2**0
                  CONTENTS, ALLOC, LOAD, DATA, THREAD_LOCAL
  8 .tbss         00000000  2000062c  2000062c  00000000  2**0
                  ALLOC, THREAD_LOCAL
  9 .bss          00000234  20000630  10003e38  00006630  2**3
                  ALLOC
 10 .heap         00000800  20000864  10003e38  00006864  2**2
                  ALLOC, READONLY
 11 .scratch_x    00000000  20080000  20080000  00005e4c  2**0
                  CONTENTS
 12 .scratch_y    00000000  20081000  20081000  00005e4c  2**0
                  CONTENTS
 13 .stack_dummy  00000800  20081000  20081000  00006000  2**5
                  ALLOC, READONLY
 14 .flash_end    00000014  10003e38  10003e38  00005e38  2**2
                  CONTENTS, ALLOC, LOAD, READONLY, DATA
 15 .ARM.attributes 00000034  00000000  00000000  00005e4c  2**0
                  CONTENTS, READONLY
 16 .comment      00000045  00000000  00000000  00005e80  2**0
                  CONTENTS, READONLY
 17 .debug_info   00021544  00000000  00000000  00005ec5  2**0
                  CONTENTS, READONLY, DEBUGGING, OCTETS
 18 .debug_abbrev 00005946  00000000  00000000  00027409  2**0
                  CONTENTS, READONLY, DEBUGGING, OCTETS
 19 .debug_loclists 0001056f  00000000  00000000  0002cd4f  2**0
                  CONTENTS, READONLY, DEBUGGING, OCTETS
 20 .debug_aranges 00000c10  00000000  00000000  0003d2c0  2**3
                  CONTENTS, READONLY, DEBUGGING, OCTETS
 21 .debug_rnglists 0000310f  00000000  00000000  0003ded0  2**0
                  CONTENTS, READONLY, DEBUGGING, OCTETS
 22 .debug_line   000169ca  00000000  00000000  00040fdf  2**0
                  CONTENTS, READONLY, DEBUGGING, OCTETS
 23 .debug_str    00005ab7  00000000  00000000  000579a9  2**0
                  CONTENTS, READONLY, DEBUGGING, OCTETS
 24 .debug_frame  00001f98  00000000  00000000  0005d460  2**2
                  CONTENTS, READONLY, DEBUGGING, OCTETS
 25 .debug_line_str 000002c6  00000000  00000000  0005f3f8  2**0
                  CONTENTS, READONLY, DEBUGGING, OCTETS

C:/Users/assem.KEVINTHOMAS/OneDrive/Documents/Embedded-Hacking/drivers/0x04_pwm/build/0x04_pwm.elf:     file format elf32-littlearm


Disassembly of section .text:

10000000 <__VECTOR_TABLE>:
10000000:	20082000 	.word	0x20082000
10000004:	1000015d 	.word	0x1000015d
10000008:	1000011b 	.word	0x1000011b
1000000c:	1000011d 	.word	0x1000011d
10000010:	10000111 	.word	0x10000111
10000014:	10000111 	.word	0x10000111
10000018:	10000111 	.word	0x10000111
1000001c:	10000111 	.word	0x10000111
10000020:	10000119 	.word	0x10000119
10000024:	10000119 	.word	0x10000119
10000028:	10000119 	.word	0x10000119
1000002c:	1000011f 	.word	0x1000011f
10000030:	10000111 	.word	0x10000111
10000034:	10000119 	.word	0x10000119
10000038:	10000121 	.word	0x10000121
1000003c:	10000123 	.word	0x10000123
10000040:	10000111 	.word	0x10000111
10000044:	10000111 	.word	0x10000111
10000048:	10000111 	.word	0x10000111
1000004c:	10000111 	.word	0x10000111
10000050:	10000111 	.word	0x10000111
10000054:	10000111 	.word	0x10000111
10000058:	10000111 	.word	0x10000111
1000005c:	10000111 	.word	0x10000111
10000060:	10000111 	.word	0x10000111
10000064:	10000111 	.word	0x10000111
10000068:	10000111 	.word	0x10000111
1000006c:	10000111 	.word	0x10000111
10000070:	10000111 	.word	0x10000111
10000074:	10000111 	.word	0x10000111
10000078:	10000111 	.word	0x10000111
1000007c:	10000111 	.word	0x10000111
10000080:	10000111 	.word	0x10000111
10000084:	10000111 	.word	0x10000111
10000088:	10000111 	.word	0x10000111
1000008c:	10000111 	.word	0x10000111
10000090:	10000111 	.word	0x10000111
10000094:	10000111 	.word	0x10000111
10000098:	10000111 	.word	0x10000111
1000009c:	10000111 	.word	0x10000111
100000a0:	10000111 	.word	0x10000111
100000a4:	10000111 	.word	0x10000111
100000a8:	10000111 	.word	0x10000111
100000ac:	10000111 	.word	0x10000111
100000b0:	10000111 	.word	0x10000111
100000b4:	10000111 	.word	0x10000111
100000b8:	10000111 	.word	0x10000111
100000bc:	10000111 	.word	0x10000111
100000c0:	10000111 	.word	0x10000111
100000c4:	10000111 	.word	0x10000111
100000c8:	10000111 	.word	0x10000111
100000cc:	10000111 	.word	0x10000111
100000d0:	10000111 	.word	0x10000111
100000d4:	10000111 	.word	0x10000111
100000d8:	10000111 	.word	0x10000111
100000dc:	10000111 	.word	0x10000111
100000e0:	10000111 	.word	0x10000111
100000e4:	10000111 	.word	0x10000111
100000e8:	10000111 	.word	0x10000111
100000ec:	10000111 	.word	0x10000111
100000f0:	10000111 	.word	0x10000111
100000f4:	10000111 	.word	0x10000111
100000f8:	10000111 	.word	0x10000111
100000fc:	10000111 	.word	0x10000111
10000100:	10000111 	.word	0x10000111
10000104:	10000111 	.word	0x10000111
10000108:	10000111 	.word	0x10000111
1000010c:	10000111 	.word	0x10000111

10000110 <__unhandled_user_irq>:
10000110:	f3ef 8005 	mrs	r0, IPSR
10000114:	3810      	subs	r0, #16

10000116 <unhandled_user_irq_num_in_r0>:
10000116:	be00      	bkpt	0x0000

10000118 <isr_invalid>:
10000118:	be00      	bkpt	0x0000

1000011a <isr_nmi>:
1000011a:	be00      	bkpt	0x0000

1000011c <isr_hardfault>:
1000011c:	be00      	bkpt	0x0000

1000011e <isr_svcall>:
1000011e:	be00      	bkpt	0x0000

10000120 <isr_pendsv>:
10000120:	be00      	bkpt	0x0000

10000122 <isr_systick>:
10000122:	be00      	bkpt	0x0000

10000124 <__default_isrs_end>:
10000124:	7188ebf2 	.word	0x7188ebf2
10000128:	100038f0 	.word	0x100038f0
1000012c:	1000391c 	.word	0x1000391c
10000130:	100001a0 	.word	0x100001a0
10000134:	e71aa390 	.word	0xe71aa390

10000138 <__binary_info_header_end>:
10000138:	ffffded3 	.word	0xffffded3
1000013c:	10210142 	.word	0x10210142
10000140:	000001ff 	.word	0x000001ff
10000144:	00003d00 	.word	0x00003d00
10000148:	ab123579 	.word	0xab123579

1000014c <_entry_point>:
1000014c:	f04f 0000 	mov.w	r0, #0

10000150 <_enter_vtable_in_r0>:
10000150:	491e      	ldr	r1, [pc, #120]	@ (100001cc <data_cpy_table+0x2c>)
10000152:	6008      	str	r0, [r1, #0]
10000154:	c806      	ldmia	r0!, {r1, r2}
10000156:	f381 8808 	msr	MSP, r1
1000015a:	4710      	bx	r2

1000015c <_reset_handler>:
1000015c:	f04f 4050 	mov.w	r0, #3489660928	@ 0xd0000000
10000160:	6800      	ldr	r0, [r0, #0]
10000162:	b110      	cbz	r0, 1000016a <hold_non_core0_in_bootrom+0x6>

10000164 <hold_non_core0_in_bootrom>:
10000164:	f04f 0000 	mov.w	r0, #0
10000168:	e7f2      	b.n	10000150 <_enter_vtable_in_r0>
1000016a:	a40d      	add	r4, pc, #52	@ (adr r4, 100001a0 <data_cpy_table>)
1000016c:	cc0e      	ldmia	r4!, {r1, r2, r3}
1000016e:	2900      	cmp	r1, #0
10000170:	d002      	beq.n	10000178 <hold_non_core0_in_bootrom+0x14>
10000172:	f000 f812 	bl	1000019a <data_cpy>
10000176:	e7f9      	b.n	1000016c <hold_non_core0_in_bootrom+0x8>
10000178:	4915      	ldr	r1, [pc, #84]	@ (100001d0 <data_cpy_table+0x30>)
1000017a:	4a16      	ldr	r2, [pc, #88]	@ (100001d4 <data_cpy_table+0x34>)
1000017c:	2000      	movs	r0, #0
1000017e:	e000      	b.n	10000182 <bss_fill_test>

10000180 <bss_fill_loop>:
10000180:	c101      	stmia	r1!, {r0}

10000182 <bss_fill_test>:
10000182:	4291      	cmp	r1, r2
10000184:	d1fc      	bne.n	10000180 <bss_fill_loop>

10000186 <platform_entry>:
10000186:	4914      	ldr	r1, [pc, #80]	@ (100001d8 <data_cpy_table+0x38>)
10000188:	4788      	blx	r1
1000018a:	4914      	ldr	r1, [pc, #80]	@ (100001dc <data_cpy_table+0x3c>)
1000018c:	4788      	blx	r1
1000018e:	4914      	ldr	r1, [pc, #80]	@ (100001e0 <data_cpy_table+0x40>)
10000190:	4788      	blx	r1
10000192:	be00      	bkpt	0x0000
10000194:	e7fd      	b.n	10000192 <platform_entry+0xc>

10000196 <data_cpy_loop>:
10000196:	c901      	ldmia	r1!, {r0}
10000198:	c201      	stmia	r2!, {r0}

1000019a <data_cpy>:
1000019a:	429a      	cmp	r2, r3
1000019c:	d3fb      	bcc.n	10000196 <data_cpy_loop>
1000019e:	4770      	bx	lr

100001a0 <data_cpy_table>:
100001a0:	1000391c 	.word	0x1000391c
100001a4:	20000110 	.word	0x20000110
100001a8:	2000062c 	.word	0x2000062c
100001ac:	10003e38 	.word	0x10003e38
100001b0:	20080000 	.word	0x20080000
100001b4:	20080000 	.word	0x20080000
100001b8:	10003e38 	.word	0x10003e38
100001bc:	20081000 	.word	0x20081000
100001c0:	20081000 	.word	0x20081000
100001c4:	00000000 	.word	0x00000000
100001c8:	4770      	bx	lr
100001ca:	0000      	.short	0x0000
100001cc:	e000ed08 	.word	0xe000ed08
100001d0:	2000062c 	.word	0x2000062c
100001d4:	20000864 	.word	0x20000864
100001d8:	10002f7d 	.word	0x10002f7d
100001dc:	10000235 	.word	0x10000235
100001e0:	10002f75 	.word	0x10002f75

100001e4 <_init>:
100001e4:	b5f8      	push	{r3, r4, r5, r6, r7, lr}
100001e6:	bf00      	nop

100001e8 <register_tm_clones>:
100001e8:	4b06      	ldr	r3, [pc, #24]	@ (10000204 <register_tm_clones+0x1c>)
100001ea:	4907      	ldr	r1, [pc, #28]	@ (10000208 <register_tm_clones+0x20>)
100001ec:	1ac9      	subs	r1, r1, r3
100001ee:	1089      	asrs	r1, r1, #2
100001f0:	bf48      	it	mi
100001f2:	3101      	addmi	r1, #1
100001f4:	1049      	asrs	r1, r1, #1
100001f6:	d003      	beq.n	10000200 <register_tm_clones+0x18>
100001f8:	4b04      	ldr	r3, [pc, #16]	@ (1000020c <register_tm_clones+0x24>)
100001fa:	b10b      	cbz	r3, 10000200 <register_tm_clones+0x18>
100001fc:	4801      	ldr	r0, [pc, #4]	@ (10000204 <register_tm_clones+0x1c>)
100001fe:	4718      	bx	r3
10000200:	4770      	bx	lr
10000202:	bf00      	nop
10000204:	2000062c 	.word	0x2000062c
10000208:	2000062c 	.word	0x2000062c
1000020c:	00000000 	.word	0x00000000

10000210 <frame_dummy>:
10000210:	b508      	push	{r3, lr}
10000212:	4b05      	ldr	r3, [pc, #20]	@ (10000228 <frame_dummy+0x18>)
10000214:	b11b      	cbz	r3, 1000021e <frame_dummy+0xe>
10000216:	4905      	ldr	r1, [pc, #20]	@ (1000022c <frame_dummy+0x1c>)
10000218:	4805      	ldr	r0, [pc, #20]	@ (10000230 <frame_dummy+0x20>)
1000021a:	f3af 8000 	nop.w
1000021e:	e8bd 4008 	ldmia.w	sp!, {r3, lr}
10000222:	f7ff bfe1 	b.w	100001e8 <register_tm_clones>
10000226:	bf00      	nop
10000228:	00000000 	.word	0x00000000
1000022c:	20000810 	.word	0x20000810
10000230:	10003714 	.word	0x10003714

10000234 <main>:
10000234:	b508      	push	{r3, lr}
10000236:	f002 ffc9 	bl	100031cc <stdio_init_all>
1000023a:	f44f 717a 	mov.w	r1, #1000	@ 0x3e8
1000023e:	2019      	movs	r0, #25
10000240:	f000 f828 	bl	10000294 <pwm_driver_init>
10000244:	f44f 727a 	mov.w	r2, #1000	@ 0x3e8
10000248:	2119      	movs	r1, #25
1000024a:	4810      	ldr	r0, [pc, #64]	@ (1000028c <main+0x58>)
1000024c:	f003 f886 	bl	1000335c <__wrap_printf>
10000250:	2400      	movs	r4, #0
10000252:	b2e0      	uxtb	r0, r4
10000254:	f000 f886 	bl	10000364 <pwm_driver_set_duty_percent>
10000258:	4621      	mov	r1, r4
1000025a:	480d      	ldr	r0, [pc, #52]	@ (10000290 <main+0x5c>)
1000025c:	f003 f87e 	bl	1000335c <__wrap_printf>
10000260:	3405      	adds	r4, #5
10000262:	2032      	movs	r0, #50	@ 0x32
10000264:	f000 fdd4 	bl	10000e10 <sleep_ms>
10000268:	2c69      	cmp	r4, #105	@ 0x69
1000026a:	d1f2      	bne.n	10000252 <main+0x1e>
1000026c:	2464      	movs	r4, #100	@ 0x64
1000026e:	b2e0      	uxtb	r0, r4
10000270:	f000 f878 	bl	10000364 <pwm_driver_set_duty_percent>
10000274:	4621      	mov	r1, r4
10000276:	4806      	ldr	r0, [pc, #24]	@ (10000290 <main+0x5c>)
10000278:	f003 f870 	bl	1000335c <__wrap_printf>
1000027c:	3c05      	subs	r4, #5
1000027e:	2032      	movs	r0, #50	@ 0x32
10000280:	f000 fdc6 	bl	10000e10 <sleep_ms>
10000284:	1d63      	adds	r3, r4, #5
10000286:	d1f2      	bne.n	1000026e <main+0x3a>
10000288:	e7e2      	b.n	10000250 <main+0x1c>
1000028a:	bf00      	nop
1000028c:	10003718 	.word	0x10003718
10000290:	1000373c 	.word	0x1000373c

10000294 <pwm_driver_init>:
10000294:	b5f8      	push	{r3, r4, r5, r6, r7, lr}
10000296:	460b      	mov	r3, r1
10000298:	4604      	mov	r4, r0
1000029a:	ed2d 8b02 	vpush	{d8}
1000029e:	2104      	movs	r1, #4
100002a0:	ee08 3a10 	vmov	s16, r3
100002a4:	f000 f88e 	bl	100003c4 <gpio_set_function>
100002a8:	f242 720f 	movw	r2, #9999	@ 0x270f
100002ac:	4f28      	ldr	r7, [pc, #160]	@ (10000350 <pwm_driver_init+0xbc>)
100002ae:	0863      	lsrs	r3, r4, #1
100002b0:	2c1f      	cmp	r4, #31
100002b2:	f004 0401 	and.w	r4, r4, #1
100002b6:	bf88      	it	hi
100002b8:	f003 0303 	andhi.w	r3, r3, #3
100002bc:	4e25      	ldr	r6, [pc, #148]	@ (10000354 <pwm_driver_init+0xc0>)
100002be:	603c      	str	r4, [r7, #0]
100002c0:	4c25      	ldr	r4, [pc, #148]	@ (10000358 <pwm_driver_init+0xc4>)
100002c2:	bf94      	ite	ls
100002c4:	f003 0307 	andls.w	r3, r3, #7
100002c8:	3308      	addhi	r3, #8
100002ca:	2005      	movs	r0, #5
100002cc:	6022      	str	r2, [r4, #0]
100002ce:	6033      	str	r3, [r6, #0]
100002d0:	f000 ffc4 	bl	1000125c <clock_get_hz>
100002d4:	eddf 7a21 	vldr	s15, [pc, #132]	@ 1000035c <pwm_driver_init+0xc8>
100002d8:	ee07 0a10 	vmov	s14, r0
100002dc:	eeb8 8a48 	vcvt.f32.u32	s16, s16
100002e0:	eeb8 7a47 	vcvt.f32.u32	s14, s14
100002e4:	ee28 8a27 	vmul.f32	s16, s16, s15
100002e8:	ed9f 6a1d 	vldr	s12, [pc, #116]	@ 10000360 <pwm_driver_init+0xcc>
100002ec:	eec7 7a08 	vdiv.f32	s15, s14, s16
100002f0:	ecbd 8b02 	vpop	{d8}
100002f4:	eef3 6a00 	vmov.f32	s13, #48	@ 0x41800000  16.0
100002f8:	ee77 7a86 	vadd.f32	s15, s15, s12
100002fc:	ee67 7aa6 	vmul.f32	s15, s15, s13
10000300:	2000      	movs	r0, #0
10000302:	eefc 7ae7 	vcvt.u32.f32	s15, s15
10000306:	6833      	ldr	r3, [r6, #0]
10000308:	683a      	ldr	r2, [r7, #0]
1000030a:	eb03 0383 	add.w	r3, r3, r3, lsl #2
1000030e:	009b      	lsls	r3, r3, #2
10000310:	f103 4180 	add.w	r1, r3, #1073741824	@ 0x40000000
10000314:	8824      	ldrh	r4, [r4, #0]
10000316:	1a12      	subs	r2, r2, r0
10000318:	460b      	mov	r3, r1
1000031a:	f04f 0501 	mov.w	r5, #1
1000031e:	f501 2128 	add.w	r1, r1, #688128	@ 0xa8000
10000322:	bf18      	it	ne
10000324:	2201      	movne	r2, #1
10000326:	6008      	str	r0, [r1, #0]
10000328:	6088      	str	r0, [r1, #8]
1000032a:	60c8      	str	r0, [r1, #12]
1000032c:	610c      	str	r4, [r1, #16]
1000032e:	edc1 7a01 	vstr	s15, [r1, #4]
10000332:	330c      	adds	r3, #12
10000334:	f503 2028 	add.w	r0, r3, #688128	@ 0xa8000
10000338:	600d      	str	r5, [r1, #0]
1000033a:	4252      	negs	r2, r2
1000033c:	6801      	ldr	r1, [r0, #0]
1000033e:	f482 427f 	eor.w	r2, r2, #65280	@ 0xff00
10000342:	f082 02ff 	eor.w	r2, r2, #255	@ 0xff
10000346:	f503 2329 	add.w	r3, r3, #692224	@ 0xa9000
1000034a:	400a      	ands	r2, r1
1000034c:	601a      	str	r2, [r3, #0]
1000034e:	bdf8      	pop	{r3, r4, r5, r6, r7, pc}
10000350:	20000848 	.word	0x20000848
10000354:	2000084c 	.word	0x2000084c
10000358:	20000850 	.word	0x20000850
1000035c:	461c4000 	.word	0x461c4000
10000360:	3d000000 	.word	0x3d000000

10000364 <pwm_driver_set_duty_percent>:
10000364:	2864      	cmp	r0, #100	@ 0x64
10000366:	bf28      	it	cs
10000368:	2064      	movcs	r0, #100	@ 0x64
1000036a:	4a10      	ldr	r2, [pc, #64]	@ (100003ac <pwm_driver_set_duty_percent+0x48>)
1000036c:	b430      	push	{r4, r5}
1000036e:	4b10      	ldr	r3, [pc, #64]	@ (100003b0 <pwm_driver_set_duty_percent+0x4c>)
10000370:	6815      	ldr	r5, [r2, #0]
10000372:	681b      	ldr	r3, [r3, #0]
10000374:	fb05 0000 	mla	r0, r5, r0, r0
10000378:	490e      	ldr	r1, [pc, #56]	@ (100003b4 <pwm_driver_set_duty_percent+0x50>)
1000037a:	4a0f      	ldr	r2, [pc, #60]	@ (100003b8 <pwm_driver_set_duty_percent+0x54>)
1000037c:	eb03 0383 	add.w	r3, r3, r3, lsl #2
10000380:	009b      	lsls	r3, r3, #2
10000382:	4c0e      	ldr	r4, [pc, #56]	@ (100003bc <pwm_driver_set_duty_percent+0x58>)
10000384:	441a      	add	r2, r3
10000386:	fba1 1300 	umull	r1, r3, r1, r0
1000038a:	6824      	ldr	r4, [r4, #0]
1000038c:	f3c3 134f 	ubfx	r3, r3, #5, #16
10000390:	b14c      	cbz	r4, 100003a6 <pwm_driver_set_duty_percent+0x42>
10000392:	480b      	ldr	r0, [pc, #44]	@ (100003c0 <pwm_driver_set_duty_percent+0x5c>)
10000394:	041b      	lsls	r3, r3, #16
10000396:	6811      	ldr	r1, [r2, #0]
10000398:	f502 5280 	add.w	r2, r2, #4096	@ 0x1000
1000039c:	404b      	eors	r3, r1
1000039e:	4003      	ands	r3, r0
100003a0:	6013      	str	r3, [r2, #0]
100003a2:	bc30      	pop	{r4, r5}
100003a4:	4770      	bx	lr
100003a6:	f64f 70ff 	movw	r0, #65535	@ 0xffff
100003aa:	e7f4      	b.n	10000396 <pwm_driver_set_duty_percent+0x32>
100003ac:	20000850 	.word	0x20000850
100003b0:	2000084c 	.word	0x2000084c
100003b4:	51eb851f 	.word	0x51eb851f
100003b8:	400a800c 	.word	0x400a800c
100003bc:	20000848 	.word	0x20000848
100003c0:	ffff0000 	.word	0xffff0000

100003c4 <gpio_set_function>:
100003c4:	b410      	push	{r4}
100003c6:	f44f 7480 	mov.w	r4, #256	@ 0x100
100003ca:	4b0c      	ldr	r3, [pc, #48]	@ (100003fc <gpio_set_function+0x38>)
100003cc:	f853 2020 	ldr.w	r2, [r3, r0, lsl #2]
100003d0:	eb03 0380 	add.w	r3, r3, r0, lsl #2
100003d4:	00c0      	lsls	r0, r0, #3
100003d6:	f082 0240 	eor.w	r2, r2, #64	@ 0x40
100003da:	f100 4080 	add.w	r0, r0, #1073741824	@ 0x40000000
100003de:	f503 5c80 	add.w	ip, r3, #4096	@ 0x1000
100003e2:	f002 02c0 	and.w	r2, r2, #192	@ 0xc0
100003e6:	f500 3020 	add.w	r0, r0, #163840	@ 0x28000
100003ea:	f503 5340 	add.w	r3, r3, #12288	@ 0x3000
100003ee:	f8cc 2000 	str.w	r2, [ip]
100003f2:	6041      	str	r1, [r0, #4]
100003f4:	601c      	str	r4, [r3, #0]
100003f6:	f85d 4b04 	ldr.w	r4, [sp], #4
100003fa:	4770      	bx	lr
100003fc:	40038004 	.word	0x40038004

10000400 <panic>:
10000400:	b40f      	push	{r0, r1, r2, r3}
10000402:	b500      	push	{lr}
10000404:	b083      	sub	sp, #12
10000406:	9c04      	ldr	r4, [sp, #16]
10000408:	4807      	ldr	r0, [pc, #28]	@ (10000428 <panic+0x28>)
1000040a:	f002 ff27 	bl	1000325c <__wrap_puts>
1000040e:	b13c      	cbz	r4, 10000420 <panic+0x20>
10000410:	a905      	add	r1, sp, #20
10000412:	4620      	mov	r0, r4
10000414:	9101      	str	r1, [sp, #4]
10000416:	f002 fd93 	bl	10002f40 <weak_raw_vprintf>
1000041a:	4804      	ldr	r0, [pc, #16]	@ (1000042c <panic+0x2c>)
1000041c:	f002 ff1e 	bl	1000325c <__wrap_puts>
10000420:	2001      	movs	r0, #1
10000422:	f002 fda5 	bl	10002f70 <_exit>
10000426:	bf00      	nop
10000428:	1000374c 	.word	0x1000374c
1000042c:	10003748 	.word	0x10003748

10000430 <hw_claim_or_assert>:
10000430:	b570      	push	{r4, r5, r6, lr}
10000432:	4686      	mov	lr, r0
10000434:	f3ef 8510 	mrs	r5, PRIMASK
10000438:	b672      	cpsid	i
1000043a:	4c12      	ldr	r4, [pc, #72]	@ (10000484 <hw_claim_or_assert+0x54>)
1000043c:	e8d4 6fcf 	ldaexb	r6, [r4]
10000440:	2001      	movs	r0, #1
10000442:	2e00      	cmp	r6, #0
10000444:	d1fa      	bne.n	1000043c <hw_claim_or_assert+0xc>
10000446:	e8c4 0f46 	strexb	r6, r0, [r4]
1000044a:	2e00      	cmp	r6, #0
1000044c:	d1f6      	bne.n	1000043c <hw_claim_or_assert+0xc>
1000044e:	f3bf 8f5f 	dmb	sy
10000452:	f04f 0c01 	mov.w	ip, #1
10000456:	08c8      	lsrs	r0, r1, #3
10000458:	f001 0307 	and.w	r3, r1, #7
1000045c:	fa0c f303 	lsl.w	r3, ip, r3
10000460:	f81e c000 	ldrb.w	ip, [lr, r0]
10000464:	ea1c 0603 	ands.w	r6, ip, r3
10000468:	d108      	bne.n	1000047c <hw_claim_or_assert+0x4c>
1000046a:	ea4c 0c03 	orr.w	ip, ip, r3
1000046e:	f80e c000 	strb.w	ip, [lr, r0]
10000472:	e8c4 6f8f 	stlb	r6, [r4]
10000476:	f385 8810 	msr	PRIMASK, r5
1000047a:	bd70      	pop	{r4, r5, r6, pc}
1000047c:	4610      	mov	r0, r2
1000047e:	f7ff ffbf 	bl	10000400 <panic>
10000482:	bf00      	nop
10000484:	200007bb 	.word	0x200007bb

10000488 <next_striped_spin_lock_num>:
10000488:	4a04      	ldr	r2, [pc, #16]	@ (1000049c <next_striped_spin_lock_num+0x14>)
1000048a:	7810      	ldrb	r0, [r2, #0]
1000048c:	1c43      	adds	r3, r0, #1
1000048e:	b2db      	uxtb	r3, r3
10000490:	2b18      	cmp	r3, #24
10000492:	bf28      	it	cs
10000494:	2310      	movcs	r3, #16
10000496:	7013      	strb	r3, [r2, #0]
10000498:	4770      	bx	lr
1000049a:	bf00      	nop
1000049c:	200005a8 	.word	0x200005a8

100004a0 <spinlock_set_extexclall>:
100004a0:	f04f 22e0 	mov.w	r2, #3758153728	@ 0xe000e000
100004a4:	6893      	ldr	r3, [r2, #8]
100004a6:	f043 5300 	orr.w	r3, r3, #536870912	@ 0x20000000
100004aa:	6093      	str	r3, [r2, #8]
100004ac:	4770      	bx	lr
100004ae:	bf00      	nop

100004b0 <spin_locks_reset>:
100004b0:	2100      	movs	r1, #0
100004b2:	4b04      	ldr	r3, [pc, #16]	@ (100004c4 <spin_locks_reset+0x14>)
100004b4:	f103 0220 	add.w	r2, r3, #32
100004b8:	e8c3 1f8f 	stlb	r1, [r3]
100004bc:	3301      	adds	r3, #1
100004be:	4293      	cmp	r3, r2
100004c0:	d1fa      	bne.n	100004b8 <spin_locks_reset+0x8>
100004c2:	4770      	bx	lr
100004c4:	200007b0 	.word	0x200007b0

100004c8 <runtime_init_per_core_irq_priorities>:
100004c8:	f04f 23e0 	mov.w	r3, #3758153728	@ 0xe000e000
100004cc:	f04f 3280 	mov.w	r2, #2155905152	@ 0x80808080
100004d0:	f8c3 2400 	str.w	r2, [r3, #1024]	@ 0x400
100004d4:	f8c3 2404 	str.w	r2, [r3, #1028]	@ 0x404
100004d8:	f8c3 2408 	str.w	r2, [r3, #1032]	@ 0x408
100004dc:	f8c3 240c 	str.w	r2, [r3, #1036]	@ 0x40c
100004e0:	f8c3 2410 	str.w	r2, [r3, #1040]	@ 0x410
100004e4:	f8c3 2414 	str.w	r2, [r3, #1044]	@ 0x414
100004e8:	f8c3 2418 	str.w	r2, [r3, #1048]	@ 0x418
100004ec:	f8c3 241c 	str.w	r2, [r3, #1052]	@ 0x41c
100004f0:	f8c3 2420 	str.w	r2, [r3, #1056]	@ 0x420
100004f4:	f8c3 2424 	str.w	r2, [r3, #1060]	@ 0x424
100004f8:	f8c3 2428 	str.w	r2, [r3, #1064]	@ 0x428
100004fc:	f8c3 242c 	str.w	r2, [r3, #1068]	@ 0x42c
10000500:	f8c3 2430 	str.w	r2, [r3, #1072]	@ 0x430
10000504:	b662      	cpsie	i
10000506:	4770      	bx	lr

10000508 <irq_set_enabled>:
10000508:	2301      	movs	r3, #1
1000050a:	f000 021f 	and.w	r2, r0, #31
1000050e:	4093      	lsls	r3, r2
10000510:	0940      	lsrs	r0, r0, #5
10000512:	b141      	cbz	r1, 10000526 <irq_set_enabled+0x1e>
10000514:	0080      	lsls	r0, r0, #2
10000516:	f100 4060 	add.w	r0, r0, #3758096384	@ 0xe0000000
1000051a:	f500 4061 	add.w	r0, r0, #57600	@ 0xe100
1000051e:	f8c0 3180 	str.w	r3, [r0, #384]	@ 0x180
10000522:	6003      	str	r3, [r0, #0]
10000524:	4770      	bx	lr
10000526:	4a02      	ldr	r2, [pc, #8]	@ (10000530 <irq_set_enabled+0x28>)
10000528:	3020      	adds	r0, #32
1000052a:	f842 3020 	str.w	r3, [r2, r0, lsl #2]
1000052e:	4770      	bx	lr
10000530:	e000e100 	.word	0xe000e100

10000534 <irq_set_exclusive_handler>:
10000534:	b5f8      	push	{r3, r4, r5, r6, r7, lr}
10000536:	460d      	mov	r5, r1
10000538:	f3ef 8710 	mrs	r7, PRIMASK
1000053c:	b672      	cpsid	i
1000053e:	4e12      	ldr	r6, [pc, #72]	@ (10000588 <irq_set_exclusive_handler+0x54>)
10000540:	e8d6 2fcf 	ldaexb	r2, [r6]
10000544:	2301      	movs	r3, #1
10000546:	2a00      	cmp	r2, #0
10000548:	d1fa      	bne.n	10000540 <irq_set_exclusive_handler+0xc>
1000054a:	e8c6 3f42 	strexb	r2, r3, [r6]
1000054e:	2a00      	cmp	r2, #0
10000550:	d1f6      	bne.n	10000540 <irq_set_exclusive_handler+0xc>
10000552:	f3bf 8f5f 	dmb	sy
10000556:	4b0d      	ldr	r3, [pc, #52]	@ (1000058c <irq_set_exclusive_handler+0x58>)
10000558:	f100 0410 	add.w	r4, r0, #16
1000055c:	689b      	ldr	r3, [r3, #8]
1000055e:	4a0c      	ldr	r2, [pc, #48]	@ (10000590 <irq_set_exclusive_handler+0x5c>)
10000560:	f853 3024 	ldr.w	r3, [r3, r4, lsl #2]
10000564:	4293      	cmp	r3, r2
10000566:	d003      	beq.n	10000570 <irq_set_exclusive_handler+0x3c>
10000568:	4299      	cmp	r1, r3
1000056a:	d001      	beq.n	10000570 <irq_set_exclusive_handler+0x3c>
1000056c:	f000 ff0c 	bl	10001388 <hard_assertion_failure>
10000570:	4b06      	ldr	r3, [pc, #24]	@ (1000058c <irq_set_exclusive_handler+0x58>)
10000572:	689b      	ldr	r3, [r3, #8]
10000574:	f843 5024 	str.w	r5, [r3, r4, lsl #2]
10000578:	f3bf 8f5f 	dmb	sy
1000057c:	2300      	movs	r3, #0
1000057e:	e8c6 3f8f 	stlb	r3, [r6]
10000582:	f387 8810 	msr	PRIMASK, r7
10000586:	bdf8      	pop	{r3, r4, r5, r6, r7, pc}
10000588:	200007b9 	.word	0x200007b9
1000058c:	e000ed00 	.word	0xe000ed00
10000590:	10000111 	.word	0x10000111

10000594 <irq_remove_handler>:
10000594:	e92d 4ff0 	stmdb	sp!, {r4, r5, r6, r7, r8, r9, sl, fp, lr}
10000598:	b083      	sub	sp, #12
1000059a:	f3ef 8a10 	mrs	sl, PRIMASK
1000059e:	b672      	cpsid	i
100005a0:	4e71      	ldr	r6, [pc, #452]	@ (10000768 <irq_remove_handler+0x1d4>)
100005a2:	e8d6 2fcf 	ldaexb	r2, [r6]
100005a6:	2301      	movs	r3, #1
100005a8:	2a00      	cmp	r2, #0
100005aa:	d1fa      	bne.n	100005a2 <irq_remove_handler+0xe>
100005ac:	e8c6 3f42 	strexb	r2, r3, [r6]
100005b0:	2a00      	cmp	r2, #0
100005b2:	d1f6      	bne.n	100005a2 <irq_remove_handler+0xe>
100005b4:	f3bf 8f5f 	dmb	sy
100005b8:	4b6c      	ldr	r3, [pc, #432]	@ (1000076c <irq_remove_handler+0x1d8>)
100005ba:	f100 0810 	add.w	r8, r0, #16
100005be:	689b      	ldr	r3, [r3, #8]
100005c0:	4a6b      	ldr	r2, [pc, #428]	@ (10000770 <irq_remove_handler+0x1dc>)
100005c2:	f853 5028 	ldr.w	r5, [r3, r8, lsl #2]
100005c6:	4295      	cmp	r5, r2
100005c8:	d045      	beq.n	10000656 <irq_remove_handler+0xc2>
100005ca:	428d      	cmp	r5, r1
100005cc:	460c      	mov	r4, r1
100005ce:	d050      	beq.n	10000672 <irq_remove_handler+0xde>
100005d0:	4f68      	ldr	r7, [pc, #416]	@ (10000774 <irq_remove_handler+0x1e0>)
100005d2:	1beb      	subs	r3, r5, r7
100005d4:	2b2f      	cmp	r3, #47	@ 0x2f
100005d6:	d83e      	bhi.n	10000656 <irq_remove_handler+0xc2>
100005d8:	2101      	movs	r1, #1
100005da:	ea4f 1950 	mov.w	r9, r0, lsr #5
100005de:	ea4f 0989 	mov.w	r9, r9, lsl #2
100005e2:	f109 4960 	add.w	r9, r9, #3758096384	@ 0xe0000000
100005e6:	f509 4961 	add.w	r9, r9, #57600	@ 0xe100
100005ea:	f000 031f 	and.w	r3, r0, #31
100005ee:	fa01 f003 	lsl.w	r0, r1, r3
100005f2:	f8d9 3000 	ldr.w	r3, [r9]
100005f6:	f8c9 0080 	str.w	r0, [r9, #128]	@ 0x80
100005fa:	ea00 0b03 	and.w	fp, r0, r3
100005fe:	f3bf 8f5f 	dmb	sy
10000602:	f3ef 8105 	mrs	r1, IPSR
10000606:	b2c9      	uxtb	r1, r1
10000608:	2900      	cmp	r1, #0
1000060a:	d034      	beq.n	10000676 <irq_remove_handler+0xe2>
1000060c:	4588      	cmp	r8, r1
1000060e:	d005      	beq.n	1000061c <irq_remove_handler+0x88>
10000610:	e9cd 1000 	strd	r1, r0, [sp]
10000614:	f000 feb8 	bl	10001388 <hard_assertion_failure>
10000618:	e9dd 1000 	ldrd	r1, r0, [sp]
1000061c:	f025 0e01 	bic.w	lr, r5, #1
10000620:	f8de c008 	ldr.w	ip, [lr, #8]
10000624:	4564      	cmp	r4, ip
10000626:	d105      	bne.n	10000634 <irq_remove_handler+0xa0>
10000628:	e089      	b.n	1000073e <irq_remove_handler+0x1aa>
1000062a:	f8d3 c008 	ldr.w	ip, [r3, #8]
1000062e:	4564      	cmp	r4, ip
10000630:	d031      	beq.n	10000696 <irq_remove_handler+0x102>
10000632:	469e      	mov	lr, r3
10000634:	f99e 2006 	ldrsb.w	r2, [lr, #6]
10000638:	eb02 0342 	add.w	r3, r2, r2, lsl #1
1000063c:	2a00      	cmp	r2, #0
1000063e:	eb07 0383 	add.w	r3, r7, r3, lsl #2
10000642:	daf2      	bge.n	1000062a <irq_remove_handler+0x96>
10000644:	4564      	cmp	r4, ip
10000646:	d061      	beq.n	1000070c <irq_remove_handler+0x178>
10000648:	f1bb 0f00 	cmp.w	fp, #0
1000064c:	d020      	beq.n	10000690 <irq_remove_handler+0xfc>
1000064e:	f8c9 0180 	str.w	r0, [r9, #384]	@ 0x180
10000652:	f8c9 0000 	str.w	r0, [r9]
10000656:	4b45      	ldr	r3, [pc, #276]	@ (1000076c <irq_remove_handler+0x1d8>)
10000658:	689b      	ldr	r3, [r3, #8]
1000065a:	f843 5028 	str.w	r5, [r3, r8, lsl #2]
1000065e:	f3bf 8f5f 	dmb	sy
10000662:	2300      	movs	r3, #0
10000664:	e8c6 3f8f 	stlb	r3, [r6]
10000668:	f38a 8810 	msr	PRIMASK, sl
1000066c:	b003      	add	sp, #12
1000066e:	e8bd 8ff0 	ldmia.w	sp!, {r4, r5, r6, r7, r8, r9, sl, fp, pc}
10000672:	4615      	mov	r5, r2
10000674:	e7ef      	b.n	10000656 <irq_remove_handler+0xc2>
10000676:	f025 0e01 	bic.w	lr, r5, #1
1000067a:	f8de c008 	ldr.w	ip, [lr, #8]
1000067e:	4564      	cmp	r4, ip
10000680:	d1d8      	bne.n	10000634 <irq_remove_handler+0xa0>
10000682:	f99e 4006 	ldrsb.w	r4, [lr, #6]
10000686:	4673      	mov	r3, lr
10000688:	2c00      	cmp	r4, #0
1000068a:	da08      	bge.n	1000069e <irq_remove_handler+0x10a>
1000068c:	4615      	mov	r5, r2
1000068e:	e046      	b.n	1000071e <irq_remove_handler+0x18a>
10000690:	f8c9 0080 	str.w	r0, [r9, #128]	@ 0x80
10000694:	e7df      	b.n	10000656 <irq_remove_handler+0xc2>
10000696:	f993 4006 	ldrsb.w	r4, [r3, #6]
1000069a:	2c00      	cmp	r4, #0
1000069c:	db37      	blt.n	1000070e <irq_remove_handler+0x17a>
1000069e:	eb04 0c44 	add.w	ip, r4, r4, lsl #1
100006a2:	eb07 0c8c 	add.w	ip, r7, ip, lsl #2
100006a6:	f89c 1007 	ldrb.w	r1, [ip, #7]
100006aa:	f8dc 2008 	ldr.w	r2, [ip, #8]
100006ae:	71d9      	strb	r1, [r3, #7]
100006b0:	609a      	str	r2, [r3, #8]
100006b2:	f99c 2006 	ldrsb.w	r2, [ip, #6]
100006b6:	0061      	lsls	r1, r4, #1
100006b8:	2a00      	cmp	r2, #0
100006ba:	719a      	strb	r2, [r3, #6]
100006bc:	db3d      	blt.n	1000073a <irq_remove_handler+0x1a6>
100006be:	f8bc e004 	ldrh.w	lr, [ip, #4]
100006c2:	ea5f 5e4e 	movs.w	lr, lr, lsl #21
100006c6:	d505      	bpl.n	100006d4 <irq_remove_handler+0x140>
100006c8:	f50e 1eff 	add.w	lr, lr, #2088960	@ 0x1fe000
100006cc:	f50e 5eff 	add.w	lr, lr, #8160	@ 0x1fe0
100006d0:	f10e 0e1f 	add.w	lr, lr, #31
100006d4:	f06f 0c07 	mvn.w	ip, #7
100006d8:	190a      	adds	r2, r1, r4
100006da:	ea4f 5e6e 	mov.w	lr, lr, asr #21
100006de:	0092      	lsls	r2, r2, #2
100006e0:	eb02 024e 	add.w	r2, r2, lr, lsl #1
100006e4:	3208      	adds	r2, #8
100006e6:	443a      	add	r2, r7
100006e8:	ebac 0c03 	sub.w	ip, ip, r3
100006ec:	4462      	add	r2, ip
100006ee:	f3c2 024a 	ubfx	r2, r2, #1, #11
100006f2:	ea6f 42c2 	mvn.w	r2, r2, lsl #19
100006f6:	ea6f 42d2 	mvn.w	r2, r2, lsr #19
100006fa:	809a      	strh	r2, [r3, #4]
100006fc:	4b1e      	ldr	r3, [pc, #120]	@ (10000778 <irq_remove_handler+0x1e4>)
100006fe:	4421      	add	r1, r4
10000700:	781a      	ldrb	r2, [r3, #0]
10000702:	eb07 0181 	add.w	r1, r7, r1, lsl #2
10000706:	701c      	strb	r4, [r3, #0]
10000708:	718a      	strb	r2, [r1, #6]
1000070a:	e79d      	b.n	10000648 <irq_remove_handler+0xb4>
1000070c:	4673      	mov	r3, lr
1000070e:	b9d9      	cbnz	r1, 10000748 <irq_remove_handler+0x1b4>
10000710:	22ff      	movs	r2, #255	@ 0xff
10000712:	f88e 2006 	strb.w	r2, [lr, #6]
10000716:	f64b 5201 	movw	r2, #48385	@ 0xbd01
1000071a:	f8ae 2004 	strh.w	r2, [lr, #4]
1000071e:	4c16      	ldr	r4, [pc, #88]	@ (10000778 <irq_remove_handler+0x1e4>)
10000720:	f64a 22aa 	movw	r2, #43690	@ 0xaaaa
10000724:	f894 c000 	ldrb.w	ip, [r4]
10000728:	4619      	mov	r1, r3
1000072a:	1bc9      	subs	r1, r1, r7
1000072c:	4149      	adcs	r1, r1
1000072e:	434a      	muls	r2, r1
10000730:	0d12      	lsrs	r2, r2, #20
10000732:	f883 c006 	strb.w	ip, [r3, #6]
10000736:	7022      	strb	r2, [r4, #0]
10000738:	e786      	b.n	10000648 <irq_remove_handler+0xb4>
1000073a:	4a10      	ldr	r2, [pc, #64]	@ (1000077c <irq_remove_handler+0x1e8>)
1000073c:	e7dd      	b.n	100006fa <irq_remove_handler+0x166>
1000073e:	f99e 4006 	ldrsb.w	r4, [lr, #6]
10000742:	4673      	mov	r3, lr
10000744:	2c00      	cmp	r4, #0
10000746:	daaa      	bge.n	1000069e <irq_remove_handler+0x10a>
10000748:	4a0d      	ldr	r2, [pc, #52]	@ (10000780 <irq_remove_handler+0x1ec>)
1000074a:	4c0e      	ldr	r4, [pc, #56]	@ (10000784 <irq_remove_handler+0x1f0>)
1000074c:	1ad2      	subs	r2, r2, r3
1000074e:	3a08      	subs	r2, #8
10000750:	f3c2 310a 	ubfx	r1, r2, #12, #11
10000754:	ea6f 5101 	mvn.w	r1, r1, lsl #20
10000758:	ea6f 5111 	mvn.w	r1, r1, lsr #20
1000075c:	ea44 0252 	orr.w	r2, r4, r2, lsr #1
10000760:	80da      	strh	r2, [r3, #6]
10000762:	8099      	strh	r1, [r3, #4]
10000764:	e770      	b.n	10000648 <irq_remove_handler+0xb4>
10000766:	bf00      	nop
10000768:	200007b9 	.word	0x200007b9
1000076c:	e000ed00 	.word	0xe000ed00
10000770:	10000111 	.word	0x10000111
10000774:	200005ac 	.word	0x200005ac
10000778:	20000860 	.word	0x20000860
1000077c:	ffffbd01 	.word	0xffffbd01
10000780:	200005e6 	.word	0x200005e6
10000784:	fffff800 	.word	0xfffff800

10000788 <irq_add_tail_to_free_list>:
10000788:	b5f0      	push	{r4, r5, r6, r7, lr}
1000078a:	f3ef 8505 	mrs	r5, IPSR
1000078e:	b2ed      	uxtb	r5, r5
10000790:	f3ef 8c10 	mrs	ip, PRIMASK
10000794:	b672      	cpsid	i
10000796:	4926      	ldr	r1, [pc, #152]	@ (10000830 <irq_add_tail_to_free_list+0xa8>)
10000798:	e8d1 2fcf 	ldaexb	r2, [r1]
1000079c:	2301      	movs	r3, #1
1000079e:	2a00      	cmp	r2, #0
100007a0:	d1fa      	bne.n	10000798 <irq_add_tail_to_free_list+0x10>
100007a2:	e8c1 3f42 	strexb	r2, r3, [r1]
100007a6:	2a00      	cmp	r2, #0
100007a8:	d1f6      	bne.n	10000798 <irq_add_tail_to_free_list+0x10>
100007aa:	f3bf 8f5f 	dmb	sy
100007ae:	4e21      	ldr	r6, [pc, #132]	@ (10000834 <irq_add_tail_to_free_list+0xac>)
100007b0:	f040 0e01 	orr.w	lr, r0, #1
100007b4:	68b4      	ldr	r4, [r6, #8]
100007b6:	f64a 23aa 	movw	r3, #43690	@ 0xaaaa
100007ba:	f854 7025 	ldr.w	r7, [r4, r5, lsl #2]
100007be:	4a1e      	ldr	r2, [pc, #120]	@ (10000838 <irq_add_tail_to_free_list+0xb0>)
100007c0:	4604      	mov	r4, r0
100007c2:	1aa4      	subs	r4, r4, r2
100007c4:	4164      	adcs	r4, r4
100007c6:	4363      	muls	r3, r4
100007c8:	0d1b      	lsrs	r3, r3, #20
100007ca:	4577      	cmp	r7, lr
100007cc:	b25b      	sxtb	r3, r3
100007ce:	d01b      	beq.n	10000808 <irq_add_tail_to_free_list+0x80>
100007d0:	f992 4006 	ldrsb.w	r4, [r2, #6]
100007d4:	429c      	cmp	r4, r3
100007d6:	d01c      	beq.n	10000812 <irq_add_tail_to_free_list+0x8a>
100007d8:	f992 4012 	ldrsb.w	r4, [r2, #18]
100007dc:	429c      	cmp	r4, r3
100007de:	d023      	beq.n	10000828 <irq_add_tail_to_free_list+0xa0>
100007e0:	f992 401e 	ldrsb.w	r4, [r2, #30]
100007e4:	429c      	cmp	r4, r3
100007e6:	d021      	beq.n	1000082c <irq_add_tail_to_free_list+0xa4>
100007e8:	f992 402a 	ldrsb.w	r4, [r2, #42]	@ 0x2a
100007ec:	429c      	cmp	r4, r3
100007ee:	bf08      	it	eq
100007f0:	2403      	moveq	r4, #3
100007f2:	d00f      	beq.n	10000814 <irq_add_tail_to_free_list+0x8c>
100007f4:	4a11      	ldr	r2, [pc, #68]	@ (1000083c <irq_add_tail_to_free_list+0xb4>)
100007f6:	2400      	movs	r4, #0
100007f8:	7815      	ldrb	r5, [r2, #0]
100007fa:	7013      	strb	r3, [r2, #0]
100007fc:	7185      	strb	r5, [r0, #6]
100007fe:	e8c1 4f8f 	stlb	r4, [r1]
10000802:	f38c 8810 	msr	PRIMASK, ip
10000806:	bdf0      	pop	{r4, r5, r6, r7, pc}
10000808:	68b2      	ldr	r2, [r6, #8]
1000080a:	4c0d      	ldr	r4, [pc, #52]	@ (10000840 <irq_add_tail_to_free_list+0xb8>)
1000080c:	f842 4025 	str.w	r4, [r2, r5, lsl #2]
10000810:	e7f0      	b.n	100007f4 <irq_add_tail_to_free_list+0x6c>
10000812:	2400      	movs	r4, #0
10000814:	eb04 0444 	add.w	r4, r4, r4, lsl #1
10000818:	eb02 0284 	add.w	r2, r2, r4, lsl #2
1000081c:	24ff      	movs	r4, #255	@ 0xff
1000081e:	7194      	strb	r4, [r2, #6]
10000820:	f64b 5401 	movw	r4, #48385	@ 0xbd01
10000824:	8094      	strh	r4, [r2, #4]
10000826:	e7e5      	b.n	100007f4 <irq_add_tail_to_free_list+0x6c>
10000828:	2401      	movs	r4, #1
1000082a:	e7f3      	b.n	10000814 <irq_add_tail_to_free_list+0x8c>
1000082c:	2402      	movs	r4, #2
1000082e:	e7f1      	b.n	10000814 <irq_add_tail_to_free_list+0x8c>
10000830:	200007b9 	.word	0x200007b9
10000834:	e000ed00 	.word	0xe000ed00
10000838:	200005ac 	.word	0x200005ac
1000083c:	20000860 	.word	0x20000860
10000840:	10000111 	.word	0x10000111

10000844 <lock_init>:
10000844:	4b01      	ldr	r3, [pc, #4]	@ (1000084c <lock_init+0x8>)
10000846:	440b      	add	r3, r1
10000848:	6003      	str	r3, [r0, #0]
1000084a:	4770      	bx	lr
1000084c:	200007b0 	.word	0x200007b0

10000850 <runtime_init_mutex>:
10000850:	b570      	push	{r4, r5, r6, lr}
10000852:	4c10      	ldr	r4, [pc, #64]	@ (10000894 <runtime_init_mutex+0x44>)
10000854:	4d10      	ldr	r5, [pc, #64]	@ (10000898 <runtime_init_mutex+0x48>)
10000856:	42ac      	cmp	r4, r5
10000858:	d20e      	bcs.n	10000878 <runtime_init_mutex+0x28>
1000085a:	26ff      	movs	r6, #255	@ 0xff
1000085c:	6823      	ldr	r3, [r4, #0]
1000085e:	b163      	cbz	r3, 1000087a <runtime_init_mutex+0x2a>
10000860:	f7ff fe12 	bl	10000488 <next_striped_spin_lock_num>
10000864:	4601      	mov	r1, r0
10000866:	4620      	mov	r0, r4
10000868:	f7ff ffec 	bl	10000844 <lock_init>
1000086c:	80a6      	strh	r6, [r4, #4]
1000086e:	f3bf 8f5f 	dmb	sy
10000872:	3408      	adds	r4, #8
10000874:	42ac      	cmp	r4, r5
10000876:	d3f1      	bcc.n	1000085c <runtime_init_mutex+0xc>
10000878:	bd70      	pop	{r4, r5, r6, pc}
1000087a:	f7ff fe05 	bl	10000488 <next_striped_spin_lock_num>
1000087e:	4601      	mov	r1, r0
10000880:	4620      	mov	r0, r4
10000882:	f7ff ffdf 	bl	10000844 <lock_init>
10000886:	7126      	strb	r6, [r4, #4]
10000888:	f3bf 8f5f 	dmb	sy
1000088c:	3408      	adds	r4, #8
1000088e:	42ac      	cmp	r4, r5
10000890:	d3e4      	bcc.n	1000085c <runtime_init_mutex+0xc>
10000892:	bd70      	pop	{r4, r5, r6, pc}
10000894:	20000624 	.word	0x20000624
10000898:	2000062c 	.word	0x2000062c

1000089c <sleep_until_callback>:
1000089c:	4b0d      	ldr	r3, [pc, #52]	@ (100008d4 <sleep_until_callback+0x38>)
1000089e:	681a      	ldr	r2, [r3, #0]
100008a0:	f3ef 8110 	mrs	r1, PRIMASK
100008a4:	b672      	cpsid	i
100008a6:	e8d2 cfcf 	ldaexb	ip, [r2]
100008aa:	2001      	movs	r0, #1
100008ac:	f1bc 0f00 	cmp.w	ip, #0
100008b0:	d1f9      	bne.n	100008a6 <sleep_until_callback+0xa>
100008b2:	e8c2 0f4c 	strexb	ip, r0, [r2]
100008b6:	f1bc 0f00 	cmp.w	ip, #0
100008ba:	d1f4      	bne.n	100008a6 <sleep_until_callback+0xa>
100008bc:	f3bf 8f5f 	dmb	sy
100008c0:	2200      	movs	r2, #0
100008c2:	681b      	ldr	r3, [r3, #0]
100008c4:	e8c3 2f8f 	stlb	r2, [r3]
100008c8:	f381 8810 	msr	PRIMASK, r1
100008cc:	bf40      	sev
100008ce:	2000      	movs	r0, #0
100008d0:	2100      	movs	r1, #0
100008d2:	4770      	bx	lr
100008d4:	20000854 	.word	0x20000854

100008d8 <alarm_pool_irq_handler>:
100008d8:	e92d 4ff0 	stmdb	sp!, {r4, r5, r6, r7, r8, r9, sl, fp, lr}
100008dc:	ed2d 8b02 	vpush	{d8}
100008e0:	b085      	sub	sp, #20
100008e2:	f3ef 8305 	mrs	r3, IPSR
100008e6:	b2db      	uxtb	r3, r3
100008e8:	3b10      	subs	r3, #16
100008ea:	089a      	lsrs	r2, r3, #2
100008ec:	bf18      	it	ne
100008ee:	2201      	movne	r2, #1
100008f0:	f04f 0101 	mov.w	r1, #1
100008f4:	f003 0b03 	and.w	fp, r3, #3
100008f8:	bf18      	it	ne
100008fa:	4daf      	ldrne	r5, [pc, #700]	@ (10000bb8 <alarm_pool_irq_handler+0x2e0>)
100008fc:	4baf      	ldr	r3, [pc, #700]	@ (10000bbc <alarm_pool_irq_handler+0x2e4>)
100008fe:	bf08      	it	eq
10000900:	4daf      	ldreq	r5, [pc, #700]	@ (10000bc0 <alarm_pool_irq_handler+0x2e8>)
10000902:	eb0b 0282 	add.w	r2, fp, r2, lsl #2
10000906:	f853 6022 	ldr.w	r6, [r3, r2, lsl #2]
1000090a:	fa01 f20b 	lsl.w	r2, r1, fp
1000090e:	f505 5341 	add.w	r3, r5, #12352	@ 0x3040
10000912:	ed9f 8ba7 	vldr	d8, [pc, #668]	@ 10000bb0 <alarm_pool_irq_handler+0x2d8>
10000916:	9201      	str	r2, [sp, #4]
10000918:	605a      	str	r2, [r3, #4]
1000091a:	e02f      	b.n	1000097c <alarm_pool_irq_handler+0xa4>
1000091c:	88b3      	ldrh	r3, [r6, #4]
1000091e:	041c      	lsls	r4, r3, #16
10000920:	f140 8093 	bpl.w	10000a4a <alarm_pool_irq_handler+0x172>
10000924:	79b3      	ldrb	r3, [r6, #6]
10000926:	2b00      	cmp	r3, #0
10000928:	f040 80dd 	bne.w	10000ae6 <alarm_pool_irq_handler+0x20e>
1000092c:	f9b6 2008 	ldrsh.w	r2, [r6, #8]
10000930:	2a00      	cmp	r2, #0
10000932:	f2c0 811e 	blt.w	10000b72 <alarm_pool_irq_handler+0x29a>
10000936:	6973      	ldr	r3, [r6, #20]
10000938:	eb02 0242 	add.w	r2, r2, r2, lsl #1
1000093c:	eb03 03c2 	add.w	r3, r3, r2, lsl #3
10000940:	e9d3 4702 	ldrd	r4, r7, [r3, #8]
10000944:	f1b7 3fff 	cmp.w	r7, #4294967295
10000948:	bf08      	it	eq
1000094a:	f1b4 3fff 	cmpeq.w	r4, #4294967295
1000094e:	d00e      	beq.n	1000096e <alarm_pool_irq_handler+0x96>
10000950:	eb05 018b 	add.w	r1, r5, fp, lsl #2
10000954:	6aab      	ldr	r3, [r5, #40]	@ 0x28
10000956:	690a      	ldr	r2, [r1, #16]
10000958:	1ad2      	subs	r2, r2, r3
1000095a:	1ae3      	subs	r3, r4, r3
1000095c:	4293      	cmp	r3, r2
1000095e:	d305      	bcc.n	1000096c <alarm_pool_irq_handler+0x94>
10000960:	2301      	movs	r3, #1
10000962:	6a2a      	ldr	r2, [r5, #32]
10000964:	fa03 f30b 	lsl.w	r3, r3, fp
10000968:	4213      	tst	r3, r2
1000096a:	d100      	bne.n	1000096e <alarm_pool_irq_handler+0x96>
1000096c:	610c      	str	r4, [r1, #16]
1000096e:	4628      	mov	r0, r5
10000970:	f000 fb38 	bl	10000fe4 <timer_time_us_64>
10000974:	42a0      	cmp	r0, r4
10000976:	41b9      	sbcs	r1, r7
10000978:	f2c0 80fb 	blt.w	10000b72 <alarm_pool_irq_handler+0x29a>
1000097c:	f9b6 3008 	ldrsh.w	r3, [r6, #8]
10000980:	9a01      	ldr	r2, [sp, #4]
10000982:	2b00      	cmp	r3, #0
10000984:	9300      	str	r3, [sp, #0]
10000986:	63ea      	str	r2, [r5, #60]	@ 0x3c
10000988:	dbc8      	blt.n	1000091c <alarm_pool_irq_handler+0x44>
1000098a:	f8d6 8014 	ldr.w	r8, [r6, #20]
1000098e:	eb03 0943 	add.w	r9, r3, r3, lsl #1
10000992:	4628      	mov	r0, r5
10000994:	eb08 07c9 	add.w	r7, r8, r9, lsl #3
10000998:	e9d7 4a02 	ldrd	r4, sl, [r7, #8]
1000099c:	f000 fb22 	bl	10000fe4 <timer_time_us_64>
100009a0:	42a0      	cmp	r0, r4
100009a2:	eb71 010a 	sbcs.w	r1, r1, sl
100009a6:	dbb9      	blt.n	1000091c <alarm_pool_irq_handler+0x44>
100009a8:	f1ba 0f00 	cmp.w	sl, #0
100009ac:	f2c0 80c3 	blt.w	10000b36 <alarm_pool_irq_handler+0x25e>
100009b0:	e9d7 3104 	ldrd	r3, r1, [r7, #16]
100009b4:	4a83      	ldr	r2, [pc, #524]	@ (10000bc4 <alarm_pool_irq_handler+0x2ec>)
100009b6:	4293      	cmp	r3, r2
100009b8:	f000 80ed 	beq.w	10000b96 <alarm_pool_irq_handler+0x2be>
100009bc:	887a      	ldrh	r2, [r7, #2]
100009be:	f9b6 0008 	ldrsh.w	r0, [r6, #8]
100009c2:	b292      	uxth	r2, r2
100009c4:	ea42 4000 	orr.w	r0, r2, r0, lsl #16
100009c8:	4798      	blx	r3
100009ca:	4602      	mov	r2, r0
100009cc:	460b      	mov	r3, r1
100009ce:	ea52 0103 	orrs.w	r1, r2, r3
100009d2:	f000 80b0 	beq.w	10000b36 <alarm_pool_irq_handler+0x25e>
100009d6:	2b00      	cmp	r3, #0
100009d8:	f280 80d1 	bge.w	10000b7e <alarm_pool_irq_handler+0x2a6>
100009dc:	ebb4 0e02 	subs.w	lr, r4, r2
100009e0:	eb6a 0a03 	sbc.w	sl, sl, r3
100009e4:	f938 3039 	ldrsh.w	r3, [r8, r9, lsl #3]
100009e8:	e9c7 ea02 	strd	lr, sl, [r7, #8]
100009ec:	2b00      	cmp	r3, #0
100009ee:	db95      	blt.n	1000091c <alarm_pool_irq_handler+0x44>
100009f0:	6971      	ldr	r1, [r6, #20]
100009f2:	eb03 0243 	add.w	r2, r3, r3, lsl #1
100009f6:	eb01 02c2 	add.w	r2, r1, r2, lsl #3
100009fa:	e9d2 7002 	ldrd	r7, r0, [r2, #8]
100009fe:	45be      	cmp	lr, r7
10000a00:	eb7a 0c00 	sbcs.w	ip, sl, r0
10000a04:	ea4f 0243 	mov.w	r2, r3, lsl #1
10000a08:	db88      	blt.n	1000091c <alarm_pool_irq_handler+0x44>
10000a0a:	46b4      	mov	ip, r6
10000a0c:	f82c 3f08 	strh.w	r3, [ip, #8]!
10000a10:	e006      	b.n	10000a20 <alarm_pool_irq_handler+0x148>
10000a12:	eb03 0043 	add.w	r0, r3, r3, lsl #1
10000a16:	eb01 00c0 	add.w	r0, r1, r0, lsl #3
10000a1a:	005a      	lsls	r2, r3, #1
10000a1c:	e9d0 7002 	ldrd	r7, r0, [r0, #8]
10000a20:	45be      	cmp	lr, r7
10000a22:	441a      	add	r2, r3
10000a24:	eb7a 0000 	sbcs.w	r0, sl, r0
10000a28:	eb01 04c2 	add.w	r4, r1, r2, lsl #3
10000a2c:	db04      	blt.n	10000a38 <alarm_pool_irq_handler+0x160>
10000a2e:	f931 3032 	ldrsh.w	r3, [r1, r2, lsl #3]
10000a32:	46a4      	mov	ip, r4
10000a34:	2b00      	cmp	r3, #0
10000a36:	daec      	bge.n	10000a12 <alarm_pool_irq_handler+0x13a>
10000a38:	f828 3039 	strh.w	r3, [r8, r9, lsl #3]
10000a3c:	9b00      	ldr	r3, [sp, #0]
10000a3e:	f8ac 3000 	strh.w	r3, [ip]
10000a42:	88b3      	ldrh	r3, [r6, #4]
10000a44:	041c      	lsls	r4, r3, #16
10000a46:	f53f af6d 	bmi.w	10000924 <alarm_pool_irq_handler+0x4c>
10000a4a:	6933      	ldr	r3, [r6, #16]
10000a4c:	f3ef 8210 	mrs	r2, PRIMASK
10000a50:	b672      	cpsid	i
10000a52:	e8d3 0fcf 	ldaexb	r0, [r3]
10000a56:	2101      	movs	r1, #1
10000a58:	2800      	cmp	r0, #0
10000a5a:	d1fa      	bne.n	10000a52 <alarm_pool_irq_handler+0x17a>
10000a5c:	e8c3 1f40 	strexb	r0, r1, [r3]
10000a60:	2800      	cmp	r0, #0
10000a62:	d1f6      	bne.n	10000a52 <alarm_pool_irq_handler+0x17a>
10000a64:	f3bf 8f5f 	dmb	sy
10000a68:	f64f 74ff 	movw	r4, #65535	@ 0xffff
10000a6c:	88b0      	ldrh	r0, [r6, #4]
10000a6e:	2300      	movs	r3, #0
10000a70:	6931      	ldr	r1, [r6, #16]
10000a72:	b200      	sxth	r0, r0
10000a74:	80b4      	strh	r4, [r6, #4]
10000a76:	e8c1 3f8f 	stlb	r3, [r1]
10000a7a:	f382 8810 	msr	PRIMASK, r2
10000a7e:	4298      	cmp	r0, r3
10000a80:	f6ff af50 	blt.w	10000924 <alarm_pool_irq_handler+0x4c>
10000a84:	4607      	mov	r7, r0
10000a86:	46a9      	mov	r9, r5
10000a88:	6974      	ldr	r4, [r6, #20]
10000a8a:	f106 0808 	add.w	r8, r6, #8
10000a8e:	eb07 0e47 	add.w	lr, r7, r7, lsl #1
10000a92:	eb04 03ce 	add.w	r3, r4, lr, lsl #3
10000a96:	e9d3 5002 	ldrd	r5, r0, [r3, #8]
10000a9a:	f9b6 3008 	ldrsh.w	r3, [r6, #8]
10000a9e:	46c4      	mov	ip, r8
10000aa0:	2b00      	cmp	r3, #0
10000aa2:	db13      	blt.n	10000acc <alarm_pool_irq_handler+0x1f4>
10000aa4:	46b2      	mov	sl, r6
10000aa6:	9700      	str	r7, [sp, #0]
10000aa8:	e004      	b.n	10000ab4 <alarm_pool_irq_handler+0x1dc>
10000aaa:	f934 3036 	ldrsh.w	r3, [r4, r6, lsl #3]
10000aae:	4694      	mov	ip, r2
10000ab0:	2b00      	cmp	r3, #0
10000ab2:	db09      	blt.n	10000ac8 <alarm_pool_irq_handler+0x1f0>
10000ab4:	eb03 0643 	add.w	r6, r3, r3, lsl #1
10000ab8:	eb04 02c6 	add.w	r2, r4, r6, lsl #3
10000abc:	e9d2 7102 	ldrd	r7, r1, [r2, #8]
10000ac0:	42bd      	cmp	r5, r7
10000ac2:	eb70 0101 	sbcs.w	r1, r0, r1
10000ac6:	daf0      	bge.n	10000aaa <alarm_pool_irq_handler+0x1d2>
10000ac8:	4656      	mov	r6, sl
10000aca:	9f00      	ldr	r7, [sp, #0]
10000acc:	f8ac 7000 	strh.w	r7, [ip]
10000ad0:	f934 703e 	ldrsh.w	r7, [r4, lr, lsl #3]
10000ad4:	f824 303e 	strh.w	r3, [r4, lr, lsl #3]
10000ad8:	2f00      	cmp	r7, #0
10000ada:	dad8      	bge.n	10000a8e <alarm_pool_irq_handler+0x1b6>
10000adc:	79b3      	ldrb	r3, [r6, #6]
10000ade:	464d      	mov	r5, r9
10000ae0:	2b00      	cmp	r3, #0
10000ae2:	f43f af23 	beq.w	1000092c <alarm_pool_irq_handler+0x54>
10000ae6:	2300      	movs	r3, #0
10000ae8:	71b3      	strb	r3, [r6, #6]
10000aea:	f9b6 3008 	ldrsh.w	r3, [r6, #8]
10000aee:	f106 0808 	add.w	r8, r6, #8
10000af2:	1c58      	adds	r0, r3, #1
10000af4:	d03d      	beq.n	10000b72 <alarm_pool_irq_handler+0x29a>
10000af6:	461a      	mov	r2, r3
10000af8:	6977      	ldr	r7, [r6, #20]
10000afa:	e003      	b.n	10000b04 <alarm_pool_irq_handler+0x22c>
10000afc:	4680      	mov	r8, r0
10000afe:	1c59      	adds	r1, r3, #1
10000b00:	f43f af16 	beq.w	10000930 <alarm_pool_irq_handler+0x58>
10000b04:	eb03 0143 	add.w	r1, r3, r3, lsl #1
10000b08:	eb07 00c1 	add.w	r0, r7, r1, lsl #3
10000b0c:	f8b0 c002 	ldrh.w	ip, [r0, #2]
10000b10:	461c      	mov	r4, r3
10000b12:	f41c 4f00 	tst.w	ip, #32768	@ 0x8000
10000b16:	469e      	mov	lr, r3
10000b18:	f937 3031 	ldrsh.w	r3, [r7, r1, lsl #3]
10000b1c:	d0ee      	beq.n	10000afc <alarm_pool_irq_handler+0x224>
10000b1e:	4294      	cmp	r4, r2
10000b20:	ed80 8b02 	vstr	d8, [r0, #8]
10000b24:	d005      	beq.n	10000b32 <alarm_pool_irq_handler+0x25a>
10000b26:	f8a8 3000 	strh.w	r3, [r8]
10000b2a:	8932      	ldrh	r2, [r6, #8]
10000b2c:	f827 2031 	strh.w	r2, [r7, r1, lsl #3]
10000b30:	8134      	strh	r4, [r6, #8]
10000b32:	4672      	mov	r2, lr
10000b34:	e7e3      	b.n	10000afe <alarm_pool_irq_handler+0x226>
10000b36:	f838 3039 	ldrh.w	r3, [r8, r9, lsl #3]
10000b3a:	8133      	strh	r3, [r6, #8]
10000b3c:	6933      	ldr	r3, [r6, #16]
10000b3e:	f3ef 8210 	mrs	r2, PRIMASK
10000b42:	b672      	cpsid	i
10000b44:	e8d3 0fcf 	ldaexb	r0, [r3]
10000b48:	2101      	movs	r1, #1
10000b4a:	2800      	cmp	r0, #0
10000b4c:	d1fa      	bne.n	10000b44 <alarm_pool_irq_handler+0x26c>
10000b4e:	e8c3 1f40 	strexb	r0, r1, [r3]
10000b52:	2800      	cmp	r0, #0
10000b54:	d1f6      	bne.n	10000b44 <alarm_pool_irq_handler+0x26c>
10000b56:	f3bf 8f5f 	dmb	sy
10000b5a:	8873      	ldrh	r3, [r6, #2]
10000b5c:	6931      	ldr	r1, [r6, #16]
10000b5e:	f828 3039 	strh.w	r3, [r8, r9, lsl #3]
10000b62:	9b00      	ldr	r3, [sp, #0]
10000b64:	8073      	strh	r3, [r6, #2]
10000b66:	2300      	movs	r3, #0
10000b68:	e8c1 3f8f 	stlb	r3, [r1]
10000b6c:	f382 8810 	msr	PRIMASK, r2
10000b70:	e6d4      	b.n	1000091c <alarm_pool_irq_handler+0x44>
10000b72:	bf40      	sev
10000b74:	b005      	add	sp, #20
10000b76:	ecbd 8b02 	vpop	{d8}
10000b7a:	e8bd 8ff0 	ldmia.w	sp!, {r4, r5, r6, r7, r8, r9, sl, fp, pc}
10000b7e:	4628      	mov	r0, r5
10000b80:	e9cd 2302 	strd	r2, r3, [sp, #8]
10000b84:	f000 fa2e 	bl	10000fe4 <timer_time_us_64>
10000b88:	9a02      	ldr	r2, [sp, #8]
10000b8a:	9b03      	ldr	r3, [sp, #12]
10000b8c:	eb10 0e02 	adds.w	lr, r0, r2
10000b90:	eb43 0a01 	adc.w	sl, r3, r1
10000b94:	e726      	b.n	100009e4 <alarm_pool_irq_handler+0x10c>
10000b96:	4608      	mov	r0, r1
10000b98:	690b      	ldr	r3, [r1, #16]
10000b9a:	9102      	str	r1, [sp, #8]
10000b9c:	4798      	blx	r3
10000b9e:	2800      	cmp	r0, #0
10000ba0:	d0c9      	beq.n	10000b36 <alarm_pool_irq_handler+0x25e>
10000ba2:	9902      	ldr	r1, [sp, #8]
10000ba4:	e9d1 2300 	ldrd	r2, r3, [r1]
10000ba8:	e711      	b.n	100009ce <alarm_pool_irq_handler+0xf6>
10000baa:	bf00      	nop
10000bac:	f3af 8000 	nop.w
10000bb0:	ffffffff 	.word	0xffffffff
10000bb4:	ffffffff 	.word	0xffffffff
10000bb8:	400b8000 	.word	0x400b8000
10000bbc:	20000828 	.word	0x20000828
10000bc0:	400b0000 	.word	0x400b0000
10000bc4:	100008d9 	.word	0x100008d9

10000bc8 <runtime_init_default_alarm_pool>:
10000bc8:	e92d 4ff8 	stmdb	sp!, {r3, r4, r5, r6, r7, r8, r9, sl, fp, lr}
10000bcc:	4c36      	ldr	r4, [pc, #216]	@ (10000ca8 <runtime_init_default_alarm_pool+0xe0>)
10000bce:	6925      	ldr	r5, [r4, #16]
10000bd0:	b12d      	cbz	r5, 10000bde <runtime_init_default_alarm_pool+0x16>
10000bd2:	e8bd 4ff8 	ldmia.w	sp!, {r3, r4, r5, r6, r7, r8, r9, sl, fp, lr}
10000bd6:	210a      	movs	r1, #10
10000bd8:	4834      	ldr	r0, [pc, #208]	@ (10000cac <runtime_init_default_alarm_pool+0xe4>)
10000bda:	f7ff be33 	b.w	10000844 <lock_init>
10000bde:	f8df 80e4 	ldr.w	r8, [pc, #228]	@ 10000cc4 <runtime_init_default_alarm_pool+0xfc>
10000be2:	2103      	movs	r1, #3
10000be4:	4640      	mov	r0, r8
10000be6:	f000 f9eb 	bl	10000fc0 <timer_hardware_alarm_claim>
10000bea:	2603      	movs	r6, #3
10000bec:	f8c4 800c 	str.w	r8, [r4, #12]
10000bf0:	f7ff fc4a 	bl	10000488 <next_striped_spin_lock_num>
10000bf4:	f04f 4c50 	mov.w	ip, #3489660928	@ 0xd0000000
10000bf8:	4b2d      	ldr	r3, [pc, #180]	@ (10000cb0 <runtime_init_default_alarm_pool+0xe8>)
10000bfa:	7026      	strb	r6, [r4, #0]
10000bfc:	4403      	add	r3, r0
10000bfe:	6123      	str	r3, [r4, #16]
10000c00:	f8dc 3000 	ldr.w	r3, [ip]
10000c04:	210f      	movs	r1, #15
10000c06:	7063      	strb	r3, [r4, #1]
10000c08:	6963      	ldr	r3, [r4, #20]
10000c0a:	8061      	strh	r1, [r4, #2]
10000c0c:	831d      	strh	r5, [r3, #24]
10000c0e:	f04f 0504 	mov.w	r5, #4
10000c12:	f8a3 5078 	strh.w	r5, [r3, #120]	@ 0x78
10000c16:	f04f 0505 	mov.w	r5, #5
10000c1a:	f8a3 5090 	strh.w	r5, [r3, #144]	@ 0x90
10000c1e:	f04f 0506 	mov.w	r5, #6
10000c22:	f8a3 50a8 	strh.w	r5, [r3, #168]	@ 0xa8
10000c26:	f04f 0507 	mov.w	r5, #7
10000c2a:	210e      	movs	r1, #14
10000c2c:	f64f 72ff 	movw	r2, #65535	@ 0xffff
10000c30:	2708      	movs	r7, #8
10000c32:	f04f 0e0a 	mov.w	lr, #10
10000c36:	f8a3 50c0 	strh.w	r5, [r3, #192]	@ 0xc0
10000c3a:	f04f 0901 	mov.w	r9, #1
10000c3e:	f04f 0c0c 	mov.w	ip, #12
10000c42:	f04f 0b02 	mov.w	fp, #2
10000c46:	f04f 0a09 	mov.w	sl, #9
10000c4a:	200d      	movs	r0, #13
10000c4c:	f04f 050b 	mov.w	r5, #11
10000c50:	f8a3 1168 	strh.w	r1, [r3, #360]	@ 0x168
10000c54:	4917      	ldr	r1, [pc, #92]	@ (10000cb4 <runtime_init_default_alarm_pool+0xec>)
10000c56:	80a2      	strh	r2, [r4, #4]
10000c58:	f8a3 e108 	strh.w	lr, [r3, #264]	@ 0x108
10000c5c:	60a1      	str	r1, [r4, #8]
10000c5e:	f8a3 b048 	strh.w	fp, [r3, #72]	@ 0x48
10000c62:	f8a3 a0f0 	strh.w	sl, [r3, #240]	@ 0xf0
10000c66:	f8a3 5120 	strh.w	r5, [r3, #288]	@ 0x120
10000c6a:	f8a3 c138 	strh.w	ip, [r3, #312]	@ 0x138
10000c6e:	f8a3 0150 	strh.w	r0, [r3, #336]	@ 0x150
10000c72:	f8a3 9030 	strh.w	r9, [r3, #48]	@ 0x30
10000c76:	f8a3 6060 	strh.w	r6, [r3, #96]	@ 0x60
10000c7a:	f8a3 70d8 	strh.w	r7, [r3, #216]	@ 0xd8
10000c7e:	801a      	strh	r2, [r3, #0]
10000c80:	4b0d      	ldr	r3, [pc, #52]	@ (10000cb8 <runtime_init_default_alarm_pool+0xf0>)
10000c82:	4630      	mov	r0, r6
10000c84:	f8c8 7020 	str.w	r7, [r8, #32]
10000c88:	490c      	ldr	r1, [pc, #48]	@ (10000cbc <runtime_init_default_alarm_pool+0xf4>)
10000c8a:	60dc      	str	r4, [r3, #12]
10000c8c:	f7ff fc52 	bl	10000534 <irq_set_exclusive_handler>
10000c90:	4649      	mov	r1, r9
10000c92:	4630      	mov	r0, r6
10000c94:	f7ff fc38 	bl	10000508 <irq_set_enabled>
10000c98:	4b09      	ldr	r3, [pc, #36]	@ (10000cc0 <runtime_init_default_alarm_pool+0xf8>)
10000c9a:	210a      	movs	r1, #10
10000c9c:	641f      	str	r7, [r3, #64]	@ 0x40
10000c9e:	4803      	ldr	r0, [pc, #12]	@ (10000cac <runtime_init_default_alarm_pool+0xe4>)
10000ca0:	e8bd 4ff8 	ldmia.w	sp!, {r3, r4, r5, r6, r7, r8, r9, sl, fp, lr}
10000ca4:	f7ff bdce 	b.w	10000844 <lock_init>
10000ca8:	200005f4 	.word	0x200005f4
10000cac:	20000854 	.word	0x20000854
10000cb0:	200007b0 	.word	0x200007b0
10000cb4:	0010ffff 	.word	0x0010ffff
10000cb8:	20000828 	.word	0x20000828
10000cbc:	100008d9 	.word	0x100008d9
10000cc0:	400b2000 	.word	0x400b2000
10000cc4:	400b0000 	.word	0x400b0000

10000cc8 <alarm_pool_add_alarm_at_force_in_context>:
10000cc8:	4601      	mov	r1, r0
10000cca:	b5f0      	push	{r4, r5, r6, r7, lr}
10000ccc:	6900      	ldr	r0, [r0, #16]
10000cce:	f3ef 8710 	mrs	r7, PRIMASK
10000cd2:	b672      	cpsid	i
10000cd4:	e8d0 5fcf 	ldaexb	r5, [r0]
10000cd8:	2401      	movs	r4, #1
10000cda:	2d00      	cmp	r5, #0
10000cdc:	d1fa      	bne.n	10000cd4 <alarm_pool_add_alarm_at_force_in_context+0xc>
10000cde:	e8c0 4f45 	strexb	r5, r4, [r0]
10000ce2:	2d00      	cmp	r5, #0
10000ce4:	d1f6      	bne.n	10000cd4 <alarm_pool_add_alarm_at_force_in_context+0xc>
10000ce6:	f3bf 8f5f 	dmb	sy
10000cea:	f9b1 e002 	ldrsh.w	lr, [r1, #2]
10000cee:	694c      	ldr	r4, [r1, #20]
10000cf0:	eb0e 0c4e 	add.w	ip, lr, lr, lsl #1
10000cf4:	f1be 0f00 	cmp.w	lr, #0
10000cf8:	ea4f 05cc 	mov.w	r5, ip, lsl #3
10000cfc:	6908      	ldr	r0, [r1, #16]
10000cfe:	eb04 0ccc 	add.w	ip, r4, ip, lsl #3
10000d02:	db3c      	blt.n	10000d7e <alarm_pool_add_alarm_at_force_in_context+0xb6>
10000d04:	5b66      	ldrh	r6, [r4, r5]
10000d06:	804e      	strh	r6, [r1, #2]
10000d08:	2600      	movs	r6, #0
10000d0a:	e8c0 6f8f 	stlb	r6, [r0]
10000d0e:	f387 8810 	msr	PRIMASK, r7
10000d12:	f8bc 0002 	ldrh.w	r0, [ip, #2]
10000d16:	e9cc 2302 	strd	r2, r3, [ip, #8]
10000d1a:	3001      	adds	r0, #1
10000d1c:	f3c0 000e 	ubfx	r0, r0, #0, #15
10000d20:	2801      	cmp	r0, #1
10000d22:	bf38      	it	cc
10000d24:	2001      	movcc	r0, #1
10000d26:	9b05      	ldr	r3, [sp, #20]
10000d28:	f8ac 0002 	strh.w	r0, [ip, #2]
10000d2c:	f8cc 3010 	str.w	r3, [ip, #16]
10000d30:	9b06      	ldr	r3, [sp, #24]
10000d32:	ea40 400e 	orr.w	r0, r0, lr, lsl #16
10000d36:	f8cc 3014 	str.w	r3, [ip, #20]
10000d3a:	690b      	ldr	r3, [r1, #16]
10000d3c:	f3ef 8210 	mrs	r2, PRIMASK
10000d40:	b672      	cpsid	i
10000d42:	e8d3 cfcf 	ldaexb	ip, [r3]
10000d46:	2701      	movs	r7, #1
10000d48:	f1bc 0f00 	cmp.w	ip, #0
10000d4c:	d1f9      	bne.n	10000d42 <alarm_pool_add_alarm_at_force_in_context+0x7a>
10000d4e:	e8c3 7f4c 	strexb	ip, r7, [r3]
10000d52:	f1bc 0f00 	cmp.w	ip, #0
10000d56:	d1f4      	bne.n	10000d42 <alarm_pool_add_alarm_at_force_in_context+0x7a>
10000d58:	f3bf 8f5f 	dmb	sy
10000d5c:	888b      	ldrh	r3, [r1, #4]
10000d5e:	5363      	strh	r3, [r4, r5]
10000d60:	f8a1 e004 	strh.w	lr, [r1, #4]
10000d64:	690b      	ldr	r3, [r1, #16]
10000d66:	e8c3 6f8f 	stlb	r6, [r3]
10000d6a:	f382 8810 	msr	PRIMASK, r2
10000d6e:	2201      	movs	r2, #1
10000d70:	68cb      	ldr	r3, [r1, #12]
10000d72:	7809      	ldrb	r1, [r1, #0]
10000d74:	f503 5301 	add.w	r3, r3, #8256	@ 0x2040
10000d78:	408a      	lsls	r2, r1
10000d7a:	605a      	str	r2, [r3, #4]
10000d7c:	bdf0      	pop	{r4, r5, r6, r7, pc}
10000d7e:	2300      	movs	r3, #0
10000d80:	e8c0 3f8f 	stlb	r3, [r0]
10000d84:	f387 8810 	msr	PRIMASK, r7
10000d88:	f04f 30ff 	mov.w	r0, #4294967295
10000d8c:	bdf0      	pop	{r4, r5, r6, r7, pc}
10000d8e:	bf00      	nop

10000d90 <alarm_pool_cancel_alarm>:
10000d90:	4603      	mov	r3, r0
10000d92:	8940      	ldrh	r0, [r0, #10]
10000d94:	ebb0 4f21 	cmp.w	r0, r1, asr #16
10000d98:	dd37      	ble.n	10000e0a <alarm_pool_cancel_alarm+0x7a>
10000d9a:	6958      	ldr	r0, [r3, #20]
10000d9c:	140a      	asrs	r2, r1, #16
10000d9e:	eb02 0242 	add.w	r2, r2, r2, lsl #1
10000da2:	b510      	push	{r4, lr}
10000da4:	eb00 00c2 	add.w	r0, r0, r2, lsl #3
10000da8:	691c      	ldr	r4, [r3, #16]
10000daa:	f3ef 8c10 	mrs	ip, PRIMASK
10000dae:	b672      	cpsid	i
10000db0:	e8d4 efcf 	ldaexb	lr, [r4]
10000db4:	2201      	movs	r2, #1
10000db6:	f1be 0f00 	cmp.w	lr, #0
10000dba:	d1f9      	bne.n	10000db0 <alarm_pool_cancel_alarm+0x20>
10000dbc:	e8c4 2f4e 	strexb	lr, r2, [r4]
10000dc0:	f1be 0f00 	cmp.w	lr, #0
10000dc4:	d1f4      	bne.n	10000db0 <alarm_pool_cancel_alarm+0x20>
10000dc6:	f3bf 8f5f 	dmb	sy
10000dca:	8842      	ldrh	r2, [r0, #2]
10000dcc:	b289      	uxth	r1, r1
10000dce:	b292      	uxth	r2, r2
10000dd0:	428a      	cmp	r2, r1
10000dd2:	d007      	beq.n	10000de4 <alarm_pool_cancel_alarm+0x54>
10000dd4:	2200      	movs	r2, #0
10000dd6:	691b      	ldr	r3, [r3, #16]
10000dd8:	e8c3 2f8f 	stlb	r2, [r3]
10000ddc:	f38c 8810 	msr	PRIMASK, ip
10000de0:	2000      	movs	r0, #0
10000de2:	bd10      	pop	{r4, pc}
10000de4:	f442 4200 	orr.w	r2, r2, #32768	@ 0x8000
10000de8:	8042      	strh	r2, [r0, #2]
10000dea:	2101      	movs	r1, #1
10000dec:	2200      	movs	r2, #0
10000dee:	6918      	ldr	r0, [r3, #16]
10000df0:	7199      	strb	r1, [r3, #6]
10000df2:	e8c0 2f8f 	stlb	r2, [r0]
10000df6:	f38c 8810 	msr	PRIMASK, ip
10000dfa:	781c      	ldrb	r4, [r3, #0]
10000dfc:	68da      	ldr	r2, [r3, #12]
10000dfe:	4608      	mov	r0, r1
10000e00:	f502 5301 	add.w	r3, r2, #8256	@ 0x2040
10000e04:	40a1      	lsls	r1, r4
10000e06:	6059      	str	r1, [r3, #4]
10000e08:	bd10      	pop	{r4, pc}
10000e0a:	2000      	movs	r0, #0
10000e0c:	4770      	bx	lr
10000e0e:	bf00      	nop

10000e10 <sleep_ms>:
10000e10:	e92d 41f0 	stmdb	sp!, {r4, r5, r6, r7, r8, lr}
10000e14:	b082      	sub	sp, #8
10000e16:	4606      	mov	r6, r0
10000e18:	f000 f8ec 	bl	10000ff4 <time_us_64>
10000e1c:	f44f 737a 	mov.w	r3, #1000	@ 0x3e8
10000e20:	4604      	mov	r4, r0
10000e22:	f04f 30ff 	mov.w	r0, #4294967295
10000e26:	f06f 4200 	mvn.w	r2, #2147483648	@ 0x80000000
10000e2a:	fbe6 4103 	umlal	r4, r1, r6, r3
10000e2e:	42a0      	cmp	r0, r4
10000e30:	eb72 0301 	sbcs.w	r3, r2, r1
10000e34:	bf3a      	itte	cc
10000e36:	4604      	movcc	r4, r0
10000e38:	4615      	movcc	r5, r2
10000e3a:	460d      	movcs	r5, r1
10000e3c:	1fa6      	subs	r6, r4, #6
10000e3e:	f145 37ff 	adc.w	r7, r5, #4294967295
10000e42:	42b4      	cmp	r4, r6
10000e44:	eb75 0307 	sbcs.w	r3, r5, r7
10000e48:	bf3c      	itt	cc
10000e4a:	2600      	movcc	r6, #0
10000e4c:	4637      	movcc	r7, r6
10000e4e:	f000 f8d1 	bl	10000ff4 <time_us_64>
10000e52:	1a30      	subs	r0, r6, r0
10000e54:	eb67 0101 	sbc.w	r1, r7, r1
10000e58:	2801      	cmp	r0, #1
10000e5a:	f171 0100 	sbcs.w	r1, r1, #0
10000e5e:	da06      	bge.n	10000e6e <sleep_ms+0x5e>
10000e60:	4620      	mov	r0, r4
10000e62:	4629      	mov	r1, r5
10000e64:	b002      	add	sp, #8
10000e66:	e8bd 41f0 	ldmia.w	sp!, {r4, r5, r6, r7, r8, lr}
10000e6a:	f000 b8fb 	b.w	10001064 <busy_wait_until>
10000e6e:	f000 f8c1 	bl	10000ff4 <time_us_64>
10000e72:	4286      	cmp	r6, r0
10000e74:	eb67 0101 	sbc.w	r1, r7, r1
10000e78:	2900      	cmp	r1, #0
10000e7a:	db0a      	blt.n	10000e92 <sleep_ms+0x82>
10000e7c:	2100      	movs	r1, #0
10000e7e:	4b17      	ldr	r3, [pc, #92]	@ (10000edc <sleep_ms+0xcc>)
10000e80:	4632      	mov	r2, r6
10000e82:	9300      	str	r3, [sp, #0]
10000e84:	4816      	ldr	r0, [pc, #88]	@ (10000ee0 <sleep_ms+0xd0>)
10000e86:	463b      	mov	r3, r7
10000e88:	9101      	str	r1, [sp, #4]
10000e8a:	f7ff ff1d 	bl	10000cc8 <alarm_pool_add_alarm_at_force_in_context>
10000e8e:	3001      	adds	r0, #1
10000e90:	d0e6      	beq.n	10000e60 <sleep_ms+0x50>
10000e92:	f04f 0c00 	mov.w	ip, #0
10000e96:	4a13      	ldr	r2, [pc, #76]	@ (10000ee4 <sleep_ms+0xd4>)
10000e98:	4913      	ldr	r1, [pc, #76]	@ (10000ee8 <sleep_ms+0xd8>)
10000e9a:	6a53      	ldr	r3, [r2, #36]	@ 0x24
10000e9c:	429f      	cmp	r7, r3
10000e9e:	d804      	bhi.n	10000eaa <sleep_ms+0x9a>
10000ea0:	6a90      	ldr	r0, [r2, #40]	@ 0x28
10000ea2:	42b0      	cmp	r0, r6
10000ea4:	d2dc      	bcs.n	10000e60 <sleep_ms+0x50>
10000ea6:	429f      	cmp	r7, r3
10000ea8:	d1da      	bne.n	10000e60 <sleep_ms+0x50>
10000eaa:	680b      	ldr	r3, [r1, #0]
10000eac:	f3ef 8010 	mrs	r0, PRIMASK
10000eb0:	b672      	cpsid	i
10000eb2:	e8d3 8fcf 	ldaexb	r8, [r3]
10000eb6:	f05f 0e01 	movs.w	lr, #1
10000eba:	f1b8 0f00 	cmp.w	r8, #0
10000ebe:	d1f8      	bne.n	10000eb2 <sleep_ms+0xa2>
10000ec0:	e8c3 ef48 	strexb	r8, lr, [r3]
10000ec4:	f1b8 0f00 	cmp.w	r8, #0
10000ec8:	d1f3      	bne.n	10000eb2 <sleep_ms+0xa2>
10000eca:	f3bf 8f5f 	dmb	sy
10000ece:	680b      	ldr	r3, [r1, #0]
10000ed0:	e8c3 cf8f 	stlb	ip, [r3]
10000ed4:	f380 8810 	msr	PRIMASK, r0
10000ed8:	bf20      	wfe
10000eda:	e7de      	b.n	10000e9a <sleep_ms+0x8a>
10000edc:	1000089d 	.word	0x1000089d
10000ee0:	200005f4 	.word	0x200005f4
10000ee4:	400b0000 	.word	0x400b0000
10000ee8:	20000854 	.word	0x20000854

10000eec <best_effort_wfe_or_timeout>:
10000eec:	e92d 43f0 	stmdb	sp!, {r4, r5, r6, r7, r8, r9, lr}
10000ef0:	4606      	mov	r6, r0
10000ef2:	460d      	mov	r5, r1
10000ef4:	b083      	sub	sp, #12
10000ef6:	f3ef 8405 	mrs	r4, IPSR
10000efa:	b2e4      	uxtb	r4, r4
10000efc:	b13c      	cbz	r4, 10000f0e <best_effort_wfe_or_timeout+0x22>
10000efe:	4b2d      	ldr	r3, [pc, #180]	@ (10000fb4 <best_effort_wfe_or_timeout+0xc8>)
10000f00:	6a5a      	ldr	r2, [r3, #36]	@ 0x24
10000f02:	42aa      	cmp	r2, r5
10000f04:	d21c      	bcs.n	10000f40 <best_effort_wfe_or_timeout+0x54>
10000f06:	2000      	movs	r0, #0
10000f08:	b003      	add	sp, #12
10000f0a:	e8bd 83f0 	ldmia.w	sp!, {r4, r5, r6, r7, r8, r9, pc}
10000f0e:	4f2a      	ldr	r7, [pc, #168]	@ (10000fb8 <best_effort_wfe_or_timeout+0xcc>)
10000f10:	f8d7 900c 	ldr.w	r9, [r7, #12]
10000f14:	f897 8000 	ldrb.w	r8, [r7]
10000f18:	4648      	mov	r0, r9
10000f1a:	f000 f863 	bl	10000fe4 <timer_time_us_64>
10000f1e:	f108 0804 	add.w	r8, r8, #4
10000f22:	f859 3028 	ldr.w	r3, [r9, r8, lsl #2]
10000f26:	1a1b      	subs	r3, r3, r0
10000f28:	1a30      	subs	r0, r6, r0
10000f2a:	eb65 0101 	sbc.w	r1, r5, r1
10000f2e:	4298      	cmp	r0, r3
10000f30:	f171 0100 	sbcs.w	r1, r1, #0
10000f34:	db10      	blt.n	10000f58 <best_effort_wfe_or_timeout+0x6c>
10000f36:	bf20      	wfe
10000f38:	4b1e      	ldr	r3, [pc, #120]	@ (10000fb4 <best_effort_wfe_or_timeout+0xc8>)
10000f3a:	6a5a      	ldr	r2, [r3, #36]	@ 0x24
10000f3c:	42aa      	cmp	r2, r5
10000f3e:	d3e2      	bcc.n	10000f06 <best_effort_wfe_or_timeout+0x1a>
10000f40:	bf14      	ite	ne
10000f42:	2401      	movne	r4, #1
10000f44:	2400      	moveq	r4, #0
10000f46:	6a9b      	ldr	r3, [r3, #40]	@ 0x28
10000f48:	42b3      	cmp	r3, r6
10000f4a:	bf34      	ite	cc
10000f4c:	4620      	movcc	r0, r4
10000f4e:	f044 0001 	orrcs.w	r0, r4, #1
10000f52:	b003      	add	sp, #12
10000f54:	e8bd 83f0 	ldmia.w	sp!, {r4, r5, r6, r7, r8, r9, pc}
10000f58:	f000 f84c 	bl	10000ff4 <time_us_64>
10000f5c:	4286      	cmp	r6, r0
10000f5e:	eb65 0101 	sbc.w	r1, r5, r1
10000f62:	2900      	cmp	r1, #0
10000f64:	db14      	blt.n	10000f90 <best_effort_wfe_or_timeout+0xa4>
10000f66:	4b15      	ldr	r3, [pc, #84]	@ (10000fbc <best_effort_wfe_or_timeout+0xd0>)
10000f68:	4638      	mov	r0, r7
10000f6a:	e9cd 3400 	strd	r3, r4, [sp]
10000f6e:	4632      	mov	r2, r6
10000f70:	462b      	mov	r3, r5
10000f72:	f7ff fea9 	bl	10000cc8 <alarm_pool_add_alarm_at_force_in_context>
10000f76:	1e01      	subs	r1, r0, #0
10000f78:	dd0a      	ble.n	10000f90 <best_effort_wfe_or_timeout+0xa4>
10000f7a:	4b0e      	ldr	r3, [pc, #56]	@ (10000fb4 <best_effort_wfe_or_timeout+0xc8>)
10000f7c:	6a5a      	ldr	r2, [r3, #36]	@ 0x24
10000f7e:	42aa      	cmp	r2, r5
10000f80:	d316      	bcc.n	10000fb0 <best_effort_wfe_or_timeout+0xc4>
10000f82:	6a9b      	ldr	r3, [r3, #40]	@ 0x28
10000f84:	42b3      	cmp	r3, r6
10000f86:	d311      	bcc.n	10000fac <best_effort_wfe_or_timeout+0xc0>
10000f88:	480b      	ldr	r0, [pc, #44]	@ (10000fb8 <best_effort_wfe_or_timeout+0xcc>)
10000f8a:	f7ff ff01 	bl	10000d90 <alarm_pool_cancel_alarm>
10000f8e:	e7b6      	b.n	10000efe <best_effort_wfe_or_timeout+0x12>
10000f90:	4b08      	ldr	r3, [pc, #32]	@ (10000fb4 <best_effort_wfe_or_timeout+0xc8>)
10000f92:	6a5c      	ldr	r4, [r3, #36]	@ 0x24
10000f94:	42ac      	cmp	r4, r5
10000f96:	d3b6      	bcc.n	10000f06 <best_effort_wfe_or_timeout+0x1a>
10000f98:	1b64      	subs	r4, r4, r5
10000f9a:	bf18      	it	ne
10000f9c:	2401      	movne	r4, #1
10000f9e:	6a9b      	ldr	r3, [r3, #40]	@ 0x28
10000fa0:	42b3      	cmp	r3, r6
10000fa2:	bf34      	ite	cc
10000fa4:	4620      	movcc	r0, r4
10000fa6:	f044 0001 	orrcs.w	r0, r4, #1
10000faa:	e7ad      	b.n	10000f08 <best_effort_wfe_or_timeout+0x1c>
10000fac:	42aa      	cmp	r2, r5
10000fae:	d1eb      	bne.n	10000f88 <best_effort_wfe_or_timeout+0x9c>
10000fb0:	bf20      	wfe
10000fb2:	e7e9      	b.n	10000f88 <best_effort_wfe_or_timeout+0x9c>
10000fb4:	400b0000 	.word	0x400b0000
10000fb8:	200005f4 	.word	0x200005f4
10000fbc:	1000089d 	.word	0x1000089d

10000fc0 <timer_hardware_alarm_claim>:
10000fc0:	b410      	push	{r4}
10000fc2:	4b05      	ldr	r3, [pc, #20]	@ (10000fd8 <timer_hardware_alarm_claim+0x18>)
10000fc4:	4c05      	ldr	r4, [pc, #20]	@ (10000fdc <timer_hardware_alarm_claim+0x1c>)
10000fc6:	4a06      	ldr	r2, [pc, #24]	@ (10000fe0 <timer_hardware_alarm_claim+0x20>)
10000fc8:	42a0      	cmp	r0, r4
10000fca:	bf14      	ite	ne
10000fcc:	4618      	movne	r0, r3
10000fce:	1c58      	addeq	r0, r3, #1
10000fd0:	f85d 4b04 	ldr.w	r4, [sp], #4
10000fd4:	f7ff ba2c 	b.w	10000430 <hw_claim_or_assert>
10000fd8:	200007d8 	.word	0x200007d8
10000fdc:	400b8000 	.word	0x400b8000
10000fe0:	1000375c 	.word	0x1000375c

10000fe4 <timer_time_us_64>:
10000fe4:	4603      	mov	r3, r0
10000fe6:	6a41      	ldr	r1, [r0, #36]	@ 0x24
10000fe8:	460a      	mov	r2, r1
10000fea:	6a98      	ldr	r0, [r3, #40]	@ 0x28
10000fec:	6a59      	ldr	r1, [r3, #36]	@ 0x24
10000fee:	428a      	cmp	r2, r1
10000ff0:	d1fa      	bne.n	10000fe8 <timer_time_us_64+0x4>
10000ff2:	4770      	bx	lr

10000ff4 <time_us_64>:
10000ff4:	4b03      	ldr	r3, [pc, #12]	@ (10001004 <time_us_64+0x10>)
10000ff6:	6a59      	ldr	r1, [r3, #36]	@ 0x24
10000ff8:	460a      	mov	r2, r1
10000ffa:	6a98      	ldr	r0, [r3, #40]	@ 0x28
10000ffc:	6a59      	ldr	r1, [r3, #36]	@ 0x24
10000ffe:	4291      	cmp	r1, r2
10001000:	d1fa      	bne.n	10000ff8 <time_us_64+0x4>
10001002:	4770      	bx	lr
10001004:	400b0000 	.word	0x400b0000

10001008 <busy_wait_us>:
10001008:	b430      	push	{r4, r5}
1000100a:	4a15      	ldr	r2, [pc, #84]	@ (10001060 <busy_wait_us+0x58>)
1000100c:	6a53      	ldr	r3, [r2, #36]	@ 0x24
1000100e:	469c      	mov	ip, r3
10001010:	6a94      	ldr	r4, [r2, #40]	@ 0x28
10001012:	6a53      	ldr	r3, [r2, #36]	@ 0x24
10001014:	4563      	cmp	r3, ip
10001016:	d1fa      	bne.n	1000100e <busy_wait_us+0x6>
10001018:	1902      	adds	r2, r0, r4
1000101a:	4159      	adcs	r1, r3
1000101c:	f04f 0500 	mov.w	r5, #0
10001020:	bf28      	it	cs
10001022:	2501      	movcs	r5, #1
10001024:	4b0e      	ldr	r3, [pc, #56]	@ (10001060 <busy_wait_us+0x58>)
10001026:	6a5b      	ldr	r3, [r3, #36]	@ 0x24
10001028:	b1b5      	cbz	r5, 10001058 <busy_wait_us+0x50>
1000102a:	1c5a      	adds	r2, r3, #1
1000102c:	bf08      	it	eq
1000102e:	461a      	moveq	r2, r3
10001030:	d008      	beq.n	10001044 <busy_wait_us+0x3c>
10001032:	f04f 31ff 	mov.w	r1, #4294967295
10001036:	460a      	mov	r2, r1
10001038:	4809      	ldr	r0, [pc, #36]	@ (10001060 <busy_wait_us+0x58>)
1000103a:	6a43      	ldr	r3, [r0, #36]	@ 0x24
1000103c:	428b      	cmp	r3, r1
1000103e:	d3fc      	bcc.n	1000103a <busy_wait_us+0x32>
10001040:	428b      	cmp	r3, r1
10001042:	d107      	bne.n	10001054 <busy_wait_us+0x4c>
10001044:	4906      	ldr	r1, [pc, #24]	@ (10001060 <busy_wait_us+0x58>)
10001046:	e002      	b.n	1000104e <busy_wait_us+0x46>
10001048:	6a48      	ldr	r0, [r1, #36]	@ 0x24
1000104a:	4298      	cmp	r0, r3
1000104c:	d102      	bne.n	10001054 <busy_wait_us+0x4c>
1000104e:	6a88      	ldr	r0, [r1, #40]	@ 0x28
10001050:	4290      	cmp	r0, r2
10001052:	d3f9      	bcc.n	10001048 <busy_wait_us+0x40>
10001054:	bc30      	pop	{r4, r5}
10001056:	4770      	bx	lr
10001058:	4299      	cmp	r1, r3
1000105a:	d8ed      	bhi.n	10001038 <busy_wait_us+0x30>
1000105c:	e7f0      	b.n	10001040 <busy_wait_us+0x38>
1000105e:	bf00      	nop
10001060:	400b0000 	.word	0x400b0000

10001064 <busy_wait_until>:
10001064:	4a07      	ldr	r2, [pc, #28]	@ (10001084 <busy_wait_until+0x20>)
10001066:	6a53      	ldr	r3, [r2, #36]	@ 0x24
10001068:	4299      	cmp	r1, r3
1000106a:	d8fc      	bhi.n	10001066 <busy_wait_until+0x2>
1000106c:	4299      	cmp	r1, r3
1000106e:	d107      	bne.n	10001080 <busy_wait_until+0x1c>
10001070:	4b04      	ldr	r3, [pc, #16]	@ (10001084 <busy_wait_until+0x20>)
10001072:	e002      	b.n	1000107a <busy_wait_until+0x16>
10001074:	6a5a      	ldr	r2, [r3, #36]	@ 0x24
10001076:	4291      	cmp	r1, r2
10001078:	d102      	bne.n	10001080 <busy_wait_until+0x1c>
1000107a:	6a9a      	ldr	r2, [r3, #40]	@ 0x28
1000107c:	4290      	cmp	r0, r2
1000107e:	d8f9      	bhi.n	10001074 <busy_wait_until+0x10>
10001080:	4770      	bx	lr
10001082:	bf00      	nop
10001084:	400b0000 	.word	0x400b0000

10001088 <uart_init>:
10001088:	b5f8      	push	{r3, r4, r5, r6, r7, lr}
1000108a:	4605      	mov	r5, r0
1000108c:	2006      	movs	r0, #6
1000108e:	460e      	mov	r6, r1
10001090:	f000 f8e4 	bl	1000125c <clock_get_hz>
10001094:	2800      	cmp	r0, #0
10001096:	d042      	beq.n	1000111e <uart_init+0x96>
10001098:	4a35      	ldr	r2, [pc, #212]	@ (10001170 <uart_init+0xe8>)
1000109a:	4836      	ldr	r0, [pc, #216]	@ (10001174 <uart_init+0xec>)
1000109c:	4295      	cmp	r5, r2
1000109e:	bf14      	ite	ne
100010a0:	f04f 6280 	movne.w	r2, #67108864	@ 0x4000000
100010a4:	f04f 6200 	moveq.w	r2, #134217728	@ 0x8000000
100010a8:	4b33      	ldr	r3, [pc, #204]	@ (10001178 <uart_init+0xf0>)
100010aa:	4934      	ldr	r1, [pc, #208]	@ (1000117c <uart_init+0xf4>)
100010ac:	6002      	str	r2, [r0, #0]
100010ae:	601a      	str	r2, [r3, #0]
100010b0:	688c      	ldr	r4, [r1, #8]
100010b2:	ea32 0404 	bics.w	r4, r2, r4
100010b6:	d1fb      	bne.n	100010b0 <uart_init+0x28>
100010b8:	4b2d      	ldr	r3, [pc, #180]	@ (10001170 <uart_init+0xe8>)
100010ba:	f44f 7180 	mov.w	r1, #256	@ 0x100
100010be:	1aeb      	subs	r3, r5, r3
100010c0:	fab3 f383 	clz	r3, r3
100010c4:	4a2e      	ldr	r2, [pc, #184]	@ (10001180 <uart_init+0xf8>)
100010c6:	095b      	lsrs	r3, r3, #5
100010c8:	2006      	movs	r0, #6
100010ca:	f822 1013 	strh.w	r1, [r2, r3, lsl #1]
100010ce:	f000 f8c5 	bl	1000125c <clock_get_hz>
100010d2:	00c3      	lsls	r3, r0, #3
100010d4:	fbb3 f3f6 	udiv	r3, r3, r6
100010d8:	3301      	adds	r3, #1
100010da:	09da      	lsrs	r2, r3, #7
100010dc:	d120      	bne.n	10001120 <uart_init+0x98>
100010de:	2640      	movs	r6, #64	@ 0x40
100010e0:	2101      	movs	r1, #1
100010e2:	6269      	str	r1, [r5, #36]	@ 0x24
100010e4:	62aa      	str	r2, [r5, #40]	@ 0x28
100010e6:	6b2f      	ldr	r7, [r5, #48]	@ 0x30
100010e8:	07fb      	lsls	r3, r7, #31
100010ea:	d422      	bmi.n	10001132 <uart_init+0xaa>
100010ec:	462b      	mov	r3, r5
100010ee:	2200      	movs	r2, #0
100010f0:	f853 1f2c 	ldr.w	r1, [r3, #44]!
100010f4:	2006      	movs	r0, #6
100010f6:	f503 5480 	add.w	r4, r3, #4096	@ 0x1000
100010fa:	6022      	str	r2, [r4, #0]
100010fc:	632f      	str	r7, [r5, #48]	@ 0x30
100010fe:	f000 f8ad 	bl	1000125c <clock_get_hz>
10001102:	f240 3101 	movw	r1, #769	@ 0x301
10001106:	2203      	movs	r2, #3
10001108:	0080      	lsls	r0, r0, #2
1000110a:	fbb0 f0f6 	udiv	r0, r0, r6
1000110e:	6aeb      	ldr	r3, [r5, #44]	@ 0x2c
10001110:	f083 0370 	eor.w	r3, r3, #112	@ 0x70
10001114:	f003 037e 	and.w	r3, r3, #126	@ 0x7e
10001118:	6023      	str	r3, [r4, #0]
1000111a:	6329      	str	r1, [r5, #48]	@ 0x30
1000111c:	64aa      	str	r2, [r5, #72]	@ 0x48
1000111e:	bdf8      	pop	{r3, r4, r5, r6, r7, pc}
10001120:	f64f 71fe 	movw	r1, #65534	@ 0xfffe
10001124:	428a      	cmp	r2, r1
10001126:	d91b      	bls.n	10001160 <uart_init+0xd8>
10001128:	4622      	mov	r2, r4
1000112a:	f64f 71ff 	movw	r1, #65535	@ 0xffff
1000112e:	4e15      	ldr	r6, [pc, #84]	@ (10001184 <uart_init+0xfc>)
10001130:	e7d7      	b.n	100010e2 <uart_init+0x5a>
10001132:	f240 3201 	movw	r2, #769	@ 0x301
10001136:	f505 5340 	add.w	r3, r5, #12288	@ 0x3000
1000113a:	631a      	str	r2, [r3, #48]	@ 0x30
1000113c:	6a6b      	ldr	r3, [r5, #36]	@ 0x24
1000113e:	6aac      	ldr	r4, [r5, #40]	@ 0x28
10001140:	2006      	movs	r0, #6
10001142:	eb04 1483 	add.w	r4, r4, r3, lsl #6
10001146:	f000 f889 	bl	1000125c <clock_get_hz>
1000114a:	4b0f      	ldr	r3, [pc, #60]	@ (10001188 <uart_init+0x100>)
1000114c:	02a4      	lsls	r4, r4, #10
1000114e:	fba3 2300 	umull	r2, r3, r3, r0
10001152:	0adb      	lsrs	r3, r3, #11
10001154:	2100      	movs	r1, #0
10001156:	fbb4 f0f3 	udiv	r0, r4, r3
1000115a:	f7ff ff55 	bl	10001008 <busy_wait_us>
1000115e:	e7c5      	b.n	100010ec <uart_init+0x64>
10001160:	f3c3 0345 	ubfx	r3, r3, #1, #6
10001164:	4611      	mov	r1, r2
10001166:	eb03 1682 	add.w	r6, r3, r2, lsl #6
1000116a:	461a      	mov	r2, r3
1000116c:	e7b9      	b.n	100010e2 <uart_init+0x5a>
1000116e:	bf00      	nop
10001170:	40078000 	.word	0x40078000
10001174:	40022000 	.word	0x40022000
10001178:	40023000 	.word	0x40023000
1000117c:	40020000 	.word	0x40020000
10001180:	20000858 	.word	0x20000858
10001184:	003fffc0 	.word	0x003fffc0
10001188:	8f2b7b75 	.word	0x8f2b7b75

1000118c <clock_configure_undivided>:
1000118c:	eb00 0c40 	add.w	ip, r0, r0, lsl #1
10001190:	ea4f 0c8c 	mov.w	ip, ip, lsl #2
10001194:	f10c 4c80 	add.w	ip, ip, #1073741824	@ 0x40000000
10001198:	f50c 3c80 	add.w	ip, ip, #65536	@ 0x10000
1000119c:	b5f0      	push	{r4, r5, r6, r7, lr}
1000119e:	4616      	mov	r6, r2
100011a0:	f8dc 2004 	ldr.w	r2, [ip, #4]
100011a4:	1f05      	subs	r5, r0, #4
100011a6:	f5b2 3f80 	cmp.w	r2, #65536	@ 0x10000
100011aa:	bf38      	it	cc
100011ac:	f44f 3280 	movcc.w	r2, #65536	@ 0x10000
100011b0:	b2ed      	uxtb	r5, r5
100011b2:	bf38      	it	cc
100011b4:	f8cc 2004 	strcc.w	r2, [ip, #4]
100011b8:	2d01      	cmp	r5, #1
100011ba:	d92a      	bls.n	10001212 <clock_configure_undivided+0x86>
100011bc:	f44f 6700 	mov.w	r7, #2048	@ 0x800
100011c0:	4c25      	ldr	r4, [pc, #148]	@ (10001258 <clock_configure_undivided+0xcc>)
100011c2:	f50c 5240 	add.w	r2, ip, #12288	@ 0x3000
100011c6:	6017      	str	r7, [r2, #0]
100011c8:	f854 2020 	ldr.w	r2, [r4, r0, lsl #2]
100011cc:	b9b2      	cbnz	r2, 100011fc <clock_configure_undivided+0x70>
100011ce:	f8dc 2000 	ldr.w	r2, [ip]
100011d2:	2d01      	cmp	r5, #1
100011d4:	ea82 1246 	eor.w	r2, r2, r6, lsl #5
100011d8:	f002 02e0 	and.w	r2, r2, #224	@ 0xe0
100011dc:	f50c 5680 	add.w	r6, ip, #4096	@ 0x1000
100011e0:	6032      	str	r2, [r6, #0]
100011e2:	d92a      	bls.n	1000123a <clock_configure_undivided+0xae>
100011e4:	f44f 6100 	mov.w	r1, #2048	@ 0x800
100011e8:	f844 3020 	str.w	r3, [r4, r0, lsl #2]
100011ec:	f44f 3380 	mov.w	r3, #65536	@ 0x10000
100011f0:	f50c 5200 	add.w	r2, ip, #8192	@ 0x2000
100011f4:	6011      	str	r1, [r2, #0]
100011f6:	f8cc 3004 	str.w	r3, [ip, #4]
100011fa:	bdf0      	pop	{r4, r5, r6, r7, pc}
100011fc:	6967      	ldr	r7, [r4, #20]
100011fe:	fbb7 fef2 	udiv	lr, r7, r2
10001202:	f10e 0e01 	add.w	lr, lr, #1
10001206:	eb0e 0e4e 	add.w	lr, lr, lr, lsl #1
1000120a:	f1be 0e03 	subs.w	lr, lr, #3
1000120e:	d2fc      	bcs.n	1000120a <clock_configure_undivided+0x7e>
10001210:	e7dd      	b.n	100011ce <clock_configure_undivided+0x42>
10001212:	2901      	cmp	r1, #1
10001214:	d1d2      	bne.n	100011bc <clock_configure_undivided+0x30>
10001216:	2403      	movs	r4, #3
10001218:	f50c 5240 	add.w	r2, ip, #12288	@ 0x3000
1000121c:	6014      	str	r4, [r2, #0]
1000121e:	f8dc 2008 	ldr.w	r2, [ip, #8]
10001222:	07d2      	lsls	r2, r2, #31
10001224:	d5fb      	bpl.n	1000121e <clock_configure_undivided+0x92>
10001226:	f8dc 2000 	ldr.w	r2, [ip]
1000122a:	4c0b      	ldr	r4, [pc, #44]	@ (10001258 <clock_configure_undivided+0xcc>)
1000122c:	ea82 1246 	eor.w	r2, r2, r6, lsl #5
10001230:	f002 02e0 	and.w	r2, r2, #224	@ 0xe0
10001234:	f50c 5680 	add.w	r6, ip, #4096	@ 0x1000
10001238:	6032      	str	r2, [r6, #0]
1000123a:	2201      	movs	r2, #1
1000123c:	f8dc 5000 	ldr.w	r5, [ip]
10001240:	404d      	eors	r5, r1
10001242:	f005 0503 	and.w	r5, r5, #3
10001246:	6035      	str	r5, [r6, #0]
10001248:	fa02 f101 	lsl.w	r1, r2, r1
1000124c:	f8dc 2008 	ldr.w	r2, [ip, #8]
10001250:	420a      	tst	r2, r1
10001252:	d0fb      	beq.n	1000124c <clock_configure_undivided+0xc0>
10001254:	e7c6      	b.n	100011e4 <clock_configure_undivided+0x58>
10001256:	bf00      	nop
10001258:	200007dc 	.word	0x200007dc

1000125c <clock_get_hz>:
1000125c:	4b01      	ldr	r3, [pc, #4]	@ (10001264 <clock_get_hz+0x8>)
1000125e:	f853 0020 	ldr.w	r0, [r3, r0, lsl #2]
10001262:	4770      	bx	lr
10001264:	200007dc 	.word	0x200007dc

10001268 <pll_init>:
10001268:	b470      	push	{r4, r5, r6}
1000126a:	9d03      	ldr	r5, [sp, #12]
1000126c:	6804      	ldr	r4, [r0, #0]
1000126e:	032d      	lsls	r5, r5, #12
10001270:	ea45 4503 	orr.w	r5, r5, r3, lsl #16
10001274:	4b1b      	ldr	r3, [pc, #108]	@ (100012e4 <pll_init+0x7c>)
10001276:	2c00      	cmp	r4, #0
10001278:	fbb3 f3f1 	udiv	r3, r3, r1
1000127c:	fbb2 f6f3 	udiv	r6, r2, r3
10001280:	db1f      	blt.n	100012c2 <pll_init+0x5a>
10001282:	4a19      	ldr	r2, [pc, #100]	@ (100012e8 <pll_init+0x80>)
10001284:	4b19      	ldr	r3, [pc, #100]	@ (100012ec <pll_init+0x84>)
10001286:	4290      	cmp	r0, r2
10001288:	bf14      	ite	ne
1000128a:	f44f 4280 	movne.w	r2, #16384	@ 0x4000
1000128e:	f44f 4200 	moveq.w	r2, #32768	@ 0x8000
10001292:	4c17      	ldr	r4, [pc, #92]	@ (100012f0 <pll_init+0x88>)
10001294:	601a      	str	r2, [r3, #0]
10001296:	f503 5380 	add.w	r3, r3, #4096	@ 0x1000
1000129a:	601a      	str	r2, [r3, #0]
1000129c:	68a3      	ldr	r3, [r4, #8]
1000129e:	ea32 0303 	bics.w	r3, r2, r3
100012a2:	d1fb      	bne.n	1000129c <pll_init+0x34>
100012a4:	2221      	movs	r2, #33	@ 0x21
100012a6:	f500 5340 	add.w	r3, r0, #12288	@ 0x3000
100012aa:	3304      	adds	r3, #4
100012ac:	6001      	str	r1, [r0, #0]
100012ae:	6086      	str	r6, [r0, #8]
100012b0:	601a      	str	r2, [r3, #0]
100012b2:	6802      	ldr	r2, [r0, #0]
100012b4:	2a00      	cmp	r2, #0
100012b6:	dafc      	bge.n	100012b2 <pll_init+0x4a>
100012b8:	2208      	movs	r2, #8
100012ba:	60c5      	str	r5, [r0, #12]
100012bc:	601a      	str	r2, [r3, #0]
100012be:	bc70      	pop	{r4, r5, r6}
100012c0:	4770      	bx	lr
100012c2:	6803      	ldr	r3, [r0, #0]
100012c4:	f003 033f 	and.w	r3, r3, #63	@ 0x3f
100012c8:	428b      	cmp	r3, r1
100012ca:	d1da      	bne.n	10001282 <pll_init+0x1a>
100012cc:	6883      	ldr	r3, [r0, #8]
100012ce:	f3c3 030b 	ubfx	r3, r3, #0, #12
100012d2:	42b3      	cmp	r3, r6
100012d4:	d1d5      	bne.n	10001282 <pll_init+0x1a>
100012d6:	68c3      	ldr	r3, [r0, #12]
100012d8:	f403 23ee 	and.w	r3, r3, #487424	@ 0x77000
100012dc:	42ab      	cmp	r3, r5
100012de:	d1d0      	bne.n	10001282 <pll_init+0x1a>
100012e0:	e7ed      	b.n	100012be <pll_init+0x56>
100012e2:	bf00      	nop
100012e4:	00b71b00 	.word	0x00b71b00
100012e8:	40058000 	.word	0x40058000
100012ec:	40022000 	.word	0x40022000
100012f0:	40020000 	.word	0x40020000

100012f4 <tick_start>:
100012f4:	2301      	movs	r3, #1
100012f6:	eb00 0040 	add.w	r0, r0, r0, lsl #1
100012fa:	0080      	lsls	r0, r0, #2
100012fc:	f100 4080 	add.w	r0, r0, #1073741824	@ 0x40000000
10001300:	f500 1084 	add.w	r0, r0, #1081344	@ 0x108000
10001304:	6041      	str	r1, [r0, #4]
10001306:	6003      	str	r3, [r0, #0]
10001308:	4770      	bx	lr
1000130a:	bf00      	nop

1000130c <rom_func_lookup>:
1000130c:	2300      	movs	r3, #0
1000130e:	8adb      	ldrh	r3, [r3, #22]
10001310:	2200      	movs	r2, #0
10001312:	e842 f200 	tt	r2, r2
10001316:	0252      	lsls	r2, r2, #9
10001318:	d401      	bmi.n	1000131e <rom_func_lookup+0x12>
1000131a:	2110      	movs	r1, #16
1000131c:	4718      	bx	r3
1000131e:	2104      	movs	r1, #4
10001320:	4718      	bx	r3
10001322:	bf00      	nop

10001324 <runtime_init_bootrom_locking_enable>:
10001324:	4a03      	ldr	r2, [pc, #12]	@ (10001334 <runtime_init_bootrom_locking_enable+0x10>)
10001326:	f8d2 3828 	ldr.w	r3, [r2, #2088]	@ 0x828
1000132a:	2b00      	cmp	r3, #0
1000132c:	d0fb      	beq.n	10001326 <runtime_init_bootrom_locking_enable+0x2>
1000132e:	f3bf 8f5f 	dmb	sy
10001332:	4770      	bx	lr
10001334:	400e0000 	.word	0x400e0000

10001338 <runtime_init_boot_locks_reset>:
10001338:	2100      	movs	r1, #0
1000133a:	4b04      	ldr	r3, [pc, #16]	@ (1000134c <runtime_init_boot_locks_reset+0x14>)
1000133c:	4a04      	ldr	r2, [pc, #16]	@ (10001350 <runtime_init_boot_locks_reset+0x18>)
1000133e:	f3bf 8f5f 	dmb	sy
10001342:	f843 1b04 	str.w	r1, [r3], #4
10001346:	4293      	cmp	r3, r2
10001348:	d1f9      	bne.n	1000133e <runtime_init_boot_locks_reset+0x6>
1000134a:	4770      	bx	lr
1000134c:	400e080c 	.word	0x400e080c
10001350:	400e082c 	.word	0x400e082c

10001354 <xosc_init>:
10001354:	b410      	push	{r4}
10001356:	f44f 708d 	mov.w	r0, #282	@ 0x11a
1000135a:	f44f 642a 	mov.w	r4, #2720	@ 0xaa0
1000135e:	4a06      	ldr	r2, [pc, #24]	@ (10001378 <xosc_init+0x24>)
10001360:	4b06      	ldr	r3, [pc, #24]	@ (1000137c <xosc_init+0x28>)
10001362:	4907      	ldr	r1, [pc, #28]	@ (10001380 <xosc_init+0x2c>)
10001364:	6014      	str	r4, [r2, #0]
10001366:	60d0      	str	r0, [r2, #12]
10001368:	6019      	str	r1, [r3, #0]
1000136a:	6853      	ldr	r3, [r2, #4]
1000136c:	2b00      	cmp	r3, #0
1000136e:	dafc      	bge.n	1000136a <xosc_init+0x16>
10001370:	f85d 4b04 	ldr.w	r4, [sp], #4
10001374:	4770      	bx	lr
10001376:	bf00      	nop
10001378:	40048000 	.word	0x40048000
1000137c:	4004a000 	.word	0x4004a000
10001380:	00fab000 	.word	0x00fab000

10001384 <first_per_core_initializer>:
10001384:	4770      	bx	lr
10001386:	bf00      	nop

10001388 <hard_assertion_failure>:
10001388:	b508      	push	{r3, lr}
1000138a:	4801      	ldr	r0, [pc, #4]	@ (10001390 <hard_assertion_failure+0x8>)
1000138c:	f7ff f838 	bl	10000400 <panic>
10001390:	10003780 	.word	0x10003780

10001394 <runtime_run_initializers>:
10001394:	b538      	push	{r3, r4, r5, lr}
10001396:	4c05      	ldr	r4, [pc, #20]	@ (100013ac <runtime_run_initializers+0x18>)
10001398:	4d05      	ldr	r5, [pc, #20]	@ (100013b0 <runtime_run_initializers+0x1c>)
1000139a:	42ac      	cmp	r4, r5
1000139c:	d204      	bcs.n	100013a8 <runtime_run_initializers+0x14>
1000139e:	f854 3b04 	ldr.w	r3, [r4], #4
100013a2:	4798      	blx	r3
100013a4:	42ac      	cmp	r4, r5
100013a6:	d3fa      	bcc.n	1000139e <runtime_run_initializers+0xa>
100013a8:	bd38      	pop	{r3, r4, r5, pc}
100013aa:	bf00      	nop
100013ac:	100036d0 	.word	0x100036d0
100013b0:	10003710 	.word	0x10003710

100013b4 <runtime_init_early_resets>:
100013b4:	b410      	push	{r4}
100013b6:	4807      	ldr	r0, [pc, #28]	@ (100013d4 <runtime_init_early_resets+0x20>)
100013b8:	4c07      	ldr	r4, [pc, #28]	@ (100013d8 <runtime_init_early_resets+0x24>)
100013ba:	4b08      	ldr	r3, [pc, #32]	@ (100013dc <runtime_init_early_resets+0x28>)
100013bc:	4a08      	ldr	r2, [pc, #32]	@ (100013e0 <runtime_init_early_resets+0x2c>)
100013be:	4909      	ldr	r1, [pc, #36]	@ (100013e4 <runtime_init_early_resets+0x30>)
100013c0:	6004      	str	r4, [r0, #0]
100013c2:	601a      	str	r2, [r3, #0]
100013c4:	688b      	ldr	r3, [r1, #8]
100013c6:	ea32 0303 	bics.w	r3, r2, r3
100013ca:	d1fb      	bne.n	100013c4 <runtime_init_early_resets+0x10>
100013cc:	f85d 4b04 	ldr.w	r4, [sp], #4
100013d0:	4770      	bx	lr
100013d2:	bf00      	nop
100013d4:	40022000 	.word	0x40022000
100013d8:	efef3b7f 	.word	0xefef3b7f
100013dc:	40023000 	.word	0x40023000
100013e0:	03f3fff6 	.word	0x03f3fff6
100013e4:	40020000 	.word	0x40020000

100013e8 <runtime_init_usb_power_down>:
100013e8:	4b04      	ldr	r3, [pc, #16]	@ (100013fc <runtime_init_usb_power_down+0x14>)
100013ea:	6cdb      	ldr	r3, [r3, #76]	@ 0x4c
100013ec:	f5b3 4f00 	cmp.w	r3, #32768	@ 0x8000
100013f0:	d103      	bne.n	100013fa <runtime_init_usb_power_down+0x12>
100013f2:	f44f 2280 	mov.w	r2, #262144	@ 0x40000
100013f6:	4b02      	ldr	r3, [pc, #8]	@ (10001400 <runtime_init_usb_power_down+0x18>)
100013f8:	64da      	str	r2, [r3, #76]	@ 0x4c
100013fa:	4770      	bx	lr
100013fc:	50110000 	.word	0x50110000
10001400:	50112000 	.word	0x50112000

10001404 <runtime_init_per_core_enable_coprocessors>:
10001404:	f04f 22e0 	mov.w	r2, #3758153728	@ 0xe000e000
10001408:	4b04      	ldr	r3, [pc, #16]	@ (1000141c <runtime_init_per_core_enable_coprocessors+0x18>)
1000140a:	f8d2 1d88 	ldr.w	r1, [r2, #3464]	@ 0xd88
1000140e:	430b      	orrs	r3, r1
10001410:	f8c2 3d88 	str.w	r3, [r2, #3464]	@ 0xd88
10001414:	ee10 0430 			dcp_rcmp r0
10001418:	4770      	bx	lr
1000141a:	bf00      	nop
1000141c:	00300303 	.word	0x00300303

10001420 <runtime_init_post_clock_resets>:
10001420:	f06f 4160 	mvn.w	r1, #3758096384	@ 0xe0000000
10001424:	4b04      	ldr	r3, [pc, #16]	@ (10001438 <runtime_init_post_clock_resets+0x18>)
10001426:	4a05      	ldr	r2, [pc, #20]	@ (1000143c <runtime_init_post_clock_resets+0x1c>)
10001428:	6019      	str	r1, [r3, #0]
1000142a:	6893      	ldr	r3, [r2, #8]
1000142c:	43db      	mvns	r3, r3
1000142e:	f033 4360 	bics.w	r3, r3, #3758096384	@ 0xe0000000
10001432:	d1fa      	bne.n	1000142a <runtime_init_post_clock_resets+0xa>
10001434:	4770      	bx	lr
10001436:	bf00      	nop
10001438:	40023000 	.word	0x40023000
1000143c:	40020000 	.word	0x40020000

10001440 <runtime_init_bootrom_reset>:
10001440:	b510      	push	{r4, lr}
10001442:	f245 2053 	movw	r0, #21075	@ 0x5253
10001446:	f7ff ff61 	bl	1000130c <rom_func_lookup>
1000144a:	e8bd 4010 	ldmia.w	sp!, {r4, lr}
1000144e:	4603      	mov	r3, r0
10001450:	2004      	movs	r0, #4
10001452:	4718      	bx	r3

10001454 <runtime_init_per_core_bootrom_reset>:
10001454:	b510      	push	{r4, lr}
10001456:	f245 2053 	movw	r0, #21075	@ 0x5253
1000145a:	f7ff ff57 	bl	1000130c <rom_func_lookup>
1000145e:	e8bd 4010 	ldmia.w	sp!, {r4, lr}
10001462:	4603      	mov	r3, r0
10001464:	2001      	movs	r0, #1
10001466:	4718      	bx	r3

10001468 <runtime_init_spin_locks_reset>:
10001468:	f7ff b822 	b.w	100004b0 <spin_locks_reset>

1000146c <runtime_init_install_ram_vector_table>:
1000146c:	4914      	ldr	r1, [pc, #80]	@ (100014c0 <runtime_init_install_ram_vector_table+0x54>)
1000146e:	4b15      	ldr	r3, [pc, #84]	@ (100014c4 <runtime_init_install_ram_vector_table+0x58>)
10001470:	b570      	push	{r4, r5, r6, lr}
10001472:	1a5c      	subs	r4, r3, r1
10001474:	10a6      	asrs	r6, r4, #2
10001476:	2e44      	cmp	r6, #68	@ 0x44
10001478:	4632      	mov	r2, r6
1000147a:	bf28      	it	cs
1000147c:	2244      	movcs	r2, #68	@ 0x44
1000147e:	4d12      	ldr	r5, [pc, #72]	@ (100014c8 <runtime_init_install_ram_vector_table+0x5c>)
10001480:	0092      	lsls	r2, r2, #2
10001482:	4628      	mov	r0, r5
10001484:	f002 f872 	bl	1000356c <memcpy>
10001488:	f5b4 7f86 	cmp.w	r4, #268	@ 0x10c
1000148c:	d813      	bhi.n	100014b6 <runtime_init_install_ram_vector_table+0x4a>
1000148e:	4a0f      	ldr	r2, [pc, #60]	@ (100014cc <runtime_init_install_ram_vector_table+0x60>)
10001490:	f1c6 0044 	rsb	r0, r6, #68	@ 0x44
10001494:	d012      	beq.n	100014bc <runtime_init_install_ram_vector_table+0x50>
10001496:	192b      	adds	r3, r5, r4
10001498:	0841      	lsrs	r1, r0, #1
1000149a:	eb03 01c1 	add.w	r1, r3, r1, lsl #3
1000149e:	e9c3 2200 	strd	r2, r2, [r3]
100014a2:	3308      	adds	r3, #8
100014a4:	428b      	cmp	r3, r1
100014a6:	d1fa      	bne.n	1000149e <runtime_init_install_ram_vector_table+0x32>
100014a8:	07c3      	lsls	r3, r0, #31
100014aa:	d504      	bpl.n	100014b6 <runtime_init_install_ram_vector_table+0x4a>
100014ac:	f020 0001 	bic.w	r0, r0, #1
100014b0:	4430      	add	r0, r6
100014b2:	f845 2020 	str.w	r2, [r5, r0, lsl #2]
100014b6:	4b06      	ldr	r3, [pc, #24]	@ (100014d0 <runtime_init_install_ram_vector_table+0x64>)
100014b8:	609d      	str	r5, [r3, #8]
100014ba:	bd70      	pop	{r4, r5, r6, pc}
100014bc:	2043      	movs	r0, #67	@ 0x43
100014be:	e7f8      	b.n	100014b2 <runtime_init_install_ram_vector_table+0x46>
100014c0:	10000000 	.word	0x10000000
100014c4:	10000110 	.word	0x10000110
100014c8:	20000000 	.word	0x20000000
100014cc:	10000111 	.word	0x10000111
100014d0:	e000ed00 	.word	0xe000ed00

100014d4 <runtime_init_clocks>:
100014d4:	2300      	movs	r3, #0
100014d6:	b570      	push	{r4, r5, r6, lr}
100014d8:	4c2b      	ldr	r4, [pc, #172]	@ (10001588 <runtime_init_clocks+0xb4>)
100014da:	b082      	sub	sp, #8
100014dc:	f8c4 3084 	str.w	r3, [r4, #132]	@ 0x84
100014e0:	f7ff ff38 	bl	10001354 <xosc_init>
100014e4:	2201      	movs	r2, #1
100014e6:	4b29      	ldr	r3, [pc, #164]	@ (1000158c <runtime_init_clocks+0xb8>)
100014e8:	63da      	str	r2, [r3, #60]	@ 0x3c
100014ea:	6c63      	ldr	r3, [r4, #68]	@ 0x44
100014ec:	2b01      	cmp	r3, #1
100014ee:	d1fc      	bne.n	100014ea <runtime_init_clocks+0x16>
100014f0:	2103      	movs	r1, #3
100014f2:	4a26      	ldr	r2, [pc, #152]	@ (1000158c <runtime_init_clocks+0xb8>)
100014f4:	4b24      	ldr	r3, [pc, #144]	@ (10001588 <runtime_init_clocks+0xb4>)
100014f6:	6311      	str	r1, [r2, #48]	@ 0x30
100014f8:	6b9c      	ldr	r4, [r3, #56]	@ 0x38
100014fa:	2c01      	cmp	r4, #1
100014fc:	d1fc      	bne.n	100014f8 <runtime_init_clocks+0x24>
100014fe:	2602      	movs	r6, #2
10001500:	2505      	movs	r5, #5
10001502:	4621      	mov	r1, r4
10001504:	2305      	movs	r3, #5
10001506:	4a22      	ldr	r2, [pc, #136]	@ (10001590 <runtime_init_clocks+0xbc>)
10001508:	4822      	ldr	r0, [pc, #136]	@ (10001594 <runtime_init_clocks+0xc0>)
1000150a:	9600      	str	r6, [sp, #0]
1000150c:	f7ff feac 	bl	10001268 <pll_init>
10001510:	4621      	mov	r1, r4
10001512:	462b      	mov	r3, r5
10001514:	4a20      	ldr	r2, [pc, #128]	@ (10001598 <runtime_init_clocks+0xc4>)
10001516:	4821      	ldr	r0, [pc, #132]	@ (1000159c <runtime_init_clocks+0xc8>)
10001518:	9500      	str	r5, [sp, #0]
1000151a:	f7ff fea5 	bl	10001268 <pll_init>
1000151e:	2200      	movs	r2, #0
10001520:	2004      	movs	r0, #4
10001522:	4631      	mov	r1, r6
10001524:	4b1e      	ldr	r3, [pc, #120]	@ (100015a0 <runtime_init_clocks+0xcc>)
10001526:	f7ff fe31 	bl	1000118c <clock_configure_undivided>
1000152a:	4621      	mov	r1, r4
1000152c:	4628      	mov	r0, r5
1000152e:	2200      	movs	r2, #0
10001530:	4b1c      	ldr	r3, [pc, #112]	@ (100015a4 <runtime_init_clocks+0xd0>)
10001532:	f7ff fe2b 	bl	1000118c <clock_configure_undivided>
10001536:	2200      	movs	r2, #0
10001538:	2008      	movs	r0, #8
1000153a:	4611      	mov	r1, r2
1000153c:	4b1a      	ldr	r3, [pc, #104]	@ (100015a8 <runtime_init_clocks+0xd4>)
1000153e:	f7ff fe25 	bl	1000118c <clock_configure_undivided>
10001542:	2200      	movs	r2, #0
10001544:	2009      	movs	r0, #9
10001546:	4611      	mov	r1, r2
10001548:	4b17      	ldr	r3, [pc, #92]	@ (100015a8 <runtime_init_clocks+0xd4>)
1000154a:	f7ff fe1f 	bl	1000118c <clock_configure_undivided>
1000154e:	2200      	movs	r2, #0
10001550:	2006      	movs	r0, #6
10001552:	4611      	mov	r1, r2
10001554:	4b13      	ldr	r3, [pc, #76]	@ (100015a4 <runtime_init_clocks+0xd0>)
10001556:	f7ff fe19 	bl	1000118c <clock_configure_undivided>
1000155a:	2200      	movs	r2, #0
1000155c:	4b11      	ldr	r3, [pc, #68]	@ (100015a4 <runtime_init_clocks+0xd0>)
1000155e:	2007      	movs	r0, #7
10001560:	4611      	mov	r1, r2
10001562:	f7ff fe13 	bl	1000118c <clock_configure_undivided>
10001566:	2004      	movs	r0, #4
10001568:	f7ff fe78 	bl	1000125c <clock_get_hz>
1000156c:	2400      	movs	r4, #0
1000156e:	4b0f      	ldr	r3, [pc, #60]	@ (100015ac <runtime_init_clocks+0xd8>)
10001570:	fba3 3500 	umull	r3, r5, r3, r0
10001574:	0cad      	lsrs	r5, r5, #18
10001576:	b2e0      	uxtb	r0, r4
10001578:	4629      	mov	r1, r5
1000157a:	3401      	adds	r4, #1
1000157c:	f7ff feba 	bl	100012f4 <tick_start>
10001580:	2c06      	cmp	r4, #6
10001582:	d1f8      	bne.n	10001576 <runtime_init_clocks+0xa2>
10001584:	b002      	add	sp, #8
10001586:	bd70      	pop	{r4, r5, r6, pc}
10001588:	40010000 	.word	0x40010000
1000158c:	40013000 	.word	0x40013000
10001590:	59682f00 	.word	0x59682f00
10001594:	40050000 	.word	0x40050000
10001598:	47868c00 	.word	0x47868c00
1000159c:	40058000 	.word	0x40058000
100015a0:	00b71b00 	.word	0x00b71b00
100015a4:	08f0d180 	.word	0x08f0d180
100015a8:	02dc6c00 	.word	0x02dc6c00
100015ac:	431bde83 	.word	0x431bde83

100015b0 <generic_save_state>:
100015b0:	b086      	sub	sp, #24
100015b2:	b403      	push	{r0, r1}
100015b4:	fc51 0408 	dcp_pxmd r0, r1
100015b8:	e9cd 0102 	strd	r0, r1, [sp, #8]
100015bc:	fc51 0409 	dcp_pymd r0, r1
100015c0:	e9cd 0104 	strd	r0, r1, [sp, #16]
100015c4:	ec51 040a 	dcp_refd r0, r1
100015c8:	e9cd 0106 	strd	r0, r1, [sp, #24]
100015cc:	bc03      	pop	{r0, r1}
100015ce:	47f0      	blx	lr

100015d0 <generic_restore_state>:
100015d0:	e8bd 5000 	ldmia.w	sp!, {ip, lr}
100015d4:	ec4e c400 	dcp_wxmd ip, lr
100015d8:	e8bd 5000 	ldmia.w	sp!, {ip, lr}
100015dc:	ec4e c401 	dcp_wymd ip, lr
100015e0:	e8bd 5000 	ldmia.w	sp!, {ip, lr}
100015e4:	ec4e c402 	dcp_wefd ip, lr
100015e8:	bd00      	pop	{pc}
100015ea:	0000      	movs	r0, r0
100015ec:	b500      	push	{lr}
100015ee:	f7ff ffdf 	bl	100015b0 <generic_save_state>
100015f2:	e002      	b.n	100015fa <__wrap___aeabi_dadd+0x6>

100015f4 <__wrap___aeabi_dadd>:
100015f4:	fe10 f430 	dcp_pcmp APSR_nzcv
100015f8:	d4f8      	bmi.n	100015ec <generic_restore_state+0x1c>
100015fa:	ec41 0410 	dcp_wxup r0, r1
100015fe:	ec43 2411 	dcp_wyup r2, r3
10001602:	ee00 0401 			dcp_add0
10001606:	ee10 0401 			dcp_add1
1000160a:	ee80 0420 			dcp_nrdd
1000160e:	ec51 0410 	dcp_rdda r0, r1
10001612:	4770      	bx	lr
10001614:	b500      	push	{lr}
10001616:	f7ff ffcb 	bl	100015b0 <generic_save_state>
1000161a:	e002      	b.n	10001622 <__wrap___aeabi_dsub+0x6>

1000161c <__wrap___aeabi_dsub>:
1000161c:	fe10 f430 	dcp_pcmp APSR_nzcv
10001620:	d4f8      	bmi.n	10001614 <__wrap___aeabi_dadd+0x20>
10001622:	ec41 0410 	dcp_wxup r0, r1
10001626:	ec43 2411 	dcp_wyup r2, r3
1000162a:	ee00 0401 			dcp_add0
1000162e:	ee10 0421 			dcp_sub1
10001632:	ee80 0420 			dcp_nrdd
10001636:	ec51 0430 	dcp_rdds r0, r1
1000163a:	4770      	bx	lr
1000163c:	b500      	push	{lr}
1000163e:	f7ff ffb7 	bl	100015b0 <generic_save_state>
10001642:	e002      	b.n	1000164a <__wrap___aeabi_dmul+0x6>

10001644 <__wrap___aeabi_dmul>:
10001644:	fe10 f430 	dcp_pcmp APSR_nzcv
10001648:	d4f8      	bmi.n	1000163c <__wrap___aeabi_dsub+0x20>
1000164a:	b510      	push	{r4, lr}
1000164c:	ec41 0410 	dcp_wxup r0, r1
10001650:	ec43 2411 	dcp_wyup r2, r3
10001654:	ec51 0404 	dcp_rxms r0, r1, #0x0
10001658:	ec53 2405 	dcp_ryms r2, r3, #0x0
1000165c:	fba0 4c02 	umull	r4, ip, r0, r2
10001660:	f05f 0e00 	movs.w	lr, #0
10001664:	fbe0 ce03 	umlal	ip, lr, r0, r3
10001668:	fbe1 ce02 	umlal	ip, lr, r1, r2
1000166c:	ec4c 4420 	dcp_wxms r4, ip
10001670:	2400      	movs	r4, #0
10001672:	fbe1 e403 	umlal	lr, r4, r1, r3
10001676:	ec44 e430 	dcp_wxmo lr, r4
1000167a:	ee80 0420 			dcp_nrdd
1000167e:	ec51 0450 	dcp_rddm r0, r1
10001682:	e8bd 4010 	ldmia.w	sp!, {r4, lr}
10001686:	4770      	bx	lr
10001688:	b500      	push	{lr}
1000168a:	f7ff ff91 	bl	100015b0 <generic_save_state>
1000168e:	e002      	b.n	10001696 <__wrap___aeabi_ddiv+0x6>

10001690 <__wrap___aeabi_ddiv>:
10001690:	fe10 f430 	dcp_pcmp APSR_nzcv
10001694:	d4f8      	bmi.n	10001688 <__wrap___aeabi_dmul+0x44>
10001696:	ec41 0410 	dcp_wxup r0, r1
1000169a:	ec43 2411 	dcp_wyup r2, r3
1000169e:	ec51 0421 	dcp_rymr r0, r1
100016a2:	fba0 1201 	umull	r1, r2, r0, r1
100016a6:	ea6f 0282 	mvn.w	r2, r2, lsl #2
100016aa:	fb52 0010 	smmlar	r0, r2, r0, r0
100016ae:	fb52 f212 	smmulr	r2, r2, r2
100016b2:	fb52 0010 	smmlar	r0, r2, r0, r0
100016b6:	eba0 7cd0 	sub.w	ip, r0, r0, lsr #31
100016ba:	ec53 2404 	dcp_rxms r2, r3, #0x0
100016be:	fb5c f113 	smmulr	r1, ip, r3
100016c2:	ec53 2415 	dcp_ryms r2, r3, #0x1
100016c6:	fba1 2002 	umull	r2, r0, r1, r2
100016ca:	fb01 0003 	mla	r0, r1, r3, r0
100016ce:	ec53 2444 	dcp_rxms r2, r3, #0x4
100016d2:	eba2 0000 	sub.w	r0, r2, r0
100016d6:	fb50 f21c 	smmulr	r2, r0, ip
100016da:	ea4f 1311 	mov.w	r3, r1, lsr #4
100016de:	eb12 7001 	adds.w	r0, r2, r1, lsl #28
100016e2:	eb43 71e2 	adc.w	r1, r3, r2, asr #31
100016e6:	ea40 5051 	orr.w	r0, r0, r1, lsr #21
100016ea:	ea20 5091 	bic.w	r0, r0, r1, lsr #22
100016ee:	f020 0007 	bic.w	r0, r0, #7
100016f2:	ec53 2475 	dcp_ryms r2, r3, #0x7
100016f6:	fba0 3c02 	umull	r3, ip, r0, r2
100016fa:	ec53 2475 	dcp_ryms r2, r3, #0x7
100016fe:	fb00 cc03 	mla	ip, r0, r3, ip
10001702:	fb01 cc02 	mla	ip, r1, r2, ip
10001706:	ec53 2404 	dcp_rxms r2, r3, #0x0
1000170a:	ebac 4c82 	sub.w	ip, ip, r2, lsl #18
1000170e:	ea40 705c 	orr.w	r0, r0, ip, lsr #29
10001712:	f1a0 0001 	sub.w	r0, r0, #1
10001716:	ec41 0440 	dcp_wxdd r0, r1
1000171a:	ee80 0420 			dcp_nrdd
1000171e:	ec51 0470 	dcp_rddd r0, r1
10001722:	4770      	bx	lr
10001724:	b500      	push	{lr}
10001726:	f7ff ff43 	bl	100015b0 <generic_save_state>
1000172a:	e002      	b.n	10001732 <__wrap___aeabi_i2d+0x6>

1000172c <__wrap___aeabi_i2d>:
1000172c:	fe10 f430 	dcp_pcmp APSR_nzcv
10001730:	d4f8      	bmi.n	10001724 <__wrap___aeabi_ddiv+0x94>
10001732:	ec40 0470 	dcp_wxic r0, r0
10001736:	ee00 0401 			dcp_add0
1000173a:	ee10 0421 			dcp_sub1
1000173e:	ee80 0420 			dcp_nrdd
10001742:	ec51 0430 	dcp_rdds r0, r1
10001746:	4770      	bx	lr
10001748:	b500      	push	{lr}
1000174a:	f7ff ff31 	bl	100015b0 <generic_save_state>
1000174e:	e002      	b.n	10001756 <__wrap___aeabi_ui2d+0x6>

10001750 <__wrap___aeabi_ui2d>:
10001750:	fe10 f430 	dcp_pcmp APSR_nzcv
10001754:	d4f8      	bmi.n	10001748 <__wrap___aeabi_i2d+0x1c>
10001756:	ec40 0460 	dcp_wxuc r0, r0
1000175a:	ee00 0401 			dcp_add0
1000175e:	ee10 0421 			dcp_sub1
10001762:	ee80 0420 			dcp_nrdd
10001766:	ec51 0430 	dcp_rdds r0, r1
1000176a:	4770      	bx	lr
1000176c:	b500      	push	{lr}
1000176e:	f7ff ff1f 	bl	100015b0 <generic_save_state>
10001772:	e002      	b.n	1000177a <double2int_z_entry>

10001774 <__wrap___aeabi_d2iz>:
10001774:	fe10 f430 	dcp_pcmp APSR_nzcv
10001778:	d4f8      	bmi.n	1000176c <__wrap___aeabi_ui2d+0x1c>

1000177a <double2int_z_entry>:
1000177a:	ec41 0480 	dcp_wxdc r0, r1
1000177e:	ee00 0401 			dcp_add0
10001782:	ee10 0401 			dcp_add1
10001786:	ee80 0440 			dcp_ntdc
1000178a:	ee10 0413 			dcp_rdic r0
1000178e:	4770      	bx	lr
10001790:	b500      	push	{lr}
10001792:	f7ff ff0d 	bl	100015b0 <generic_save_state>
10001796:	e002      	b.n	1000179e <double2uint_z_entry>

10001798 <__wrap___aeabi_d2uiz>:
10001798:	fe10 f430 	dcp_pcmp APSR_nzcv
1000179c:	d4f8      	bmi.n	10001790 <double2int_z_entry+0x16>

1000179e <double2uint_z_entry>:
1000179e:	ec41 0480 	dcp_wxdc r0, r1
100017a2:	ee00 0401 			dcp_add0
100017a6:	ee10 0401 			dcp_add1
100017aa:	ee80 0440 			dcp_ntdc
100017ae:	ee10 0433 			dcp_rduc r0
100017b2:	4770      	bx	lr
100017b4:	b500      	push	{lr}
100017b6:	f7ff fefb 	bl	100015b0 <generic_save_state>
100017ba:	e002      	b.n	100017c2 <__wrap___aeabi_dcmpun+0x6>

100017bc <__wrap___aeabi_dcmpun>:
100017bc:	fe10 f430 	dcp_pcmp APSR_nzcv
100017c0:	d4f8      	bmi.n	100017b4 <double2uint_z_entry+0x16>
100017c2:	ec41 0410 	dcp_wxup r0, r1
100017c6:	ec43 2411 	dcp_wyup r2, r3
100017ca:	ee00 0401 			dcp_add0
100017ce:	ee10 0430 			dcp_rcmp r0
100017d2:	f3c0 7000 	ubfx	r0, r0, #28, #1
100017d6:	4770      	bx	lr
100017d8:	b500      	push	{lr}
100017da:	f7ff fee9 	bl	100015b0 <generic_save_state>
100017de:	e002      	b.n	100017e6 <__wrap___aeabi_dcmplt+0x6>

100017e0 <__wrap___aeabi_dcmplt>:
100017e0:	fe10 f430 	dcp_pcmp APSR_nzcv
100017e4:	d4f8      	bmi.n	100017d8 <__wrap___aeabi_dcmpun+0x1c>
100017e6:	ec43 2410 	dcp_wxup r2, r3
100017ea:	ec41 0411 	dcp_wyup r0, r1
100017ee:	ee00 0401 			dcp_add0
100017f2:	ee10 f430 			dcp_rcmp APSR_nzcv
100017f6:	bf8c      	ite	hi
100017f8:	2001      	movhi	r0, #1
100017fa:	2000      	movls	r0, #0
100017fc:	4770      	bx	lr
100017fe:	bf00      	nop
10001800:	b500      	push	{lr}
10001802:	f7ff fed5 	bl	100015b0 <generic_save_state>
10001806:	e002      	b.n	1000180e <__wrap___aeabi_dcmple+0x6>

10001808 <__wrap___aeabi_dcmple>:
10001808:	fe10 f430 	dcp_pcmp APSR_nzcv
1000180c:	d4f8      	bmi.n	10001800 <__wrap___aeabi_dcmplt+0x20>
1000180e:	ec43 2410 	dcp_wxup r2, r3
10001812:	ec41 0411 	dcp_wyup r0, r1
10001816:	ee00 0401 			dcp_add0
1000181a:	ee10 f430 			dcp_rcmp APSR_nzcv
1000181e:	bf2c      	ite	cs
10001820:	2001      	movcs	r0, #1
10001822:	2000      	movcc	r0, #0
10001824:	4770      	bx	lr
10001826:	bf00      	nop
10001828:	b500      	push	{lr}
1000182a:	f7ff fec1 	bl	100015b0 <generic_save_state>
1000182e:	e002      	b.n	10001836 <__wrap___aeabi_dcmpge+0x6>

10001830 <__wrap___aeabi_dcmpge>:
10001830:	fe10 f430 	dcp_pcmp APSR_nzcv
10001834:	d4f8      	bmi.n	10001828 <__wrap___aeabi_dcmple+0x20>
10001836:	ec41 0410 	dcp_wxup r0, r1
1000183a:	ec43 2411 	dcp_wyup r2, r3
1000183e:	ee00 0401 			dcp_add0
10001842:	ee10 f430 			dcp_rcmp APSR_nzcv
10001846:	bf2c      	ite	cs
10001848:	2001      	movcs	r0, #1
1000184a:	2000      	movcc	r0, #0
1000184c:	4770      	bx	lr
1000184e:	bf00      	nop
10001850:	b500      	push	{lr}
10001852:	f7ff fead 	bl	100015b0 <generic_save_state>
10001856:	e002      	b.n	1000185e <__wrap___aeabi_dcmpgt+0x6>

10001858 <__wrap___aeabi_dcmpgt>:
10001858:	fe10 f430 	dcp_pcmp APSR_nzcv
1000185c:	d4f8      	bmi.n	10001850 <__wrap___aeabi_dcmpge+0x20>
1000185e:	ec41 0410 	dcp_wxup r0, r1
10001862:	ec43 2411 	dcp_wyup r2, r3
10001866:	ee00 0401 			dcp_add0
1000186a:	ee10 f430 			dcp_rcmp APSR_nzcv
1000186e:	bf8c      	ite	hi
10001870:	2001      	movhi	r0, #1
10001872:	2000      	movls	r0, #0
10001874:	4770      	bx	lr
10001876:	bf00      	nop

10001878 <_out_null>:
10001878:	4770      	bx	lr
1000187a:	bf00      	nop

1000187c <_out_rev>:
1000187c:	e92d 4ff0 	stmdb	sp!, {r4, r5, r6, r7, r8, r9, sl, fp, lr}
10001880:	b083      	sub	sp, #12
10001882:	4699      	mov	r9, r3
10001884:	e9dd ab0d 	ldrd	sl, fp, [sp, #52]	@ 0x34
10001888:	9b0f      	ldr	r3, [sp, #60]	@ 0x3c
1000188a:	4688      	mov	r8, r1
1000188c:	4611      	mov	r1, r2
1000188e:	079a      	lsls	r2, r3, #30
10001890:	4607      	mov	r7, r0
10001892:	d116      	bne.n	100018c2 <_out_rev+0x46>
10001894:	45da      	cmp	sl, fp
10001896:	d23a      	bcs.n	1000190e <_out_rev+0x92>
10001898:	460c      	mov	r4, r1
1000189a:	460d      	mov	r5, r1
1000189c:	ebab 060a 	sub.w	r6, fp, sl
100018a0:	440e      	add	r6, r1
100018a2:	4622      	mov	r2, r4
100018a4:	464b      	mov	r3, r9
100018a6:	4641      	mov	r1, r8
100018a8:	2020      	movs	r0, #32
100018aa:	3401      	adds	r4, #1
100018ac:	47b8      	blx	r7
100018ae:	42b4      	cmp	r4, r6
100018b0:	d1f7      	bne.n	100018a2 <_out_rev+0x26>
100018b2:	4629      	mov	r1, r5
100018b4:	f1ba 0f00 	cmp.w	sl, #0
100018b8:	d108      	bne.n	100018cc <_out_rev+0x50>
100018ba:	4620      	mov	r0, r4
100018bc:	b003      	add	sp, #12
100018be:	e8bd 8ff0 	ldmia.w	sp!, {r4, r5, r6, r7, r8, r9, sl, fp, pc}
100018c2:	460c      	mov	r4, r1
100018c4:	f1ba 0f00 	cmp.w	sl, #0
100018c8:	d010      	beq.n	100018ec <_out_rev+0x70>
100018ca:	460e      	mov	r6, r1
100018cc:	4655      	mov	r5, sl
100018ce:	9b0c      	ldr	r3, [sp, #48]	@ 0x30
100018d0:	442e      	add	r6, r5
100018d2:	449a      	add	sl, r3
100018d4:	9101      	str	r1, [sp, #4]
100018d6:	1b72      	subs	r2, r6, r5
100018d8:	464b      	mov	r3, r9
100018da:	3d01      	subs	r5, #1
100018dc:	4641      	mov	r1, r8
100018de:	f81a 0d01 	ldrb.w	r0, [sl, #-1]!
100018e2:	4634      	mov	r4, r6
100018e4:	47b8      	blx	r7
100018e6:	2d00      	cmp	r5, #0
100018e8:	d1f5      	bne.n	100018d6 <_out_rev+0x5a>
100018ea:	9901      	ldr	r1, [sp, #4]
100018ec:	9b0f      	ldr	r3, [sp, #60]	@ 0x3c
100018ee:	079b      	lsls	r3, r3, #30
100018f0:	d5e3      	bpl.n	100018ba <_out_rev+0x3e>
100018f2:	1a65      	subs	r5, r4, r1
100018f4:	45ab      	cmp	fp, r5
100018f6:	d9e0      	bls.n	100018ba <_out_rev+0x3e>
100018f8:	4622      	mov	r2, r4
100018fa:	464b      	mov	r3, r9
100018fc:	4641      	mov	r1, r8
100018fe:	2020      	movs	r0, #32
10001900:	3501      	adds	r5, #1
10001902:	47b8      	blx	r7
10001904:	455d      	cmp	r5, fp
10001906:	f104 0401 	add.w	r4, r4, #1
1000190a:	d3f5      	bcc.n	100018f8 <_out_rev+0x7c>
1000190c:	e7d5      	b.n	100018ba <_out_rev+0x3e>
1000190e:	460c      	mov	r4, r1
10001910:	f1ba 0f00 	cmp.w	sl, #0
10001914:	d1d9      	bne.n	100018ca <_out_rev+0x4e>
10001916:	e7d0      	b.n	100018ba <_out_rev+0x3e>

10001918 <_ntoa_format>:
10001918:	e92d 4ff0 	stmdb	sp!, {r4, r5, r6, r7, r8, r9, sl, fp, lr}
1000191c:	9f0f      	ldr	r7, [sp, #60]	@ 0x3c
1000191e:	f8dd 8024 	ldr.w	r8, [sp, #36]	@ 0x24
10001922:	f017 0f02 	tst.w	r7, #2
10001926:	9c0a      	ldr	r4, [sp, #40]	@ 0x28
10001928:	f89d a02c 	ldrb.w	sl, [sp, #44]	@ 0x2c
1000192c:	9d0e      	ldr	r5, [sp, #56]	@ 0x38
1000192e:	e9dd 960c 	ldrd	r9, r6, [sp, #48]	@ 0x30
10001932:	d144      	bne.n	100019be <_ntoa_format+0xa6>
10001934:	bbf5      	cbnz	r5, 100019b4 <_ntoa_format+0x9c>
10001936:	42b4      	cmp	r4, r6
10001938:	d241      	bcs.n	100019be <_ntoa_format+0xa6>
1000193a:	f007 0b01 	and.w	fp, r7, #1
1000193e:	f104 3cff 	add.w	ip, r4, #4294967295
10001942:	f04f 0e30 	mov.w	lr, #48	@ 0x30
10001946:	44c4      	add	ip, r8
10001948:	e004      	b.n	10001954 <_ntoa_format+0x3c>
1000194a:	3401      	adds	r4, #1
1000194c:	42a6      	cmp	r6, r4
1000194e:	f80c ef01 	strb.w	lr, [ip, #1]!
10001952:	d901      	bls.n	10001958 <_ntoa_format+0x40>
10001954:	2c20      	cmp	r4, #32
10001956:	d1f8      	bne.n	1000194a <_ntoa_format+0x32>
10001958:	f1bb 0f00 	cmp.w	fp, #0
1000195c:	f000 8088 	beq.w	10001a70 <_ntoa_format+0x158>
10001960:	42a5      	cmp	r5, r4
10001962:	d92c      	bls.n	100019be <_ntoa_format+0xa6>
10001964:	f104 3cff 	add.w	ip, r4, #4294967295
10001968:	f04f 0e30 	mov.w	lr, #48	@ 0x30
1000196c:	44c4      	add	ip, r8
1000196e:	e004      	b.n	1000197a <_ntoa_format+0x62>
10001970:	3401      	adds	r4, #1
10001972:	42ac      	cmp	r4, r5
10001974:	f80c ef01 	strb.w	lr, [ip, #1]!
10001978:	d021      	beq.n	100019be <_ntoa_format+0xa6>
1000197a:	2c20      	cmp	r4, #32
1000197c:	d1f8      	bne.n	10001970 <_ntoa_format+0x58>
1000197e:	f017 0f10 	tst.w	r7, #16
10001982:	d00e      	beq.n	100019a2 <_ntoa_format+0x8a>
10001984:	f417 6f80 	tst.w	r7, #1024	@ 0x400
10001988:	d154      	bne.n	10001a34 <_ntoa_format+0x11c>
1000198a:	42a6      	cmp	r6, r4
1000198c:	d063      	beq.n	10001a56 <_ntoa_format+0x13e>
1000198e:	42a5      	cmp	r5, r4
10001990:	d061      	beq.n	10001a56 <_ntoa_format+0x13e>
10001992:	f1b9 0f10 	cmp.w	r9, #16
10001996:	d050      	beq.n	10001a3a <_ntoa_format+0x122>
10001998:	f1b9 0f02 	cmp.w	r9, #2
1000199c:	d056      	beq.n	10001a4c <_ntoa_format+0x134>
1000199e:	2c20      	cmp	r4, #32
100019a0:	d129      	bne.n	100019f6 <_ntoa_format+0xde>
100019a2:	2420      	movs	r4, #32
100019a4:	e9cd 570b 	strd	r5, r7, [sp, #44]	@ 0x2c
100019a8:	e9cd 8409 	strd	r8, r4, [sp, #36]	@ 0x24
100019ac:	e8bd 4ff0 	ldmia.w	sp!, {r4, r5, r6, r7, r8, r9, sl, fp, lr}
100019b0:	f7ff bf64 	b.w	1000187c <_out_rev>
100019b4:	f017 0b01 	ands.w	fp, r7, #1
100019b8:	d134      	bne.n	10001a24 <_ntoa_format+0x10c>
100019ba:	42b4      	cmp	r4, r6
100019bc:	d3bf      	bcc.n	1000193e <_ntoa_format+0x26>
100019be:	f017 0f10 	tst.w	r7, #16
100019c2:	d01e      	beq.n	10001a02 <_ntoa_format+0xea>
100019c4:	f417 6f80 	tst.w	r7, #1024	@ 0x400
100019c8:	d1e3      	bne.n	10001992 <_ntoa_format+0x7a>
100019ca:	2c00      	cmp	r4, #0
100019cc:	d1dd      	bne.n	1000198a <_ntoa_format+0x72>
100019ce:	f1b9 0f10 	cmp.w	r9, #16
100019d2:	d063      	beq.n	10001a9c <_ntoa_format+0x184>
100019d4:	f1b9 0f02 	cmp.w	r9, #2
100019d8:	d077      	beq.n	10001aca <_ntoa_format+0x1b2>
100019da:	2430      	movs	r4, #48	@ 0x30
100019dc:	f888 4000 	strb.w	r4, [r8]
100019e0:	2401      	movs	r4, #1
100019e2:	f1ba 0f00 	cmp.w	sl, #0
100019e6:	d111      	bne.n	10001a0c <_ntoa_format+0xf4>
100019e8:	077e      	lsls	r6, r7, #29
100019ea:	d548      	bpl.n	10001a7e <_ntoa_format+0x166>
100019ec:	262b      	movs	r6, #43	@ 0x2b
100019ee:	f808 6004 	strb.w	r6, [r8, r4]
100019f2:	3401      	adds	r4, #1
100019f4:	e7d6      	b.n	100019a4 <_ntoa_format+0x8c>
100019f6:	4626      	mov	r6, r4
100019f8:	3401      	adds	r4, #1
100019fa:	f04f 0c30 	mov.w	ip, #48	@ 0x30
100019fe:	f808 c006 	strb.w	ip, [r8, r6]
10001a02:	2c20      	cmp	r4, #32
10001a04:	d0cd      	beq.n	100019a2 <_ntoa_format+0x8a>
10001a06:	f1ba 0f00 	cmp.w	sl, #0
10001a0a:	d0ed      	beq.n	100019e8 <_ntoa_format+0xd0>
10001a0c:	262d      	movs	r6, #45	@ 0x2d
10001a0e:	f808 6004 	strb.w	r6, [r8, r4]
10001a12:	3401      	adds	r4, #1
10001a14:	e9cd 570b 	strd	r5, r7, [sp, #44]	@ 0x2c
10001a18:	e9cd 8409 	strd	r8, r4, [sp, #36]	@ 0x24
10001a1c:	e8bd 4ff0 	ldmia.w	sp!, {r4, r5, r6, r7, r8, r9, sl, fp, lr}
10001a20:	f7ff bf2c 	b.w	1000187c <_out_rev>
10001a24:	f1ba 0f00 	cmp.w	sl, #0
10001a28:	d030      	beq.n	10001a8c <_ntoa_format+0x174>
10001a2a:	42b4      	cmp	r4, r6
10001a2c:	f105 35ff 	add.w	r5, r5, #4294967295
10001a30:	d385      	bcc.n	1000193e <_ntoa_format+0x26>
10001a32:	e795      	b.n	10001960 <_ntoa_format+0x48>
10001a34:	f1b9 0f10 	cmp.w	r9, #16
10001a38:	d1b3      	bne.n	100019a2 <_ntoa_format+0x8a>
10001a3a:	06be      	lsls	r6, r7, #26
10001a3c:	d53b      	bpl.n	10001ab6 <_ntoa_format+0x19e>
10001a3e:	2c20      	cmp	r4, #32
10001a40:	d0af      	beq.n	100019a2 <_ntoa_format+0x8a>
10001a42:	2658      	movs	r6, #88	@ 0x58
10001a44:	f808 6004 	strb.w	r6, [r8, r4]
10001a48:	3401      	adds	r4, #1
10001a4a:	e7a8      	b.n	1000199e <_ntoa_format+0x86>
10001a4c:	2c20      	cmp	r4, #32
10001a4e:	d0a8      	beq.n	100019a2 <_ntoa_format+0x8a>
10001a50:	4626      	mov	r6, r4
10001a52:	3401      	adds	r4, #1
10001a54:	e007      	b.n	10001a66 <_ntoa_format+0x14e>
10001a56:	1e66      	subs	r6, r4, #1
10001a58:	d0b9      	beq.n	100019ce <_ntoa_format+0xb6>
10001a5a:	f1b9 0f10 	cmp.w	r9, #16
10001a5e:	d036      	beq.n	10001ace <_ntoa_format+0x1b6>
10001a60:	f1b9 0f02 	cmp.w	r9, #2
10001a64:	d1c9      	bne.n	100019fa <_ntoa_format+0xe2>
10001a66:	f04f 0c62 	mov.w	ip, #98	@ 0x62
10001a6a:	f808 c006 	strb.w	ip, [r8, r6]
10001a6e:	e796      	b.n	1000199e <_ntoa_format+0x86>
10001a70:	f017 0f10 	tst.w	r7, #16
10001a74:	d0c5      	beq.n	10001a02 <_ntoa_format+0xea>
10001a76:	f417 6f80 	tst.w	r7, #1024	@ 0x400
10001a7a:	d086      	beq.n	1000198a <_ntoa_format+0x72>
10001a7c:	e789      	b.n	10001992 <_ntoa_format+0x7a>
10001a7e:	073e      	lsls	r6, r7, #28
10001a80:	d590      	bpl.n	100019a4 <_ntoa_format+0x8c>
10001a82:	2620      	movs	r6, #32
10001a84:	f808 6004 	strb.w	r6, [r8, r4]
10001a88:	3401      	adds	r4, #1
10001a8a:	e78b      	b.n	100019a4 <_ntoa_format+0x8c>
10001a8c:	f017 0f0c 	tst.w	r7, #12
10001a90:	d000      	beq.n	10001a94 <_ntoa_format+0x17c>
10001a92:	3d01      	subs	r5, #1
10001a94:	42b4      	cmp	r4, r6
10001a96:	f4ff af52 	bcc.w	1000193e <_ntoa_format+0x26>
10001a9a:	e761      	b.n	10001960 <_ntoa_format+0x48>
10001a9c:	06bc      	lsls	r4, r7, #26
10001a9e:	d412      	bmi.n	10001ac6 <_ntoa_format+0x1ae>
10001aa0:	2478      	movs	r4, #120	@ 0x78
10001aa2:	f888 4000 	strb.w	r4, [r8]
10001aa6:	2430      	movs	r4, #48	@ 0x30
10001aa8:	f888 4001 	strb.w	r4, [r8, #1]
10001aac:	2402      	movs	r4, #2
10001aae:	f1ba 0f00 	cmp.w	sl, #0
10001ab2:	d099      	beq.n	100019e8 <_ntoa_format+0xd0>
10001ab4:	e7aa      	b.n	10001a0c <_ntoa_format+0xf4>
10001ab6:	2c20      	cmp	r4, #32
10001ab8:	f43f af73 	beq.w	100019a2 <_ntoa_format+0x8a>
10001abc:	2678      	movs	r6, #120	@ 0x78
10001abe:	f808 6004 	strb.w	r6, [r8, r4]
10001ac2:	3401      	adds	r4, #1
10001ac4:	e76b      	b.n	1000199e <_ntoa_format+0x86>
10001ac6:	2458      	movs	r4, #88	@ 0x58
10001ac8:	e7eb      	b.n	10001aa2 <_ntoa_format+0x18a>
10001aca:	2462      	movs	r4, #98	@ 0x62
10001acc:	e7e9      	b.n	10001aa2 <_ntoa_format+0x18a>
10001ace:	f017 0f20 	tst.w	r7, #32
10001ad2:	f1a4 0c02 	sub.w	ip, r4, #2
10001ad6:	d004      	beq.n	10001ae2 <_ntoa_format+0x1ca>
10001ad8:	f04f 0e58 	mov.w	lr, #88	@ 0x58
10001adc:	f808 e00c 	strb.w	lr, [r8, ip]
10001ae0:	e78b      	b.n	100019fa <_ntoa_format+0xe2>
10001ae2:	f04f 0e78 	mov.w	lr, #120	@ 0x78
10001ae6:	f808 e00c 	strb.w	lr, [r8, ip]
10001aea:	e786      	b.n	100019fa <_ntoa_format+0xe2>

10001aec <_out_char>:
10001aec:	b900      	cbnz	r0, 10001af0 <_out_char+0x4>
10001aee:	4770      	bx	lr
10001af0:	f001 bb72 	b.w	100031d8 <__wrap_putchar>

10001af4 <_out_fct>:
10001af4:	b110      	cbz	r0, 10001afc <_out_fct+0x8>
10001af6:	e9d1 3100 	ldrd	r3, r1, [r1]
10001afa:	4718      	bx	r3
10001afc:	4770      	bx	lr
10001afe:	bf00      	nop

10001b00 <_ftoa>:
10001b00:	e92d 4ff0 	stmdb	sp!, {r4, r5, r6, r7, r8, r9, sl, fp, lr}
10001b04:	b097      	sub	sp, #92	@ 0x5c
10001b06:	ed9d 7b20 	vldr	d7, [sp, #128]	@ 0x80
10001b0a:	e9dd 5b22 	ldrd	r5, fp, [sp, #136]	@ 0x88
10001b0e:	4607      	mov	r7, r0
10001b10:	4688      	mov	r8, r1
10001b12:	ec51 0b17 	vmov	r0, r1, d7
10001b16:	9c24      	ldr	r4, [sp, #144]	@ 0x90
10001b18:	4699      	mov	r9, r3
10001b1a:	920c      	str	r2, [sp, #48]	@ 0x30
10001b1c:	460b      	mov	r3, r1
10001b1e:	4602      	mov	r2, r0
10001b20:	ed8d 7b04 	vstr	d7, [sp, #16]
10001b24:	9407      	str	r4, [sp, #28]
10001b26:	f7ff fe49 	bl	100017bc <__wrap___aeabi_dcmpun>
10001b2a:	2800      	cmp	r0, #0
10001b2c:	f040 81f4 	bne.w	10001f18 <_ftoa+0x418>
10001b30:	e9dd 0104 	ldrd	r0, r1, [sp, #16]
10001b34:	f04f 32ff 	mov.w	r2, #4294967295
10001b38:	f46f 1380 	mvn.w	r3, #1048576	@ 0x100000
10001b3c:	f7ff fe50 	bl	100017e0 <__wrap___aeabi_dcmplt>
10001b40:	2800      	cmp	r0, #0
10001b42:	f040 811b 	bne.w	10001d7c <_ftoa+0x27c>
10001b46:	e9dd 0104 	ldrd	r0, r1, [sp, #16]
10001b4a:	f04f 32ff 	mov.w	r2, #4294967295
10001b4e:	4bac      	ldr	r3, [pc, #688]	@ (10001e00 <_ftoa+0x300>)
10001b50:	f7ff fe82 	bl	10001858 <__wrap___aeabi_dcmpgt>
10001b54:	2800      	cmp	r0, #0
10001b56:	f040 80ee 	bne.w	10001d36 <_ftoa+0x236>
10001b5a:	e9dd 0104 	ldrd	r0, r1, [sp, #16]
10001b5e:	a3a4      	add	r3, pc, #656	@ (adr r3, 10001df0 <_ftoa+0x2f0>)
10001b60:	e9d3 2300 	ldrd	r2, r3, [r3]
10001b64:	f7ff fe78 	bl	10001858 <__wrap___aeabi_dcmpgt>
10001b68:	2800      	cmp	r0, #0
10001b6a:	f040 80d3 	bne.w	10001d14 <_ftoa+0x214>
10001b6e:	e9dd 0104 	ldrd	r0, r1, [sp, #16]
10001b72:	a3a1      	add	r3, pc, #644	@ (adr r3, 10001df8 <_ftoa+0x2f8>)
10001b74:	e9d3 2300 	ldrd	r2, r3, [r3]
10001b78:	f7ff fe32 	bl	100017e0 <__wrap___aeabi_dcmplt>
10001b7c:	2800      	cmp	r0, #0
10001b7e:	f040 80c9 	bne.w	10001d14 <_ftoa+0x214>
10001b82:	e9dd 0104 	ldrd	r0, r1, [sp, #16]
10001b86:	2200      	movs	r2, #0
10001b88:	2300      	movs	r3, #0
10001b8a:	f7ff fe29 	bl	100017e0 <__wrap___aeabi_dcmplt>
10001b8e:	2800      	cmp	r0, #0
10001b90:	f040 80e8 	bne.w	10001d64 <_ftoa+0x264>
10001b94:	4623      	mov	r3, r4
10001b96:	900d      	str	r0, [sp, #52]	@ 0x34
10001b98:	f413 6f80 	tst.w	r3, #1024	@ 0x400
10001b9c:	bf08      	it	eq
10001b9e:	2506      	moveq	r5, #6
10001ba0:	2130      	movs	r1, #48	@ 0x30
10001ba2:	462b      	mov	r3, r5
10001ba4:	aa0e      	add	r2, sp, #56	@ 0x38
10001ba6:	f1a5 0620 	sub.w	r6, r5, #32
10001baa:	e005      	b.n	10001bb8 <_ftoa+0xb8>
10001bac:	3b01      	subs	r3, #1
10001bae:	42b3      	cmp	r3, r6
10001bb0:	f802 1b01 	strb.w	r1, [r2], #1
10001bb4:	f000 8193 	beq.w	10001ede <_ftoa+0x3de>
10001bb8:	2b09      	cmp	r3, #9
10001bba:	d8f7      	bhi.n	10001bac <_ftoa+0xac>
10001bbc:	461e      	mov	r6, r3
10001bbe:	1aed      	subs	r5, r5, r3
10001bc0:	e9dd 0104 	ldrd	r0, r1, [sp, #16]
10001bc4:	f7ff fdd6 	bl	10001774 <__wrap___aeabi_d2iz>
10001bc8:	4b8e      	ldr	r3, [pc, #568]	@ (10001e04 <_ftoa+0x304>)
10001bca:	4604      	mov	r4, r0
10001bcc:	eb03 03c6 	add.w	r3, r3, r6, lsl #3
10001bd0:	ed93 7b00 	vldr	d7, [r3]
10001bd4:	ed8d 7b08 	vstr	d7, [sp, #32]
10001bd8:	f7ff fda8 	bl	1000172c <__wrap___aeabi_i2d>
10001bdc:	4602      	mov	r2, r0
10001bde:	460b      	mov	r3, r1
10001be0:	e9dd 0104 	ldrd	r0, r1, [sp, #16]
10001be4:	f7ff fd1a 	bl	1000161c <__wrap___aeabi_dsub>
10001be8:	e9dd 2308 	ldrd	r2, r3, [sp, #32]
10001bec:	f7ff fd2a 	bl	10001644 <__wrap___aeabi_dmul>
10001bf0:	4602      	mov	r2, r0
10001bf2:	460b      	mov	r3, r1
10001bf4:	e9cd 230a 	strd	r2, r3, [sp, #40]	@ 0x28
10001bf8:	f7ff fdce 	bl	10001798 <__wrap___aeabi_d2uiz>
10001bfc:	4682      	mov	sl, r0
10001bfe:	f7ff fda7 	bl	10001750 <__wrap___aeabi_ui2d>
10001c02:	4602      	mov	r2, r0
10001c04:	460b      	mov	r3, r1
10001c06:	e9dd 010a 	ldrd	r0, r1, [sp, #40]	@ 0x28
10001c0a:	f7ff fd07 	bl	1000161c <__wrap___aeabi_dsub>
10001c0e:	4602      	mov	r2, r0
10001c10:	460b      	mov	r3, r1
10001c12:	e9cd 230a 	strd	r2, r3, [sp, #40]	@ 0x28
10001c16:	2200      	movs	r2, #0
10001c18:	4b7b      	ldr	r3, [pc, #492]	@ (10001e08 <_ftoa+0x308>)
10001c1a:	f7ff fe1d 	bl	10001858 <__wrap___aeabi_dcmpgt>
10001c1e:	2800      	cmp	r0, #0
10001c20:	f000 80fe 	beq.w	10001e20 <_ftoa+0x320>
10001c24:	f10a 0a01 	add.w	sl, sl, #1
10001c28:	4650      	mov	r0, sl
10001c2a:	f7ff fd91 	bl	10001750 <__wrap___aeabi_ui2d>
10001c2e:	4602      	mov	r2, r0
10001c30:	460b      	mov	r3, r1
10001c32:	e9dd 0108 	ldrd	r0, r1, [sp, #32]
10001c36:	f7ff fde7 	bl	10001808 <__wrap___aeabi_dcmple>
10001c3a:	b110      	cbz	r0, 10001c42 <_ftoa+0x142>
10001c3c:	f04f 0a00 	mov.w	sl, #0
10001c40:	3401      	adds	r4, #1
10001c42:	2e00      	cmp	r6, #0
10001c44:	f000 80fd 	beq.w	10001e42 <_ftoa+0x342>
10001c48:	1e68      	subs	r0, r5, #1
10001c4a:	ab0e      	add	r3, sp, #56	@ 0x38
10001c4c:	f8df c1cc 	ldr.w	ip, [pc, #460]	@ 10001e1c <_ftoa+0x31c>
10001c50:	4418      	add	r0, r3
10001c52:	e00f      	b.n	10001c74 <_ftoa+0x174>
10001c54:	fbac 210a 	umull	r2, r1, ip, sl
10001c58:	08c9      	lsrs	r1, r1, #3
10001c5a:	eb01 0281 	add.w	r2, r1, r1, lsl #2
10001c5e:	ebaa 0242 	sub.w	r2, sl, r2, lsl #1
10001c62:	3230      	adds	r2, #48	@ 0x30
10001c64:	f1ba 0f09 	cmp.w	sl, #9
10001c68:	f800 2f01 	strb.w	r2, [r0, #1]!
10001c6c:	f240 811c 	bls.w	10001ea8 <_ftoa+0x3a8>
10001c70:	468a      	mov	sl, r1
10001c72:	461d      	mov	r5, r3
10001c74:	2d20      	cmp	r5, #32
10001c76:	f105 0301 	add.w	r3, r5, #1
10001c7a:	f106 36ff 	add.w	r6, r6, #4294967295
10001c7e:	d1e9      	bne.n	10001c54 <_ftoa+0x154>
10001c80:	2520      	movs	r5, #32
10001c82:	1e69      	subs	r1, r5, #1
10001c84:	ab0e      	add	r3, sp, #56	@ 0x38
10001c86:	4861      	ldr	r0, [pc, #388]	@ (10001e0c <_ftoa+0x30c>)
10001c88:	4419      	add	r1, r3
10001c8a:	e010      	b.n	10001cae <_ftoa+0x1ae>
10001c8c:	fb80 6204 	smull	r6, r2, r0, r4
10001c90:	ebc3 03a2 	rsb	r3, r3, r2, asr #2
10001c94:	eb03 0283 	add.w	r2, r3, r3, lsl #2
10001c98:	eba4 0442 	sub.w	r4, r4, r2, lsl #1
10001c9c:	f104 0230 	add.w	r2, r4, #48	@ 0x30
10001ca0:	3501      	adds	r5, #1
10001ca2:	461c      	mov	r4, r3
10001ca4:	f801 2f01 	strb.w	r2, [r1, #1]!
10001ca8:	2b00      	cmp	r3, #0
10001caa:	f000 80eb 	beq.w	10001e84 <_ftoa+0x384>
10001cae:	2d20      	cmp	r5, #32
10001cb0:	ea4f 73e4 	mov.w	r3, r4, asr #31
10001cb4:	d1ea      	bne.n	10001c8c <_ftoa+0x18c>
10001cb6:	9b07      	ldr	r3, [sp, #28]
10001cb8:	f003 0303 	and.w	r3, r3, #3
10001cbc:	2b01      	cmp	r3, #1
10001cbe:	d118      	bne.n	10001cf2 <_ftoa+0x1f2>
10001cc0:	f1bb 0f00 	cmp.w	fp, #0
10001cc4:	d015      	beq.n	10001cf2 <_ftoa+0x1f2>
10001cc6:	9b0d      	ldr	r3, [sp, #52]	@ 0x34
10001cc8:	2b00      	cmp	r3, #0
10001cca:	f000 810a 	beq.w	10001ee2 <_ftoa+0x3e2>
10001cce:	f10b 3bff 	add.w	fp, fp, #4294967295
10001cd2:	f1bb 0f20 	cmp.w	fp, #32
10001cd6:	d90c      	bls.n	10001cf2 <_ftoa+0x1f2>
10001cd8:	1e6b      	subs	r3, r5, #1
10001cda:	a90e      	add	r1, sp, #56	@ 0x38
10001cdc:	2230      	movs	r2, #48	@ 0x30
10001cde:	440b      	add	r3, r1
10001ce0:	e005      	b.n	10001cee <_ftoa+0x1ee>
10001ce2:	3501      	adds	r5, #1
10001ce4:	455d      	cmp	r5, fp
10001ce6:	f803 2f01 	strb.w	r2, [r3, #1]!
10001cea:	f080 80d1 	bcs.w	10001e90 <_ftoa+0x390>
10001cee:	2d20      	cmp	r5, #32
10001cf0:	d1f7      	bne.n	10001ce2 <_ftoa+0x1e2>
10001cf2:	9b07      	ldr	r3, [sp, #28]
10001cf4:	ac0e      	add	r4, sp, #56	@ 0x38
10001cf6:	e9cd b302 	strd	fp, r3, [sp, #8]
10001cfa:	4641      	mov	r1, r8
10001cfc:	464b      	mov	r3, r9
10001cfe:	4638      	mov	r0, r7
10001d00:	9a0c      	ldr	r2, [sp, #48]	@ 0x30
10001d02:	9501      	str	r5, [sp, #4]
10001d04:	9400      	str	r4, [sp, #0]
10001d06:	f7ff fdb9 	bl	1000187c <_out_rev>
10001d0a:	4682      	mov	sl, r0
10001d0c:	4650      	mov	r0, sl
10001d0e:	b017      	add	sp, #92	@ 0x5c
10001d10:	e8bd 8ff0 	ldmia.w	sp!, {r4, r5, r6, r7, r8, r9, sl, fp, pc}
10001d14:	9b07      	ldr	r3, [sp, #28]
10001d16:	ed9d 7b04 	vldr	d7, [sp, #16]
10001d1a:	e9cd b323 	strd	fp, r3, [sp, #140]	@ 0x8c
10001d1e:	4641      	mov	r1, r8
10001d20:	464b      	mov	r3, r9
10001d22:	4638      	mov	r0, r7
10001d24:	9a0c      	ldr	r2, [sp, #48]	@ 0x30
10001d26:	ed8d 7b20 	vstr	d7, [sp, #128]	@ 0x80
10001d2a:	9522      	str	r5, [sp, #136]	@ 0x88
10001d2c:	b017      	add	sp, #92	@ 0x5c
10001d2e:	e8bd 4ff0 	ldmia.w	sp!, {r4, r5, r6, r7, r8, r9, sl, fp, lr}
10001d32:	f000 b945 	b.w	10001fc0 <_etoa>
10001d36:	0761      	lsls	r1, r4, #29
10001d38:	4623      	mov	r3, r4
10001d3a:	bf4c      	ite	mi
10001d3c:	2304      	movmi	r3, #4
10001d3e:	2303      	movpl	r3, #3
10001d40:	4641      	mov	r1, r8
10001d42:	9321      	str	r3, [sp, #132]	@ 0x84
10001d44:	4638      	mov	r0, r7
10001d46:	464b      	mov	r3, r9
10001d48:	9a07      	ldr	r2, [sp, #28]
10001d4a:	bf48      	it	mi
10001d4c:	4c30      	ldrmi	r4, [pc, #192]	@ (10001e10 <_ftoa+0x310>)
10001d4e:	e9cd b222 	strd	fp, r2, [sp, #136]	@ 0x88
10001d52:	bf58      	it	pl
10001d54:	4c2f      	ldrpl	r4, [pc, #188]	@ (10001e14 <_ftoa+0x314>)
10001d56:	9a0c      	ldr	r2, [sp, #48]	@ 0x30
10001d58:	9420      	str	r4, [sp, #128]	@ 0x80
10001d5a:	b017      	add	sp, #92	@ 0x5c
10001d5c:	e8bd 4ff0 	ldmia.w	sp!, {r4, r5, r6, r7, r8, r9, sl, fp, lr}
10001d60:	f7ff bd8c 	b.w	1000187c <_out_rev>
10001d64:	e9dd 2304 	ldrd	r2, r3, [sp, #16]
10001d68:	2000      	movs	r0, #0
10001d6a:	2100      	movs	r1, #0
10001d6c:	f7ff fc56 	bl	1000161c <__wrap___aeabi_dsub>
10001d70:	2301      	movs	r3, #1
10001d72:	e9cd 0104 	strd	r0, r1, [sp, #16]
10001d76:	930d      	str	r3, [sp, #52]	@ 0x34
10001d78:	4623      	mov	r3, r4
10001d7a:	e70d      	b.n	10001b98 <_ftoa+0x98>
10001d7c:	4623      	mov	r3, r4
10001d7e:	079c      	lsls	r4, r3, #30
10001d80:	f040 80aa 	bne.w	10001ed8 <_ftoa+0x3d8>
10001d84:	f1bb 0f04 	cmp.w	fp, #4
10001d88:	f240 80a6 	bls.w	10001ed8 <_ftoa+0x3d8>
10001d8c:	9b0c      	ldr	r3, [sp, #48]	@ 0x30
10001d8e:	461d      	mov	r5, r3
10001d90:	1f1c      	subs	r4, r3, #4
10001d92:	eb04 0a0b 	add.w	sl, r4, fp
10001d96:	462a      	mov	r2, r5
10001d98:	464b      	mov	r3, r9
10001d9a:	4641      	mov	r1, r8
10001d9c:	2020      	movs	r0, #32
10001d9e:	3501      	adds	r5, #1
10001da0:	47b8      	blx	r7
10001da2:	45aa      	cmp	sl, r5
10001da4:	d1f7      	bne.n	10001d96 <_ftoa+0x296>
10001da6:	4655      	mov	r5, sl
10001da8:	4c1b      	ldr	r4, [pc, #108]	@ (10001e18 <_ftoa+0x318>)
10001daa:	1f26      	subs	r6, r4, #4
10001dac:	f814 0d01 	ldrb.w	r0, [r4, #-1]!
10001db0:	462a      	mov	r2, r5
10001db2:	464b      	mov	r3, r9
10001db4:	4641      	mov	r1, r8
10001db6:	47b8      	blx	r7
10001db8:	42b4      	cmp	r4, r6
10001dba:	f105 0501 	add.w	r5, r5, #1
10001dbe:	d1f5      	bne.n	10001dac <_ftoa+0x2ac>
10001dc0:	9b07      	ldr	r3, [sp, #28]
10001dc2:	f10a 0a04 	add.w	sl, sl, #4
10001dc6:	0798      	lsls	r0, r3, #30
10001dc8:	d5a0      	bpl.n	10001d0c <_ftoa+0x20c>
10001dca:	9c0c      	ldr	r4, [sp, #48]	@ 0x30
10001dcc:	ebaa 0304 	sub.w	r3, sl, r4
10001dd0:	459b      	cmp	fp, r3
10001dd2:	d99b      	bls.n	10001d0c <_ftoa+0x20c>
10001dd4:	4652      	mov	r2, sl
10001dd6:	464b      	mov	r3, r9
10001dd8:	4641      	mov	r1, r8
10001dda:	2020      	movs	r0, #32
10001ddc:	f10a 0a01 	add.w	sl, sl, #1
10001de0:	47b8      	blx	r7
10001de2:	ebaa 0304 	sub.w	r3, sl, r4
10001de6:	455b      	cmp	r3, fp
10001de8:	d3f4      	bcc.n	10001dd4 <_ftoa+0x2d4>
10001dea:	e78f      	b.n	10001d0c <_ftoa+0x20c>
10001dec:	f3af 8000 	nop.w
10001df0:	00000000 	.word	0x00000000
10001df4:	41cdcd65 	.word	0x41cdcd65
10001df8:	00000000 	.word	0x00000000
10001dfc:	c1cdcd65 	.word	0xc1cdcd65
10001e00:	7fefffff 	.word	0x7fefffff
10001e04:	10003878 	.word	0x10003878
10001e08:	3fe00000 	.word	0x3fe00000
10001e0c:	66666667 	.word	0x66666667
10001e10:	100037d0 	.word	0x100037d0
10001e14:	100037d8 	.word	0x100037d8
10001e18:	100037e4 	.word	0x100037e4
10001e1c:	cccccccd 	.word	0xcccccccd
10001e20:	2200      	movs	r2, #0
10001e22:	e9dd 010a 	ldrd	r0, r1, [sp, #40]	@ 0x28
10001e26:	4b63      	ldr	r3, [pc, #396]	@ (10001fb4 <_ftoa+0x4b4>)
10001e28:	f7ff fcda 	bl	100017e0 <__wrap___aeabi_dcmplt>
10001e2c:	2800      	cmp	r0, #0
10001e2e:	f47f af08 	bne.w	10001c42 <_ftoa+0x142>
10001e32:	f1ba 0f00 	cmp.w	sl, #0
10001e36:	d16a      	bne.n	10001f0e <_ftoa+0x40e>
10001e38:	f10a 0a01 	add.w	sl, sl, #1
10001e3c:	2e00      	cmp	r6, #0
10001e3e:	f47f af03 	bne.w	10001c48 <_ftoa+0x148>
10001e42:	4620      	mov	r0, r4
10001e44:	f7ff fc72 	bl	1000172c <__wrap___aeabi_i2d>
10001e48:	4602      	mov	r2, r0
10001e4a:	460b      	mov	r3, r1
10001e4c:	e9dd 0104 	ldrd	r0, r1, [sp, #16]
10001e50:	f7ff fbe4 	bl	1000161c <__wrap___aeabi_dsub>
10001e54:	4602      	mov	r2, r0
10001e56:	460b      	mov	r3, r1
10001e58:	e9cd 2304 	strd	r2, r3, [sp, #16]
10001e5c:	2200      	movs	r2, #0
10001e5e:	4b55      	ldr	r3, [pc, #340]	@ (10001fb4 <_ftoa+0x4b4>)
10001e60:	f7ff fcbe 	bl	100017e0 <__wrap___aeabi_dcmplt>
10001e64:	2800      	cmp	r0, #0
10001e66:	f47f af0c 	bne.w	10001c82 <_ftoa+0x182>
10001e6a:	e9dd 0104 	ldrd	r0, r1, [sp, #16]
10001e6e:	2200      	movs	r2, #0
10001e70:	4b50      	ldr	r3, [pc, #320]	@ (10001fb4 <_ftoa+0x4b4>)
10001e72:	f7ff fcf1 	bl	10001858 <__wrap___aeabi_dcmpgt>
10001e76:	2800      	cmp	r0, #0
10001e78:	f47f af03 	bne.w	10001c82 <_ftoa+0x182>
10001e7c:	3401      	adds	r4, #1
10001e7e:	f024 0401 	bic.w	r4, r4, #1
10001e82:	e6fe      	b.n	10001c82 <_ftoa+0x182>
10001e84:	9b07      	ldr	r3, [sp, #28]
10001e86:	f003 0303 	and.w	r3, r3, #3
10001e8a:	2b01      	cmp	r3, #1
10001e8c:	f000 8082 	beq.w	10001f94 <_ftoa+0x494>
10001e90:	2d20      	cmp	r5, #32
10001e92:	f43f af2e 	beq.w	10001cf2 <_ftoa+0x1f2>
10001e96:	9b0d      	ldr	r3, [sp, #52]	@ 0x34
10001e98:	b37b      	cbz	r3, 10001efa <_ftoa+0x3fa>
10001e9a:	222d      	movs	r2, #45	@ 0x2d
10001e9c:	eb0d 0305 	add.w	r3, sp, r5
10001ea0:	f883 2038 	strb.w	r2, [r3, #56]	@ 0x38
10001ea4:	3501      	adds	r5, #1
10001ea6:	e724      	b.n	10001cf2 <_ftoa+0x1f2>
10001ea8:	2b20      	cmp	r3, #32
10001eaa:	f43f aee9 	beq.w	10001c80 <_ftoa+0x180>
10001eae:	aa0e      	add	r2, sp, #56	@ 0x38
10001eb0:	4415      	add	r5, r2
10001eb2:	441e      	add	r6, r3
10001eb4:	2230      	movs	r2, #48	@ 0x30
10001eb6:	e004      	b.n	10001ec2 <_ftoa+0x3c2>
10001eb8:	2b20      	cmp	r3, #32
10001eba:	f805 2f01 	strb.w	r2, [r5, #1]!
10001ebe:	f43f aedf 	beq.w	10001c80 <_ftoa+0x180>
10001ec2:	429e      	cmp	r6, r3
10001ec4:	f103 0301 	add.w	r3, r3, #1
10001ec8:	d1f6      	bne.n	10001eb8 <_ftoa+0x3b8>
10001eca:	222e      	movs	r2, #46	@ 0x2e
10001ecc:	eb0d 0306 	add.w	r3, sp, r6
10001ed0:	f883 2038 	strb.w	r2, [r3, #56]	@ 0x38
10001ed4:	1c75      	adds	r5, r6, #1
10001ed6:	e6d4      	b.n	10001c82 <_ftoa+0x182>
10001ed8:	f8dd a030 	ldr.w	sl, [sp, #48]	@ 0x30
10001edc:	e763      	b.n	10001da6 <_ftoa+0x2a6>
10001ede:	2520      	movs	r5, #32
10001ee0:	e66e      	b.n	10001bc0 <_ftoa+0xc0>
10001ee2:	9b07      	ldr	r3, [sp, #28]
10001ee4:	f013 0f0c 	tst.w	r3, #12
10001ee8:	d050      	beq.n	10001f8c <_ftoa+0x48c>
10001eea:	f10b 3bff 	add.w	fp, fp, #4294967295
10001eee:	45ab      	cmp	fp, r5
10001ef0:	f63f aef2 	bhi.w	10001cd8 <_ftoa+0x1d8>
10001ef4:	2d20      	cmp	r5, #32
10001ef6:	f43f aefc 	beq.w	10001cf2 <_ftoa+0x1f2>
10001efa:	9b07      	ldr	r3, [sp, #28]
10001efc:	075a      	lsls	r2, r3, #29
10001efe:	d501      	bpl.n	10001f04 <_ftoa+0x404>
10001f00:	222b      	movs	r2, #43	@ 0x2b
10001f02:	e7cb      	b.n	10001e9c <_ftoa+0x39c>
10001f04:	071b      	lsls	r3, r3, #28
10001f06:	f57f aef4 	bpl.w	10001cf2 <_ftoa+0x1f2>
10001f0a:	2220      	movs	r2, #32
10001f0c:	e7c6      	b.n	10001e9c <_ftoa+0x39c>
10001f0e:	f01a 0f01 	tst.w	sl, #1
10001f12:	f43f ae96 	beq.w	10001c42 <_ftoa+0x142>
10001f16:	e78f      	b.n	10001e38 <_ftoa+0x338>
10001f18:	07a6      	lsls	r6, r4, #30
10001f1a:	d134      	bne.n	10001f86 <_ftoa+0x486>
10001f1c:	f1bb 0f03 	cmp.w	fp, #3
10001f20:	d931      	bls.n	10001f86 <_ftoa+0x486>
10001f22:	9b0c      	ldr	r3, [sp, #48]	@ 0x30
10001f24:	461d      	mov	r5, r3
10001f26:	1edc      	subs	r4, r3, #3
10001f28:	eb04 0a0b 	add.w	sl, r4, fp
10001f2c:	462a      	mov	r2, r5
10001f2e:	464b      	mov	r3, r9
10001f30:	4641      	mov	r1, r8
10001f32:	2020      	movs	r0, #32
10001f34:	3501      	adds	r5, #1
10001f36:	47b8      	blx	r7
10001f38:	4555      	cmp	r5, sl
10001f3a:	d1f7      	bne.n	10001f2c <_ftoa+0x42c>
10001f3c:	4655      	mov	r5, sl
10001f3e:	4c1e      	ldr	r4, [pc, #120]	@ (10001fb8 <_ftoa+0x4b8>)
10001f40:	1ee6      	subs	r6, r4, #3
10001f42:	f814 0d01 	ldrb.w	r0, [r4, #-1]!
10001f46:	462a      	mov	r2, r5
10001f48:	464b      	mov	r3, r9
10001f4a:	4641      	mov	r1, r8
10001f4c:	47b8      	blx	r7
10001f4e:	42a6      	cmp	r6, r4
10001f50:	f105 0501 	add.w	r5, r5, #1
10001f54:	d1f5      	bne.n	10001f42 <_ftoa+0x442>
10001f56:	9b07      	ldr	r3, [sp, #28]
10001f58:	f10a 0a03 	add.w	sl, sl, #3
10001f5c:	079d      	lsls	r5, r3, #30
10001f5e:	f57f aed5 	bpl.w	10001d0c <_ftoa+0x20c>
10001f62:	9c0c      	ldr	r4, [sp, #48]	@ 0x30
10001f64:	ebaa 0304 	sub.w	r3, sl, r4
10001f68:	459b      	cmp	fp, r3
10001f6a:	f67f aecf 	bls.w	10001d0c <_ftoa+0x20c>
10001f6e:	4652      	mov	r2, sl
10001f70:	464b      	mov	r3, r9
10001f72:	4641      	mov	r1, r8
10001f74:	2020      	movs	r0, #32
10001f76:	f10a 0a01 	add.w	sl, sl, #1
10001f7a:	47b8      	blx	r7
10001f7c:	ebaa 0304 	sub.w	r3, sl, r4
10001f80:	459b      	cmp	fp, r3
10001f82:	d8f4      	bhi.n	10001f6e <_ftoa+0x46e>
10001f84:	e6c2      	b.n	10001d0c <_ftoa+0x20c>
10001f86:	f8dd a030 	ldr.w	sl, [sp, #48]	@ 0x30
10001f8a:	e7d7      	b.n	10001f3c <_ftoa+0x43c>
10001f8c:	45ab      	cmp	fp, r5
10001f8e:	f63f aea3 	bhi.w	10001cd8 <_ftoa+0x1d8>
10001f92:	e6ae      	b.n	10001cf2 <_ftoa+0x1f2>
10001f94:	f1bb 0f00 	cmp.w	fp, #0
10001f98:	f43f af7a 	beq.w	10001e90 <_ftoa+0x390>
10001f9c:	9b0d      	ldr	r3, [sp, #52]	@ 0x34
10001f9e:	2b00      	cmp	r3, #0
10001fa0:	d09f      	beq.n	10001ee2 <_ftoa+0x3e2>
10001fa2:	f10b 3bff 	add.w	fp, fp, #4294967295
10001fa6:	455d      	cmp	r5, fp
10001fa8:	f4ff ae96 	bcc.w	10001cd8 <_ftoa+0x1d8>
10001fac:	2d20      	cmp	r5, #32
10001fae:	f47f af74 	bne.w	10001e9a <_ftoa+0x39a>
10001fb2:	e69e      	b.n	10001cf2 <_ftoa+0x1f2>
10001fb4:	3fe00000 	.word	0x3fe00000
10001fb8:	100037df 	.word	0x100037df
10001fbc:	00000000 	.word	0x00000000

10001fc0 <_etoa>:
10001fc0:	e92d 4ff0 	stmdb	sp!, {r4, r5, r6, r7, r8, r9, sl, fp, lr}
10001fc4:	b09f      	sub	sp, #124	@ 0x7c
10001fc6:	9e2a      	ldr	r6, [sp, #168]	@ 0xa8
10001fc8:	e9dd 4528 	ldrd	r4, r5, [sp, #160]	@ 0xa0
10001fcc:	4607      	mov	r7, r0
10001fce:	4693      	mov	fp, r2
10001fd0:	9108      	str	r1, [sp, #32]
10001fd2:	9309      	str	r3, [sp, #36]	@ 0x24
10001fd4:	4622      	mov	r2, r4
10001fd6:	462b      	mov	r3, r5
10001fd8:	4620      	mov	r0, r4
10001fda:	4629      	mov	r1, r5
10001fdc:	960e      	str	r6, [sp, #56]	@ 0x38
10001fde:	e9dd a62b 	ldrd	sl, r6, [sp, #172]	@ 0xac
10001fe2:	f7ff fbeb 	bl	100017bc <__wrap___aeabi_dcmpun>
10001fe6:	2800      	cmp	r0, #0
10001fe8:	f040 80be 	bne.w	10002168 <_etoa+0x1a8>
10001fec:	4620      	mov	r0, r4
10001fee:	4629      	mov	r1, r5
10001ff0:	f04f 32ff 	mov.w	r2, #4294967295
10001ff4:	4b78      	ldr	r3, [pc, #480]	@ (100021d8 <_etoa+0x218>)
10001ff6:	f7ff fc2f 	bl	10001858 <__wrap___aeabi_dcmpgt>
10001ffa:	2800      	cmp	r0, #0
10001ffc:	f040 80b4 	bne.w	10002168 <_etoa+0x1a8>
10002000:	4620      	mov	r0, r4
10002002:	4629      	mov	r1, r5
10002004:	f04f 32ff 	mov.w	r2, #4294967295
10002008:	f46f 1380 	mvn.w	r3, #1048576	@ 0x100000
1000200c:	f7ff fbe8 	bl	100017e0 <__wrap___aeabi_dcmplt>
10002010:	2800      	cmp	r0, #0
10002012:	f040 80a9 	bne.w	10002168 <_etoa+0x1a8>
10002016:	4620      	mov	r0, r4
10002018:	4629      	mov	r1, r5
1000201a:	2200      	movs	r2, #0
1000201c:	2300      	movs	r3, #0
1000201e:	f7ff fbdf 	bl	100017e0 <__wrap___aeabi_dcmplt>
10002022:	2800      	cmp	r0, #0
10002024:	f040 81d5 	bne.w	100023d2 <_etoa+0x412>
10002028:	e9cd 450a 	strd	r4, r5, [sp, #40]	@ 0x28
1000202c:	e9dd 230a 	ldrd	r2, r3, [sp, #40]	@ 0x28
10002030:	4690      	mov	r8, r2
10002032:	4699      	mov	r9, r3
10002034:	f406 6200 	and.w	r2, r6, #2048	@ 0x800
10002038:	f416 6380 	ands.w	r3, r6, #1024	@ 0x400
1000203c:	920f      	str	r2, [sp, #60]	@ 0x3c
1000203e:	9313      	str	r3, [sp, #76]	@ 0x4c
10002040:	f040 80a1 	bne.w	10002186 <_etoa+0x1c6>
10002044:	ea58 0309 	orrs.w	r3, r8, r9
10002048:	f040 80ca 	bne.w	100021e0 <_etoa+0x220>
1000204c:	2a00      	cmp	r2, #0
1000204e:	f040 81e3 	bne.w	10002418 <_etoa+0x458>
10002052:	2306      	movs	r3, #6
10002054:	930e      	str	r3, [sp, #56]	@ 0x38
10002056:	f016 0202 	ands.w	r2, r6, #2
1000205a:	9210      	str	r2, [sp, #64]	@ 0x40
1000205c:	f040 81d4 	bne.w	10002408 <_etoa+0x448>
10002060:	4653      	mov	r3, sl
10002062:	2b04      	cmp	r3, #4
10002064:	bf38      	it	cc
10002066:	2304      	movcc	r3, #4
10002068:	920c      	str	r2, [sp, #48]	@ 0x30
1000206a:	2204      	movs	r2, #4
1000206c:	3b04      	subs	r3, #4
1000206e:	9212      	str	r2, [sp, #72]	@ 0x48
10002070:	930f      	str	r3, [sp, #60]	@ 0x3c
10002072:	4620      	mov	r0, r4
10002074:	4629      	mov	r1, r5
10002076:	2200      	movs	r2, #0
10002078:	2300      	movs	r3, #0
1000207a:	f7ff fbb1 	bl	100017e0 <__wrap___aeabi_dcmplt>
1000207e:	2800      	cmp	r0, #0
10002080:	f040 81f3 	bne.w	1000246a <_etoa+0x4aa>
10002084:	ed9d 7b0a 	vldr	d7, [sp, #40]	@ 0x28
10002088:	9b0f      	ldr	r3, [sp, #60]	@ 0x3c
1000208a:	465a      	mov	r2, fp
1000208c:	9303      	str	r3, [sp, #12]
1000208e:	9b0e      	ldr	r3, [sp, #56]	@ 0x38
10002090:	ed8d 7b00 	vstr	d7, [sp]
10002094:	9302      	str	r3, [sp, #8]
10002096:	f426 6300 	bic.w	r3, r6, #2048	@ 0x800
1000209a:	9304      	str	r3, [sp, #16]
1000209c:	4638      	mov	r0, r7
1000209e:	9b09      	ldr	r3, [sp, #36]	@ 0x24
100020a0:	9908      	ldr	r1, [sp, #32]
100020a2:	f7ff fd2d 	bl	10001b00 <_ftoa>
100020a6:	4602      	mov	r2, r0
100020a8:	f016 0f20 	tst.w	r6, #32
100020ac:	9b09      	ldr	r3, [sp, #36]	@ 0x24
100020ae:	9908      	ldr	r1, [sp, #32]
100020b0:	bf0c      	ite	eq
100020b2:	2065      	moveq	r0, #101	@ 0x65
100020b4:	2045      	movne	r0, #69	@ 0x45
100020b6:	f102 0801 	add.w	r8, r2, #1
100020ba:	47b8      	blx	r7
100020bc:	9a0c      	ldr	r2, [sp, #48]	@ 0x30
100020be:	9b12      	ldr	r3, [sp, #72]	@ 0x48
100020c0:	ac16      	add	r4, sp, #88	@ 0x58
100020c2:	1e5d      	subs	r5, r3, #1
100020c4:	ea82 73e2 	eor.w	r3, r2, r2, asr #31
100020c8:	eba3 73e2 	sub.w	r3, r3, r2, asr #31
100020cc:	0fd1      	lsrs	r1, r2, #31
100020ce:	2600      	movs	r6, #0
100020d0:	4622      	mov	r2, r4
100020d2:	4699      	mov	r9, r3
100020d4:	f8df c104 	ldr.w	ip, [pc, #260]	@ 100021dc <_etoa+0x21c>
100020d8:	e001      	b.n	100020de <_etoa+0x11e>
100020da:	2e20      	cmp	r6, #32
100020dc:	d010      	beq.n	10002100 <_etoa+0x140>
100020de:	46ce      	mov	lr, r9
100020e0:	fbac 3009 	umull	r3, r0, ip, r9
100020e4:	08c0      	lsrs	r0, r0, #3
100020e6:	eb00 0380 	add.w	r3, r0, r0, lsl #2
100020ea:	eba9 0343 	sub.w	r3, r9, r3, lsl #1
100020ee:	3330      	adds	r3, #48	@ 0x30
100020f0:	f1be 0f09 	cmp.w	lr, #9
100020f4:	4681      	mov	r9, r0
100020f6:	f106 0601 	add.w	r6, r6, #1
100020fa:	f802 3b01 	strb.w	r3, [r2], #1
100020fe:	d8ec      	bhi.n	100020da <_etoa+0x11a>
10002100:	2305      	movs	r3, #5
10002102:	2000      	movs	r0, #0
10002104:	9306      	str	r3, [sp, #24]
10002106:	230a      	movs	r3, #10
10002108:	9505      	str	r5, [sp, #20]
1000210a:	9400      	str	r4, [sp, #0]
1000210c:	9d09      	ldr	r5, [sp, #36]	@ 0x24
1000210e:	9c08      	ldr	r4, [sp, #32]
10002110:	4642      	mov	r2, r8
10002112:	e9cd 3003 	strd	r3, r0, [sp, #12]
10002116:	e9cd 6101 	strd	r6, r1, [sp, #4]
1000211a:	462b      	mov	r3, r5
1000211c:	4621      	mov	r1, r4
1000211e:	4638      	mov	r0, r7
10002120:	f7ff fbfa 	bl	10001918 <_ntoa_format>
10002124:	9a10      	ldr	r2, [sp, #64]	@ 0x40
10002126:	4680      	mov	r8, r0
10002128:	b1d2      	cbz	r2, 10002160 <_etoa+0x1a0>
1000212a:	eba0 060b 	sub.w	r6, r0, fp
1000212e:	45b2      	cmp	sl, r6
10002130:	d916      	bls.n	10002160 <_etoa+0x1a0>
10002132:	eb0b 0206 	add.w	r2, fp, r6
10002136:	462b      	mov	r3, r5
10002138:	4621      	mov	r1, r4
1000213a:	2020      	movs	r0, #32
1000213c:	3601      	adds	r6, #1
1000213e:	47b8      	blx	r7
10002140:	45b2      	cmp	sl, r6
10002142:	d8f6      	bhi.n	10002132 <_etoa+0x172>
10002144:	f10b 33ff 	add.w	r3, fp, #4294967295
10002148:	4453      	add	r3, sl
1000214a:	f1cb 0201 	rsb	r2, fp, #1
1000214e:	eba3 0308 	sub.w	r3, r3, r8
10002152:	4442      	add	r2, r8
10002154:	4592      	cmp	sl, r2
10002156:	bf38      	it	cc
10002158:	2300      	movcc	r3, #0
1000215a:	f108 0801 	add.w	r8, r8, #1
1000215e:	4498      	add	r8, r3
10002160:	4640      	mov	r0, r8
10002162:	b01f      	add	sp, #124	@ 0x7c
10002164:	e8bd 8ff0 	ldmia.w	sp!, {r4, r5, r6, r7, r8, r9, sl, fp, pc}
10002168:	465a      	mov	r2, fp
1000216a:	4638      	mov	r0, r7
1000216c:	e9cd 4528 	strd	r4, r5, [sp, #160]	@ 0xa0
10002170:	e9cd a62b 	strd	sl, r6, [sp, #172]	@ 0xac
10002174:	9c0e      	ldr	r4, [sp, #56]	@ 0x38
10002176:	9b09      	ldr	r3, [sp, #36]	@ 0x24
10002178:	9908      	ldr	r1, [sp, #32]
1000217a:	942a      	str	r4, [sp, #168]	@ 0xa8
1000217c:	b01f      	add	sp, #124	@ 0x7c
1000217e:	e8bd 4ff0 	ldmia.w	sp!, {r4, r5, r6, r7, r8, r9, sl, fp, lr}
10002182:	f7ff bcbd 	b.w	10001b00 <_ftoa>
10002186:	ea58 0309 	orrs.w	r3, r8, r9
1000218a:	d12b      	bne.n	100021e4 <_etoa+0x224>
1000218c:	2a00      	cmp	r2, #0
1000218e:	f43f af62 	beq.w	10002056 <_etoa+0x96>
10002192:	2300      	movs	r3, #0
10002194:	930c      	str	r3, [sp, #48]	@ 0x30
10002196:	9b0e      	ldr	r3, [sp, #56]	@ 0x38
10002198:	9a0c      	ldr	r2, [sp, #48]	@ 0x30
1000219a:	4293      	cmp	r3, r2
1000219c:	f300 81b9 	bgt.w	10002512 <_etoa+0x552>
100021a0:	f04f 0800 	mov.w	r8, #0
100021a4:	4620      	mov	r0, r4
100021a6:	4629      	mov	r1, r5
100021a8:	2200      	movs	r2, #0
100021aa:	2300      	movs	r3, #0
100021ac:	f7ff fb18 	bl	100017e0 <__wrap___aeabi_dcmplt>
100021b0:	2800      	cmp	r0, #0
100021b2:	f040 8113 	bne.w	100023dc <_etoa+0x41c>
100021b6:	ed9d 7b0a 	vldr	d7, [sp, #40]	@ 0x28
100021ba:	f426 6600 	bic.w	r6, r6, #2048	@ 0x800
100021be:	f446 6680 	orr.w	r6, r6, #1024	@ 0x400
100021c2:	ed8d 7b28 	vstr	d7, [sp, #160]	@ 0xa0
100021c6:	465a      	mov	r2, fp
100021c8:	4638      	mov	r0, r7
100021ca:	e9cd 8a2a 	strd	r8, sl, [sp, #168]	@ 0xa8
100021ce:	9b09      	ldr	r3, [sp, #36]	@ 0x24
100021d0:	9908      	ldr	r1, [sp, #32]
100021d2:	962c      	str	r6, [sp, #176]	@ 0xb0
100021d4:	e7d2      	b.n	1000217c <_etoa+0x1bc>
100021d6:	bf00      	nop
100021d8:	7fefffff 	.word	0x7fefffff
100021dc:	cccccccd 	.word	0xcccccccd
100021e0:	2306      	movs	r3, #6
100021e2:	930e      	str	r3, [sp, #56]	@ 0x38
100021e4:	f3c9 500a 	ubfx	r0, r9, #20, #11
100021e8:	f2a0 30ff 	subw	r0, r0, #1023	@ 0x3ff
100021ec:	f7ff fa9e 	bl	1000172c <__wrap___aeabi_i2d>
100021f0:	a3c1      	add	r3, pc, #772	@ (adr r3, 100024f8 <_etoa+0x538>)
100021f2:	e9d3 2300 	ldrd	r2, r3, [r3]
100021f6:	f7ff fa25 	bl	10001644 <__wrap___aeabi_dmul>
100021fa:	a3c1      	add	r3, pc, #772	@ (adr r3, 10002500 <_etoa+0x540>)
100021fc:	e9d3 2300 	ldrd	r2, r3, [r3]
10002200:	f7ff f9f8 	bl	100015f4 <__wrap___aeabi_dadd>
10002204:	f3c9 0913 	ubfx	r9, r9, #0, #20
10002208:	e9cd 010c 	strd	r0, r1, [sp, #48]	@ 0x30
1000220c:	f049 517f 	orr.w	r1, r9, #1069547520	@ 0x3fc00000
10002210:	4640      	mov	r0, r8
10002212:	2200      	movs	r2, #0
10002214:	4bb2      	ldr	r3, [pc, #712]	@ (100024e0 <_etoa+0x520>)
10002216:	f441 1140 	orr.w	r1, r1, #3145728	@ 0x300000
1000221a:	f7ff f9ff 	bl	1000161c <__wrap___aeabi_dsub>
1000221e:	a3a4      	add	r3, pc, #656	@ (adr r3, 100024b0 <_etoa+0x4f0>)
10002220:	e9d3 2300 	ldrd	r2, r3, [r3]
10002224:	f7ff fa0e 	bl	10001644 <__wrap___aeabi_dmul>
10002228:	4602      	mov	r2, r0
1000222a:	460b      	mov	r3, r1
1000222c:	e9dd 010c 	ldrd	r0, r1, [sp, #48]	@ 0x30
10002230:	f7ff f9e0 	bl	100015f4 <__wrap___aeabi_dadd>
10002234:	f7ff fa9e 	bl	10001774 <__wrap___aeabi_d2iz>
10002238:	900c      	str	r0, [sp, #48]	@ 0x30
1000223a:	f7ff fa77 	bl	1000172c <__wrap___aeabi_i2d>
1000223e:	a39e      	add	r3, pc, #632	@ (adr r3, 100024b8 <_etoa+0x4f8>)
10002240:	e9d3 2300 	ldrd	r2, r3, [r3]
10002244:	4680      	mov	r8, r0
10002246:	4689      	mov	r9, r1
10002248:	f7ff f9fc 	bl	10001644 <__wrap___aeabi_dmul>
1000224c:	2200      	movs	r2, #0
1000224e:	4ba5      	ldr	r3, [pc, #660]	@ (100024e4 <_etoa+0x524>)
10002250:	f7ff f9d0 	bl	100015f4 <__wrap___aeabi_dadd>
10002254:	f7ff fa8e 	bl	10001774 <__wrap___aeabi_d2iz>
10002258:	4603      	mov	r3, r0
1000225a:	4649      	mov	r1, r9
1000225c:	4640      	mov	r0, r8
1000225e:	9312      	str	r3, [sp, #72]	@ 0x48
10002260:	a397      	add	r3, pc, #604	@ (adr r3, 100024c0 <_etoa+0x500>)
10002262:	e9d3 2300 	ldrd	r2, r3, [r3]
10002266:	f7ff f9ed 	bl	10001644 <__wrap___aeabi_dmul>
1000226a:	4680      	mov	r8, r0
1000226c:	9812      	ldr	r0, [sp, #72]	@ 0x48
1000226e:	4689      	mov	r9, r1
10002270:	f7ff fa5c 	bl	1000172c <__wrap___aeabi_i2d>
10002274:	a394      	add	r3, pc, #592	@ (adr r3, 100024c8 <_etoa+0x508>)
10002276:	e9d3 2300 	ldrd	r2, r3, [r3]
1000227a:	f7ff f9e3 	bl	10001644 <__wrap___aeabi_dmul>
1000227e:	4602      	mov	r2, r0
10002280:	460b      	mov	r3, r1
10002282:	4640      	mov	r0, r8
10002284:	4649      	mov	r1, r9
10002286:	f7ff f9c9 	bl	1000161c <__wrap___aeabi_dsub>
1000228a:	4602      	mov	r2, r0
1000228c:	460b      	mov	r3, r1
1000228e:	4680      	mov	r8, r0
10002290:	4689      	mov	r9, r1
10002292:	f7ff f9d7 	bl	10001644 <__wrap___aeabi_dmul>
10002296:	4642      	mov	r2, r8
10002298:	464b      	mov	r3, r9
1000229a:	e9cd 0110 	strd	r0, r1, [sp, #64]	@ 0x40
1000229e:	4640      	mov	r0, r8
100022a0:	4649      	mov	r1, r9
100022a2:	f7ff f9a7 	bl	100015f4 <__wrap___aeabi_dadd>
100022a6:	2200      	movs	r2, #0
100022a8:	e9cd 0114 	strd	r0, r1, [sp, #80]	@ 0x50
100022ac:	e9dd 0110 	ldrd	r0, r1, [sp, #64]	@ 0x40
100022b0:	4b8d      	ldr	r3, [pc, #564]	@ (100024e8 <_etoa+0x528>)
100022b2:	f7ff f9ed 	bl	10001690 <__wrap___aeabi_ddiv>
100022b6:	2200      	movs	r2, #0
100022b8:	4b8c      	ldr	r3, [pc, #560]	@ (100024ec <_etoa+0x52c>)
100022ba:	f7ff f99b 	bl	100015f4 <__wrap___aeabi_dadd>
100022be:	4602      	mov	r2, r0
100022c0:	460b      	mov	r3, r1
100022c2:	e9dd 0110 	ldrd	r0, r1, [sp, #64]	@ 0x40
100022c6:	f7ff f9e3 	bl	10001690 <__wrap___aeabi_ddiv>
100022ca:	2200      	movs	r2, #0
100022cc:	4b88      	ldr	r3, [pc, #544]	@ (100024f0 <_etoa+0x530>)
100022ce:	f7ff f991 	bl	100015f4 <__wrap___aeabi_dadd>
100022d2:	4602      	mov	r2, r0
100022d4:	460b      	mov	r3, r1
100022d6:	e9dd 0110 	ldrd	r0, r1, [sp, #64]	@ 0x40
100022da:	f7ff f9d9 	bl	10001690 <__wrap___aeabi_ddiv>
100022de:	4642      	mov	r2, r8
100022e0:	464b      	mov	r3, r9
100022e2:	4680      	mov	r8, r0
100022e4:	4689      	mov	r9, r1
100022e6:	2000      	movs	r0, #0
100022e8:	f04f 4180 	mov.w	r1, #1073741824	@ 0x40000000
100022ec:	f7ff f996 	bl	1000161c <__wrap___aeabi_dsub>
100022f0:	4602      	mov	r2, r0
100022f2:	460b      	mov	r3, r1
100022f4:	4640      	mov	r0, r8
100022f6:	4649      	mov	r1, r9
100022f8:	f7ff f97c 	bl	100015f4 <__wrap___aeabi_dadd>
100022fc:	4602      	mov	r2, r0
100022fe:	460b      	mov	r3, r1
10002300:	e9dd 0114 	ldrd	r0, r1, [sp, #80]	@ 0x50
10002304:	f7ff f9c4 	bl	10001690 <__wrap___aeabi_ddiv>
10002308:	2200      	movs	r2, #0
1000230a:	4b7a      	ldr	r3, [pc, #488]	@ (100024f4 <_etoa+0x534>)
1000230c:	f7ff f972 	bl	100015f4 <__wrap___aeabi_dadd>
10002310:	9b12      	ldr	r3, [sp, #72]	@ 0x48
10002312:	2200      	movs	r2, #0
10002314:	f203 3cff 	addw	ip, r3, #1023	@ 0x3ff
10002318:	ea4f 530c 	mov.w	r3, ip, lsl #20
1000231c:	f7ff f992 	bl	10001644 <__wrap___aeabi_dmul>
10002320:	4680      	mov	r8, r0
10002322:	4689      	mov	r9, r1
10002324:	e9dd 010a 	ldrd	r0, r1, [sp, #40]	@ 0x28
10002328:	4642      	mov	r2, r8
1000232a:	464b      	mov	r3, r9
1000232c:	f7ff fa58 	bl	100017e0 <__wrap___aeabi_dcmplt>
10002330:	b150      	cbz	r0, 10002348 <_etoa+0x388>
10002332:	9b0c      	ldr	r3, [sp, #48]	@ 0x30
10002334:	4640      	mov	r0, r8
10002336:	3b01      	subs	r3, #1
10002338:	4649      	mov	r1, r9
1000233a:	930c      	str	r3, [sp, #48]	@ 0x30
1000233c:	2200      	movs	r2, #0
1000233e:	4b6b      	ldr	r3, [pc, #428]	@ (100024ec <_etoa+0x52c>)
10002340:	f7ff f9a6 	bl	10001690 <__wrap___aeabi_ddiv>
10002344:	4680      	mov	r8, r0
10002346:	4689      	mov	r9, r1
10002348:	9a0c      	ldr	r2, [sp, #48]	@ 0x30
1000234a:	4643      	mov	r3, r8
1000234c:	3263      	adds	r2, #99	@ 0x63
1000234e:	2ac6      	cmp	r2, #198	@ 0xc6
10002350:	f006 0202 	and.w	r2, r6, #2
10002354:	9210      	str	r2, [sp, #64]	@ 0x40
10002356:	4649      	mov	r1, r9
10002358:	9a0f      	ldr	r2, [sp, #60]	@ 0x3c
1000235a:	d82c      	bhi.n	100023b6 <_etoa+0x3f6>
1000235c:	2a00      	cmp	r2, #0
1000235e:	d05e      	beq.n	1000241e <_etoa+0x45e>
10002360:	2204      	movs	r2, #4
10002362:	9212      	str	r2, [sp, #72]	@ 0x48
10002364:	430b      	orrs	r3, r1
10002366:	f43f af16 	beq.w	10002196 <_etoa+0x1d6>
1000236a:	e9dd 010a 	ldrd	r0, r1, [sp, #40]	@ 0x28
1000236e:	a358      	add	r3, pc, #352	@ (adr r3, 100024d0 <_etoa+0x510>)
10002370:	e9d3 2300 	ldrd	r2, r3, [r3]
10002374:	f7ff fa5c 	bl	10001830 <__wrap___aeabi_dcmpge>
10002378:	b148      	cbz	r0, 1000238e <_etoa+0x3ce>
1000237a:	e9dd 010a 	ldrd	r0, r1, [sp, #40]	@ 0x28
1000237e:	a356      	add	r3, pc, #344	@ (adr r3, 100024d8 <_etoa+0x518>)
10002380:	e9d3 2300 	ldrd	r2, r3, [r3]
10002384:	f7ff fa2c 	bl	100017e0 <__wrap___aeabi_dcmplt>
10002388:	2800      	cmp	r0, #0
1000238a:	f47f af04 	bne.w	10002196 <_etoa+0x1d6>
1000238e:	9b0e      	ldr	r3, [sp, #56]	@ 0x38
10002390:	2b00      	cmp	r3, #0
10002392:	d050      	beq.n	10002436 <_etoa+0x476>
10002394:	9a13      	ldr	r2, [sp, #76]	@ 0x4c
10002396:	2a00      	cmp	r2, #0
10002398:	d07d      	beq.n	10002496 <_etoa+0x4d6>
1000239a:	3b01      	subs	r3, #1
1000239c:	930e      	str	r3, [sp, #56]	@ 0x38
1000239e:	9b12      	ldr	r3, [sp, #72]	@ 0x48
100023a0:	459a      	cmp	sl, r3
100023a2:	d905      	bls.n	100023b0 <_etoa+0x3f0>
100023a4:	9b10      	ldr	r3, [sp, #64]	@ 0x40
100023a6:	2b00      	cmp	r3, #0
100023a8:	f000 80ae 	beq.w	10002508 <_etoa+0x548>
100023ac:	2302      	movs	r3, #2
100023ae:	9310      	str	r3, [sp, #64]	@ 0x40
100023b0:	2300      	movs	r3, #0
100023b2:	930f      	str	r3, [sp, #60]	@ 0x3c
100023b4:	e044      	b.n	10002440 <_etoa+0x480>
100023b6:	bb22      	cbnz	r2, 10002402 <_etoa+0x442>
100023b8:	f1ba 0f05 	cmp.w	sl, #5
100023bc:	d94f      	bls.n	1000245e <_etoa+0x49e>
100023be:	f006 0302 	and.w	r3, r6, #2
100023c2:	2b00      	cmp	r3, #0
100023c4:	d149      	bne.n	1000245a <_etoa+0x49a>
100023c6:	2305      	movs	r3, #5
100023c8:	9312      	str	r3, [sp, #72]	@ 0x48
100023ca:	f1aa 0305 	sub.w	r3, sl, #5
100023ce:	930f      	str	r3, [sp, #60]	@ 0x3c
100023d0:	e03a      	b.n	10002448 <_etoa+0x488>
100023d2:	f105 4300 	add.w	r3, r5, #2147483648	@ 0x80000000
100023d6:	940a      	str	r4, [sp, #40]	@ 0x28
100023d8:	930b      	str	r3, [sp, #44]	@ 0x2c
100023da:	e627      	b.n	1000202c <_etoa+0x6c>
100023dc:	f426 6600 	bic.w	r6, r6, #2048	@ 0x800
100023e0:	f446 6680 	orr.w	r6, r6, #1024	@ 0x400
100023e4:	4638      	mov	r0, r7
100023e6:	962c      	str	r6, [sp, #176]	@ 0xb0
100023e8:	e9dd 670a 	ldrd	r6, r7, [sp, #40]	@ 0x28
100023ec:	4634      	mov	r4, r6
100023ee:	f107 4500 	add.w	r5, r7, #2147483648	@ 0x80000000
100023f2:	465a      	mov	r2, fp
100023f4:	e9cd 8a2a 	strd	r8, sl, [sp, #168]	@ 0xa8
100023f8:	e9cd 4528 	strd	r4, r5, [sp, #160]	@ 0xa0
100023fc:	9b09      	ldr	r3, [sp, #36]	@ 0x24
100023fe:	9908      	ldr	r1, [sp, #32]
10002400:	e6bc      	b.n	1000217c <_etoa+0x1bc>
10002402:	2205      	movs	r2, #5
10002404:	9212      	str	r2, [sp, #72]	@ 0x48
10002406:	e7ad      	b.n	10002364 <_etoa+0x3a4>
10002408:	2300      	movs	r3, #0
1000240a:	2202      	movs	r2, #2
1000240c:	e9cd 320f 	strd	r3, r2, [sp, #60]	@ 0x3c
10002410:	2204      	movs	r2, #4
10002412:	930c      	str	r3, [sp, #48]	@ 0x30
10002414:	9212      	str	r2, [sp, #72]	@ 0x48
10002416:	e62c      	b.n	10002072 <_etoa+0xb2>
10002418:	f04f 0805 	mov.w	r8, #5
1000241c:	e6c2      	b.n	100021a4 <_etoa+0x1e4>
1000241e:	f1ba 0f04 	cmp.w	sl, #4
10002422:	d91f      	bls.n	10002464 <_etoa+0x4a4>
10002424:	9b10      	ldr	r3, [sp, #64]	@ 0x40
10002426:	2b00      	cmp	r3, #0
10002428:	d178      	bne.n	1000251c <_etoa+0x55c>
1000242a:	2304      	movs	r3, #4
1000242c:	9312      	str	r3, [sp, #72]	@ 0x48
1000242e:	f1aa 0304 	sub.w	r3, sl, #4
10002432:	930f      	str	r3, [sp, #60]	@ 0x3c
10002434:	e004      	b.n	10002440 <_etoa+0x480>
10002436:	9b12      	ldr	r3, [sp, #72]	@ 0x48
10002438:	459a      	cmp	sl, r3
1000243a:	d831      	bhi.n	100024a0 <_etoa+0x4e0>
1000243c:	9b0e      	ldr	r3, [sp, #56]	@ 0x38
1000243e:	930f      	str	r3, [sp, #60]	@ 0x3c
10002440:	9b0c      	ldr	r3, [sp, #48]	@ 0x30
10002442:	2b00      	cmp	r3, #0
10002444:	f43f ae15 	beq.w	10002072 <_etoa+0xb2>
10002448:	e9dd 010a 	ldrd	r0, r1, [sp, #40]	@ 0x28
1000244c:	4642      	mov	r2, r8
1000244e:	464b      	mov	r3, r9
10002450:	f7ff f91e 	bl	10001690 <__wrap___aeabi_ddiv>
10002454:	e9cd 010a 	strd	r0, r1, [sp, #40]	@ 0x28
10002458:	e60b      	b.n	10002072 <_etoa+0xb2>
1000245a:	2302      	movs	r3, #2
1000245c:	9310      	str	r3, [sp, #64]	@ 0x40
1000245e:	2305      	movs	r3, #5
10002460:	9312      	str	r3, [sp, #72]	@ 0x48
10002462:	e7f1      	b.n	10002448 <_etoa+0x488>
10002464:	2304      	movs	r3, #4
10002466:	9312      	str	r3, [sp, #72]	@ 0x48
10002468:	e7ea      	b.n	10002440 <_etoa+0x480>
1000246a:	e9dd 450a 	ldrd	r4, r5, [sp, #40]	@ 0x28
1000246e:	46a0      	mov	r8, r4
10002470:	9b0f      	ldr	r3, [sp, #60]	@ 0x3c
10002472:	f105 4900 	add.w	r9, r5, #2147483648	@ 0x80000000
10002476:	9303      	str	r3, [sp, #12]
10002478:	9b0e      	ldr	r3, [sp, #56]	@ 0x38
1000247a:	465a      	mov	r2, fp
1000247c:	9302      	str	r3, [sp, #8]
1000247e:	f426 6300 	bic.w	r3, r6, #2048	@ 0x800
10002482:	9304      	str	r3, [sp, #16]
10002484:	4638      	mov	r0, r7
10002486:	e9cd 8900 	strd	r8, r9, [sp]
1000248a:	9b09      	ldr	r3, [sp, #36]	@ 0x24
1000248c:	9908      	ldr	r1, [sp, #32]
1000248e:	f7ff fb37 	bl	10001b00 <_ftoa>
10002492:	4602      	mov	r2, r0
10002494:	e608      	b.n	100020a8 <_etoa+0xe8>
10002496:	9b12      	ldr	r3, [sp, #72]	@ 0x48
10002498:	459a      	cmp	sl, r3
1000249a:	d844      	bhi.n	10002526 <_etoa+0x566>
1000249c:	920f      	str	r2, [sp, #60]	@ 0x3c
1000249e:	e7cf      	b.n	10002440 <_etoa+0x480>
100024a0:	9b10      	ldr	r3, [sp, #64]	@ 0x40
100024a2:	b38b      	cbz	r3, 10002508 <_etoa+0x548>
100024a4:	9b0e      	ldr	r3, [sp, #56]	@ 0x38
100024a6:	930f      	str	r3, [sp, #60]	@ 0x3c
100024a8:	2302      	movs	r3, #2
100024aa:	9310      	str	r3, [sp, #64]	@ 0x40
100024ac:	e7c8      	b.n	10002440 <_etoa+0x480>
100024ae:	bf00      	nop
100024b0:	636f4361 	.word	0x636f4361
100024b4:	3fd287a7 	.word	0x3fd287a7
100024b8:	0979a371 	.word	0x0979a371
100024bc:	400a934f 	.word	0x400a934f
100024c0:	bbb55516 	.word	0xbbb55516
100024c4:	40026bb1 	.word	0x40026bb1
100024c8:	fefa39ef 	.word	0xfefa39ef
100024cc:	3fe62e42 	.word	0x3fe62e42
100024d0:	eb1c432d 	.word	0xeb1c432d
100024d4:	3f1a36e2 	.word	0x3f1a36e2
100024d8:	00000000 	.word	0x00000000
100024dc:	412e8480 	.word	0x412e8480
100024e0:	3ff80000 	.word	0x3ff80000
100024e4:	3fe00000 	.word	0x3fe00000
100024e8:	402c0000 	.word	0x402c0000
100024ec:	40240000 	.word	0x40240000
100024f0:	40180000 	.word	0x40180000
100024f4:	3ff00000 	.word	0x3ff00000
100024f8:	509f79fb 	.word	0x509f79fb
100024fc:	3fd34413 	.word	0x3fd34413
10002500:	8b60c8b3 	.word	0x8b60c8b3
10002504:	3fc68a28 	.word	0x3fc68a28
10002508:	9b12      	ldr	r3, [sp, #72]	@ 0x48
1000250a:	ebaa 0303 	sub.w	r3, sl, r3
1000250e:	930f      	str	r3, [sp, #60]	@ 0x3c
10002510:	e796      	b.n	10002440 <_etoa+0x480>
10002512:	eba3 0802 	sub.w	r8, r3, r2
10002516:	f108 38ff 	add.w	r8, r8, #4294967295
1000251a:	e643      	b.n	100021a4 <_etoa+0x1e4>
1000251c:	2304      	movs	r3, #4
1000251e:	9312      	str	r3, [sp, #72]	@ 0x48
10002520:	2302      	movs	r3, #2
10002522:	9310      	str	r3, [sp, #64]	@ 0x40
10002524:	e78c      	b.n	10002440 <_etoa+0x480>
10002526:	9b10      	ldr	r3, [sp, #64]	@ 0x40
10002528:	2b00      	cmp	r3, #0
1000252a:	d0ed      	beq.n	10002508 <_etoa+0x548>
1000252c:	2302      	movs	r3, #2
1000252e:	920f      	str	r2, [sp, #60]	@ 0x3c
10002530:	9310      	str	r3, [sp, #64]	@ 0x40
10002532:	e785      	b.n	10002440 <_etoa+0x480>

10002534 <_vsnprintf>:
10002534:	e92d 4ff0 	stmdb	sp!, {r4, r5, r6, r7, r8, r9, sl, fp, lr}
10002538:	b09b      	sub	sp, #108	@ 0x6c
1000253a:	9c24      	ldr	r4, [sp, #144]	@ 0x90
1000253c:	4d95      	ldr	r5, [pc, #596]	@ (10002794 <_vsnprintf+0x260>)
1000253e:	940a      	str	r4, [sp, #40]	@ 0x28
10002540:	4c95      	ldr	r4, [pc, #596]	@ (10002798 <_vsnprintf+0x264>)
10002542:	f1b1 0a00 	subs.w	sl, r1, #0
10002546:	bf18      	it	ne
10002548:	4683      	movne	fp, r0
1000254a:	6025      	str	r5, [r4, #0]
1000254c:	7818      	ldrb	r0, [r3, #0]
1000254e:	4c93      	ldr	r4, [pc, #588]	@ (1000279c <_vsnprintf+0x268>)
10002550:	4691      	mov	r9, r2
10002552:	bf08      	it	eq
10002554:	46a3      	moveq	fp, r4
10002556:	9309      	str	r3, [sp, #36]	@ 0x24
10002558:	2800      	cmp	r0, #0
1000255a:	f000 8293 	beq.w	10002a84 <_vsnprintf+0x550>
1000255e:	f04f 0800 	mov.w	r8, #0
10002562:	e00a      	b.n	1000257a <_vsnprintf+0x46>
10002564:	4642      	mov	r2, r8
10002566:	464b      	mov	r3, r9
10002568:	4651      	mov	r1, sl
1000256a:	f108 0801 	add.w	r8, r8, #1
1000256e:	47d8      	blx	fp
10002570:	9b09      	ldr	r3, [sp, #36]	@ 0x24
10002572:	7818      	ldrb	r0, [r3, #0]
10002574:	2800      	cmp	r0, #0
10002576:	f000 80ce 	beq.w	10002716 <_vsnprintf+0x1e2>
1000257a:	9b09      	ldr	r3, [sp, #36]	@ 0x24
1000257c:	2825      	cmp	r0, #37	@ 0x25
1000257e:	f103 0301 	add.w	r3, r3, #1
10002582:	9309      	str	r3, [sp, #36]	@ 0x24
10002584:	d1ee      	bne.n	10002564 <_vsnprintf+0x30>
10002586:	461c      	mov	r4, r3
10002588:	2300      	movs	r3, #0
1000258a:	4622      	mov	r2, r4
1000258c:	f812 0b01 	ldrb.w	r0, [r2], #1
10002590:	f1a0 0120 	sub.w	r1, r0, #32
10002594:	2910      	cmp	r1, #16
10002596:	d80a      	bhi.n	100025ae <_vsnprintf+0x7a>
10002598:	e8df f001 	tbb	[pc, r1]
1000259c:	3c090940 	.word	0x3c090940
100025a0:	09090909 	.word	0x09090909
100025a4:	38090909 	.word	0x38090909
100025a8:	09093409 	.word	0x09093409
100025ac:	30          	.byte	0x30
100025ad:	00          	.byte	0x00
100025ae:	f1a0 0130 	sub.w	r1, r0, #48	@ 0x30
100025b2:	2909      	cmp	r1, #9
100025b4:	9409      	str	r4, [sp, #36]	@ 0x24
100025b6:	f240 808a 	bls.w	100026ce <_vsnprintf+0x19a>
100025ba:	282a      	cmp	r0, #42	@ 0x2a
100025bc:	f000 80f0 	beq.w	100027a0 <_vsnprintf+0x26c>
100025c0:	2500      	movs	r5, #0
100025c2:	282e      	cmp	r0, #46	@ 0x2e
100025c4:	f000 8096 	beq.w	100026f4 <_vsnprintf+0x1c0>
100025c8:	2600      	movs	r6, #0
100025ca:	f1a0 0168 	sub.w	r1, r0, #104	@ 0x68
100025ce:	2912      	cmp	r1, #18
100025d0:	d82d      	bhi.n	1000262e <_vsnprintf+0xfa>
100025d2:	e8df f011 	tbh	[pc, r1, lsl #1]
100025d6:	0149      	.short	0x0149
100025d8:	0143002c 	.word	0x0143002c
100025dc:	0138002c 	.word	0x0138002c
100025e0:	002c002c 	.word	0x002c002c
100025e4:	002c002c 	.word	0x002c002c
100025e8:	002c002c 	.word	0x002c002c
100025ec:	0027002c 	.word	0x0027002c
100025f0:	002c002c 	.word	0x002c002c
100025f4:	002c002c 	.word	0x002c002c
100025f8:	0027002c 	.word	0x0027002c
100025fc:	4614      	mov	r4, r2
100025fe:	f043 0301 	orr.w	r3, r3, #1
10002602:	e7c2      	b.n	1000258a <_vsnprintf+0x56>
10002604:	4614      	mov	r4, r2
10002606:	f043 0302 	orr.w	r3, r3, #2
1000260a:	e7be      	b.n	1000258a <_vsnprintf+0x56>
1000260c:	4614      	mov	r4, r2
1000260e:	f043 0304 	orr.w	r3, r3, #4
10002612:	e7ba      	b.n	1000258a <_vsnprintf+0x56>
10002614:	4614      	mov	r4, r2
10002616:	f043 0310 	orr.w	r3, r3, #16
1000261a:	e7b6      	b.n	1000258a <_vsnprintf+0x56>
1000261c:	4614      	mov	r4, r2
1000261e:	f043 0308 	orr.w	r3, r3, #8
10002622:	e7b2      	b.n	1000258a <_vsnprintf+0x56>
10002624:	9909      	ldr	r1, [sp, #36]	@ 0x24
10002626:	7848      	ldrb	r0, [r1, #1]
10002628:	f443 7380 	orr.w	r3, r3, #256	@ 0x100
1000262c:	3201      	adds	r2, #1
1000262e:	2867      	cmp	r0, #103	@ 0x67
10002630:	9209      	str	r2, [sp, #36]	@ 0x24
10002632:	d87e      	bhi.n	10002732 <_vsnprintf+0x1fe>
10002634:	2824      	cmp	r0, #36	@ 0x24
10002636:	f240 80c1 	bls.w	100027bc <_vsnprintf+0x288>
1000263a:	f1a0 0225 	sub.w	r2, r0, #37	@ 0x25
1000263e:	2a42      	cmp	r2, #66	@ 0x42
10002640:	f200 80bc 	bhi.w	100027bc <_vsnprintf+0x288>
10002644:	e8df f012 	tbh	[pc, r2, lsl #1]
10002648:	00ba0150 	.word	0x00ba0150
1000264c:	00ba00ba 	.word	0x00ba00ba
10002650:	00ba00ba 	.word	0x00ba00ba
10002654:	00ba00ba 	.word	0x00ba00ba
10002658:	00ba00ba 	.word	0x00ba00ba
1000265c:	00ba00ba 	.word	0x00ba00ba
10002660:	00ba00ba 	.word	0x00ba00ba
10002664:	00ba00ba 	.word	0x00ba00ba
10002668:	00ba00ba 	.word	0x00ba00ba
1000266c:	00ba00ba 	.word	0x00ba00ba
10002670:	00ba00ba 	.word	0x00ba00ba
10002674:	00ba00ba 	.word	0x00ba00ba
10002678:	00ba00ba 	.word	0x00ba00ba
1000267c:	00ba00ba 	.word	0x00ba00ba
10002680:	00ba00ba 	.word	0x00ba00ba
10002684:	00ba00ba 	.word	0x00ba00ba
10002688:	01370119 	.word	0x01370119
1000268c:	00ba0119 	.word	0x00ba0119
10002690:	00ba00ba 	.word	0x00ba00ba
10002694:	00ba00ba 	.word	0x00ba00ba
10002698:	00ba00ba 	.word	0x00ba00ba
1000269c:	00ba00ba 	.word	0x00ba00ba
100026a0:	00ba00ba 	.word	0x00ba00ba
100026a4:	00ba00ba 	.word	0x00ba00ba
100026a8:	00ba00ba 	.word	0x00ba00ba
100026ac:	01bc00ba 	.word	0x01bc00ba
100026b0:	00ba00ba 	.word	0x00ba00ba
100026b4:	00ba00ba 	.word	0x00ba00ba
100026b8:	00ba00ba 	.word	0x00ba00ba
100026bc:	00ba00ba 	.word	0x00ba00ba
100026c0:	01bc00ba 	.word	0x01bc00ba
100026c4:	01bc0158 	.word	0x01bc0158
100026c8:	01370119 	.word	0x01370119
100026cc:	0119      	.short	0x0119
100026ce:	2500      	movs	r5, #0
100026d0:	e000      	b.n	100026d4 <_vsnprintf+0x1a0>
100026d2:	3201      	adds	r2, #1
100026d4:	eb05 0585 	add.w	r5, r5, r5, lsl #2
100026d8:	eb00 0545 	add.w	r5, r0, r5, lsl #1
100026dc:	7810      	ldrb	r0, [r2, #0]
100026de:	3d30      	subs	r5, #48	@ 0x30
100026e0:	f1a0 0130 	sub.w	r1, r0, #48	@ 0x30
100026e4:	2909      	cmp	r1, #9
100026e6:	d9f4      	bls.n	100026d2 <_vsnprintf+0x19e>
100026e8:	282e      	cmp	r0, #46	@ 0x2e
100026ea:	9209      	str	r2, [sp, #36]	@ 0x24
100026ec:	f102 0201 	add.w	r2, r2, #1
100026f0:	f47f af6a 	bne.w	100025c8 <_vsnprintf+0x94>
100026f4:	9909      	ldr	r1, [sp, #36]	@ 0x24
100026f6:	f443 6380 	orr.w	r3, r3, #1024	@ 0x400
100026fa:	7848      	ldrb	r0, [r1, #1]
100026fc:	4611      	mov	r1, r2
100026fe:	f1a0 0630 	sub.w	r6, r0, #48	@ 0x30
10002702:	2e09      	cmp	r6, #9
10002704:	f240 8121 	bls.w	1000294a <_vsnprintf+0x416>
10002708:	282a      	cmp	r0, #42	@ 0x2a
1000270a:	f000 812f 	beq.w	1000296c <_vsnprintf+0x438>
1000270e:	9209      	str	r2, [sp, #36]	@ 0x24
10002710:	2600      	movs	r6, #0
10002712:	3201      	adds	r2, #1
10002714:	e759      	b.n	100025ca <_vsnprintf+0x96>
10002716:	4644      	mov	r4, r8
10002718:	45c1      	cmp	r9, r8
1000271a:	d801      	bhi.n	10002720 <_vsnprintf+0x1ec>
1000271c:	f109 38ff 	add.w	r8, r9, #4294967295
10002720:	464b      	mov	r3, r9
10002722:	4642      	mov	r2, r8
10002724:	4651      	mov	r1, sl
10002726:	2000      	movs	r0, #0
10002728:	47d8      	blx	fp
1000272a:	4620      	mov	r0, r4
1000272c:	b01b      	add	sp, #108	@ 0x6c
1000272e:	e8bd 8ff0 	ldmia.w	sp!, {r4, r5, r6, r7, r8, r9, sl, fp, pc}
10002732:	f1a0 0269 	sub.w	r2, r0, #105	@ 0x69
10002736:	b2d2      	uxtb	r2, r2
10002738:	2a0f      	cmp	r2, #15
1000273a:	d83f      	bhi.n	100027bc <_vsnprintf+0x288>
1000273c:	2101      	movs	r1, #1
1000273e:	f249 0741 	movw	r7, #36929	@ 0x9041
10002742:	4091      	lsls	r1, r2
10002744:	4039      	ands	r1, r7
10002746:	f040 80f3 	bne.w	10002930 <_vsnprintf+0x3fc>
1000274a:	2a0a      	cmp	r2, #10
1000274c:	d03d      	beq.n	100027ca <_vsnprintf+0x296>
1000274e:	2a07      	cmp	r2, #7
10002750:	d134      	bne.n	100027bc <_vsnprintf+0x288>
10002752:	9d0a      	ldr	r5, [sp, #40]	@ 0x28
10002754:	f855 2b04 	ldr.w	r2, [r5], #4
10002758:	2a00      	cmp	r2, #0
1000275a:	f000 8113 	beq.w	10002984 <_vsnprintf+0x450>
1000275e:	f043 0021 	orr.w	r0, r3, #33	@ 0x21
10002762:	ab12      	add	r3, sp, #72	@ 0x48
10002764:	461f      	mov	r7, r3
10002766:	930b      	str	r3, [sp, #44]	@ 0x2c
10002768:	e003      	b.n	10002772 <_vsnprintf+0x23e>
1000276a:	2920      	cmp	r1, #32
1000276c:	f000 8114 	beq.w	10002998 <_vsnprintf+0x464>
10002770:	461a      	mov	r2, r3
10002772:	f002 040f 	and.w	r4, r2, #15
10002776:	4623      	mov	r3, r4
10002778:	2c09      	cmp	r4, #9
1000277a:	bf94      	ite	ls
1000277c:	3330      	addls	r3, #48	@ 0x30
1000277e:	3337      	addhi	r3, #55	@ 0x37
10002780:	2a0f      	cmp	r2, #15
10002782:	f807 3b01 	strb.w	r3, [r7], #1
10002786:	f101 0101 	add.w	r1, r1, #1
1000278a:	ea4f 1312 	mov.w	r3, r2, lsr #4
1000278e:	d8ec      	bhi.n	1000276a <_vsnprintf+0x236>
10002790:	e102      	b.n	10002998 <_vsnprintf+0x464>
10002792:	bf00      	nop
10002794:	10002535 	.word	0x10002535
10002798:	2000080c 	.word	0x2000080c
1000279c:	10001879 	.word	0x10001879
100027a0:	990a      	ldr	r1, [sp, #40]	@ 0x28
100027a2:	9809      	ldr	r0, [sp, #36]	@ 0x24
100027a4:	f851 5b04 	ldr.w	r5, [r1], #4
100027a8:	7840      	ldrb	r0, [r0, #1]
100027aa:	2d00      	cmp	r5, #0
100027ac:	e9cd 2109 	strd	r2, r1, [sp, #36]	@ 0x24
100027b0:	bfbc      	itt	lt
100027b2:	f043 0302 	orrlt.w	r3, r3, #2
100027b6:	426d      	neglt	r5, r5
100027b8:	3201      	adds	r2, #1
100027ba:	e702      	b.n	100025c2 <_vsnprintf+0x8e>
100027bc:	4642      	mov	r2, r8
100027be:	464b      	mov	r3, r9
100027c0:	4651      	mov	r1, sl
100027c2:	f108 0801 	add.w	r8, r8, #1
100027c6:	47d8      	blx	fp
100027c8:	e6d2      	b.n	10002570 <_vsnprintf+0x3c>
100027ca:	990a      	ldr	r1, [sp, #40]	@ 0x28
100027cc:	2e00      	cmp	r6, #0
100027ce:	f851 7b04 	ldr.w	r7, [r1], #4
100027d2:	bf18      	it	ne
100027d4:	4632      	movne	r2, r6
100027d6:	7838      	ldrb	r0, [r7, #0]
100027d8:	bf08      	it	eq
100027da:	f04f 32ff 	moveq.w	r2, #4294967295
100027de:	2800      	cmp	r0, #0
100027e0:	f000 837b 	beq.w	10002eda <_vsnprintf+0x9a6>
100027e4:	18bc      	adds	r4, r7, r2
100027e6:	46a4      	mov	ip, r4
100027e8:	463a      	mov	r2, r7
100027ea:	e004      	b.n	100027f6 <_vsnprintf+0x2c2>
100027ec:	f812 4f01 	ldrb.w	r4, [r2, #1]!
100027f0:	2c00      	cmp	r4, #0
100027f2:	f000 813f 	beq.w	10002a74 <_vsnprintf+0x540>
100027f6:	4594      	cmp	ip, r2
100027f8:	d1f8      	bne.n	100027ec <_vsnprintf+0x2b8>
100027fa:	4664      	mov	r4, ip
100027fc:	1be4      	subs	r4, r4, r7
100027fe:	055a      	lsls	r2, r3, #21
10002800:	f140 8122 	bpl.w	10002a48 <_vsnprintf+0x514>
10002804:	42b4      	cmp	r4, r6
10002806:	bf28      	it	cs
10002808:	4634      	movcs	r4, r6
1000280a:	f013 0302 	ands.w	r3, r3, #2
1000280e:	f000 8288 	beq.w	10002d22 <_vsnprintf+0x7ee>
10002812:	2302      	movs	r3, #2
10002814:	e9cd 510a 	strd	r5, r1, [sp, #40]	@ 0x28
10002818:	4642      	mov	r2, r8
1000281a:	461d      	mov	r5, r3
1000281c:	4446      	add	r6, r8
1000281e:	e008      	b.n	10002832 <_vsnprintf+0x2fe>
10002820:	464b      	mov	r3, r9
10002822:	4651      	mov	r1, sl
10002824:	47d8      	blx	fp
10002826:	f817 0f01 	ldrb.w	r0, [r7, #1]!
1000282a:	f108 0801 	add.w	r8, r8, #1
1000282e:	b110      	cbz	r0, 10002836 <_vsnprintf+0x302>
10002830:	4642      	mov	r2, r8
10002832:	4546      	cmp	r6, r8
10002834:	d1f4      	bne.n	10002820 <_vsnprintf+0x2ec>
10002836:	462b      	mov	r3, r5
10002838:	990b      	ldr	r1, [sp, #44]	@ 0x2c
1000283a:	9d0a      	ldr	r5, [sp, #40]	@ 0x28
1000283c:	2b00      	cmp	r3, #0
1000283e:	f040 8141 	bne.w	10002ac4 <_vsnprintf+0x590>
10002842:	910a      	str	r1, [sp, #40]	@ 0x28
10002844:	e694      	b.n	10002570 <_vsnprintf+0x3c>
10002846:	9909      	ldr	r1, [sp, #36]	@ 0x24
10002848:	7848      	ldrb	r0, [r1, #1]
1000284a:	286c      	cmp	r0, #108	@ 0x6c
1000284c:	f47f aeec 	bne.w	10002628 <_vsnprintf+0xf4>
10002850:	460a      	mov	r2, r1
10002852:	7888      	ldrb	r0, [r1, #2]
10002854:	f443 7340 	orr.w	r3, r3, #768	@ 0x300
10002858:	3203      	adds	r2, #3
1000285a:	e6e8      	b.n	1000262e <_vsnprintf+0xfa>
1000285c:	9909      	ldr	r1, [sp, #36]	@ 0x24
1000285e:	f443 7300 	orr.w	r3, r3, #512	@ 0x200
10002862:	7848      	ldrb	r0, [r1, #1]
10002864:	3201      	adds	r2, #1
10002866:	e6e2      	b.n	1000262e <_vsnprintf+0xfa>
10002868:	9909      	ldr	r1, [sp, #36]	@ 0x24
1000286a:	7848      	ldrb	r0, [r1, #1]
1000286c:	2868      	cmp	r0, #104	@ 0x68
1000286e:	f000 8103 	beq.w	10002a78 <_vsnprintf+0x544>
10002872:	f043 0380 	orr.w	r3, r3, #128	@ 0x80
10002876:	3201      	adds	r2, #1
10002878:	e6d9      	b.n	1000262e <_vsnprintf+0xfa>
1000287a:	2867      	cmp	r0, #103	@ 0x67
1000287c:	f000 80d9 	beq.w	10002a32 <_vsnprintf+0x4fe>
10002880:	2847      	cmp	r0, #71	@ 0x47
10002882:	f000 80dc 	beq.w	10002a3e <_vsnprintf+0x50a>
10002886:	2845      	cmp	r0, #69	@ 0x45
10002888:	f000 80db 	beq.w	10002a42 <_vsnprintf+0x50e>
1000288c:	e9cd 5303 	strd	r5, r3, [sp, #12]
10002890:	9b0a      	ldr	r3, [sp, #40]	@ 0x28
10002892:	9602      	str	r6, [sp, #8]
10002894:	3307      	adds	r3, #7
10002896:	f023 0307 	bic.w	r3, r3, #7
1000289a:	461c      	mov	r4, r3
1000289c:	4642      	mov	r2, r8
1000289e:	e8f4 6702 	ldrd	r6, r7, [r4], #8
100028a2:	464b      	mov	r3, r9
100028a4:	4651      	mov	r1, sl
100028a6:	4658      	mov	r0, fp
100028a8:	e9cd 6700 	strd	r6, r7, [sp]
100028ac:	940a      	str	r4, [sp, #40]	@ 0x28
100028ae:	f7ff fb87 	bl	10001fc0 <_etoa>
100028b2:	4680      	mov	r8, r0
100028b4:	e65c      	b.n	10002570 <_vsnprintf+0x3c>
100028b6:	2846      	cmp	r0, #70	@ 0x46
100028b8:	bf08      	it	eq
100028ba:	f043 0320 	orreq.w	r3, r3, #32
100028be:	e9cd 5303 	strd	r5, r3, [sp, #12]
100028c2:	9b0a      	ldr	r3, [sp, #40]	@ 0x28
100028c4:	9602      	str	r6, [sp, #8]
100028c6:	3307      	adds	r3, #7
100028c8:	f023 0307 	bic.w	r3, r3, #7
100028cc:	461c      	mov	r4, r3
100028ce:	4642      	mov	r2, r8
100028d0:	e8f4 6702 	ldrd	r6, r7, [r4], #8
100028d4:	464b      	mov	r3, r9
100028d6:	4651      	mov	r1, sl
100028d8:	4658      	mov	r0, fp
100028da:	e9cd 6700 	strd	r6, r7, [sp]
100028de:	940a      	str	r4, [sp, #40]	@ 0x28
100028e0:	f7ff f90e 	bl	10001b00 <_ftoa>
100028e4:	4680      	mov	r8, r0
100028e6:	e643      	b.n	10002570 <_vsnprintf+0x3c>
100028e8:	4642      	mov	r2, r8
100028ea:	464b      	mov	r3, r9
100028ec:	4651      	mov	r1, sl
100028ee:	2025      	movs	r0, #37	@ 0x25
100028f0:	f108 0801 	add.w	r8, r8, #1
100028f4:	47d8      	blx	fp
100028f6:	e63b      	b.n	10002570 <_vsnprintf+0x3c>
100028f8:	9a0a      	ldr	r2, [sp, #40]	@ 0x28
100028fa:	0799      	lsls	r1, r3, #30
100028fc:	f102 0404 	add.w	r4, r2, #4
10002900:	f108 0601 	add.w	r6, r8, #1
10002904:	f140 80c6 	bpl.w	10002a94 <_vsnprintf+0x560>
10002908:	7810      	ldrb	r0, [r2, #0]
1000290a:	464b      	mov	r3, r9
1000290c:	4642      	mov	r2, r8
1000290e:	4651      	mov	r1, sl
10002910:	47d8      	blx	fp
10002912:	2d01      	cmp	r5, #1
10002914:	bf88      	it	hi
10002916:	44a8      	addhi	r8, r5
10002918:	f240 81bd 	bls.w	10002c96 <_vsnprintf+0x762>
1000291c:	4632      	mov	r2, r6
1000291e:	464b      	mov	r3, r9
10002920:	4651      	mov	r1, sl
10002922:	2020      	movs	r0, #32
10002924:	3601      	adds	r6, #1
10002926:	47d8      	blx	fp
10002928:	4546      	cmp	r6, r8
1000292a:	d1f7      	bne.n	1000291c <_vsnprintf+0x3e8>
1000292c:	940a      	str	r4, [sp, #40]	@ 0x28
1000292e:	e61f      	b.n	10002570 <_vsnprintf+0x3c>
10002930:	286f      	cmp	r0, #111	@ 0x6f
10002932:	f000 8081 	beq.w	10002a38 <_vsnprintf+0x504>
10002936:	f240 8248 	bls.w	10002dca <_vsnprintf+0x896>
1000293a:	2878      	cmp	r0, #120	@ 0x78
1000293c:	f000 8190 	beq.w	10002c60 <_vsnprintf+0x72c>
10002940:	270a      	movs	r7, #10
10002942:	f023 0310 	bic.w	r3, r3, #16
10002946:	46bc      	mov	ip, r7
10002948:	e041      	b.n	100029ce <_vsnprintf+0x49a>
1000294a:	2600      	movs	r6, #0
1000294c:	eb06 0686 	add.w	r6, r6, r6, lsl #2
10002950:	eb00 0046 	add.w	r0, r0, r6, lsl #1
10002954:	f1a0 0630 	sub.w	r6, r0, #48	@ 0x30
10002958:	f811 0f01 	ldrb.w	r0, [r1, #1]!
1000295c:	f1a0 0230 	sub.w	r2, r0, #48	@ 0x30
10002960:	2a09      	cmp	r2, #9
10002962:	d9f3      	bls.n	1000294c <_vsnprintf+0x418>
10002964:	460a      	mov	r2, r1
10002966:	9109      	str	r1, [sp, #36]	@ 0x24
10002968:	3201      	adds	r2, #1
1000296a:	e62e      	b.n	100025ca <_vsnprintf+0x96>
1000296c:	e9dd 2109 	ldrd	r2, r1, [sp, #36]	@ 0x24
10002970:	f851 6b04 	ldr.w	r6, [r1], #4
10002974:	7890      	ldrb	r0, [r2, #2]
10002976:	3202      	adds	r2, #2
10002978:	9209      	str	r2, [sp, #36]	@ 0x24
1000297a:	910a      	str	r1, [sp, #40]	@ 0x28
1000297c:	3201      	adds	r2, #1
1000297e:	ea26 76e6 	bic.w	r6, r6, r6, asr #31
10002982:	e622      	b.n	100025ca <_vsnprintf+0x96>
10002984:	f023 0010 	bic.w	r0, r3, #16
10002988:	f413 6280 	ands.w	r2, r3, #1024	@ 0x400
1000298c:	f040 0021 	orr.w	r0, r0, #33	@ 0x21
10002990:	f43f aee7 	beq.w	10002762 <_vsnprintf+0x22e>
10002994:	ab12      	add	r3, sp, #72	@ 0x48
10002996:	930b      	str	r3, [sp, #44]	@ 0x2c
10002998:	9b0b      	ldr	r3, [sp, #44]	@ 0x2c
1000299a:	9006      	str	r0, [sp, #24]
1000299c:	9300      	str	r3, [sp, #0]
1000299e:	2308      	movs	r3, #8
100029a0:	2010      	movs	r0, #16
100029a2:	9305      	str	r3, [sp, #20]
100029a4:	2300      	movs	r3, #0
100029a6:	4642      	mov	r2, r8
100029a8:	e9cd 3002 	strd	r3, r0, [sp, #8]
100029ac:	9101      	str	r1, [sp, #4]
100029ae:	464b      	mov	r3, r9
100029b0:	4651      	mov	r1, sl
100029b2:	4658      	mov	r0, fp
100029b4:	9604      	str	r6, [sp, #16]
100029b6:	f7fe ffaf 	bl	10001918 <_ntoa_format>
100029ba:	950a      	str	r5, [sp, #40]	@ 0x28
100029bc:	4680      	mov	r8, r0
100029be:	e5d7      	b.n	10002570 <_vsnprintf+0x3c>
100029c0:	2858      	cmp	r0, #88	@ 0x58
100029c2:	d062      	beq.n	10002a8a <_vsnprintf+0x556>
100029c4:	2862      	cmp	r0, #98	@ 0x62
100029c6:	f040 808f 	bne.w	10002ae8 <_vsnprintf+0x5b4>
100029ca:	2702      	movs	r7, #2
100029cc:	46bc      	mov	ip, r7
100029ce:	f413 6080 	ands.w	r0, r3, #1024	@ 0x400
100029d2:	f000 80dd 	beq.w	10002b90 <_vsnprintf+0x65c>
100029d6:	f023 030d 	bic.w	r3, r3, #13
100029da:	f413 7200 	ands.w	r2, r3, #512	@ 0x200
100029de:	f040 8181 	bne.w	10002ce4 <_vsnprintf+0x7b0>
100029e2:	990a      	ldr	r1, [sp, #40]	@ 0x28
100029e4:	1d0f      	adds	r7, r1, #4
100029e6:	f413 7180 	ands.w	r1, r3, #256	@ 0x100
100029ea:	f040 8237 	bne.w	10002e5c <_vsnprintf+0x928>
100029ee:	065c      	lsls	r4, r3, #25
100029f0:	9a0a      	ldr	r2, [sp, #40]	@ 0x28
100029f2:	f140 813b 	bpl.w	10002c6c <_vsnprintf+0x738>
100029f6:	7812      	ldrb	r2, [r2, #0]
100029f8:	2a00      	cmp	r2, #0
100029fa:	f040 814e 	bne.w	10002c9a <_vsnprintf+0x766>
100029fe:	f023 0310 	bic.w	r3, r3, #16
10002a02:	2800      	cmp	r0, #0
10002a04:	f000 8149 	beq.w	10002c9a <_vsnprintf+0x766>
10002a08:	4611      	mov	r1, r2
10002a0a:	aa12      	add	r2, sp, #72	@ 0x48
10002a0c:	920b      	str	r2, [sp, #44]	@ 0x2c
10002a0e:	e9cd 5305 	strd	r5, r3, [sp, #20]
10002a12:	e9cd c603 	strd	ip, r6, [sp, #12]
10002a16:	9101      	str	r1, [sp, #4]
10002a18:	9b0b      	ldr	r3, [sp, #44]	@ 0x2c
10002a1a:	4642      	mov	r2, r8
10002a1c:	9300      	str	r3, [sp, #0]
10002a1e:	2300      	movs	r3, #0
10002a20:	4651      	mov	r1, sl
10002a22:	9302      	str	r3, [sp, #8]
10002a24:	4658      	mov	r0, fp
10002a26:	464b      	mov	r3, r9
10002a28:	f7fe ff76 	bl	10001918 <_ntoa_format>
10002a2c:	970a      	str	r7, [sp, #40]	@ 0x28
10002a2e:	4680      	mov	r8, r0
10002a30:	e59e      	b.n	10002570 <_vsnprintf+0x3c>
10002a32:	f443 6300 	orr.w	r3, r3, #2048	@ 0x800
10002a36:	e729      	b.n	1000288c <_vsnprintf+0x358>
10002a38:	2708      	movs	r7, #8
10002a3a:	46bc      	mov	ip, r7
10002a3c:	e7c7      	b.n	100029ce <_vsnprintf+0x49a>
10002a3e:	f443 6300 	orr.w	r3, r3, #2048	@ 0x800
10002a42:	f043 0320 	orr.w	r3, r3, #32
10002a46:	e721      	b.n	1000288c <_vsnprintf+0x358>
10002a48:	f013 0302 	ands.w	r3, r3, #2
10002a4c:	f000 818e 	beq.w	10002d6c <_vsnprintf+0x838>
10002a50:	2302      	movs	r3, #2
10002a52:	950a      	str	r5, [sp, #40]	@ 0x28
10002a54:	461e      	mov	r6, r3
10002a56:	460d      	mov	r5, r1
10002a58:	4642      	mov	r2, r8
10002a5a:	464b      	mov	r3, r9
10002a5c:	4651      	mov	r1, sl
10002a5e:	47d8      	blx	fp
10002a60:	f817 0f01 	ldrb.w	r0, [r7, #1]!
10002a64:	f108 0801 	add.w	r8, r8, #1
10002a68:	2800      	cmp	r0, #0
10002a6a:	d1f5      	bne.n	10002a58 <_vsnprintf+0x524>
10002a6c:	4629      	mov	r1, r5
10002a6e:	4633      	mov	r3, r6
10002a70:	9d0a      	ldr	r5, [sp, #40]	@ 0x28
10002a72:	e6e3      	b.n	1000283c <_vsnprintf+0x308>
10002a74:	1bd4      	subs	r4, r2, r7
10002a76:	e6c2      	b.n	100027fe <_vsnprintf+0x2ca>
10002a78:	460a      	mov	r2, r1
10002a7a:	7888      	ldrb	r0, [r1, #2]
10002a7c:	f043 03c0 	orr.w	r3, r3, #192	@ 0xc0
10002a80:	3203      	adds	r2, #3
10002a82:	e5d4      	b.n	1000262e <_vsnprintf+0xfa>
10002a84:	4604      	mov	r4, r0
10002a86:	4680      	mov	r8, r0
10002a88:	e646      	b.n	10002718 <_vsnprintf+0x1e4>
10002a8a:	2710      	movs	r7, #16
10002a8c:	f043 0320 	orr.w	r3, r3, #32
10002a90:	46bc      	mov	ip, r7
10002a92:	e79c      	b.n	100029ce <_vsnprintf+0x49a>
10002a94:	2d01      	cmp	r5, #1
10002a96:	f240 80f8 	bls.w	10002c8a <_vsnprintf+0x756>
10002a9a:	4646      	mov	r6, r8
10002a9c:	f108 37ff 	add.w	r7, r8, #4294967295
10002aa0:	442f      	add	r7, r5
10002aa2:	4632      	mov	r2, r6
10002aa4:	464b      	mov	r3, r9
10002aa6:	4651      	mov	r1, sl
10002aa8:	2020      	movs	r0, #32
10002aaa:	3601      	adds	r6, #1
10002aac:	47d8      	blx	fp
10002aae:	42be      	cmp	r6, r7
10002ab0:	d1f7      	bne.n	10002aa2 <_vsnprintf+0x56e>
10002ab2:	9b0a      	ldr	r3, [sp, #40]	@ 0x28
10002ab4:	4632      	mov	r2, r6
10002ab6:	7818      	ldrb	r0, [r3, #0]
10002ab8:	4651      	mov	r1, sl
10002aba:	464b      	mov	r3, r9
10002abc:	47d8      	blx	fp
10002abe:	44a8      	add	r8, r5
10002ac0:	940a      	str	r4, [sp, #40]	@ 0x28
10002ac2:	e555      	b.n	10002570 <_vsnprintf+0x3c>
10002ac4:	4646      	mov	r6, r8
10002ac6:	42a5      	cmp	r5, r4
10002ac8:	f67f aebb 	bls.w	10002842 <_vsnprintf+0x30e>
10002acc:	44a8      	add	r8, r5
10002ace:	eba8 0804 	sub.w	r8, r8, r4
10002ad2:	460c      	mov	r4, r1
10002ad4:	4632      	mov	r2, r6
10002ad6:	464b      	mov	r3, r9
10002ad8:	4651      	mov	r1, sl
10002ada:	2020      	movs	r0, #32
10002adc:	3601      	adds	r6, #1
10002ade:	47d8      	blx	fp
10002ae0:	4546      	cmp	r6, r8
10002ae2:	d1f7      	bne.n	10002ad4 <_vsnprintf+0x5a0>
10002ae4:	4621      	mov	r1, r4
10002ae6:	e6ac      	b.n	10002842 <_vsnprintf+0x30e>
10002ae8:	f413 6280 	ands.w	r2, r3, #1024	@ 0x400
10002aec:	f000 80bb 	beq.w	10002c66 <_vsnprintf+0x732>
10002af0:	f44f 6280 	mov.w	r2, #1024	@ 0x400
10002af4:	f023 0c11 	bic.w	ip, r3, #17
10002af8:	f41c 7700 	ands.w	r7, ip, #512	@ 0x200
10002afc:	9b0a      	ldr	r3, [sp, #40]	@ 0x28
10002afe:	d14a      	bne.n	10002b96 <_vsnprintf+0x662>
10002b00:	f41c 7080 	ands.w	r0, ip, #256	@ 0x100
10002b04:	f103 0404 	add.w	r4, r3, #4
10002b08:	f040 8134 	bne.w	10002d74 <_vsnprintf+0x840>
10002b0c:	f01c 0f40 	tst.w	ip, #64	@ 0x40
10002b10:	f040 80a3 	bne.w	10002c5a <_vsnprintf+0x726>
10002b14:	f01c 0f80 	tst.w	ip, #128	@ 0x80
10002b18:	f000 81d3 	beq.w	10002ec2 <_vsnprintf+0x98e>
10002b1c:	f9b3 1000 	ldrsh.w	r1, [r3]
10002b20:	ea81 77e1 	eor.w	r7, r1, r1, asr #31
10002b24:	eba7 77e1 	sub.w	r7, r7, r1, asr #31
10002b28:	b2bf      	uxth	r7, r7
10002b2a:	0fcb      	lsrs	r3, r1, #31
10002b2c:	2900      	cmp	r1, #0
10002b2e:	f000 8156 	beq.w	10002dde <_vsnprintf+0x8aa>
10002b32:	463a      	mov	r2, r7
10002b34:	a912      	add	r1, sp, #72	@ 0x48
10002b36:	460f      	mov	r7, r1
10002b38:	f8df e3d8 	ldr.w	lr, [pc, #984]	@ 10002f14 <_vsnprintf+0x9e0>
10002b3c:	910b      	str	r1, [sp, #44]	@ 0x2c
10002b3e:	930a      	str	r3, [sp, #40]	@ 0x28
10002b40:	950c      	str	r5, [sp, #48]	@ 0x30
10002b42:	e001      	b.n	10002b48 <_vsnprintf+0x614>
10002b44:	2820      	cmp	r0, #32
10002b46:	d00f      	beq.n	10002b68 <_vsnprintf+0x634>
10002b48:	4615      	mov	r5, r2
10002b4a:	fbae 1302 	umull	r1, r3, lr, r2
10002b4e:	08db      	lsrs	r3, r3, #3
10002b50:	eb03 0183 	add.w	r1, r3, r3, lsl #2
10002b54:	eba2 0141 	sub.w	r1, r2, r1, lsl #1
10002b58:	3130      	adds	r1, #48	@ 0x30
10002b5a:	2d09      	cmp	r5, #9
10002b5c:	461a      	mov	r2, r3
10002b5e:	f100 0001 	add.w	r0, r0, #1
10002b62:	f807 1b01 	strb.w	r1, [r7], #1
10002b66:	d8ed      	bhi.n	10002b44 <_vsnprintf+0x610>
10002b68:	9b0a      	ldr	r3, [sp, #40]	@ 0x28
10002b6a:	9d0c      	ldr	r5, [sp, #48]	@ 0x30
10002b6c:	e9cd 5c05 	strd	r5, ip, [sp, #20]
10002b70:	e9cd 0301 	strd	r0, r3, [sp, #4]
10002b74:	9604      	str	r6, [sp, #16]
10002b76:	9b0b      	ldr	r3, [sp, #44]	@ 0x2c
10002b78:	4642      	mov	r2, r8
10002b7a:	9300      	str	r3, [sp, #0]
10002b7c:	230a      	movs	r3, #10
10002b7e:	4651      	mov	r1, sl
10002b80:	9303      	str	r3, [sp, #12]
10002b82:	4658      	mov	r0, fp
10002b84:	464b      	mov	r3, r9
10002b86:	f7fe fec7 	bl	10001918 <_ntoa_format>
10002b8a:	940a      	str	r4, [sp, #40]	@ 0x28
10002b8c:	4680      	mov	r8, r0
10002b8e:	e4ef      	b.n	10002570 <_vsnprintf+0x3c>
10002b90:	f023 030c 	bic.w	r3, r3, #12
10002b94:	e721      	b.n	100029da <_vsnprintf+0x4a6>
10002b96:	3307      	adds	r3, #7
10002b98:	f023 0307 	bic.w	r3, r3, #7
10002b9c:	4619      	mov	r1, r3
10002b9e:	4608      	mov	r0, r1
10002ba0:	685b      	ldr	r3, [r3, #4]
10002ba2:	f850 1b08 	ldr.w	r1, [r0], #8
10002ba6:	0fdf      	lsrs	r7, r3, #31
10002ba8:	900a      	str	r0, [sp, #40]	@ 0x28
10002baa:	ea51 0003 	orrs.w	r0, r1, r3
10002bae:	d162      	bne.n	10002c76 <_vsnprintf+0x742>
10002bb0:	2a00      	cmp	r2, #0
10002bb2:	f040 819f 	bne.w	10002ef4 <_vsnprintf+0x9c0>
10002bb6:	4613      	mov	r3, r2
10002bb8:	4611      	mov	r1, r2
10002bba:	aa12      	add	r2, sp, #72	@ 0x48
10002bbc:	e9cd 750c 	strd	r7, r5, [sp, #48]	@ 0x30
10002bc0:	2000      	movs	r0, #0
10002bc2:	4615      	mov	r5, r2
10002bc4:	e9cd 680e 	strd	r6, r8, [sp, #56]	@ 0x38
10002bc8:	f8df e348 	ldr.w	lr, [pc, #840]	@ 10002f14 <_vsnprintf+0x9e0>
10002bcc:	920b      	str	r2, [sp, #44]	@ 0x2c
10002bce:	e001      	b.n	10002bd4 <_vsnprintf+0x6a0>
10002bd0:	2820      	cmp	r0, #32
10002bd2:	d02d      	beq.n	10002c30 <_vsnprintf+0x6fc>
10002bd4:	185a      	adds	r2, r3, r1
10002bd6:	f142 0200 	adc.w	r2, r2, #0
10002bda:	fbae 7802 	umull	r7, r8, lr, r2
10002bde:	f028 0703 	bic.w	r7, r8, #3
10002be2:	eb07 0798 	add.w	r7, r7, r8, lsr #2
10002be6:	1bd2      	subs	r2, r2, r7
10002be8:	461e      	mov	r6, r3
10002bea:	1a9b      	subs	r3, r3, r2
10002bec:	f161 0700 	sbc.w	r7, r1, #0
10002bf0:	460c      	mov	r4, r1
10002bf2:	f04f 31cc 	mov.w	r1, #3435973836	@ 0xcccccccc
10002bf6:	fb01 f103 	mul.w	r1, r1, r3
10002bfa:	fb0e 1107 	mla	r1, lr, r7, r1
10002bfe:	fba3 730e 	umull	r7, r3, r3, lr
10002c02:	4419      	add	r1, r3
10002c04:	2305      	movs	r3, #5
10002c06:	f007 0801 	and.w	r8, r7, #1
10002c0a:	fba8 3803 	umull	r3, r8, r8, r3
10002c0e:	189b      	adds	r3, r3, r2
10002c10:	2e0a      	cmp	r6, #10
10002c12:	f103 0330 	add.w	r3, r3, #48	@ 0x30
10002c16:	ea4f 0757 	mov.w	r7, r7, lsr #1
10002c1a:	f174 0400 	sbcs.w	r4, r4, #0
10002c1e:	f805 3b01 	strb.w	r3, [r5], #1
10002c22:	f100 0001 	add.w	r0, r0, #1
10002c26:	ea47 73c1 	orr.w	r3, r7, r1, lsl #31
10002c2a:	ea4f 0151 	mov.w	r1, r1, lsr #1
10002c2e:	d2cf      	bcs.n	10002bd0 <_vsnprintf+0x69c>
10002c30:	e9dd 750c 	ldrd	r7, r5, [sp, #48]	@ 0x30
10002c34:	e9dd 680e 	ldrd	r6, r8, [sp, #56]	@ 0x38
10002c38:	9b0b      	ldr	r3, [sp, #44]	@ 0x2c
10002c3a:	4642      	mov	r2, r8
10002c3c:	9300      	str	r3, [sp, #0]
10002c3e:	230a      	movs	r3, #10
10002c40:	e9cd 5c05 	strd	r5, ip, [sp, #20]
10002c44:	e9cd 0701 	strd	r0, r7, [sp, #4]
10002c48:	9604      	str	r6, [sp, #16]
10002c4a:	9303      	str	r3, [sp, #12]
10002c4c:	464b      	mov	r3, r9
10002c4e:	4651      	mov	r1, sl
10002c50:	4658      	mov	r0, fp
10002c52:	f7fe fe61 	bl	10001918 <_ntoa_format>
10002c56:	4680      	mov	r8, r0
10002c58:	e48a      	b.n	10002570 <_vsnprintf+0x3c>
10002c5a:	7819      	ldrb	r1, [r3, #0]
10002c5c:	460f      	mov	r7, r1
10002c5e:	e764      	b.n	10002b2a <_vsnprintf+0x5f6>
10002c60:	2710      	movs	r7, #16
10002c62:	46bc      	mov	ip, r7
10002c64:	e6b3      	b.n	100029ce <_vsnprintf+0x49a>
10002c66:	f023 0c10 	bic.w	ip, r3, #16
10002c6a:	e745      	b.n	10002af8 <_vsnprintf+0x5c4>
10002c6c:	061c      	lsls	r4, r3, #24
10002c6e:	bf4c      	ite	mi
10002c70:	8812      	ldrhmi	r2, [r2, #0]
10002c72:	6812      	ldrpl	r2, [r2, #0]
10002c74:	e6c0      	b.n	100029f8 <_vsnprintf+0x4c4>
10002c76:	460a      	mov	r2, r1
10002c78:	1e19      	subs	r1, r3, #0
10002c7a:	db01      	blt.n	10002c80 <_vsnprintf+0x74c>
10002c7c:	4613      	mov	r3, r2
10002c7e:	e79c      	b.n	10002bba <_vsnprintf+0x686>
10002c80:	4252      	negs	r2, r2
10002c82:	4613      	mov	r3, r2
10002c84:	eb61 0141 	sbc.w	r1, r1, r1, lsl #1
10002c88:	e797      	b.n	10002bba <_vsnprintf+0x686>
10002c8a:	4613      	mov	r3, r2
10002c8c:	4651      	mov	r1, sl
10002c8e:	7818      	ldrb	r0, [r3, #0]
10002c90:	4642      	mov	r2, r8
10002c92:	464b      	mov	r3, r9
10002c94:	47d8      	blx	fp
10002c96:	46b0      	mov	r8, r6
10002c98:	e648      	b.n	1000292c <_vsnprintf+0x3f8>
10002c9a:	f013 0f20 	tst.w	r3, #32
10002c9e:	bf14      	ite	ne
10002ca0:	2041      	movne	r0, #65	@ 0x41
10002ca2:	2061      	moveq	r0, #97	@ 0x61
10002ca4:	ac12      	add	r4, sp, #72	@ 0x48
10002ca6:	46a6      	mov	lr, r4
10002ca8:	940b      	str	r4, [sp, #44]	@ 0x2c
10002caa:	930a      	str	r3, [sp, #40]	@ 0x28
10002cac:	f1a0 040a 	sub.w	r4, r0, #10
10002cb0:	950c      	str	r5, [sp, #48]	@ 0x30
10002cb2:	e002      	b.n	10002cba <_vsnprintf+0x786>
10002cb4:	2920      	cmp	r1, #32
10002cb6:	d012      	beq.n	10002cde <_vsnprintf+0x7aa>
10002cb8:	462a      	mov	r2, r5
10002cba:	fbb2 f5fc 	udiv	r5, r2, ip
10002cbe:	fb0c 2015 	mls	r0, ip, r5, r2
10002cc2:	b2c3      	uxtb	r3, r0
10002cc4:	2809      	cmp	r0, #9
10002cc6:	f103 0030 	add.w	r0, r3, #48	@ 0x30
10002cca:	bf8a      	itet	hi
10002ccc:	191b      	addhi	r3, r3, r4
10002cce:	b2c3      	uxtbls	r3, r0
10002cd0:	b2db      	uxtbhi	r3, r3
10002cd2:	4562      	cmp	r2, ip
10002cd4:	f80e 3b01 	strb.w	r3, [lr], #1
10002cd8:	f101 0101 	add.w	r1, r1, #1
10002cdc:	d2ea      	bcs.n	10002cb4 <_vsnprintf+0x780>
10002cde:	9b0a      	ldr	r3, [sp, #40]	@ 0x28
10002ce0:	9d0c      	ldr	r5, [sp, #48]	@ 0x30
10002ce2:	e694      	b.n	10002a0e <_vsnprintf+0x4da>
10002ce4:	9a0a      	ldr	r2, [sp, #40]	@ 0x28
10002ce6:	3207      	adds	r2, #7
10002ce8:	f022 0207 	bic.w	r2, r2, #7
10002cec:	6851      	ldr	r1, [r2, #4]
10002cee:	f852 4b08 	ldr.w	r4, [r2], #8
10002cf2:	468e      	mov	lr, r1
10002cf4:	920a      	str	r2, [sp, #40]	@ 0x28
10002cf6:	ea54 0201 	orrs.w	r2, r4, r1
10002cfa:	d176      	bne.n	10002dea <_vsnprintf+0x8b6>
10002cfc:	f023 0310 	bic.w	r3, r3, #16
10002d00:	2800      	cmp	r0, #0
10002d02:	d072      	beq.n	10002dea <_vsnprintf+0x8b6>
10002d04:	2200      	movs	r2, #0
10002d06:	4611      	mov	r1, r2
10002d08:	aa12      	add	r2, sp, #72	@ 0x48
10002d0a:	920b      	str	r2, [sp, #44]	@ 0x2c
10002d0c:	e9cd 5305 	strd	r5, r3, [sp, #20]
10002d10:	9b0b      	ldr	r3, [sp, #44]	@ 0x2c
10002d12:	4642      	mov	r2, r8
10002d14:	9300      	str	r3, [sp, #0]
10002d16:	2300      	movs	r3, #0
10002d18:	e9cd c603 	strd	ip, r6, [sp, #12]
10002d1c:	9101      	str	r1, [sp, #4]
10002d1e:	9302      	str	r3, [sp, #8]
10002d20:	e794      	b.n	10002c4c <_vsnprintf+0x718>
10002d22:	42a5      	cmp	r5, r4
10002d24:	bf98      	it	ls
10002d26:	3401      	addls	r4, #1
10002d28:	f67f ad74 	bls.w	10002814 <_vsnprintf+0x2e0>
10002d2c:	f44f 6380 	mov.w	r3, #1024	@ 0x400
10002d30:	e9cd 750a 	strd	r7, r5, [sp, #40]	@ 0x28
10002d34:	eb05 0208 	add.w	r2, r5, r8
10002d38:	461f      	mov	r7, r3
10002d3a:	460d      	mov	r5, r1
10002d3c:	1b14      	subs	r4, r2, r4
10002d3e:	4642      	mov	r2, r8
10002d40:	464b      	mov	r3, r9
10002d42:	4651      	mov	r1, sl
10002d44:	2020      	movs	r0, #32
10002d46:	f108 0801 	add.w	r8, r8, #1
10002d4a:	47d8      	blx	fp
10002d4c:	45a0      	cmp	r8, r4
10002d4e:	d1f6      	bne.n	10002d3e <_vsnprintf+0x80a>
10002d50:	463b      	mov	r3, r7
10002d52:	9f0a      	ldr	r7, [sp, #40]	@ 0x28
10002d54:	4629      	mov	r1, r5
10002d56:	7838      	ldrb	r0, [r7, #0]
10002d58:	9d0b      	ldr	r5, [sp, #44]	@ 0x2c
10002d5a:	1c6c      	adds	r4, r5, #1
10002d5c:	2800      	cmp	r0, #0
10002d5e:	f43f ad70 	beq.w	10002842 <_vsnprintf+0x30e>
10002d62:	2b00      	cmp	r3, #0
10002d64:	f43f ae75 	beq.w	10002a52 <_vsnprintf+0x51e>
10002d68:	2300      	movs	r3, #0
10002d6a:	e553      	b.n	10002814 <_vsnprintf+0x2e0>
10002d6c:	42a5      	cmp	r5, r4
10002d6e:	d8df      	bhi.n	10002d30 <_vsnprintf+0x7fc>
10002d70:	3401      	adds	r4, #1
10002d72:	e66e      	b.n	10002a52 <_vsnprintf+0x51e>
10002d74:	6819      	ldr	r1, [r3, #0]
10002d76:	0fcb      	lsrs	r3, r1, #31
10002d78:	2900      	cmp	r1, #0
10002d7a:	f000 80a8 	beq.w	10002ece <_vsnprintf+0x99a>
10002d7e:	ea81 72e1 	eor.w	r2, r1, r1, asr #31
10002d82:	eba2 72e1 	sub.w	r2, r2, r1, asr #31
10002d86:	a912      	add	r1, sp, #72	@ 0x48
10002d88:	4608      	mov	r0, r1
10002d8a:	f8df e188 	ldr.w	lr, [pc, #392]	@ 10002f14 <_vsnprintf+0x9e0>
10002d8e:	910b      	str	r1, [sp, #44]	@ 0x2c
10002d90:	930a      	str	r3, [sp, #40]	@ 0x28
10002d92:	950c      	str	r5, [sp, #48]	@ 0x30
10002d94:	e001      	b.n	10002d9a <_vsnprintf+0x866>
10002d96:	2f20      	cmp	r7, #32
10002d98:	d00f      	beq.n	10002dba <_vsnprintf+0x886>
10002d9a:	4615      	mov	r5, r2
10002d9c:	fbae 1302 	umull	r1, r3, lr, r2
10002da0:	08db      	lsrs	r3, r3, #3
10002da2:	eb03 0183 	add.w	r1, r3, r3, lsl #2
10002da6:	eba2 0141 	sub.w	r1, r2, r1, lsl #1
10002daa:	3130      	adds	r1, #48	@ 0x30
10002dac:	2d09      	cmp	r5, #9
10002dae:	461a      	mov	r2, r3
10002db0:	f107 0701 	add.w	r7, r7, #1
10002db4:	f800 1b01 	strb.w	r1, [r0], #1
10002db8:	d8ed      	bhi.n	10002d96 <_vsnprintf+0x862>
10002dba:	9b0a      	ldr	r3, [sp, #40]	@ 0x28
10002dbc:	9d0c      	ldr	r5, [sp, #48]	@ 0x30
10002dbe:	e9cd 5c05 	strd	r5, ip, [sp, #20]
10002dc2:	e9cd 7301 	strd	r7, r3, [sp, #4]
10002dc6:	9604      	str	r6, [sp, #16]
10002dc8:	e6d5      	b.n	10002b76 <_vsnprintf+0x642>
10002dca:	2869      	cmp	r0, #105	@ 0x69
10002dcc:	f023 0c10 	bic.w	ip, r3, #16
10002dd0:	f040 808c 	bne.w	10002eec <_vsnprintf+0x9b8>
10002dd4:	f413 6280 	ands.w	r2, r3, #1024	@ 0x400
10002dd8:	f43f ae8e 	beq.w	10002af8 <_vsnprintf+0x5c4>
10002ddc:	e688      	b.n	10002af0 <_vsnprintf+0x5bc>
10002dde:	2a00      	cmp	r2, #0
10002de0:	f43f aea8 	beq.w	10002b34 <_vsnprintf+0x600>
10002de4:	aa12      	add	r2, sp, #72	@ 0x48
10002de6:	920b      	str	r2, [sp, #44]	@ 0x2c
10002de8:	e6c0      	b.n	10002b6c <_vsnprintf+0x638>
10002dea:	f013 0f20 	tst.w	r3, #32
10002dee:	bf14      	ite	ne
10002df0:	2241      	movne	r2, #65	@ 0x41
10002df2:	2261      	moveq	r2, #97	@ 0x61
10002df4:	2000      	movs	r0, #0
10002df6:	a912      	add	r1, sp, #72	@ 0x48
10002df8:	3a0a      	subs	r2, #10
10002dfa:	e9cd 680e 	strd	r6, r8, [sp, #56]	@ 0x38
10002dfe:	e9cd 350c 	strd	r3, r5, [sp, #48]	@ 0x30
10002e02:	f8cd b044 	str.w	fp, [sp, #68]	@ 0x44
10002e06:	4606      	mov	r6, r0
10002e08:	4688      	mov	r8, r1
10002e0a:	4675      	mov	r5, lr
10002e0c:	4693      	mov	fp, r2
10002e0e:	910b      	str	r1, [sp, #44]	@ 0x2c
10002e10:	f8cd c040 	str.w	ip, [sp, #64]	@ 0x40
10002e14:	e003      	b.n	10002e1e <_vsnprintf+0x8ea>
10002e16:	2e20      	cmp	r6, #32
10002e18:	d017      	beq.n	10002e4a <_vsnprintf+0x916>
10002e1a:	4604      	mov	r4, r0
10002e1c:	460d      	mov	r5, r1
10002e1e:	4629      	mov	r1, r5
10002e20:	463a      	mov	r2, r7
10002e22:	2300      	movs	r3, #0
10002e24:	4620      	mov	r0, r4
10002e26:	f000 fc47 	bl	100036b8 <____aeabi_uldivmod_veneer>
10002e2a:	b2d2      	uxtb	r2, r2
10002e2c:	2a09      	cmp	r2, #9
10002e2e:	f102 0330 	add.w	r3, r2, #48	@ 0x30
10002e32:	bf88      	it	hi
10002e34:	eb02 030b 	addhi.w	r3, r2, fp
10002e38:	42bc      	cmp	r4, r7
10002e3a:	b2db      	uxtb	r3, r3
10002e3c:	f175 0500 	sbcs.w	r5, r5, #0
10002e40:	f808 3b01 	strb.w	r3, [r8], #1
10002e44:	f106 0601 	add.w	r6, r6, #1
10002e48:	d2e5      	bcs.n	10002e16 <_vsnprintf+0x8e2>
10002e4a:	4631      	mov	r1, r6
10002e4c:	e9dd 350c 	ldrd	r3, r5, [sp, #48]	@ 0x30
10002e50:	e9dd cb10 	ldrd	ip, fp, [sp, #64]	@ 0x40
10002e54:	f8dd 803c 	ldr.w	r8, [sp, #60]	@ 0x3c
10002e58:	9e0e      	ldr	r6, [sp, #56]	@ 0x38
10002e5a:	e757      	b.n	10002d0c <_vsnprintf+0x7d8>
10002e5c:	990a      	ldr	r1, [sp, #40]	@ 0x28
10002e5e:	6809      	ldr	r1, [r1, #0]
10002e60:	b951      	cbnz	r1, 10002e78 <_vsnprintf+0x944>
10002e62:	f023 0310 	bic.w	r3, r3, #16
10002e66:	b138      	cbz	r0, 10002e78 <_vsnprintf+0x944>
10002e68:	a912      	add	r1, sp, #72	@ 0x48
10002e6a:	910b      	str	r1, [sp, #44]	@ 0x2c
10002e6c:	e9cd 5305 	strd	r5, r3, [sp, #20]
10002e70:	e9cd c603 	strd	ip, r6, [sp, #12]
10002e74:	9201      	str	r2, [sp, #4]
10002e76:	e5cf      	b.n	10002a18 <_vsnprintf+0x4e4>
10002e78:	f013 0f20 	tst.w	r3, #32
10002e7c:	bf14      	ite	ne
10002e7e:	2041      	movne	r0, #65	@ 0x41
10002e80:	2061      	moveq	r0, #97	@ 0x61
10002e82:	ac12      	add	r4, sp, #72	@ 0x48
10002e84:	46a6      	mov	lr, r4
10002e86:	940b      	str	r4, [sp, #44]	@ 0x2c
10002e88:	930a      	str	r3, [sp, #40]	@ 0x28
10002e8a:	f1a0 040a 	sub.w	r4, r0, #10
10002e8e:	950c      	str	r5, [sp, #48]	@ 0x30
10002e90:	e002      	b.n	10002e98 <_vsnprintf+0x964>
10002e92:	2a20      	cmp	r2, #32
10002e94:	d012      	beq.n	10002ebc <_vsnprintf+0x988>
10002e96:	4629      	mov	r1, r5
10002e98:	fbb1 f5fc 	udiv	r5, r1, ip
10002e9c:	fb0c 1015 	mls	r0, ip, r5, r1
10002ea0:	b2c3      	uxtb	r3, r0
10002ea2:	2809      	cmp	r0, #9
10002ea4:	f103 0030 	add.w	r0, r3, #48	@ 0x30
10002ea8:	bf8a      	itet	hi
10002eaa:	191b      	addhi	r3, r3, r4
10002eac:	b2c3      	uxtbls	r3, r0
10002eae:	b2db      	uxtbhi	r3, r3
10002eb0:	4561      	cmp	r1, ip
10002eb2:	f80e 3b01 	strb.w	r3, [lr], #1
10002eb6:	f102 0201 	add.w	r2, r2, #1
10002eba:	d2ea      	bcs.n	10002e92 <_vsnprintf+0x95e>
10002ebc:	9b0a      	ldr	r3, [sp, #40]	@ 0x28
10002ebe:	9d0c      	ldr	r5, [sp, #48]	@ 0x30
10002ec0:	e7d4      	b.n	10002e6c <_vsnprintf+0x938>
10002ec2:	6819      	ldr	r1, [r3, #0]
10002ec4:	ea81 77e1 	eor.w	r7, r1, r1, asr #31
10002ec8:	eba7 77e1 	sub.w	r7, r7, r1, asr #31
10002ecc:	e62d      	b.n	10002b2a <_vsnprintf+0x5f6>
10002ece:	2a00      	cmp	r2, #0
10002ed0:	f43f af59 	beq.w	10002d86 <_vsnprintf+0x852>
10002ed4:	aa12      	add	r2, sp, #72	@ 0x48
10002ed6:	920b      	str	r2, [sp, #44]	@ 0x2c
10002ed8:	e771      	b.n	10002dbe <_vsnprintf+0x88a>
10002eda:	f413 6480 	ands.w	r4, r3, #1024	@ 0x400
10002ede:	d00d      	beq.n	10002efc <_vsnprintf+0x9c8>
10002ee0:	f013 0402 	ands.w	r4, r3, #2
10002ee4:	d012      	beq.n	10002f0c <_vsnprintf+0x9d8>
10002ee6:	4604      	mov	r4, r0
10002ee8:	4646      	mov	r6, r8
10002eea:	e5ec      	b.n	10002ac6 <_vsnprintf+0x592>
10002eec:	270a      	movs	r7, #10
10002eee:	4663      	mov	r3, ip
10002ef0:	46bc      	mov	ip, r7
10002ef2:	e56c      	b.n	100029ce <_vsnprintf+0x49a>
10002ef4:	ab12      	add	r3, sp, #72	@ 0x48
10002ef6:	2000      	movs	r0, #0
10002ef8:	930b      	str	r3, [sp, #44]	@ 0x2c
10002efa:	e69d      	b.n	10002c38 <_vsnprintf+0x704>
10002efc:	f013 0302 	ands.w	r3, r3, #2
10002f00:	f47f ade0 	bne.w	10002ac4 <_vsnprintf+0x590>
10002f04:	2d00      	cmp	r5, #0
10002f06:	f47f af13 	bne.w	10002d30 <_vsnprintf+0x7fc>
10002f0a:	e49a      	b.n	10002842 <_vsnprintf+0x30e>
10002f0c:	2d00      	cmp	r5, #0
10002f0e:	f47f af0d 	bne.w	10002d2c <_vsnprintf+0x7f8>
10002f12:	e496      	b.n	10002842 <_vsnprintf+0x30e>
10002f14:	cccccccd 	.word	0xcccccccd

10002f18 <vfctprintf>:
10002f18:	b570      	push	{r4, r5, r6, lr}
10002f1a:	4694      	mov	ip, r2
10002f1c:	461e      	mov	r6, r3
10002f1e:	4605      	mov	r5, r0
10002f20:	460c      	mov	r4, r1
10002f22:	b084      	sub	sp, #16
10002f24:	f04f 32ff 	mov.w	r2, #4294967295
10002f28:	4663      	mov	r3, ip
10002f2a:	a902      	add	r1, sp, #8
10002f2c:	9600      	str	r6, [sp, #0]
10002f2e:	4803      	ldr	r0, [pc, #12]	@ (10002f3c <vfctprintf+0x24>)
10002f30:	e9cd 5402 	strd	r5, r4, [sp, #8]
10002f34:	f7ff fafe 	bl	10002534 <_vsnprintf>
10002f38:	b004      	add	sp, #16
10002f3a:	bd70      	pop	{r4, r5, r6, pc}
10002f3c:	10001af5 	.word	0x10001af5

10002f40 <weak_raw_vprintf>:
10002f40:	b510      	push	{r4, lr}
10002f42:	4b09      	ldr	r3, [pc, #36]	@ (10002f68 <weak_raw_vprintf+0x28>)
10002f44:	b084      	sub	sp, #16
10002f46:	681c      	ldr	r4, [r3, #0]
10002f48:	b14c      	cbz	r4, 10002f5e <weak_raw_vprintf+0x1e>
10002f4a:	4603      	mov	r3, r0
10002f4c:	9100      	str	r1, [sp, #0]
10002f4e:	f04f 32ff 	mov.w	r2, #4294967295
10002f52:	a903      	add	r1, sp, #12
10002f54:	4805      	ldr	r0, [pc, #20]	@ (10002f6c <weak_raw_vprintf+0x2c>)
10002f56:	47a0      	blx	r4
10002f58:	2001      	movs	r0, #1
10002f5a:	b004      	add	sp, #16
10002f5c:	bd10      	pop	{r4, pc}
10002f5e:	f000 f97d 	bl	1000325c <__wrap_puts>
10002f62:	4620      	mov	r0, r4
10002f64:	b004      	add	sp, #16
10002f66:	bd10      	pop	{r4, pc}
10002f68:	2000080c 	.word	0x2000080c
10002f6c:	10001aed 	.word	0x10001aed

10002f70 <_exit>:
10002f70:	be00      	bkpt	0x0000
10002f72:	e7fd      	b.n	10002f70 <_exit>

10002f74 <exit>:
10002f74:	b508      	push	{r3, lr}
10002f76:	f7ff fffb 	bl	10002f70 <_exit>
10002f7a:	bf00      	nop

10002f7c <runtime_init>:
10002f7c:	b538      	push	{r3, r4, r5, lr}
10002f7e:	4c06      	ldr	r4, [pc, #24]	@ (10002f98 <runtime_init+0x1c>)
10002f80:	4d06      	ldr	r5, [pc, #24]	@ (10002f9c <runtime_init+0x20>)
10002f82:	f7fe fa07 	bl	10001394 <runtime_run_initializers>
10002f86:	42ac      	cmp	r4, r5
10002f88:	d204      	bcs.n	10002f94 <runtime_init+0x18>
10002f8a:	f854 3b04 	ldr.w	r3, [r4], #4
10002f8e:	4798      	blx	r3
10002f90:	42ac      	cmp	r4, r5
10002f92:	d3fa      	bcc.n	10002f8a <runtime_init+0xe>
10002f94:	bd38      	pop	{r3, r4, r5, pc}
10002f96:	bf00      	nop
10002f98:	10003710 	.word	0x10003710
10002f9c:	10003714 	.word	0x10003714

10002fa0 <stdio_out_chars_no_crlf>:
10002fa0:	6803      	ldr	r3, [r0, #0]
10002fa2:	4608      	mov	r0, r1
10002fa4:	4611      	mov	r1, r2
10002fa6:	4718      	bx	r3

10002fa8 <stdio_out_chars_crlf>:
10002fa8:	e92d 41f0 	stmdb	sp!, {r4, r5, r6, r7, r8, lr}
10002fac:	4615      	mov	r5, r2
10002fae:	7d42      	ldrb	r2, [r0, #21]
10002fb0:	4607      	mov	r7, r0
10002fb2:	4688      	mov	r8, r1
10002fb4:	2a00      	cmp	r2, #0
10002fb6:	d046      	beq.n	10003046 <stdio_out_chars_crlf+0x9e>
10002fb8:	2d00      	cmp	r5, #0
10002fba:	dd1d      	ble.n	10002ff8 <stdio_out_chars_crlf+0x50>
10002fbc:	780b      	ldrb	r3, [r1, #0]
10002fbe:	2b0a      	cmp	r3, #10
10002fc0:	d023      	beq.n	1000300a <stdio_out_chars_crlf+0x62>
10002fc2:	2d01      	cmp	r5, #1
10002fc4:	f04f 0c00 	mov.w	ip, #0
10002fc8:	d018      	beq.n	10002ffc <stdio_out_chars_crlf+0x54>
10002fca:	4646      	mov	r6, r8
10002fcc:	2401      	movs	r4, #1
10002fce:	f816 2f01 	ldrb.w	r2, [r6, #1]!
10002fd2:	4621      	mov	r1, r4
10002fd4:	2a0a      	cmp	r2, #10
10002fd6:	f104 0401 	add.w	r4, r4, #1
10002fda:	d022      	beq.n	10003022 <stdio_out_chars_crlf+0x7a>
10002fdc:	42a5      	cmp	r5, r4
10002fde:	d1f6      	bne.n	10002fce <stdio_out_chars_crlf+0x26>
10002fe0:	4565      	cmp	r5, ip
10002fe2:	dc0b      	bgt.n	10002ffc <stdio_out_chars_crlf+0x54>
10002fe4:	eb08 0305 	add.w	r3, r8, r5
10002fe8:	f813 3c01 	ldrb.w	r3, [r3, #-1]
10002fec:	f1a3 030d 	sub.w	r3, r3, #13
10002ff0:	fab3 f383 	clz	r3, r3
10002ff4:	095b      	lsrs	r3, r3, #5
10002ff6:	753b      	strb	r3, [r7, #20]
10002ff8:	e8bd 81f0 	ldmia.w	sp!, {r4, r5, r6, r7, r8, pc}
10002ffc:	683b      	ldr	r3, [r7, #0]
10002ffe:	eba5 010c 	sub.w	r1, r5, ip
10003002:	eb08 000c 	add.w	r0, r8, ip
10003006:	4798      	blx	r3
10003008:	e7ec      	b.n	10002fe4 <stdio_out_chars_crlf+0x3c>
1000300a:	7d03      	ldrb	r3, [r0, #20]
1000300c:	2b00      	cmp	r3, #0
1000300e:	d1d8      	bne.n	10002fc2 <stdio_out_chars_crlf+0x1a>
10003010:	6803      	ldr	r3, [r0, #0]
10003012:	2102      	movs	r1, #2
10003014:	480f      	ldr	r0, [pc, #60]	@ (10003054 <stdio_out_chars_crlf+0xac>)
10003016:	4798      	blx	r3
10003018:	2d01      	cmp	r5, #1
1000301a:	d0e3      	beq.n	10002fe4 <stdio_out_chars_crlf+0x3c>
1000301c:	f04f 0c01 	mov.w	ip, #1
10003020:	e7d3      	b.n	10002fca <stdio_out_chars_crlf+0x22>
10003022:	f816 3c01 	ldrb.w	r3, [r6, #-1]
10003026:	2b0d      	cmp	r3, #13
10003028:	d0d8      	beq.n	10002fdc <stdio_out_chars_crlf+0x34>
1000302a:	458c      	cmp	ip, r1
1000302c:	eb08 000c 	add.w	r0, r8, ip
10003030:	eba1 010c 	sub.w	r1, r1, ip
10003034:	da01      	bge.n	1000303a <stdio_out_chars_crlf+0x92>
10003036:	683b      	ldr	r3, [r7, #0]
10003038:	4798      	blx	r3
1000303a:	2102      	movs	r1, #2
1000303c:	4805      	ldr	r0, [pc, #20]	@ (10003054 <stdio_out_chars_crlf+0xac>)
1000303e:	683b      	ldr	r3, [r7, #0]
10003040:	4798      	blx	r3
10003042:	46a4      	mov	ip, r4
10003044:	e7ca      	b.n	10002fdc <stdio_out_chars_crlf+0x34>
10003046:	4629      	mov	r1, r5
10003048:	4640      	mov	r0, r8
1000304a:	683b      	ldr	r3, [r7, #0]
1000304c:	e8bd 41f0 	ldmia.w	sp!, {r4, r5, r6, r7, r8, lr}
10003050:	4718      	bx	r3
10003052:	bf00      	nop
10003054:	100038c8 	.word	0x100038c8

10003058 <stdio_buffered_printer>:
10003058:	680b      	ldr	r3, [r1, #0]
1000305a:	e92d 41f0 	stmdb	sp!, {r4, r5, r6, r7, r8, lr}
1000305e:	2b80      	cmp	r3, #128	@ 0x80
10003060:	460d      	mov	r5, r1
10003062:	4606      	mov	r6, r0
10003064:	d005      	beq.n	10003072 <stdio_buffered_printer+0x1a>
10003066:	1c5a      	adds	r2, r3, #1
10003068:	442b      	add	r3, r5
1000306a:	602a      	str	r2, [r5, #0]
1000306c:	711e      	strb	r6, [r3, #4]
1000306e:	e8bd 81f0 	ldmia.w	sp!, {r4, r5, r6, r7, r8, pc}
10003072:	4b0f      	ldr	r3, [pc, #60]	@ (100030b0 <stdio_buffered_printer+0x58>)
10003074:	681c      	ldr	r4, [r3, #0]
10003076:	b1a4      	cbz	r4, 100030a2 <stdio_buffered_printer+0x4a>
10003078:	4f0e      	ldr	r7, [pc, #56]	@ (100030b4 <stdio_buffered_printer+0x5c>)
1000307a:	f101 0804 	add.w	r8, r1, #4
1000307e:	e001      	b.n	10003084 <stdio_buffered_printer+0x2c>
10003080:	6924      	ldr	r4, [r4, #16]
10003082:	b174      	cbz	r4, 100030a2 <stdio_buffered_printer+0x4a>
10003084:	6823      	ldr	r3, [r4, #0]
10003086:	2b00      	cmp	r3, #0
10003088:	d0fa      	beq.n	10003080 <stdio_buffered_printer+0x28>
1000308a:	683b      	ldr	r3, [r7, #0]
1000308c:	b10b      	cbz	r3, 10003092 <stdio_buffered_printer+0x3a>
1000308e:	42a3      	cmp	r3, r4
10003090:	d1f6      	bne.n	10003080 <stdio_buffered_printer+0x28>
10003092:	4620      	mov	r0, r4
10003094:	4641      	mov	r1, r8
10003096:	682a      	ldr	r2, [r5, #0]
10003098:	f7ff ff86 	bl	10002fa8 <stdio_out_chars_crlf>
1000309c:	6924      	ldr	r4, [r4, #16]
1000309e:	2c00      	cmp	r4, #0
100030a0:	d1f0      	bne.n	10003084 <stdio_buffered_printer+0x2c>
100030a2:	2300      	movs	r3, #0
100030a4:	2201      	movs	r2, #1
100030a6:	442b      	add	r3, r5
100030a8:	602a      	str	r2, [r5, #0]
100030aa:	711e      	strb	r6, [r3, #4]
100030ac:	e8bd 81f0 	ldmia.w	sp!, {r4, r5, r6, r7, r8, pc}
100030b0:	20000804 	.word	0x20000804
100030b4:	20000808 	.word	0x20000808

100030b8 <stdio_put_string>:
100030b8:	e92d 47f0 	stmdb	sp!, {r4, r5, r6, r7, r8, r9, sl, lr}
100030bc:	b082      	sub	sp, #8
100030be:	460d      	mov	r5, r1
100030c0:	4691      	mov	r9, r2
100030c2:	461c      	mov	r4, r3
100030c4:	4606      	mov	r6, r0
100030c6:	f7fd ff95 	bl	10000ff4 <time_us_64>
100030ca:	f04f 3cff 	mov.w	ip, #4294967295
100030ce:	f06f 4700 	mvn.w	r7, #2147483648	@ 0x80000000
100030d2:	4a2e      	ldr	r2, [pc, #184]	@ (1000318c <stdio_put_string+0xd4>)
100030d4:	1882      	adds	r2, r0, r2
100030d6:	f141 0300 	adc.w	r3, r1, #0
100030da:	4594      	cmp	ip, r2
100030dc:	eb77 0103 	sbcs.w	r1, r7, r3
100030e0:	bf3c      	itt	cc
100030e2:	4662      	movcc	r2, ip
100030e4:	463b      	movcc	r3, r7
100030e6:	482a      	ldr	r0, [pc, #168]	@ (10003190 <stdio_put_string+0xd8>)
100030e8:	f000 faee 	bl	100036c8 <__mutex_try_enter_block_until_veneer>
100030ec:	1c6b      	adds	r3, r5, #1
100030ee:	4680      	mov	r8, r0
100030f0:	d040      	beq.n	10003174 <stdio_put_string+0xbc>
100030f2:	b30c      	cbz	r4, 10003138 <stdio_put_string+0x80>
100030f4:	4f27      	ldr	r7, [pc, #156]	@ (10003194 <stdio_put_string+0xdc>)
100030f6:	4b28      	ldr	r3, [pc, #160]	@ (10003198 <stdio_put_string+0xe0>)
100030f8:	681c      	ldr	r4, [r3, #0]
100030fa:	b1b4      	cbz	r4, 1000312a <stdio_put_string+0x72>
100030fc:	f1b9 0f00 	cmp.w	r9, #0
10003100:	d11c      	bne.n	1000313c <stdio_put_string+0x84>
10003102:	f8df 909c 	ldr.w	r9, [pc, #156]	@ 100031a0 <stdio_put_string+0xe8>
10003106:	e001      	b.n	1000310c <stdio_put_string+0x54>
10003108:	6924      	ldr	r4, [r4, #16]
1000310a:	b174      	cbz	r4, 1000312a <stdio_put_string+0x72>
1000310c:	6823      	ldr	r3, [r4, #0]
1000310e:	2b00      	cmp	r3, #0
10003110:	d0fa      	beq.n	10003108 <stdio_put_string+0x50>
10003112:	f8d9 3000 	ldr.w	r3, [r9]
10003116:	b10b      	cbz	r3, 1000311c <stdio_put_string+0x64>
10003118:	429c      	cmp	r4, r3
1000311a:	d1f5      	bne.n	10003108 <stdio_put_string+0x50>
1000311c:	4620      	mov	r0, r4
1000311e:	462a      	mov	r2, r5
10003120:	4631      	mov	r1, r6
10003122:	47b8      	blx	r7
10003124:	6924      	ldr	r4, [r4, #16]
10003126:	2c00      	cmp	r4, #0
10003128:	d1f0      	bne.n	1000310c <stdio_put_string+0x54>
1000312a:	f1b8 0f00 	cmp.w	r8, #0
1000312e:	d126      	bne.n	1000317e <stdio_put_string+0xc6>
10003130:	4628      	mov	r0, r5
10003132:	b002      	add	sp, #8
10003134:	e8bd 87f0 	ldmia.w	sp!, {r4, r5, r6, r7, r8, r9, sl, pc}
10003138:	4f18      	ldr	r7, [pc, #96]	@ (1000319c <stdio_put_string+0xe4>)
1000313a:	e7dc      	b.n	100030f6 <stdio_put_string+0x3e>
1000313c:	f04f 0a0a 	mov.w	sl, #10
10003140:	f8df 905c 	ldr.w	r9, [pc, #92]	@ 100031a0 <stdio_put_string+0xe8>
10003144:	e002      	b.n	1000314c <stdio_put_string+0x94>
10003146:	6924      	ldr	r4, [r4, #16]
10003148:	2c00      	cmp	r4, #0
1000314a:	d0ee      	beq.n	1000312a <stdio_put_string+0x72>
1000314c:	6823      	ldr	r3, [r4, #0]
1000314e:	2b00      	cmp	r3, #0
10003150:	d0f9      	beq.n	10003146 <stdio_put_string+0x8e>
10003152:	f8d9 3000 	ldr.w	r3, [r9]
10003156:	b10b      	cbz	r3, 1000315c <stdio_put_string+0xa4>
10003158:	42a3      	cmp	r3, r4
1000315a:	d1f4      	bne.n	10003146 <stdio_put_string+0x8e>
1000315c:	462a      	mov	r2, r5
1000315e:	4631      	mov	r1, r6
10003160:	4620      	mov	r0, r4
10003162:	47b8      	blx	r7
10003164:	2201      	movs	r2, #1
10003166:	4620      	mov	r0, r4
10003168:	f10d 0107 	add.w	r1, sp, #7
1000316c:	f88d a007 	strb.w	sl, [sp, #7]
10003170:	47b8      	blx	r7
10003172:	e7e8      	b.n	10003146 <stdio_put_string+0x8e>
10003174:	4630      	mov	r0, r6
10003176:	f000 fa6f 	bl	10003658 <strlen>
1000317a:	4605      	mov	r5, r0
1000317c:	e7b9      	b.n	100030f2 <stdio_put_string+0x3a>
1000317e:	4804      	ldr	r0, [pc, #16]	@ (10003190 <stdio_put_string+0xd8>)
10003180:	f000 fa9e 	bl	100036c0 <__mutex_exit_veneer>
10003184:	4628      	mov	r0, r5
10003186:	b002      	add	sp, #8
10003188:	e8bd 87f0 	ldmia.w	sp!, {r4, r5, r6, r7, r8, r9, sl, pc}
1000318c:	000f4240 	.word	0x000f4240
10003190:	20000624 	.word	0x20000624
10003194:	10002fa9 	.word	0x10002fa9
10003198:	20000804 	.word	0x20000804
1000319c:	10002fa1 	.word	0x10002fa1
100031a0:	20000808 	.word	0x20000808

100031a4 <stdio_set_driver_enabled>:
100031a4:	4a08      	ldr	r2, [pc, #32]	@ (100031c8 <stdio_set_driver_enabled+0x24>)
100031a6:	6813      	ldr	r3, [r2, #0]
100031a8:	b923      	cbnz	r3, 100031b4 <stdio_set_driver_enabled+0x10>
100031aa:	e00a      	b.n	100031c2 <stdio_set_driver_enabled+0x1e>
100031ac:	f103 0210 	add.w	r2, r3, #16
100031b0:	691b      	ldr	r3, [r3, #16]
100031b2:	b133      	cbz	r3, 100031c2 <stdio_set_driver_enabled+0x1e>
100031b4:	4283      	cmp	r3, r0
100031b6:	d1f9      	bne.n	100031ac <stdio_set_driver_enabled+0x8>
100031b8:	b929      	cbnz	r1, 100031c6 <stdio_set_driver_enabled+0x22>
100031ba:	6918      	ldr	r0, [r3, #16]
100031bc:	6010      	str	r0, [r2, #0]
100031be:	6119      	str	r1, [r3, #16]
100031c0:	4770      	bx	lr
100031c2:	b101      	cbz	r1, 100031c6 <stdio_set_driver_enabled+0x22>
100031c4:	6010      	str	r0, [r2, #0]
100031c6:	4770      	bx	lr
100031c8:	20000804 	.word	0x20000804

100031cc <stdio_init_all>:
100031cc:	b508      	push	{r3, lr}
100031ce:	f000 f9a3 	bl	10003518 <stdio_uart_init>
100031d2:	2001      	movs	r0, #1
100031d4:	bd08      	pop	{r3, pc}
100031d6:	bf00      	nop

100031d8 <__wrap_putchar>:
100031d8:	b5f0      	push	{r4, r5, r6, r7, lr}
100031da:	b083      	sub	sp, #12
100031dc:	4606      	mov	r6, r0
100031de:	f88d 0007 	strb.w	r0, [sp, #7]
100031e2:	f7fd ff07 	bl	10000ff4 <time_us_64>
100031e6:	f04f 35ff 	mov.w	r5, #4294967295
100031ea:	f06f 4400 	mvn.w	r4, #2147483648	@ 0x80000000
100031ee:	4a17      	ldr	r2, [pc, #92]	@ (1000324c <__wrap_putchar+0x74>)
100031f0:	1882      	adds	r2, r0, r2
100031f2:	f141 0300 	adc.w	r3, r1, #0
100031f6:	4295      	cmp	r5, r2
100031f8:	eb74 0103 	sbcs.w	r1, r4, r3
100031fc:	bf3c      	itt	cc
100031fe:	4623      	movcc	r3, r4
10003200:	462a      	movcc	r2, r5
10003202:	4813      	ldr	r0, [pc, #76]	@ (10003250 <__wrap_putchar+0x78>)
10003204:	f000 fa60 	bl	100036c8 <__mutex_try_enter_block_until_veneer>
10003208:	4b12      	ldr	r3, [pc, #72]	@ (10003254 <__wrap_putchar+0x7c>)
1000320a:	4607      	mov	r7, r0
1000320c:	681c      	ldr	r4, [r3, #0]
1000320e:	b19c      	cbz	r4, 10003238 <__wrap_putchar+0x60>
10003210:	4d11      	ldr	r5, [pc, #68]	@ (10003258 <__wrap_putchar+0x80>)
10003212:	e001      	b.n	10003218 <__wrap_putchar+0x40>
10003214:	6924      	ldr	r4, [r4, #16]
10003216:	b17c      	cbz	r4, 10003238 <__wrap_putchar+0x60>
10003218:	6823      	ldr	r3, [r4, #0]
1000321a:	2b00      	cmp	r3, #0
1000321c:	d0fa      	beq.n	10003214 <__wrap_putchar+0x3c>
1000321e:	682b      	ldr	r3, [r5, #0]
10003220:	b10b      	cbz	r3, 10003226 <__wrap_putchar+0x4e>
10003222:	429c      	cmp	r4, r3
10003224:	d1f6      	bne.n	10003214 <__wrap_putchar+0x3c>
10003226:	4620      	mov	r0, r4
10003228:	2201      	movs	r2, #1
1000322a:	f10d 0107 	add.w	r1, sp, #7
1000322e:	f7ff febb 	bl	10002fa8 <stdio_out_chars_crlf>
10003232:	6924      	ldr	r4, [r4, #16]
10003234:	2c00      	cmp	r4, #0
10003236:	d1ef      	bne.n	10003218 <__wrap_putchar+0x40>
10003238:	b917      	cbnz	r7, 10003240 <__wrap_putchar+0x68>
1000323a:	4630      	mov	r0, r6
1000323c:	b003      	add	sp, #12
1000323e:	bdf0      	pop	{r4, r5, r6, r7, pc}
10003240:	4803      	ldr	r0, [pc, #12]	@ (10003250 <__wrap_putchar+0x78>)
10003242:	f000 fa3d 	bl	100036c0 <__mutex_exit_veneer>
10003246:	4630      	mov	r0, r6
10003248:	b003      	add	sp, #12
1000324a:	bdf0      	pop	{r4, r5, r6, r7, pc}
1000324c:	000f4240 	.word	0x000f4240
10003250:	20000624 	.word	0x20000624
10003254:	20000804 	.word	0x20000804
10003258:	20000808 	.word	0x20000808

1000325c <__wrap_puts>:
1000325c:	b538      	push	{r3, r4, r5, lr}
1000325e:	4604      	mov	r4, r0
10003260:	f000 f9fa 	bl	10003658 <strlen>
10003264:	2301      	movs	r3, #1
10003266:	4605      	mov	r5, r0
10003268:	461a      	mov	r2, r3
1000326a:	4620      	mov	r0, r4
1000326c:	4629      	mov	r1, r5
1000326e:	f7ff ff23 	bl	100030b8 <stdio_put_string>
10003272:	4b08      	ldr	r3, [pc, #32]	@ (10003294 <__wrap_puts+0x38>)
10003274:	681c      	ldr	r4, [r3, #0]
10003276:	b12c      	cbz	r4, 10003284 <__wrap_puts+0x28>
10003278:	6863      	ldr	r3, [r4, #4]
1000327a:	b12b      	cbz	r3, 10003288 <__wrap_puts+0x2c>
1000327c:	4798      	blx	r3
1000327e:	6924      	ldr	r4, [r4, #16]
10003280:	2c00      	cmp	r4, #0
10003282:	d1f9      	bne.n	10003278 <__wrap_puts+0x1c>
10003284:	4628      	mov	r0, r5
10003286:	bd38      	pop	{r3, r4, r5, pc}
10003288:	6924      	ldr	r4, [r4, #16]
1000328a:	2c00      	cmp	r4, #0
1000328c:	d1f4      	bne.n	10003278 <__wrap_puts+0x1c>
1000328e:	4628      	mov	r0, r5
10003290:	bd38      	pop	{r3, r4, r5, pc}
10003292:	bf00      	nop
10003294:	20000804 	.word	0x20000804

10003298 <__wrap_vprintf>:
10003298:	e92d 41f0 	stmdb	sp!, {r4, r5, r6, r7, r8, lr}
1000329c:	b0a2      	sub	sp, #136	@ 0x88
1000329e:	4604      	mov	r4, r0
100032a0:	460d      	mov	r5, r1
100032a2:	f7fd fea7 	bl	10000ff4 <time_us_64>
100032a6:	f04f 37ff 	mov.w	r7, #4294967295
100032aa:	f06f 4600 	mvn.w	r6, #2147483648	@ 0x80000000
100032ae:	4a26      	ldr	r2, [pc, #152]	@ (10003348 <__wrap_vprintf+0xb0>)
100032b0:	f8df 80a4 	ldr.w	r8, [pc, #164]	@ 10003358 <__wrap_vprintf+0xc0>
100032b4:	1882      	adds	r2, r0, r2
100032b6:	f141 0300 	adc.w	r3, r1, #0
100032ba:	4297      	cmp	r7, r2
100032bc:	eb76 0103 	sbcs.w	r1, r6, r3
100032c0:	bf3c      	itt	cc
100032c2:	463a      	movcc	r2, r7
100032c4:	4633      	movcc	r3, r6
100032c6:	4821      	ldr	r0, [pc, #132]	@ (1000334c <__wrap_vprintf+0xb4>)
100032c8:	f000 f9fe 	bl	100036c8 <__mutex_try_enter_block_until_veneer>
100032cc:	2700      	movs	r7, #0
100032ce:	462b      	mov	r3, r5
100032d0:	4622      	mov	r2, r4
100032d2:	4606      	mov	r6, r0
100032d4:	a901      	add	r1, sp, #4
100032d6:	481e      	ldr	r0, [pc, #120]	@ (10003350 <__wrap_vprintf+0xb8>)
100032d8:	9701      	str	r7, [sp, #4]
100032da:	f7ff fe1d 	bl	10002f18 <vfctprintf>
100032de:	9b01      	ldr	r3, [sp, #4]
100032e0:	4605      	mov	r5, r0
100032e2:	f8d8 4000 	ldr.w	r4, [r8]
100032e6:	b1c3      	cbz	r3, 1000331a <__wrap_vprintf+0x82>
100032e8:	2c00      	cmp	r4, #0
100032ea:	d02b      	beq.n	10003344 <__wrap_vprintf+0xac>
100032ec:	4f19      	ldr	r7, [pc, #100]	@ (10003354 <__wrap_vprintf+0xbc>)
100032ee:	e001      	b.n	100032f4 <__wrap_vprintf+0x5c>
100032f0:	6924      	ldr	r4, [r4, #16]
100032f2:	b174      	cbz	r4, 10003312 <__wrap_vprintf+0x7a>
100032f4:	6823      	ldr	r3, [r4, #0]
100032f6:	2b00      	cmp	r3, #0
100032f8:	d0fa      	beq.n	100032f0 <__wrap_vprintf+0x58>
100032fa:	683b      	ldr	r3, [r7, #0]
100032fc:	b10b      	cbz	r3, 10003302 <__wrap_vprintf+0x6a>
100032fe:	42a3      	cmp	r3, r4
10003300:	d1f6      	bne.n	100032f0 <__wrap_vprintf+0x58>
10003302:	4620      	mov	r0, r4
10003304:	9a01      	ldr	r2, [sp, #4]
10003306:	a902      	add	r1, sp, #8
10003308:	f7ff fe4e 	bl	10002fa8 <stdio_out_chars_crlf>
1000330c:	6924      	ldr	r4, [r4, #16]
1000330e:	2c00      	cmp	r4, #0
10003310:	d1f0      	bne.n	100032f4 <__wrap_vprintf+0x5c>
10003312:	2300      	movs	r3, #0
10003314:	f8d8 4000 	ldr.w	r4, [r8]
10003318:	9301      	str	r3, [sp, #4]
1000331a:	b12c      	cbz	r4, 10003328 <__wrap_vprintf+0x90>
1000331c:	6863      	ldr	r3, [r4, #4]
1000331e:	b143      	cbz	r3, 10003332 <__wrap_vprintf+0x9a>
10003320:	4798      	blx	r3
10003322:	6924      	ldr	r4, [r4, #16]
10003324:	2c00      	cmp	r4, #0
10003326:	d1f9      	bne.n	1000331c <__wrap_vprintf+0x84>
10003328:	b92e      	cbnz	r6, 10003336 <__wrap_vprintf+0x9e>
1000332a:	4628      	mov	r0, r5
1000332c:	b022      	add	sp, #136	@ 0x88
1000332e:	e8bd 81f0 	ldmia.w	sp!, {r4, r5, r6, r7, r8, pc}
10003332:	6924      	ldr	r4, [r4, #16]
10003334:	e7f1      	b.n	1000331a <__wrap_vprintf+0x82>
10003336:	4805      	ldr	r0, [pc, #20]	@ (1000334c <__wrap_vprintf+0xb4>)
10003338:	f000 f9c2 	bl	100036c0 <__mutex_exit_veneer>
1000333c:	4628      	mov	r0, r5
1000333e:	b022      	add	sp, #136	@ 0x88
10003340:	e8bd 81f0 	ldmia.w	sp!, {r4, r5, r6, r7, r8, pc}
10003344:	9401      	str	r4, [sp, #4]
10003346:	e7ef      	b.n	10003328 <__wrap_vprintf+0x90>
10003348:	000f4240 	.word	0x000f4240
1000334c:	20000624 	.word	0x20000624
10003350:	10003059 	.word	0x10003059
10003354:	20000808 	.word	0x20000808
10003358:	20000804 	.word	0x20000804

1000335c <__wrap_printf>:
1000335c:	b40f      	push	{r0, r1, r2, r3}
1000335e:	b500      	push	{lr}
10003360:	b083      	sub	sp, #12
10003362:	a904      	add	r1, sp, #16
10003364:	f851 0b04 	ldr.w	r0, [r1], #4
10003368:	9101      	str	r1, [sp, #4]
1000336a:	f7ff ff95 	bl	10003298 <__wrap_vprintf>
1000336e:	b003      	add	sp, #12
10003370:	f85d eb04 	ldr.w	lr, [sp], #4
10003374:	b004      	add	sp, #16
10003376:	4770      	bx	lr

10003378 <stdio_uart_out_chars>:
10003378:	f1b1 0c00 	subs.w	ip, r1, #0
1000337c:	dd1d      	ble.n	100033ba <stdio_uart_out_chars+0x42>
1000337e:	4a0f      	ldr	r2, [pc, #60]	@ (100033bc <stdio_uart_out_chars+0x44>)
10003380:	4b0f      	ldr	r3, [pc, #60]	@ (100033c0 <stdio_uart_out_chars+0x48>)
10003382:	6812      	ldr	r2, [r2, #0]
10003384:	b530      	push	{r4, r5, lr}
10003386:	1ad3      	subs	r3, r2, r3
10003388:	fab3 f383 	clz	r3, r3
1000338c:	240d      	movs	r4, #13
1000338e:	4d0d      	ldr	r5, [pc, #52]	@ (100033c4 <stdio_uart_out_chars+0x4c>)
10003390:	095b      	lsrs	r3, r3, #5
10003392:	1e41      	subs	r1, r0, #1
10003394:	f935 e013 	ldrsh.w	lr, [r5, r3, lsl #1]
10003398:	448c      	add	ip, r1
1000339a:	f811 0f01 	ldrb.w	r0, [r1, #1]!
1000339e:	4586      	cmp	lr, r0
100033a0:	d006      	beq.n	100033b0 <stdio_uart_out_chars+0x38>
100033a2:	6993      	ldr	r3, [r2, #24]
100033a4:	069b      	lsls	r3, r3, #26
100033a6:	d4fc      	bmi.n	100033a2 <stdio_uart_out_chars+0x2a>
100033a8:	4561      	cmp	r1, ip
100033aa:	6010      	str	r0, [r2, #0]
100033ac:	d1f5      	bne.n	1000339a <stdio_uart_out_chars+0x22>
100033ae:	bd30      	pop	{r4, r5, pc}
100033b0:	6993      	ldr	r3, [r2, #24]
100033b2:	069d      	lsls	r5, r3, #26
100033b4:	d4fc      	bmi.n	100033b0 <stdio_uart_out_chars+0x38>
100033b6:	6014      	str	r4, [r2, #0]
100033b8:	e7f3      	b.n	100033a2 <stdio_uart_out_chars+0x2a>
100033ba:	4770      	bx	lr
100033bc:	2000085c 	.word	0x2000085c
100033c0:	40078000 	.word	0x40078000
100033c4:	20000858 	.word	0x20000858

100033c8 <stdio_uart_in_chars>:
100033c8:	4b22      	ldr	r3, [pc, #136]	@ (10003454 <stdio_uart_in_chars+0x8c>)
100033ca:	f1b1 0c00 	subs.w	ip, r1, #0
100033ce:	b410      	push	{r4}
100033d0:	681c      	ldr	r4, [r3, #0]
100033d2:	dd2e      	ble.n	10003432 <stdio_uart_in_chars+0x6a>
100033d4:	4603      	mov	r3, r0
100033d6:	2000      	movs	r0, #0
100033d8:	4a1f      	ldr	r2, [pc, #124]	@ (10003458 <stdio_uart_in_chars+0x90>)
100033da:	1e59      	subs	r1, r3, #1
100033dc:	6812      	ldr	r2, [r2, #0]
100033de:	6993      	ldr	r3, [r2, #24]
100033e0:	06db      	lsls	r3, r3, #27
100033e2:	d417      	bmi.n	10003414 <stdio_uart_in_chars+0x4c>
100033e4:	3001      	adds	r0, #1
100033e6:	6993      	ldr	r3, [r2, #24]
100033e8:	06db      	lsls	r3, r3, #27
100033ea:	d4fc      	bmi.n	100033e6 <stdio_uart_in_chars+0x1e>
100033ec:	6813      	ldr	r3, [r2, #0]
100033ee:	4584      	cmp	ip, r0
100033f0:	f801 3f01 	strb.w	r3, [r1, #1]!
100033f4:	d1f3      	bne.n	100033de <stdio_uart_in_chars+0x16>
100033f6:	b14c      	cbz	r4, 1000340c <stdio_uart_in_chars+0x44>
100033f8:	2150      	movs	r1, #80	@ 0x50
100033fa:	4613      	mov	r3, r2
100033fc:	6391      	str	r1, [r2, #56]	@ 0x38
100033fe:	f853 2f34 	ldr.w	r2, [r3, #52]!
10003402:	f002 0238 	and.w	r2, r2, #56	@ 0x38
10003406:	f503 5380 	add.w	r3, r3, #4096	@ 0x1000
1000340a:	601a      	str	r2, [r3, #0]
1000340c:	4660      	mov	r0, ip
1000340e:	f85d 4b04 	ldr.w	r4, [sp], #4
10003412:	4770      	bx	lr
10003414:	b14c      	cbz	r4, 1000342a <stdio_uart_in_chars+0x62>
10003416:	2150      	movs	r1, #80	@ 0x50
10003418:	4613      	mov	r3, r2
1000341a:	6391      	str	r1, [r2, #56]	@ 0x38
1000341c:	f853 2f34 	ldr.w	r2, [r3, #52]!
10003420:	f002 0238 	and.w	r2, r2, #56	@ 0x38
10003424:	f503 5380 	add.w	r3, r3, #4096	@ 0x1000
10003428:	601a      	str	r2, [r3, #0]
1000342a:	b178      	cbz	r0, 1000344c <stdio_uart_in_chars+0x84>
1000342c:	f85d 4b04 	ldr.w	r4, [sp], #4
10003430:	4770      	bx	lr
10003432:	b15c      	cbz	r4, 1000344c <stdio_uart_in_chars+0x84>
10003434:	4b08      	ldr	r3, [pc, #32]	@ (10003458 <stdio_uart_in_chars+0x90>)
10003436:	2150      	movs	r1, #80	@ 0x50
10003438:	681a      	ldr	r2, [r3, #0]
1000343a:	4613      	mov	r3, r2
1000343c:	6391      	str	r1, [r2, #56]	@ 0x38
1000343e:	f853 2f34 	ldr.w	r2, [r3, #52]!
10003442:	f002 0238 	and.w	r2, r2, #56	@ 0x38
10003446:	f503 5380 	add.w	r3, r3, #4096	@ 0x1000
1000344a:	601a      	str	r2, [r3, #0]
1000344c:	f06f 0002 	mvn.w	r0, #2
10003450:	e7dd      	b.n	1000340e <stdio_uart_in_chars+0x46>
10003452:	bf00      	nop
10003454:	200007d0 	.word	0x200007d0
10003458:	2000085c 	.word	0x2000085c

1000345c <on_uart_rx>:
1000345c:	4b05      	ldr	r3, [pc, #20]	@ (10003474 <on_uart_rx+0x18>)
1000345e:	681b      	ldr	r3, [r3, #0]
10003460:	b133      	cbz	r3, 10003470 <on_uart_rx+0x14>
10003462:	2100      	movs	r1, #0
10003464:	4a04      	ldr	r2, [pc, #16]	@ (10003478 <on_uart_rx+0x1c>)
10003466:	4805      	ldr	r0, [pc, #20]	@ (1000347c <on_uart_rx+0x20>)
10003468:	6812      	ldr	r2, [r2, #0]
1000346a:	6800      	ldr	r0, [r0, #0]
1000346c:	6391      	str	r1, [r2, #56]	@ 0x38
1000346e:	4718      	bx	r3
10003470:	4770      	bx	lr
10003472:	bf00      	nop
10003474:	200007d0 	.word	0x200007d0
10003478:	2000085c 	.word	0x2000085c
1000347c:	200007d4 	.word	0x200007d4

10003480 <stdio_uart_out_flush>:
10003480:	4b02      	ldr	r3, [pc, #8]	@ (1000348c <stdio_uart_out_flush+0xc>)
10003482:	681a      	ldr	r2, [r3, #0]
10003484:	6993      	ldr	r3, [r2, #24]
10003486:	071b      	lsls	r3, r3, #28
10003488:	d4fc      	bmi.n	10003484 <stdio_uart_out_flush+0x4>
1000348a:	4770      	bx	lr
1000348c:	2000085c 	.word	0x2000085c

10003490 <stdio_uart_set_chars_available_callback>:
10003490:	b5f8      	push	{r3, r4, r5, r6, r7, lr}
10003492:	4f1c      	ldr	r7, [pc, #112]	@ (10003504 <stdio_uart_set_chars_available_callback+0x74>)
10003494:	4d1c      	ldr	r5, [pc, #112]	@ (10003508 <stdio_uart_set_chars_available_callback+0x78>)
10003496:	683a      	ldr	r2, [r7, #0]
10003498:	4e1c      	ldr	r6, [pc, #112]	@ (1000350c <stdio_uart_set_chars_available_callback+0x7c>)
1000349a:	42aa      	cmp	r2, r5
1000349c:	bf14      	ite	ne
1000349e:	2521      	movne	r5, #33	@ 0x21
100034a0:	2522      	moveq	r5, #34	@ 0x22
100034a2:	4604      	mov	r4, r0
100034a4:	f8d6 c000 	ldr.w	ip, [r6]
100034a8:	b118      	cbz	r0, 100034b2 <stdio_uart_set_chars_available_callback+0x22>
100034aa:	f1bc 0f00 	cmp.w	ip, #0
100034ae:	d010      	beq.n	100034d2 <stdio_uart_set_chars_available_callback+0x42>
100034b0:	bdf8      	pop	{r3, r4, r5, r6, r7, pc}
100034b2:	f1bc 0f00 	cmp.w	ip, #0
100034b6:	d0fb      	beq.n	100034b0 <stdio_uart_set_chars_available_callback+0x20>
100034b8:	4601      	mov	r1, r0
100034ba:	6390      	str	r0, [r2, #56]	@ 0x38
100034bc:	4628      	mov	r0, r5
100034be:	f7fd f823 	bl	10000508 <irq_set_enabled>
100034c2:	4628      	mov	r0, r5
100034c4:	4912      	ldr	r1, [pc, #72]	@ (10003510 <stdio_uart_set_chars_available_callback+0x80>)
100034c6:	f7fd f865 	bl	10000594 <irq_remove_handler>
100034ca:	4b12      	ldr	r3, [pc, #72]	@ (10003514 <stdio_uart_set_chars_available_callback+0x84>)
100034cc:	6034      	str	r4, [r6, #0]
100034ce:	601c      	str	r4, [r3, #0]
100034d0:	bdf8      	pop	{r3, r4, r5, r6, r7, pc}
100034d2:	460b      	mov	r3, r1
100034d4:	4a0f      	ldr	r2, [pc, #60]	@ (10003514 <stdio_uart_set_chars_available_callback+0x84>)
100034d6:	490e      	ldr	r1, [pc, #56]	@ (10003510 <stdio_uart_set_chars_available_callback+0x80>)
100034d8:	6030      	str	r0, [r6, #0]
100034da:	4628      	mov	r0, r5
100034dc:	6013      	str	r3, [r2, #0]
100034de:	f7fd f829 	bl	10000534 <irq_set_exclusive_handler>
100034e2:	2101      	movs	r1, #1
100034e4:	4628      	mov	r0, r5
100034e6:	f7fd f80f 	bl	10000508 <irq_set_enabled>
100034ea:	683a      	ldr	r2, [r7, #0]
100034ec:	2150      	movs	r1, #80	@ 0x50
100034ee:	4613      	mov	r3, r2
100034f0:	6391      	str	r1, [r2, #56]	@ 0x38
100034f2:	f853 2f34 	ldr.w	r2, [r3, #52]!
100034f6:	f002 0238 	and.w	r2, r2, #56	@ 0x38
100034fa:	f503 5380 	add.w	r3, r3, #4096	@ 0x1000
100034fe:	601a      	str	r2, [r3, #0]
10003500:	bdf8      	pop	{r3, r4, r5, r6, r7, pc}
10003502:	bf00      	nop
10003504:	2000085c 	.word	0x2000085c
10003508:	40078000 	.word	0x40078000
1000350c:	200007d0 	.word	0x200007d0
10003510:	1000345d 	.word	0x1000345d
10003514:	200007d4 	.word	0x200007d4

10003518 <stdio_uart_init>:
10003518:	b510      	push	{r4, lr}
1000351a:	490e      	ldr	r1, [pc, #56]	@ (10003554 <stdio_uart_init+0x3c>)
1000351c:	4c0e      	ldr	r4, [pc, #56]	@ (10003558 <stdio_uart_init+0x40>)
1000351e:	480f      	ldr	r0, [pc, #60]	@ (1000355c <stdio_uart_init+0x44>)
10003520:	4a0f      	ldr	r2, [pc, #60]	@ (10003560 <stdio_uart_init+0x48>)
10003522:	4b10      	ldr	r3, [pc, #64]	@ (10003564 <stdio_uart_init+0x4c>)
10003524:	7800      	ldrb	r0, [r0, #0]
10003526:	6021      	str	r1, [r4, #0]
10003528:	2000      	movs	r0, #0
1000352a:	2102      	movs	r1, #2
1000352c:	7812      	ldrb	r2, [r2, #0]
1000352e:	781b      	ldrb	r3, [r3, #0]
10003530:	f7fc ff48 	bl	100003c4 <gpio_set_function>
10003534:	2102      	movs	r1, #2
10003536:	2001      	movs	r0, #1
10003538:	f7fc ff44 	bl	100003c4 <gpio_set_function>
1000353c:	f44f 31e1 	mov.w	r1, #115200	@ 0x1c200
10003540:	6820      	ldr	r0, [r4, #0]
10003542:	f7fd fda1 	bl	10001088 <uart_init>
10003546:	e8bd 4010 	ldmia.w	sp!, {r4, lr}
1000354a:	2101      	movs	r1, #1
1000354c:	4806      	ldr	r0, [pc, #24]	@ (10003568 <stdio_uart_init+0x50>)
1000354e:	f7ff be29 	b.w	100031a4 <stdio_set_driver_enabled>
10003552:	bf00      	nop
10003554:	40070000 	.word	0x40070000
10003558:	2000085c 	.word	0x2000085c
1000355c:	10003918 	.word	0x10003918
10003560:	10003914 	.word	0x10003914
10003564:	10003910 	.word	0x10003910
10003568:	2000060c 	.word	0x2000060c

1000356c <memcpy>:
1000356c:	4684      	mov	ip, r0
1000356e:	ea41 0300 	orr.w	r3, r1, r0
10003572:	f013 0303 	ands.w	r3, r3, #3
10003576:	d149      	bne.n	1000360c <memcpy+0xa0>
10003578:	3a40      	subs	r2, #64	@ 0x40
1000357a:	d323      	bcc.n	100035c4 <memcpy+0x58>
1000357c:	680b      	ldr	r3, [r1, #0]
1000357e:	6003      	str	r3, [r0, #0]
10003580:	684b      	ldr	r3, [r1, #4]
10003582:	6043      	str	r3, [r0, #4]
10003584:	688b      	ldr	r3, [r1, #8]
10003586:	6083      	str	r3, [r0, #8]
10003588:	68cb      	ldr	r3, [r1, #12]
1000358a:	60c3      	str	r3, [r0, #12]
1000358c:	690b      	ldr	r3, [r1, #16]
1000358e:	6103      	str	r3, [r0, #16]
10003590:	694b      	ldr	r3, [r1, #20]
10003592:	6143      	str	r3, [r0, #20]
10003594:	698b      	ldr	r3, [r1, #24]
10003596:	6183      	str	r3, [r0, #24]
10003598:	69cb      	ldr	r3, [r1, #28]
1000359a:	61c3      	str	r3, [r0, #28]
1000359c:	6a0b      	ldr	r3, [r1, #32]
1000359e:	6203      	str	r3, [r0, #32]
100035a0:	6a4b      	ldr	r3, [r1, #36]	@ 0x24
100035a2:	6243      	str	r3, [r0, #36]	@ 0x24
100035a4:	6a8b      	ldr	r3, [r1, #40]	@ 0x28
100035a6:	6283      	str	r3, [r0, #40]	@ 0x28
100035a8:	6acb      	ldr	r3, [r1, #44]	@ 0x2c
100035aa:	62c3      	str	r3, [r0, #44]	@ 0x2c
100035ac:	6b0b      	ldr	r3, [r1, #48]	@ 0x30
100035ae:	6303      	str	r3, [r0, #48]	@ 0x30
100035b0:	6b4b      	ldr	r3, [r1, #52]	@ 0x34
100035b2:	6343      	str	r3, [r0, #52]	@ 0x34
100035b4:	6b8b      	ldr	r3, [r1, #56]	@ 0x38
100035b6:	6383      	str	r3, [r0, #56]	@ 0x38
100035b8:	6bcb      	ldr	r3, [r1, #60]	@ 0x3c
100035ba:	63c3      	str	r3, [r0, #60]	@ 0x3c
100035bc:	3040      	adds	r0, #64	@ 0x40
100035be:	3140      	adds	r1, #64	@ 0x40
100035c0:	3a40      	subs	r2, #64	@ 0x40
100035c2:	d2db      	bcs.n	1000357c <memcpy+0x10>
100035c4:	3230      	adds	r2, #48	@ 0x30
100035c6:	d30b      	bcc.n	100035e0 <memcpy+0x74>
100035c8:	680b      	ldr	r3, [r1, #0]
100035ca:	6003      	str	r3, [r0, #0]
100035cc:	684b      	ldr	r3, [r1, #4]
100035ce:	6043      	str	r3, [r0, #4]
100035d0:	688b      	ldr	r3, [r1, #8]
100035d2:	6083      	str	r3, [r0, #8]
100035d4:	68cb      	ldr	r3, [r1, #12]
100035d6:	60c3      	str	r3, [r0, #12]
100035d8:	3010      	adds	r0, #16
100035da:	3110      	adds	r1, #16
100035dc:	3a10      	subs	r2, #16
100035de:	d2f3      	bcs.n	100035c8 <memcpy+0x5c>
100035e0:	320c      	adds	r2, #12
100035e2:	d305      	bcc.n	100035f0 <memcpy+0x84>
100035e4:	f851 3b04 	ldr.w	r3, [r1], #4
100035e8:	f840 3b04 	str.w	r3, [r0], #4
100035ec:	3a04      	subs	r2, #4
100035ee:	d2f9      	bcs.n	100035e4 <memcpy+0x78>
100035f0:	3204      	adds	r2, #4
100035f2:	d008      	beq.n	10003606 <memcpy+0x9a>
100035f4:	07d2      	lsls	r2, r2, #31
100035f6:	bf1c      	itt	ne
100035f8:	f811 3b01 	ldrbne.w	r3, [r1], #1
100035fc:	f800 3b01 	strbne.w	r3, [r0], #1
10003600:	d301      	bcc.n	10003606 <memcpy+0x9a>
10003602:	880b      	ldrh	r3, [r1, #0]
10003604:	8003      	strh	r3, [r0, #0]
10003606:	4660      	mov	r0, ip
10003608:	4770      	bx	lr
1000360a:	bf00      	nop
1000360c:	2a08      	cmp	r2, #8
1000360e:	d313      	bcc.n	10003638 <memcpy+0xcc>
10003610:	078b      	lsls	r3, r1, #30
10003612:	d0b1      	beq.n	10003578 <memcpy+0xc>
10003614:	f010 0303 	ands.w	r3, r0, #3
10003618:	d0ae      	beq.n	10003578 <memcpy+0xc>
1000361a:	f1c3 0304 	rsb	r3, r3, #4
1000361e:	1ad2      	subs	r2, r2, r3
10003620:	07db      	lsls	r3, r3, #31
10003622:	bf1c      	itt	ne
10003624:	f811 3b01 	ldrbne.w	r3, [r1], #1
10003628:	f800 3b01 	strbne.w	r3, [r0], #1
1000362c:	d3a4      	bcc.n	10003578 <memcpy+0xc>
1000362e:	f831 3b02 	ldrh.w	r3, [r1], #2
10003632:	f820 3b02 	strh.w	r3, [r0], #2
10003636:	e79f      	b.n	10003578 <memcpy+0xc>
10003638:	3a04      	subs	r2, #4
1000363a:	d3d9      	bcc.n	100035f0 <memcpy+0x84>
1000363c:	3a01      	subs	r2, #1
1000363e:	f811 3b01 	ldrb.w	r3, [r1], #1
10003642:	f800 3b01 	strb.w	r3, [r0], #1
10003646:	d2f9      	bcs.n	1000363c <memcpy+0xd0>
10003648:	780b      	ldrb	r3, [r1, #0]
1000364a:	7003      	strb	r3, [r0, #0]
1000364c:	784b      	ldrb	r3, [r1, #1]
1000364e:	7043      	strb	r3, [r0, #1]
10003650:	788b      	ldrb	r3, [r1, #2]
10003652:	7083      	strb	r3, [r0, #2]
10003654:	4660      	mov	r0, ip
10003656:	4770      	bx	lr

10003658 <strlen>:
10003658:	f020 0103 	bic.w	r1, r0, #3
1000365c:	f010 0003 	ands.w	r0, r0, #3
10003660:	f1c0 0000 	rsb	r0, r0, #0
10003664:	f851 3b04 	ldr.w	r3, [r1], #4
10003668:	f100 0c04 	add.w	ip, r0, #4
1000366c:	ea4f 0ccc 	mov.w	ip, ip, lsl #3
10003670:	f06f 0200 	mvn.w	r2, #0
10003674:	bf1c      	itt	ne
10003676:	fa22 f20c 	lsrne.w	r2, r2, ip
1000367a:	4313      	orrne	r3, r2
1000367c:	f04f 0c01 	mov.w	ip, #1
10003680:	ea4c 2c0c 	orr.w	ip, ip, ip, lsl #8
10003684:	ea4c 4c0c 	orr.w	ip, ip, ip, lsl #16
10003688:	eba3 020c 	sub.w	r2, r3, ip
1000368c:	ea22 0203 	bic.w	r2, r2, r3
10003690:	ea12 12cc 	ands.w	r2, r2, ip, lsl #7
10003694:	bf04      	itt	eq
10003696:	f851 3b04 	ldreq.w	r3, [r1], #4
1000369a:	3004      	addeq	r0, #4
1000369c:	d0f4      	beq.n	10003688 <strlen+0x30>
1000369e:	f1c2 0100 	rsb	r1, r2, #0
100036a2:	ea02 0201 	and.w	r2, r2, r1
100036a6:	fab2 f282 	clz	r2, r2
100036aa:	f1c2 021f 	rsb	r2, r2, #31
100036ae:	eb00 00d2 	add.w	r0, r0, r2, lsr #3
100036b2:	4770      	bx	lr

100036b4 <_fini>:
100036b4:	b5f8      	push	{r3, r4, r5, r6, r7, lr}
100036b6:	bf00      	nop

100036b8 <____aeabi_uldivmod_veneer>:
100036b8:	f85f f000 	ldr.w	pc, [pc]	@ 100036bc <____aeabi_uldivmod_veneer+0x4>
100036bc:	20000221 	.word	0x20000221

100036c0 <__mutex_exit_veneer>:
100036c0:	f85f f000 	ldr.w	pc, [pc]	@ 100036c4 <__mutex_exit_veneer+0x4>
100036c4:	200001e5 	.word	0x200001e5

100036c8 <__mutex_try_enter_block_until_veneer>:
100036c8:	f85f f000 	ldr.w	pc, [pc]	@ 100036cc <__mutex_try_enter_block_until_veneer+0x4>
100036cc:	2000017d 	.word	0x2000017d

100036d0 <__pre_init_runtime_init_bootrom_reset>:
100036d0:	10001441                                A...

100036d4 <__pre_init_runtime_init_early_resets>:
100036d4:	100013b5                                ....

100036d8 <__pre_init_runtime_init_usb_power_down>:
100036d8:	100013e9                                ....

100036dc <__pre_init_runtime_init_clocks>:
100036dc:	100014d5                                ....

100036e0 <__pre_init_runtime_init_post_clock_resets>:
100036e0:	10001421                                !...

100036e4 <__pre_init_runtime_init_boot_locks_reset>:
100036e4:	10001339                                9...

100036e8 <__pre_init_runtime_init_spin_locks_reset>:
100036e8:	10001469                                i...

100036ec <__pre_init_runtime_init_bootrom_locking_enable>:
100036ec:	10001325                                %...

100036f0 <__pre_init_runtime_init_mutex>:
100036f0:	10000851                                Q...

100036f4 <__pre_init_runtime_init_install_ram_vector_table>:
100036f4:	1000146d                                m...

100036f8 <__pre_init_runtime_init_default_alarm_pool>:
100036f8:	10000bc9                                ....

100036fc <__pre_init_first_per_core_initializer>:
100036fc:	10001385                                ....

10003700 <__pre_init_runtime_init_per_core_bootrom_reset>:
10003700:	10001455                                U...

10003704 <__pre_init_runtime_init_per_core_enable_coprocessors>:
10003704:	10001405                                ....

10003708 <__pre_init_spinlock_set_extexclall>:
10003708:	100004a1                                ....

1000370c <__pre_init_runtime_init_per_core_irq_priorities>:
1000370c:	100004c9                                ....

10003710 <__frame_dummy_init_array_entry>:
10003710:	10000211                                ....

Disassembly of section .data:

20000110 <mutex_enter_block_until>:
20000110:	f04f 4150 	mov.w	r1, #3489660928	@ 0xd0000000
20000114:	e92d 41f0 	stmdb	sp!, {r4, r5, r6, r7, r8, lr}
20000118:	2700      	movs	r7, #0
2000011a:	4604      	mov	r4, r0
2000011c:	4616      	mov	r6, r2
2000011e:	461d      	mov	r5, r3
20000120:	f8d1 8000 	ldr.w	r8, [r1]
20000124:	e008      	b.n	20000138 <mutex_enter_block_until+0x28>
20000126:	e8c1 7f8f 	stlb	r7, [r1]
2000012a:	f38c 8810 	msr	PRIMASK, ip
2000012e:	4630      	mov	r0, r6
20000130:	4629      	mov	r1, r5
20000132:	f000 fa35 	bl	200005a0 <__best_effort_wfe_or_timeout_veneer>
20000136:	b9e8      	cbnz	r0, 20000174 <mutex_enter_block_until+0x64>
20000138:	6821      	ldr	r1, [r4, #0]
2000013a:	f3ef 8c10 	mrs	ip, PRIMASK
2000013e:	b672      	cpsid	i
20000140:	e8d1 2fcf 	ldaexb	r2, [r1]
20000144:	2301      	movs	r3, #1
20000146:	2a00      	cmp	r2, #0
20000148:	d1fa      	bne.n	20000140 <mutex_enter_block_until+0x30>
2000014a:	e8c1 3f42 	strexb	r2, r3, [r1]
2000014e:	2a00      	cmp	r2, #0
20000150:	d1f6      	bne.n	20000140 <mutex_enter_block_until+0x30>
20000152:	f3bf 8f5f 	dmb	sy
20000156:	f994 3004 	ldrsb.w	r3, [r4, #4]
2000015a:	6821      	ldr	r1, [r4, #0]
2000015c:	2b00      	cmp	r3, #0
2000015e:	dae2      	bge.n	20000126 <mutex_enter_block_until+0x16>
20000160:	2300      	movs	r3, #0
20000162:	f884 8004 	strb.w	r8, [r4, #4]
20000166:	e8c1 3f8f 	stlb	r3, [r1]
2000016a:	f38c 8810 	msr	PRIMASK, ip
2000016e:	2001      	movs	r0, #1
20000170:	e8bd 81f0 	ldmia.w	sp!, {r4, r5, r6, r7, r8, pc}
20000174:	2000      	movs	r0, #0
20000176:	e8bd 81f0 	ldmia.w	sp!, {r4, r5, r6, r7, r8, pc}
2000017a:	bf00      	nop

2000017c <mutex_try_enter_block_until>:
2000017c:	b530      	push	{r4, r5, lr}
2000017e:	6804      	ldr	r4, [r0, #0]
20000180:	f3ef 8c10 	mrs	ip, PRIMASK
20000184:	b672      	cpsid	i
20000186:	e8d4 efcf 	ldaexb	lr, [r4]
2000018a:	2501      	movs	r5, #1
2000018c:	f1be 0f00 	cmp.w	lr, #0
20000190:	d1f9      	bne.n	20000186 <mutex_try_enter_block_until+0xa>
20000192:	e8c4 5f4e 	strexb	lr, r5, [r4]
20000196:	f1be 0f00 	cmp.w	lr, #0
2000019a:	d1f4      	bne.n	20000186 <mutex_try_enter_block_until+0xa>
2000019c:	f3bf 8f5f 	dmb	sy
200001a0:	f990 4004 	ldrsb.w	r4, [r0, #4]
200001a4:	6805      	ldr	r5, [r0, #0]
200001a6:	2c00      	cmp	r4, #0
200001a8:	db10      	blt.n	200001cc <mutex_try_enter_block_until+0x50>
200001aa:	2100      	movs	r1, #0
200001ac:	e8c5 1f8f 	stlb	r1, [r5]
200001b0:	f38c 8810 	msr	PRIMASK, ip
200001b4:	f04f 4550 	mov.w	r5, #3489660928	@ 0xd0000000
200001b8:	f995 5000 	ldrsb.w	r5, [r5]
200001bc:	42a5      	cmp	r5, r4
200001be:	d101      	bne.n	200001c4 <mutex_try_enter_block_until+0x48>
200001c0:	4608      	mov	r0, r1
200001c2:	bd30      	pop	{r4, r5, pc}
200001c4:	e8bd 4030 	ldmia.w	sp!, {r4, r5, lr}
200001c8:	f7ff bfa2 	b.w	20000110 <mutex_enter_block_until>
200001cc:	f04f 4250 	mov.w	r2, #3489660928	@ 0xd0000000
200001d0:	6812      	ldr	r2, [r2, #0]
200001d2:	2300      	movs	r3, #0
200001d4:	7102      	strb	r2, [r0, #4]
200001d6:	e8c5 3f8f 	stlb	r3, [r5]
200001da:	f38c 8810 	msr	PRIMASK, ip
200001de:	2001      	movs	r0, #1
200001e0:	bd30      	pop	{r4, r5, pc}
200001e2:	bf00      	nop

200001e4 <mutex_exit>:
200001e4:	6803      	ldr	r3, [r0, #0]
200001e6:	f3ef 8210 	mrs	r2, PRIMASK
200001ea:	b672      	cpsid	i
200001ec:	e8d3 cfcf 	ldaexb	ip, [r3]
200001f0:	2101      	movs	r1, #1
200001f2:	f1bc 0f00 	cmp.w	ip, #0
200001f6:	d1f9      	bne.n	200001ec <mutex_exit+0x8>
200001f8:	e8c3 1f4c 	strexb	ip, r1, [r3]
200001fc:	f1bc 0f00 	cmp.w	ip, #0
20000200:	d1f4      	bne.n	200001ec <mutex_exit+0x8>
20000202:	f3bf 8f5f 	dmb	sy
20000206:	f04f 0cff 	mov.w	ip, #255	@ 0xff
2000020a:	2300      	movs	r3, #0
2000020c:	6801      	ldr	r1, [r0, #0]
2000020e:	f880 c004 	strb.w	ip, [r0, #4]
20000212:	e8c1 3f8f 	stlb	r3, [r1]
20000216:	f382 8810 	msr	PRIMASK, r2
2000021a:	bf40      	sev
2000021c:	4770      	bx	lr
2000021e:	bf00      	nop

20000220 <__aeabi_uldivmod>:
20000220:	b953      	cbnz	r3, 20000238 <__aeabi_uldivmod+0x18>
20000222:	b94a      	cbnz	r2, 20000238 <__aeabi_uldivmod+0x18>
20000224:	2900      	cmp	r1, #0
20000226:	bf08      	it	eq
20000228:	2800      	cmpeq	r0, #0
2000022a:	bf1c      	itt	ne
2000022c:	f04f 31ff 	movne.w	r1, #4294967295
20000230:	f04f 30ff 	movne.w	r0, #4294967295
20000234:	f000 b9b2 	b.w	2000059c <__aeabi_idiv0>
20000238:	f1ad 0c08 	sub.w	ip, sp, #8
2000023c:	e96d ce04 	strd	ip, lr, [sp, #-16]!
20000240:	f000 f806 	bl	20000250 <__udivmoddi4>
20000244:	f8dd e004 	ldr.w	lr, [sp, #4]
20000248:	e9dd 2302 	ldrd	r2, r3, [sp, #8]
2000024c:	b004      	add	sp, #16
2000024e:	4770      	bx	lr

20000250 <__udivmoddi4>:
20000250:	e92d 4ff0 	stmdb	sp!, {r4, r5, r6, r7, r8, r9, sl, fp, lr}
20000254:	468c      	mov	ip, r1
20000256:	9e09      	ldr	r6, [sp, #36]	@ 0x24
20000258:	4604      	mov	r4, r0
2000025a:	460f      	mov	r7, r1
2000025c:	2b00      	cmp	r3, #0
2000025e:	d148      	bne.n	200002f2 <__udivmoddi4+0xa2>
20000260:	428a      	cmp	r2, r1
20000262:	4615      	mov	r5, r2
20000264:	d95e      	bls.n	20000324 <__udivmoddi4+0xd4>
20000266:	fab2 f382 	clz	r3, r2
2000026a:	b13b      	cbz	r3, 2000027c <__udivmoddi4+0x2c>
2000026c:	f1c3 0220 	rsb	r2, r3, #32
20000270:	409f      	lsls	r7, r3
20000272:	409d      	lsls	r5, r3
20000274:	409c      	lsls	r4, r3
20000276:	fa20 f202 	lsr.w	r2, r0, r2
2000027a:	4317      	orrs	r7, r2
2000027c:	ea4f 4e15 	mov.w	lr, r5, lsr #16
20000280:	fa1f fc85 	uxth.w	ip, r5
20000284:	0c22      	lsrs	r2, r4, #16
20000286:	fbb7 f1fe 	udiv	r1, r7, lr
2000028a:	fb0e 7711 	mls	r7, lr, r1, r7
2000028e:	fb01 f00c 	mul.w	r0, r1, ip
20000292:	ea42 4207 	orr.w	r2, r2, r7, lsl #16
20000296:	4290      	cmp	r0, r2
20000298:	d907      	bls.n	200002aa <__udivmoddi4+0x5a>
2000029a:	18aa      	adds	r2, r5, r2
2000029c:	f101 37ff 	add.w	r7, r1, #4294967295
200002a0:	d202      	bcs.n	200002a8 <__udivmoddi4+0x58>
200002a2:	4290      	cmp	r0, r2
200002a4:	f200 8158 	bhi.w	20000558 <__udivmoddi4+0x308>
200002a8:	4639      	mov	r1, r7
200002aa:	1a12      	subs	r2, r2, r0
200002ac:	b2a4      	uxth	r4, r4
200002ae:	fbb2 f0fe 	udiv	r0, r2, lr
200002b2:	fb0e 2210 	mls	r2, lr, r0, r2
200002b6:	fb00 fc0c 	mul.w	ip, r0, ip
200002ba:	ea44 4402 	orr.w	r4, r4, r2, lsl #16
200002be:	45a4      	cmp	ip, r4
200002c0:	d90b      	bls.n	200002da <__udivmoddi4+0x8a>
200002c2:	192c      	adds	r4, r5, r4
200002c4:	f100 32ff 	add.w	r2, r0, #4294967295
200002c8:	bf2c      	ite	cs
200002ca:	2701      	movcs	r7, #1
200002cc:	2700      	movcc	r7, #0
200002ce:	45a4      	cmp	ip, r4
200002d0:	d902      	bls.n	200002d8 <__udivmoddi4+0x88>
200002d2:	2f00      	cmp	r7, #0
200002d4:	f000 8143 	beq.w	2000055e <__udivmoddi4+0x30e>
200002d8:	4610      	mov	r0, r2
200002da:	ea40 4001 	orr.w	r0, r0, r1, lsl #16
200002de:	eba4 040c 	sub.w	r4, r4, ip
200002e2:	2100      	movs	r1, #0
200002e4:	b11e      	cbz	r6, 200002ee <__udivmoddi4+0x9e>
200002e6:	40dc      	lsrs	r4, r3
200002e8:	2300      	movs	r3, #0
200002ea:	e9c6 4300 	strd	r4, r3, [r6]
200002ee:	e8bd 8ff0 	ldmia.w	sp!, {r4, r5, r6, r7, r8, r9, sl, fp, pc}
200002f2:	428b      	cmp	r3, r1
200002f4:	d906      	bls.n	20000304 <__udivmoddi4+0xb4>
200002f6:	b10e      	cbz	r6, 200002fc <__udivmoddi4+0xac>
200002f8:	e9c6 0100 	strd	r0, r1, [r6]
200002fc:	2100      	movs	r1, #0
200002fe:	4608      	mov	r0, r1
20000300:	e8bd 8ff0 	ldmia.w	sp!, {r4, r5, r6, r7, r8, r9, sl, fp, pc}
20000304:	fab3 f183 	clz	r1, r3
20000308:	2900      	cmp	r1, #0
2000030a:	d151      	bne.n	200003b0 <__udivmoddi4+0x160>
2000030c:	4563      	cmp	r3, ip
2000030e:	f0c0 8116 	bcc.w	2000053e <__udivmoddi4+0x2ee>
20000312:	4282      	cmp	r2, r0
20000314:	f240 8113 	bls.w	2000053e <__udivmoddi4+0x2ee>
20000318:	4608      	mov	r0, r1
2000031a:	2e00      	cmp	r6, #0
2000031c:	d0e7      	beq.n	200002ee <__udivmoddi4+0x9e>
2000031e:	e9c6 4700 	strd	r4, r7, [r6]
20000322:	e7e4      	b.n	200002ee <__udivmoddi4+0x9e>
20000324:	2a00      	cmp	r2, #0
20000326:	f000 80af 	beq.w	20000488 <__udivmoddi4+0x238>
2000032a:	fab2 f382 	clz	r3, r2
2000032e:	2b00      	cmp	r3, #0
20000330:	f040 80c2 	bne.w	200004b8 <__udivmoddi4+0x268>
20000334:	1a8a      	subs	r2, r1, r2
20000336:	ea4f 4e15 	mov.w	lr, r5, lsr #16
2000033a:	b2af      	uxth	r7, r5
2000033c:	2101      	movs	r1, #1
2000033e:	0c20      	lsrs	r0, r4, #16
20000340:	fbb2 fcfe 	udiv	ip, r2, lr
20000344:	fb0e 221c 	mls	r2, lr, ip, r2
20000348:	ea40 4202 	orr.w	r2, r0, r2, lsl #16
2000034c:	fb07 f00c 	mul.w	r0, r7, ip
20000350:	4290      	cmp	r0, r2
20000352:	d90e      	bls.n	20000372 <__udivmoddi4+0x122>
20000354:	18aa      	adds	r2, r5, r2
20000356:	f10c 38ff 	add.w	r8, ip, #4294967295
2000035a:	bf2c      	ite	cs
2000035c:	f04f 0901 	movcs.w	r9, #1
20000360:	f04f 0900 	movcc.w	r9, #0
20000364:	4290      	cmp	r0, r2
20000366:	d903      	bls.n	20000370 <__udivmoddi4+0x120>
20000368:	f1b9 0f00 	cmp.w	r9, #0
2000036c:	f000 80f0 	beq.w	20000550 <__udivmoddi4+0x300>
20000370:	46c4      	mov	ip, r8
20000372:	1a12      	subs	r2, r2, r0
20000374:	b2a4      	uxth	r4, r4
20000376:	fbb2 f0fe 	udiv	r0, r2, lr
2000037a:	fb0e 2210 	mls	r2, lr, r0, r2
2000037e:	fb00 f707 	mul.w	r7, r0, r7
20000382:	ea44 4402 	orr.w	r4, r4, r2, lsl #16
20000386:	42a7      	cmp	r7, r4
20000388:	d90e      	bls.n	200003a8 <__udivmoddi4+0x158>
2000038a:	192c      	adds	r4, r5, r4
2000038c:	f100 32ff 	add.w	r2, r0, #4294967295
20000390:	bf2c      	ite	cs
20000392:	f04f 0e01 	movcs.w	lr, #1
20000396:	f04f 0e00 	movcc.w	lr, #0
2000039a:	42a7      	cmp	r7, r4
2000039c:	d903      	bls.n	200003a6 <__udivmoddi4+0x156>
2000039e:	f1be 0f00 	cmp.w	lr, #0
200003a2:	f000 80d2 	beq.w	2000054a <__udivmoddi4+0x2fa>
200003a6:	4610      	mov	r0, r2
200003a8:	1be4      	subs	r4, r4, r7
200003aa:	ea40 400c 	orr.w	r0, r0, ip, lsl #16
200003ae:	e799      	b.n	200002e4 <__udivmoddi4+0x94>
200003b0:	f1c1 0520 	rsb	r5, r1, #32
200003b4:	408b      	lsls	r3, r1
200003b6:	fa0c f401 	lsl.w	r4, ip, r1
200003ba:	fa00 f901 	lsl.w	r9, r0, r1
200003be:	fa22 f705 	lsr.w	r7, r2, r5
200003c2:	fa2c fc05 	lsr.w	ip, ip, r5
200003c6:	408a      	lsls	r2, r1
200003c8:	431f      	orrs	r7, r3
200003ca:	fa20 f305 	lsr.w	r3, r0, r5
200003ce:	0c38      	lsrs	r0, r7, #16
200003d0:	4323      	orrs	r3, r4
200003d2:	fa1f fe87 	uxth.w	lr, r7
200003d6:	0c1c      	lsrs	r4, r3, #16
200003d8:	fbbc f8f0 	udiv	r8, ip, r0
200003dc:	fb00 cc18 	mls	ip, r0, r8, ip
200003e0:	ea44 440c 	orr.w	r4, r4, ip, lsl #16
200003e4:	fb08 fc0e 	mul.w	ip, r8, lr
200003e8:	45a4      	cmp	ip, r4
200003ea:	d90e      	bls.n	2000040a <__udivmoddi4+0x1ba>
200003ec:	193c      	adds	r4, r7, r4
200003ee:	f108 3aff 	add.w	sl, r8, #4294967295
200003f2:	bf2c      	ite	cs
200003f4:	f04f 0b01 	movcs.w	fp, #1
200003f8:	f04f 0b00 	movcc.w	fp, #0
200003fc:	45a4      	cmp	ip, r4
200003fe:	d903      	bls.n	20000408 <__udivmoddi4+0x1b8>
20000400:	f1bb 0f00 	cmp.w	fp, #0
20000404:	f000 80b8 	beq.w	20000578 <__udivmoddi4+0x328>
20000408:	46d0      	mov	r8, sl
2000040a:	eba4 040c 	sub.w	r4, r4, ip
2000040e:	fa1f fc83 	uxth.w	ip, r3
20000412:	fbb4 f3f0 	udiv	r3, r4, r0
20000416:	fb00 4413 	mls	r4, r0, r3, r4
2000041a:	fb03 fe0e 	mul.w	lr, r3, lr
2000041e:	ea4c 4404 	orr.w	r4, ip, r4, lsl #16
20000422:	45a6      	cmp	lr, r4
20000424:	d90e      	bls.n	20000444 <__udivmoddi4+0x1f4>
20000426:	193c      	adds	r4, r7, r4
20000428:	f103 30ff 	add.w	r0, r3, #4294967295
2000042c:	bf2c      	ite	cs
2000042e:	f04f 0c01 	movcs.w	ip, #1
20000432:	f04f 0c00 	movcc.w	ip, #0
20000436:	45a6      	cmp	lr, r4
20000438:	d903      	bls.n	20000442 <__udivmoddi4+0x1f2>
2000043a:	f1bc 0f00 	cmp.w	ip, #0
2000043e:	f000 809f 	beq.w	20000580 <__udivmoddi4+0x330>
20000442:	4603      	mov	r3, r0
20000444:	ea43 4008 	orr.w	r0, r3, r8, lsl #16
20000448:	eba4 040e 	sub.w	r4, r4, lr
2000044c:	fba0 ec02 	umull	lr, ip, r0, r2
20000450:	4564      	cmp	r4, ip
20000452:	4673      	mov	r3, lr
20000454:	46e0      	mov	r8, ip
20000456:	d302      	bcc.n	2000045e <__udivmoddi4+0x20e>
20000458:	d107      	bne.n	2000046a <__udivmoddi4+0x21a>
2000045a:	45f1      	cmp	r9, lr
2000045c:	d205      	bcs.n	2000046a <__udivmoddi4+0x21a>
2000045e:	ebbe 0302 	subs.w	r3, lr, r2
20000462:	eb6c 0c07 	sbc.w	ip, ip, r7
20000466:	3801      	subs	r0, #1
20000468:	46e0      	mov	r8, ip
2000046a:	b15e      	cbz	r6, 20000484 <__udivmoddi4+0x234>
2000046c:	ebb9 0203 	subs.w	r2, r9, r3
20000470:	eb64 0408 	sbc.w	r4, r4, r8
20000474:	fa04 f505 	lsl.w	r5, r4, r5
20000478:	fa22 f301 	lsr.w	r3, r2, r1
2000047c:	40cc      	lsrs	r4, r1
2000047e:	431d      	orrs	r5, r3
20000480:	e9c6 5400 	strd	r5, r4, [r6]
20000484:	2100      	movs	r1, #0
20000486:	e732      	b.n	200002ee <__udivmoddi4+0x9e>
20000488:	0842      	lsrs	r2, r0, #1
2000048a:	462f      	mov	r7, r5
2000048c:	084b      	lsrs	r3, r1, #1
2000048e:	46ac      	mov	ip, r5
20000490:	ea42 72c1 	orr.w	r2, r2, r1, lsl #31
20000494:	46ae      	mov	lr, r5
20000496:	07c4      	lsls	r4, r0, #31
20000498:	0c11      	lsrs	r1, r2, #16
2000049a:	b292      	uxth	r2, r2
2000049c:	ea41 4103 	orr.w	r1, r1, r3, lsl #16
200004a0:	ea42 4201 	orr.w	r2, r2, r1, lsl #16
200004a4:	fbb1 f1f5 	udiv	r1, r1, r5
200004a8:	fbb3 f0f5 	udiv	r0, r3, r5
200004ac:	231f      	movs	r3, #31
200004ae:	eba2 020c 	sub.w	r2, r2, ip
200004b2:	ea41 4100 	orr.w	r1, r1, r0, lsl #16
200004b6:	e742      	b.n	2000033e <__udivmoddi4+0xee>
200004b8:	409d      	lsls	r5, r3
200004ba:	f1c3 0220 	rsb	r2, r3, #32
200004be:	4099      	lsls	r1, r3
200004c0:	409c      	lsls	r4, r3
200004c2:	fa2c fc02 	lsr.w	ip, ip, r2
200004c6:	ea4f 4e15 	mov.w	lr, r5, lsr #16
200004ca:	fa20 f202 	lsr.w	r2, r0, r2
200004ce:	b2af      	uxth	r7, r5
200004d0:	fbbc f8fe 	udiv	r8, ip, lr
200004d4:	430a      	orrs	r2, r1
200004d6:	fb0e cc18 	mls	ip, lr, r8, ip
200004da:	0c11      	lsrs	r1, r2, #16
200004dc:	ea41 410c 	orr.w	r1, r1, ip, lsl #16
200004e0:	fb08 fc07 	mul.w	ip, r8, r7
200004e4:	458c      	cmp	ip, r1
200004e6:	d950      	bls.n	2000058a <__udivmoddi4+0x33a>
200004e8:	1869      	adds	r1, r5, r1
200004ea:	f108 30ff 	add.w	r0, r8, #4294967295
200004ee:	bf2c      	ite	cs
200004f0:	f04f 0901 	movcs.w	r9, #1
200004f4:	f04f 0900 	movcc.w	r9, #0
200004f8:	458c      	cmp	ip, r1
200004fa:	d902      	bls.n	20000502 <__udivmoddi4+0x2b2>
200004fc:	f1b9 0f00 	cmp.w	r9, #0
20000500:	d030      	beq.n	20000564 <__udivmoddi4+0x314>
20000502:	eba1 010c 	sub.w	r1, r1, ip
20000506:	fbb1 f8fe 	udiv	r8, r1, lr
2000050a:	fb08 fc07 	mul.w	ip, r8, r7
2000050e:	fb0e 1118 	mls	r1, lr, r8, r1
20000512:	b292      	uxth	r2, r2
20000514:	ea42 4201 	orr.w	r2, r2, r1, lsl #16
20000518:	4562      	cmp	r2, ip
2000051a:	d234      	bcs.n	20000586 <__udivmoddi4+0x336>
2000051c:	18aa      	adds	r2, r5, r2
2000051e:	f108 31ff 	add.w	r1, r8, #4294967295
20000522:	bf2c      	ite	cs
20000524:	f04f 0901 	movcs.w	r9, #1
20000528:	f04f 0900 	movcc.w	r9, #0
2000052c:	4562      	cmp	r2, ip
2000052e:	d2be      	bcs.n	200004ae <__udivmoddi4+0x25e>
20000530:	f1b9 0f00 	cmp.w	r9, #0
20000534:	d1bb      	bne.n	200004ae <__udivmoddi4+0x25e>
20000536:	f1a8 0102 	sub.w	r1, r8, #2
2000053a:	442a      	add	r2, r5
2000053c:	e7b7      	b.n	200004ae <__udivmoddi4+0x25e>
2000053e:	1a84      	subs	r4, r0, r2
20000540:	eb6c 0203 	sbc.w	r2, ip, r3
20000544:	2001      	movs	r0, #1
20000546:	4617      	mov	r7, r2
20000548:	e6e7      	b.n	2000031a <__udivmoddi4+0xca>
2000054a:	442c      	add	r4, r5
2000054c:	3802      	subs	r0, #2
2000054e:	e72b      	b.n	200003a8 <__udivmoddi4+0x158>
20000550:	f1ac 0c02 	sub.w	ip, ip, #2
20000554:	442a      	add	r2, r5
20000556:	e70c      	b.n	20000372 <__udivmoddi4+0x122>
20000558:	3902      	subs	r1, #2
2000055a:	442a      	add	r2, r5
2000055c:	e6a5      	b.n	200002aa <__udivmoddi4+0x5a>
2000055e:	442c      	add	r4, r5
20000560:	3802      	subs	r0, #2
20000562:	e6ba      	b.n	200002da <__udivmoddi4+0x8a>
20000564:	eba5 0c0c 	sub.w	ip, r5, ip
20000568:	f1a8 0002 	sub.w	r0, r8, #2
2000056c:	4461      	add	r1, ip
2000056e:	fbb1 f8fe 	udiv	r8, r1, lr
20000572:	fb08 fc07 	mul.w	ip, r8, r7
20000576:	e7ca      	b.n	2000050e <__udivmoddi4+0x2be>
20000578:	f1a8 0802 	sub.w	r8, r8, #2
2000057c:	443c      	add	r4, r7
2000057e:	e744      	b.n	2000040a <__udivmoddi4+0x1ba>
20000580:	3b02      	subs	r3, #2
20000582:	443c      	add	r4, r7
20000584:	e75e      	b.n	20000444 <__udivmoddi4+0x1f4>
20000586:	4641      	mov	r1, r8
20000588:	e791      	b.n	200004ae <__udivmoddi4+0x25e>
2000058a:	eba1 010c 	sub.w	r1, r1, ip
2000058e:	4640      	mov	r0, r8
20000590:	fbb1 f8fe 	udiv	r8, r1, lr
20000594:	fb08 fc07 	mul.w	ip, r8, r7
20000598:	e7b9      	b.n	2000050e <__udivmoddi4+0x2be>
2000059a:	bf00      	nop

2000059c <__aeabi_idiv0>:
2000059c:	4770      	bx	lr
2000059e:	bf00      	nop

200005a0 <__best_effort_wfe_or_timeout_veneer>:
200005a0:	f85f f000 	ldr.w	pc, [pc]	@ 200005a4 <__best_effort_wfe_or_timeout_veneer+0x4>
200005a4:	10000eed 	.word	0x10000eed

200005a8 <striped_spin_lock_num>:
200005a8:	00000010                                ....

200005ac <irq_handler_chain_slots>:
200005ac:	00000000 	.word	0x00000000
200005b0:	00010000 	.word	0x00010000
	...
200005bc:	00020000 	.word	0x00020000
	...
200005c8:	00030000 	.word	0x00030000
	...
200005d4:	00ff0000 	.word	0x00ff0000
200005d8:	00000000 	.word	0x00000000

200005dc <irq_handler_chain_first_slot>:
200005dc:	b501      	push	{r0, lr}
200005de:	6848      	ldr	r0, [r1, #4]
200005e0:	3101      	adds	r1, #1
200005e2:	468e      	mov	lr, r1
200005e4:	4700      	bx	r0

200005e6 <irq_handler_chain_remove_tail>:
200005e6:	4670      	mov	r0, lr
200005e8:	3809      	subs	r0, #9
200005ea:	4901      	ldr	r1, [pc, #4]	@ (200005f0 <irq_handler_chain_remove_tail+0xa>)
200005ec:	4788      	blx	r1
200005ee:	bd01      	pop	{r0, pc}
200005f0:	10000789 	.word	0x10000789

200005f4 <default_alarm_pool>:
	...
20000608:	20000630                                0.. 

2000060c <stdio_uart>:
2000060c:	10003379 10003481 100033c9 10003491     y3...4...3...4..
2000061c:	00000000 00000100                       ........

20000624 <print_mutex>:
	...
