
C:/Users/assem.KEVINTHOMAS/OneDrive/Documents/Embedded-Hacking/drivers/0x0c_multicore/build/0x0c_multicore.elf:     file format elf32-littlearm

Sections:
Idx Name          Size      VMA       LMA       File off  Algn
  0 .text         0000372c  10000000  10000000  00001000  2**3
                  CONTENTS, ALLOC, LOAD, READONLY, CODE
  1 .rodata       000001c8  10003730  10003730  00004730  2**3
                  CONTENTS, ALLOC, LOAD, READONLY, DATA
  2 .ARM.exidx    00000008  100038f8  100038f8  000048f8  2**2
                  CONTENTS, ALLOC, LOAD, READONLY, DATA
  3 .binary_info  0000002c  10003900  10003900  00004900  2**2
                  CONTENTS, ALLOC, LOAD, READONLY, DATA
  4 .ram_vector_table 00000110  20000000  20000000  00006000  2**2
                  ALLOC
  5 .uninitialized_data 00000000  20000110  20000110  00005e64  2**0
                  CONTENTS
  6 .data         00000524  20000110  1000392c  00005110  2**3
                  CONTENTS, ALLOC, LOAD, READONLY, CODE
  7 .tdata        00000000  20000634  20000634  00005e64  2**0
                  CONTENTS, ALLOC, LOAD, DATA, THREAD_LOCAL
  8 .tbss         00000000  20000634  20000634  00000000  2**0
                  ALLOC, THREAD_LOCAL
  9 .bss          00000228  20000638  10003e50  00006638  2**3
                  ALLOC
 10 .heap         00000800  20000860  10003e50  00006860  2**2
                  ALLOC, READONLY
 11 .scratch_x    00000000  20080000  20080000  00005e64  2**0
                  CONTENTS
 12 .scratch_y    00000000  20081000  20081000  00005e64  2**0
                  CONTENTS
 13 .stack1_dummy 00000800  20080000  20080000  00006000  2**2
                  ALLOC
 14 .stack_dummy  00000800  20081000  20081000  00006000  2**5
                  ALLOC, READONLY
 15 .flash_end    00000014  10003e50  10003e50  00005e50  2**2
                  CONTENTS, ALLOC, LOAD, READONLY, DATA
 16 .ARM.attributes 00000034  00000000  00000000  00005e64  2**0
                  CONTENTS, READONLY
 17 .comment      00000045  00000000  00000000  00005e98  2**0
                  CONTENTS, READONLY
 18 .debug_info   000238bb  00000000  00000000  00005edd  2**0
                  CONTENTS, READONLY, DEBUGGING, OCTETS
 19 .debug_abbrev 00006035  00000000  00000000  00029798  2**0
                  CONTENTS, READONLY, DEBUGGING, OCTETS
 20 .debug_loclists 000115f7  00000000  00000000  0002f7cd  2**0
                  CONTENTS, READONLY, DEBUGGING, OCTETS
 21 .debug_aranges 00000d20  00000000  00000000  00040dc8  2**3
                  CONTENTS, READONLY, DEBUGGING, OCTETS
 22 .debug_rnglists 0000352f  00000000  00000000  00041ae8  2**0
                  CONTENTS, READONLY, DEBUGGING, OCTETS
 23 .debug_line   000185d8  00000000  00000000  00045017  2**0
                  CONTENTS, READONLY, DEBUGGING, OCTETS
 24 .debug_str    000061a5  00000000  00000000  0005d5ef  2**0
                  CONTENTS, READONLY, DEBUGGING, OCTETS
 25 .debug_frame  000022a0  00000000  00000000  00063794  2**2
                  CONTENTS, READONLY, DEBUGGING, OCTETS
 26 .debug_line_str 000002cc  00000000  00000000  00065a34  2**0
                  CONTENTS, READONLY, DEBUGGING, OCTETS

C:/Users/assem.KEVINTHOMAS/OneDrive/Documents/Embedded-Hacking/drivers/0x0c_multicore/build/0x0c_multicore.elf:     file format elf32-littlearm


Disassembly of section .text:

10000000 <__VECTOR_TABLE>:
10000000:	20082000 	.word	0x20082000
10000004:	1000015d 	.word	0x1000015d
10000008:	1000011b 	.word	0x1000011b
1000000c:	1000011d 	.word	0x1000011d
10000010:	10000111 	.word	0x10000111
10000014:	10000111 	.word	0x10000111
10000018:	10000111 	.word	0x10000111
1000001c:	10000111 	.word	0x10000111
10000020:	10000119 	.word	0x10000119
10000024:	10000119 	.word	0x10000119
10000028:	10000119 	.word	0x10000119
1000002c:	1000011f 	.word	0x1000011f
10000030:	10000111 	.word	0x10000111
10000034:	10000119 	.word	0x10000119
10000038:	10000121 	.word	0x10000121
1000003c:	10000123 	.word	0x10000123
10000040:	10000111 	.word	0x10000111
10000044:	10000111 	.word	0x10000111
10000048:	10000111 	.word	0x10000111
1000004c:	10000111 	.word	0x10000111
10000050:	10000111 	.word	0x10000111
10000054:	10000111 	.word	0x10000111
10000058:	10000111 	.word	0x10000111
1000005c:	10000111 	.word	0x10000111
10000060:	10000111 	.word	0x10000111
10000064:	10000111 	.word	0x10000111
10000068:	10000111 	.word	0x10000111
1000006c:	10000111 	.word	0x10000111
10000070:	10000111 	.word	0x10000111
10000074:	10000111 	.word	0x10000111
10000078:	10000111 	.word	0x10000111
1000007c:	10000111 	.word	0x10000111
10000080:	10000111 	.word	0x10000111
10000084:	10000111 	.word	0x10000111
10000088:	10000111 	.word	0x10000111
1000008c:	10000111 	.word	0x10000111
10000090:	10000111 	.word	0x10000111
10000094:	10000111 	.word	0x10000111
10000098:	10000111 	.word	0x10000111
1000009c:	10000111 	.word	0x10000111
100000a0:	10000111 	.word	0x10000111
100000a4:	10000111 	.word	0x10000111
100000a8:	10000111 	.word	0x10000111
100000ac:	10000111 	.word	0x10000111
100000b0:	10000111 	.word	0x10000111
100000b4:	10000111 	.word	0x10000111
100000b8:	10000111 	.word	0x10000111
100000bc:	10000111 	.word	0x10000111
100000c0:	10000111 	.word	0x10000111
100000c4:	10000111 	.word	0x10000111
100000c8:	10000111 	.word	0x10000111
100000cc:	10000111 	.word	0x10000111
100000d0:	10000111 	.word	0x10000111
100000d4:	10000111 	.word	0x10000111
100000d8:	10000111 	.word	0x10000111
100000dc:	10000111 	.word	0x10000111
100000e0:	10000111 	.word	0x10000111
100000e4:	10000111 	.word	0x10000111
100000e8:	10000111 	.word	0x10000111
100000ec:	10000111 	.word	0x10000111
100000f0:	10000111 	.word	0x10000111
100000f4:	10000111 	.word	0x10000111
100000f8:	10000111 	.word	0x10000111
100000fc:	10000111 	.word	0x10000111
10000100:	10000111 	.word	0x10000111
10000104:	10000111 	.word	0x10000111
10000108:	10000111 	.word	0x10000111
1000010c:	10000111 	.word	0x10000111

10000110 <__unhandled_user_irq>:
10000110:	f3ef 8005 	mrs	r0, IPSR
10000114:	3810      	subs	r0, #16

10000116 <unhandled_user_irq_num_in_r0>:
10000116:	be00      	bkpt	0x0000

10000118 <isr_invalid>:
10000118:	be00      	bkpt	0x0000

1000011a <isr_nmi>:
1000011a:	be00      	bkpt	0x0000

1000011c <isr_hardfault>:
1000011c:	be00      	bkpt	0x0000

1000011e <isr_svcall>:
1000011e:	be00      	bkpt	0x0000

10000120 <isr_pendsv>:
10000120:	be00      	bkpt	0x0000

10000122 <isr_systick>:
10000122:	be00      	bkpt	0x0000

10000124 <__default_isrs_end>:
10000124:	7188ebf2 	.word	0x7188ebf2
10000128:	10003900 	.word	0x10003900
1000012c:	1000392c 	.word	0x1000392c
10000130:	100001a0 	.word	0x100001a0
10000134:	e71aa390 	.word	0xe71aa390

10000138 <__binary_info_header_end>:
10000138:	ffffded3 	.word	0xffffded3
1000013c:	10210142 	.word	0x10210142
10000140:	000001ff 	.word	0x000001ff
10000144:	00003d18 	.word	0x00003d18
10000148:	ab123579 	.word	0xab123579

1000014c <_entry_point>:
1000014c:	f04f 0000 	mov.w	r0, #0

10000150 <_enter_vtable_in_r0>:
10000150:	491e      	ldr	r1, [pc, #120]	@ (100001cc <data_cpy_table+0x2c>)
10000152:	6008      	str	r0, [r1, #0]
10000154:	c806      	ldmia	r0!, {r1, r2}
10000156:	f381 8808 	msr	MSP, r1
1000015a:	4710      	bx	r2

1000015c <_reset_handler>:
1000015c:	f04f 4050 	mov.w	r0, #3489660928	@ 0xd0000000
10000160:	6800      	ldr	r0, [r0, #0]
10000162:	b110      	cbz	r0, 1000016a <hold_non_core0_in_bootrom+0x6>

10000164 <hold_non_core0_in_bootrom>:
10000164:	f04f 0000 	mov.w	r0, #0
10000168:	e7f2      	b.n	10000150 <_enter_vtable_in_r0>
1000016a:	a40d      	add	r4, pc, #52	@ (adr r4, 100001a0 <data_cpy_table>)
1000016c:	cc0e      	ldmia	r4!, {r1, r2, r3}
1000016e:	2900      	cmp	r1, #0
10000170:	d002      	beq.n	10000178 <hold_non_core0_in_bootrom+0x14>
10000172:	f000 f812 	bl	1000019a <data_cpy>
10000176:	e7f9      	b.n	1000016c <hold_non_core0_in_bootrom+0x8>
10000178:	4915      	ldr	r1, [pc, #84]	@ (100001d0 <data_cpy_table+0x30>)
1000017a:	4a16      	ldr	r2, [pc, #88]	@ (100001d4 <data_cpy_table+0x34>)
1000017c:	2000      	movs	r0, #0
1000017e:	e000      	b.n	10000182 <bss_fill_test>

10000180 <bss_fill_loop>:
10000180:	c101      	stmia	r1!, {r0}

10000182 <bss_fill_test>:
10000182:	4291      	cmp	r1, r2
10000184:	d1fc      	bne.n	10000180 <bss_fill_loop>

10000186 <platform_entry>:
10000186:	4914      	ldr	r1, [pc, #80]	@ (100001d8 <data_cpy_table+0x38>)
10000188:	4788      	blx	r1
1000018a:	4914      	ldr	r1, [pc, #80]	@ (100001dc <data_cpy_table+0x3c>)
1000018c:	4788      	blx	r1
1000018e:	4914      	ldr	r1, [pc, #80]	@ (100001e0 <data_cpy_table+0x40>)
10000190:	4788      	blx	r1
10000192:	be00      	bkpt	0x0000
10000194:	e7fd      	b.n	10000192 <platform_entry+0xc>

10000196 <data_cpy_loop>:
10000196:	c901      	ldmia	r1!, {r0}
10000198:	c201      	stmia	r2!, {r0}

1000019a <data_cpy>:
1000019a:	429a      	cmp	r2, r3
1000019c:	d3fb      	bcc.n	10000196 <data_cpy_loop>
1000019e:	4770      	bx	lr

100001a0 <data_cpy_table>:
100001a0:	1000392c 	.word	0x1000392c
100001a4:	20000110 	.word	0x20000110
100001a8:	20000634 	.word	0x20000634
100001ac:	10003e50 	.word	0x10003e50
100001b0:	20080000 	.word	0x20080000
100001b4:	20080000 	.word	0x20080000
100001b8:	10003e50 	.word	0x10003e50
100001bc:	20081000 	.word	0x20081000
100001c0:	20081000 	.word	0x20081000
100001c4:	00000000 	.word	0x00000000
100001c8:	4770      	bx	lr
100001ca:	0000      	.short	0x0000
100001cc:	e000ed08 	.word	0xe000ed08
100001d0:	20000634 	.word	0x20000634
100001d4:	20000860 	.word	0x20000860
100001d8:	10002e85 	.word	0x10002e85
100001dc:	10000245 	.word	0x10000245
100001e0:	10002e7d 	.word	0x10002e7d

100001e4 <_init>:
100001e4:	b5f8      	push	{r3, r4, r5, r6, r7, lr}
100001e6:	bf00      	nop

100001e8 <register_tm_clones>:
100001e8:	4b06      	ldr	r3, [pc, #24]	@ (10000204 <register_tm_clones+0x1c>)
100001ea:	4907      	ldr	r1, [pc, #28]	@ (10000208 <register_tm_clones+0x20>)
100001ec:	1ac9      	subs	r1, r1, r3
100001ee:	1089      	asrs	r1, r1, #2
100001f0:	bf48      	it	mi
100001f2:	3101      	addmi	r1, #1
100001f4:	1049      	asrs	r1, r1, #1
100001f6:	d003      	beq.n	10000200 <register_tm_clones+0x18>
100001f8:	4b04      	ldr	r3, [pc, #16]	@ (1000020c <register_tm_clones+0x24>)
100001fa:	b10b      	cbz	r3, 10000200 <register_tm_clones+0x18>
100001fc:	4801      	ldr	r0, [pc, #4]	@ (10000204 <register_tm_clones+0x1c>)
100001fe:	4718      	bx	r3
10000200:	4770      	bx	lr
10000202:	bf00      	nop
10000204:	20000634 	.word	0x20000634
10000208:	20000634 	.word	0x20000634
1000020c:	00000000 	.word	0x00000000

10000210 <frame_dummy>:
10000210:	b508      	push	{r3, lr}
10000212:	4b05      	ldr	r3, [pc, #20]	@ (10000228 <frame_dummy+0x18>)
10000214:	b11b      	cbz	r3, 1000021e <frame_dummy+0xe>
10000216:	4905      	ldr	r1, [pc, #20]	@ (1000022c <frame_dummy+0x1c>)
10000218:	4805      	ldr	r0, [pc, #20]	@ (10000230 <frame_dummy+0x20>)
1000021a:	f3af 8000 	nop.w
1000021e:	e8bd 4008 	ldmia.w	sp!, {r3, lr}
10000222:	f7ff bfe1 	b.w	100001e8 <register_tm_clones>
10000226:	bf00      	nop
10000228:	00000000 	.word	0x00000000
1000022c:	20000818 	.word	0x20000818
10000230:	1000372c 	.word	0x1000372c

10000234 <_core1_main>:
10000234:	b508      	push	{r3, lr}
10000236:	f000 f825 	bl	10000284 <multicore_driver_pop>
1000023a:	3001      	adds	r0, #1
1000023c:	f000 f820 	bl	10000280 <multicore_driver_push>
10000240:	e7f9      	b.n	10000236 <_core1_main+0x2>
10000242:	bf00      	nop

10000244 <main>:
10000244:	b508      	push	{r3, lr}
10000246:	f002 ff45 	bl	100030d4 <stdio_init_all>
1000024a:	480a      	ldr	r0, [pc, #40]	@ (10000274 <main+0x30>)
1000024c:	f000 f816 	bl	1000027c <multicore_driver_launch>
10000250:	2400      	movs	r4, #0
10000252:	4620      	mov	r0, r4
10000254:	f000 f814 	bl	10000280 <multicore_driver_push>
10000258:	f000 f814 	bl	10000284 <multicore_driver_pop>
1000025c:	4621      	mov	r1, r4
1000025e:	4602      	mov	r2, r0
10000260:	4805      	ldr	r0, [pc, #20]	@ (10000278 <main+0x34>)
10000262:	f002 ffff 	bl	10003264 <__wrap_printf>
10000266:	f44f 707a 	mov.w	r0, #1000	@ 0x3e8
1000026a:	3401      	adds	r4, #1
1000026c:	f000 fd44 	bl	10000cf8 <sleep_ms>
10000270:	e7ef      	b.n	10000252 <main+0xe>
10000272:	bf00      	nop
10000274:	10000235 	.word	0x10000235
10000278:	10003730 	.word	0x10003730

1000027c <multicore_driver_launch>:
1000027c:	f003 b95c 	b.w	10003538 <multicore_launch_core1>

10000280 <multicore_driver_push>:
10000280:	f003 b902 	b.w	10003488 <multicore_fifo_push_blocking>

10000284 <multicore_driver_pop>:
10000284:	f003 b908 	b.w	10003498 <multicore_fifo_pop_blocking>

10000288 <gpio_set_function>:
10000288:	b410      	push	{r4}
1000028a:	f44f 7480 	mov.w	r4, #256	@ 0x100
1000028e:	4b0c      	ldr	r3, [pc, #48]	@ (100002c0 <gpio_set_function+0x38>)
10000290:	f853 2020 	ldr.w	r2, [r3, r0, lsl #2]
10000294:	eb03 0380 	add.w	r3, r3, r0, lsl #2
10000298:	00c0      	lsls	r0, r0, #3
1000029a:	f082 0240 	eor.w	r2, r2, #64	@ 0x40
1000029e:	f100 4080 	add.w	r0, r0, #1073741824	@ 0x40000000
100002a2:	f503 5c80 	add.w	ip, r3, #4096	@ 0x1000
100002a6:	f002 02c0 	and.w	r2, r2, #192	@ 0xc0
100002aa:	f500 3020 	add.w	r0, r0, #163840	@ 0x28000
100002ae:	f503 5340 	add.w	r3, r3, #12288	@ 0x3000
100002b2:	f8cc 2000 	str.w	r2, [ip]
100002b6:	6041      	str	r1, [r0, #4]
100002b8:	601c      	str	r4, [r3, #0]
100002ba:	f85d 4b04 	ldr.w	r4, [sp], #4
100002be:	4770      	bx	lr
100002c0:	40038004 	.word	0x40038004

100002c4 <panic>:
100002c4:	b40f      	push	{r0, r1, r2, r3}
100002c6:	b500      	push	{lr}
100002c8:	b083      	sub	sp, #12
100002ca:	9c04      	ldr	r4, [sp, #16]
100002cc:	4807      	ldr	r0, [pc, #28]	@ (100002ec <panic+0x28>)
100002ce:	f002 ff49 	bl	10003164 <__wrap_puts>
100002d2:	b13c      	cbz	r4, 100002e4 <panic+0x20>
100002d4:	a905      	add	r1, sp, #20
100002d6:	4620      	mov	r0, r4
100002d8:	9101      	str	r1, [sp, #4]
100002da:	f002 fdb5 	bl	10002e48 <weak_raw_vprintf>
100002de:	4804      	ldr	r0, [pc, #16]	@ (100002f0 <panic+0x2c>)
100002e0:	f002 ff40 	bl	10003164 <__wrap_puts>
100002e4:	2001      	movs	r0, #1
100002e6:	f002 fdc7 	bl	10002e78 <_exit>
100002ea:	bf00      	nop
100002ec:	10003758 	.word	0x10003758
100002f0:	10003768 	.word	0x10003768

100002f4 <hw_claim_or_assert>:
100002f4:	b570      	push	{r4, r5, r6, lr}
100002f6:	4686      	mov	lr, r0
100002f8:	f3ef 8510 	mrs	r5, PRIMASK
100002fc:	b672      	cpsid	i
100002fe:	4c12      	ldr	r4, [pc, #72]	@ (10000348 <hw_claim_or_assert+0x54>)
10000300:	e8d4 6fcf 	ldaexb	r6, [r4]
10000304:	2001      	movs	r0, #1
10000306:	2e00      	cmp	r6, #0
10000308:	d1fa      	bne.n	10000300 <hw_claim_or_assert+0xc>
1000030a:	e8c4 0f46 	strexb	r6, r0, [r4]
1000030e:	2e00      	cmp	r6, #0
10000310:	d1f6      	bne.n	10000300 <hw_claim_or_assert+0xc>
10000312:	f3bf 8f5f 	dmb	sy
10000316:	f04f 0c01 	mov.w	ip, #1
1000031a:	08c8      	lsrs	r0, r1, #3
1000031c:	f001 0307 	and.w	r3, r1, #7
10000320:	fa0c f303 	lsl.w	r3, ip, r3
10000324:	f81e c000 	ldrb.w	ip, [lr, r0]
10000328:	ea1c 0603 	ands.w	r6, ip, r3
1000032c:	d108      	bne.n	10000340 <hw_claim_or_assert+0x4c>
1000032e:	ea4c 0c03 	orr.w	ip, ip, r3
10000332:	f80e c000 	strb.w	ip, [lr, r0]
10000336:	e8c4 6f8f 	stlb	r6, [r4]
1000033a:	f385 8810 	msr	PRIMASK, r5
1000033e:	bd70      	pop	{r4, r5, r6, pc}
10000340:	4610      	mov	r0, r2
10000342:	f7ff ffbf 	bl	100002c4 <panic>
10000346:	bf00      	nop
10000348:	200007c3 	.word	0x200007c3

1000034c <next_striped_spin_lock_num>:
1000034c:	4a04      	ldr	r2, [pc, #16]	@ (10000360 <next_striped_spin_lock_num+0x14>)
1000034e:	7810      	ldrb	r0, [r2, #0]
10000350:	1c43      	adds	r3, r0, #1
10000352:	b2db      	uxtb	r3, r3
10000354:	2b18      	cmp	r3, #24
10000356:	bf28      	it	cs
10000358:	2310      	movcs	r3, #16
1000035a:	7013      	strb	r3, [r2, #0]
1000035c:	4770      	bx	lr
1000035e:	bf00      	nop
10000360:	200005a8 	.word	0x200005a8

10000364 <spinlock_set_extexclall>:
10000364:	f04f 22e0 	mov.w	r2, #3758153728	@ 0xe000e000
10000368:	6893      	ldr	r3, [r2, #8]
1000036a:	f043 5300 	orr.w	r3, r3, #536870912	@ 0x20000000
1000036e:	6093      	str	r3, [r2, #8]
10000370:	4770      	bx	lr
10000372:	bf00      	nop

10000374 <spin_locks_reset>:
10000374:	2100      	movs	r1, #0
10000376:	4b04      	ldr	r3, [pc, #16]	@ (10000388 <spin_locks_reset+0x14>)
10000378:	f103 0220 	add.w	r2, r3, #32
1000037c:	e8c3 1f8f 	stlb	r1, [r3]
10000380:	3301      	adds	r3, #1
10000382:	4293      	cmp	r3, r2
10000384:	d1fa      	bne.n	1000037c <spin_locks_reset+0x8>
10000386:	4770      	bx	lr
10000388:	200007b8 	.word	0x200007b8

1000038c <runtime_init_per_core_irq_priorities>:
1000038c:	f04f 23e0 	mov.w	r3, #3758153728	@ 0xe000e000
10000390:	f04f 3280 	mov.w	r2, #2155905152	@ 0x80808080
10000394:	f8c3 2400 	str.w	r2, [r3, #1024]	@ 0x400
10000398:	f8c3 2404 	str.w	r2, [r3, #1028]	@ 0x404
1000039c:	f8c3 2408 	str.w	r2, [r3, #1032]	@ 0x408
100003a0:	f8c3 240c 	str.w	r2, [r3, #1036]	@ 0x40c
100003a4:	f8c3 2410 	str.w	r2, [r3, #1040]	@ 0x410
100003a8:	f8c3 2414 	str.w	r2, [r3, #1044]	@ 0x414
100003ac:	f8c3 2418 	str.w	r2, [r3, #1048]	@ 0x418
100003b0:	f8c3 241c 	str.w	r2, [r3, #1052]	@ 0x41c
100003b4:	f8c3 2420 	str.w	r2, [r3, #1056]	@ 0x420
100003b8:	f8c3 2424 	str.w	r2, [r3, #1060]	@ 0x424
100003bc:	f8c3 2428 	str.w	r2, [r3, #1064]	@ 0x428
100003c0:	f8c3 242c 	str.w	r2, [r3, #1068]	@ 0x42c
100003c4:	f8c3 2430 	str.w	r2, [r3, #1072]	@ 0x430
100003c8:	b662      	cpsie	i
100003ca:	4770      	bx	lr

100003cc <irq_set_enabled>:
100003cc:	2301      	movs	r3, #1
100003ce:	f000 021f 	and.w	r2, r0, #31
100003d2:	4093      	lsls	r3, r2
100003d4:	0940      	lsrs	r0, r0, #5
100003d6:	b141      	cbz	r1, 100003ea <irq_set_enabled+0x1e>
100003d8:	0080      	lsls	r0, r0, #2
100003da:	f100 4060 	add.w	r0, r0, #3758096384	@ 0xe0000000
100003de:	f500 4061 	add.w	r0, r0, #57600	@ 0xe100
100003e2:	f8c0 3180 	str.w	r3, [r0, #384]	@ 0x180
100003e6:	6003      	str	r3, [r0, #0]
100003e8:	4770      	bx	lr
100003ea:	4a02      	ldr	r2, [pc, #8]	@ (100003f4 <irq_set_enabled+0x28>)
100003ec:	3020      	adds	r0, #32
100003ee:	f842 3020 	str.w	r3, [r2, r0, lsl #2]
100003f2:	4770      	bx	lr
100003f4:	e000e100 	.word	0xe000e100

100003f8 <irq_is_enabled>:
100003f8:	2301      	movs	r3, #1
100003fa:	4a06      	ldr	r2, [pc, #24]	@ (10000414 <irq_is_enabled+0x1c>)
100003fc:	0941      	lsrs	r1, r0, #5
100003fe:	f852 2021 	ldr.w	r2, [r2, r1, lsl #2]
10000402:	f000 001f 	and.w	r0, r0, #31
10000406:	fa03 f000 	lsl.w	r0, r3, r0
1000040a:	4010      	ands	r0, r2
1000040c:	3800      	subs	r0, #0
1000040e:	bf18      	it	ne
10000410:	2001      	movne	r0, #1
10000412:	4770      	bx	lr
10000414:	e000e100 	.word	0xe000e100

10000418 <irq_set_exclusive_handler>:
10000418:	b5f8      	push	{r3, r4, r5, r6, r7, lr}
1000041a:	460d      	mov	r5, r1
1000041c:	f3ef 8710 	mrs	r7, PRIMASK
10000420:	b672      	cpsid	i
10000422:	4e12      	ldr	r6, [pc, #72]	@ (1000046c <irq_set_exclusive_handler+0x54>)
10000424:	e8d6 2fcf 	ldaexb	r2, [r6]
10000428:	2301      	movs	r3, #1
1000042a:	2a00      	cmp	r2, #0
1000042c:	d1fa      	bne.n	10000424 <irq_set_exclusive_handler+0xc>
1000042e:	e8c6 3f42 	strexb	r2, r3, [r6]
10000432:	2a00      	cmp	r2, #0
10000434:	d1f6      	bne.n	10000424 <irq_set_exclusive_handler+0xc>
10000436:	f3bf 8f5f 	dmb	sy
1000043a:	4b0d      	ldr	r3, [pc, #52]	@ (10000470 <irq_set_exclusive_handler+0x58>)
1000043c:	f100 0410 	add.w	r4, r0, #16
10000440:	689b      	ldr	r3, [r3, #8]
10000442:	4a0c      	ldr	r2, [pc, #48]	@ (10000474 <irq_set_exclusive_handler+0x5c>)
10000444:	f853 3024 	ldr.w	r3, [r3, r4, lsl #2]
10000448:	4293      	cmp	r3, r2
1000044a:	d003      	beq.n	10000454 <irq_set_exclusive_handler+0x3c>
1000044c:	4299      	cmp	r1, r3
1000044e:	d001      	beq.n	10000454 <irq_set_exclusive_handler+0x3c>
10000450:	f000 ff0e 	bl	10001270 <hard_assertion_failure>
10000454:	4b06      	ldr	r3, [pc, #24]	@ (10000470 <irq_set_exclusive_handler+0x58>)
10000456:	689b      	ldr	r3, [r3, #8]
10000458:	f843 5024 	str.w	r5, [r3, r4, lsl #2]
1000045c:	f3bf 8f5f 	dmb	sy
10000460:	2300      	movs	r3, #0
10000462:	e8c6 3f8f 	stlb	r3, [r6]
10000466:	f387 8810 	msr	PRIMASK, r7
1000046a:	bdf8      	pop	{r3, r4, r5, r6, r7, pc}
1000046c:	200007c1 	.word	0x200007c1
10000470:	e000ed00 	.word	0xe000ed00
10000474:	10000111 	.word	0x10000111

10000478 <irq_remove_handler>:
10000478:	e92d 4ff0 	stmdb	sp!, {r4, r5, r6, r7, r8, r9, sl, fp, lr}
1000047c:	b083      	sub	sp, #12
1000047e:	f3ef 8a10 	mrs	sl, PRIMASK
10000482:	b672      	cpsid	i
10000484:	4e71      	ldr	r6, [pc, #452]	@ (1000064c <irq_remove_handler+0x1d4>)
10000486:	e8d6 2fcf 	ldaexb	r2, [r6]
1000048a:	2301      	movs	r3, #1
1000048c:	2a00      	cmp	r2, #0
1000048e:	d1fa      	bne.n	10000486 <irq_remove_handler+0xe>
10000490:	e8c6 3f42 	strexb	r2, r3, [r6]
10000494:	2a00      	cmp	r2, #0
10000496:	d1f6      	bne.n	10000486 <irq_remove_handler+0xe>
10000498:	f3bf 8f5f 	dmb	sy
1000049c:	4b6c      	ldr	r3, [pc, #432]	@ (10000650 <irq_remove_handler+0x1d8>)
1000049e:	f100 0810 	add.w	r8, r0, #16
100004a2:	689b      	ldr	r3, [r3, #8]
100004a4:	4a6b      	ldr	r2, [pc, #428]	@ (10000654 <irq_remove_handler+0x1dc>)
100004a6:	f853 5028 	ldr.w	r5, [r3, r8, lsl #2]
100004aa:	4295      	cmp	r5, r2
100004ac:	d045      	beq.n	1000053a <irq_remove_handler+0xc2>
100004ae:	428d      	cmp	r5, r1
100004b0:	460c      	mov	r4, r1
100004b2:	d050      	beq.n	10000556 <irq_remove_handler+0xde>
100004b4:	4f68      	ldr	r7, [pc, #416]	@ (10000658 <irq_remove_handler+0x1e0>)
100004b6:	1beb      	subs	r3, r5, r7
100004b8:	2b2f      	cmp	r3, #47	@ 0x2f
100004ba:	d83e      	bhi.n	1000053a <irq_remove_handler+0xc2>
100004bc:	2101      	movs	r1, #1
100004be:	ea4f 1950 	mov.w	r9, r0, lsr #5
100004c2:	ea4f 0989 	mov.w	r9, r9, lsl #2
100004c6:	f109 4960 	add.w	r9, r9, #3758096384	@ 0xe0000000
100004ca:	f509 4961 	add.w	r9, r9, #57600	@ 0xe100
100004ce:	f000 031f 	and.w	r3, r0, #31
100004d2:	fa01 f003 	lsl.w	r0, r1, r3
100004d6:	f8d9 3000 	ldr.w	r3, [r9]
100004da:	f8c9 0080 	str.w	r0, [r9, #128]	@ 0x80
100004de:	ea00 0b03 	and.w	fp, r0, r3
100004e2:	f3bf 8f5f 	dmb	sy
100004e6:	f3ef 8105 	mrs	r1, IPSR
100004ea:	b2c9      	uxtb	r1, r1
100004ec:	2900      	cmp	r1, #0
100004ee:	d034      	beq.n	1000055a <irq_remove_handler+0xe2>
100004f0:	4588      	cmp	r8, r1
100004f2:	d005      	beq.n	10000500 <irq_remove_handler+0x88>
100004f4:	e9cd 1000 	strd	r1, r0, [sp]
100004f8:	f000 feba 	bl	10001270 <hard_assertion_failure>
100004fc:	e9dd 1000 	ldrd	r1, r0, [sp]
10000500:	f025 0e01 	bic.w	lr, r5, #1
10000504:	f8de c008 	ldr.w	ip, [lr, #8]
10000508:	4564      	cmp	r4, ip
1000050a:	d105      	bne.n	10000518 <irq_remove_handler+0xa0>
1000050c:	e089      	b.n	10000622 <irq_remove_handler+0x1aa>
1000050e:	f8d3 c008 	ldr.w	ip, [r3, #8]
10000512:	4564      	cmp	r4, ip
10000514:	d031      	beq.n	1000057a <irq_remove_handler+0x102>
10000516:	469e      	mov	lr, r3
10000518:	f99e 2006 	ldrsb.w	r2, [lr, #6]
1000051c:	eb02 0342 	add.w	r3, r2, r2, lsl #1
10000520:	2a00      	cmp	r2, #0
10000522:	eb07 0383 	add.w	r3, r7, r3, lsl #2
10000526:	daf2      	bge.n	1000050e <irq_remove_handler+0x96>
10000528:	4564      	cmp	r4, ip
1000052a:	d061      	beq.n	100005f0 <irq_remove_handler+0x178>
1000052c:	f1bb 0f00 	cmp.w	fp, #0
10000530:	d020      	beq.n	10000574 <irq_remove_handler+0xfc>
10000532:	f8c9 0180 	str.w	r0, [r9, #384]	@ 0x180
10000536:	f8c9 0000 	str.w	r0, [r9]
1000053a:	4b45      	ldr	r3, [pc, #276]	@ (10000650 <irq_remove_handler+0x1d8>)
1000053c:	689b      	ldr	r3, [r3, #8]
1000053e:	f843 5028 	str.w	r5, [r3, r8, lsl #2]
10000542:	f3bf 8f5f 	dmb	sy
10000546:	2300      	movs	r3, #0
10000548:	e8c6 3f8f 	stlb	r3, [r6]
1000054c:	f38a 8810 	msr	PRIMASK, sl
10000550:	b003      	add	sp, #12
10000552:	e8bd 8ff0 	ldmia.w	sp!, {r4, r5, r6, r7, r8, r9, sl, fp, pc}
10000556:	4615      	mov	r5, r2
10000558:	e7ef      	b.n	1000053a <irq_remove_handler+0xc2>
1000055a:	f025 0e01 	bic.w	lr, r5, #1
1000055e:	f8de c008 	ldr.w	ip, [lr, #8]
10000562:	4564      	cmp	r4, ip
10000564:	d1d8      	bne.n	10000518 <irq_remove_handler+0xa0>
10000566:	f99e 4006 	ldrsb.w	r4, [lr, #6]
1000056a:	4673      	mov	r3, lr
1000056c:	2c00      	cmp	r4, #0
1000056e:	da08      	bge.n	10000582 <irq_remove_handler+0x10a>
10000570:	4615      	mov	r5, r2
10000572:	e046      	b.n	10000602 <irq_remove_handler+0x18a>
10000574:	f8c9 0080 	str.w	r0, [r9, #128]	@ 0x80
10000578:	e7df      	b.n	1000053a <irq_remove_handler+0xc2>
1000057a:	f993 4006 	ldrsb.w	r4, [r3, #6]
1000057e:	2c00      	cmp	r4, #0
10000580:	db37      	blt.n	100005f2 <irq_remove_handler+0x17a>
10000582:	eb04 0c44 	add.w	ip, r4, r4, lsl #1
10000586:	eb07 0c8c 	add.w	ip, r7, ip, lsl #2
1000058a:	f89c 1007 	ldrb.w	r1, [ip, #7]
1000058e:	f8dc 2008 	ldr.w	r2, [ip, #8]
10000592:	71d9      	strb	r1, [r3, #7]
10000594:	609a      	str	r2, [r3, #8]
10000596:	f99c 2006 	ldrsb.w	r2, [ip, #6]
1000059a:	0061      	lsls	r1, r4, #1
1000059c:	2a00      	cmp	r2, #0
1000059e:	719a      	strb	r2, [r3, #6]
100005a0:	db3d      	blt.n	1000061e <irq_remove_handler+0x1a6>
100005a2:	f8bc e004 	ldrh.w	lr, [ip, #4]
100005a6:	ea5f 5e4e 	movs.w	lr, lr, lsl #21
100005aa:	d505      	bpl.n	100005b8 <irq_remove_handler+0x140>
100005ac:	f50e 1eff 	add.w	lr, lr, #2088960	@ 0x1fe000
100005b0:	f50e 5eff 	add.w	lr, lr, #8160	@ 0x1fe0
100005b4:	f10e 0e1f 	add.w	lr, lr, #31
100005b8:	f06f 0c07 	mvn.w	ip, #7
100005bc:	190a      	adds	r2, r1, r4
100005be:	ea4f 5e6e 	mov.w	lr, lr, asr #21
100005c2:	0092      	lsls	r2, r2, #2
100005c4:	eb02 024e 	add.w	r2, r2, lr, lsl #1
100005c8:	3208      	adds	r2, #8
100005ca:	443a      	add	r2, r7
100005cc:	ebac 0c03 	sub.w	ip, ip, r3
100005d0:	4462      	add	r2, ip
100005d2:	f3c2 024a 	ubfx	r2, r2, #1, #11
100005d6:	ea6f 42c2 	mvn.w	r2, r2, lsl #19
100005da:	ea6f 42d2 	mvn.w	r2, r2, lsr #19
100005de:	809a      	strh	r2, [r3, #4]
100005e0:	4b1e      	ldr	r3, [pc, #120]	@ (1000065c <irq_remove_handler+0x1e4>)
100005e2:	4421      	add	r1, r4
100005e4:	781a      	ldrb	r2, [r3, #0]
100005e6:	eb07 0181 	add.w	r1, r7, r1, lsl #2
100005ea:	701c      	strb	r4, [r3, #0]
100005ec:	718a      	strb	r2, [r1, #6]
100005ee:	e79d      	b.n	1000052c <irq_remove_handler+0xb4>
100005f0:	4673      	mov	r3, lr
100005f2:	b9d9      	cbnz	r1, 1000062c <irq_remove_handler+0x1b4>
100005f4:	22ff      	movs	r2, #255	@ 0xff
100005f6:	f88e 2006 	strb.w	r2, [lr, #6]
100005fa:	f64b 5201 	movw	r2, #48385	@ 0xbd01
100005fe:	f8ae 2004 	strh.w	r2, [lr, #4]
10000602:	4c16      	ldr	r4, [pc, #88]	@ (1000065c <irq_remove_handler+0x1e4>)
10000604:	f64a 22aa 	movw	r2, #43690	@ 0xaaaa
10000608:	f894 c000 	ldrb.w	ip, [r4]
1000060c:	4619      	mov	r1, r3
1000060e:	1bc9      	subs	r1, r1, r7
10000610:	4149      	adcs	r1, r1
10000612:	434a      	muls	r2, r1
10000614:	0d12      	lsrs	r2, r2, #20
10000616:	f883 c006 	strb.w	ip, [r3, #6]
1000061a:	7022      	strb	r2, [r4, #0]
1000061c:	e786      	b.n	1000052c <irq_remove_handler+0xb4>
1000061e:	4a10      	ldr	r2, [pc, #64]	@ (10000660 <irq_remove_handler+0x1e8>)
10000620:	e7dd      	b.n	100005de <irq_remove_handler+0x166>
10000622:	f99e 4006 	ldrsb.w	r4, [lr, #6]
10000626:	4673      	mov	r3, lr
10000628:	2c00      	cmp	r4, #0
1000062a:	daaa      	bge.n	10000582 <irq_remove_handler+0x10a>
1000062c:	4a0d      	ldr	r2, [pc, #52]	@ (10000664 <irq_remove_handler+0x1ec>)
1000062e:	4c0e      	ldr	r4, [pc, #56]	@ (10000668 <irq_remove_handler+0x1f0>)
10000630:	1ad2      	subs	r2, r2, r3
10000632:	3a08      	subs	r2, #8
10000634:	f3c2 310a 	ubfx	r1, r2, #12, #11
10000638:	ea6f 5101 	mvn.w	r1, r1, lsl #20
1000063c:	ea6f 5111 	mvn.w	r1, r1, lsr #20
10000640:	ea44 0252 	orr.w	r2, r4, r2, lsr #1
10000644:	80da      	strh	r2, [r3, #6]
10000646:	8099      	strh	r1, [r3, #4]
10000648:	e770      	b.n	1000052c <irq_remove_handler+0xb4>
1000064a:	bf00      	nop
1000064c:	200007c1 	.word	0x200007c1
10000650:	e000ed00 	.word	0xe000ed00
10000654:	10000111 	.word	0x10000111
10000658:	200005ac 	.word	0x200005ac
1000065c:	2000085c 	.word	0x2000085c
10000660:	ffffbd01 	.word	0xffffbd01
10000664:	200005e6 	.word	0x200005e6
10000668:	fffff800 	.word	0xfffff800

1000066c <irq_add_tail_to_free_list>:
1000066c:	b5f0      	push	{r4, r5, r6, r7, lr}
1000066e:	f3ef 8505 	mrs	r5, IPSR
10000672:	b2ed      	uxtb	r5, r5
10000674:	f3ef 8c10 	mrs	ip, PRIMASK
10000678:	b672      	cpsid	i
1000067a:	4926      	ldr	r1, [pc, #152]	@ (10000714 <irq_add_tail_to_free_list+0xa8>)
1000067c:	e8d1 2fcf 	ldaexb	r2, [r1]
10000680:	2301      	movs	r3, #1
10000682:	2a00      	cmp	r2, #0
10000684:	d1fa      	bne.n	1000067c <irq_add_tail_to_free_list+0x10>
10000686:	e8c1 3f42 	strexb	r2, r3, [r1]
1000068a:	2a00      	cmp	r2, #0
1000068c:	d1f6      	bne.n	1000067c <irq_add_tail_to_free_list+0x10>
1000068e:	f3bf 8f5f 	dmb	sy
10000692:	4e21      	ldr	r6, [pc, #132]	@ (10000718 <irq_add_tail_to_free_list+0xac>)
10000694:	f040 0e01 	orr.w	lr, r0, #1
10000698:	68b4      	ldr	r4, [r6, #8]
1000069a:	f64a 23aa 	movw	r3, #43690	@ 0xaaaa
1000069e:	f854 7025 	ldr.w	r7, [r4, r5, lsl #2]
100006a2:	4a1e      	ldr	r2, [pc, #120]	@ (1000071c <irq_add_tail_to_free_list+0xb0>)
100006a4:	4604      	mov	r4, r0
100006a6:	1aa4      	subs	r4, r4, r2
100006a8:	4164      	adcs	r4, r4
100006aa:	4363      	muls	r3, r4
100006ac:	0d1b      	lsrs	r3, r3, #20
100006ae:	4577      	cmp	r7, lr
100006b0:	b25b      	sxtb	r3, r3
100006b2:	d01b      	beq.n	100006ec <irq_add_tail_to_free_list+0x80>
100006b4:	f992 4006 	ldrsb.w	r4, [r2, #6]
100006b8:	429c      	cmp	r4, r3
100006ba:	d01c      	beq.n	100006f6 <irq_add_tail_to_free_list+0x8a>
100006bc:	f992 4012 	ldrsb.w	r4, [r2, #18]
100006c0:	429c      	cmp	r4, r3
100006c2:	d023      	beq.n	1000070c <irq_add_tail_to_free_list+0xa0>
100006c4:	f992 401e 	ldrsb.w	r4, [r2, #30]
100006c8:	429c      	cmp	r4, r3
100006ca:	d021      	beq.n	10000710 <irq_add_tail_to_free_list+0xa4>
100006cc:	f992 402a 	ldrsb.w	r4, [r2, #42]	@ 0x2a
100006d0:	429c      	cmp	r4, r3
100006d2:	bf08      	it	eq
100006d4:	2403      	moveq	r4, #3
100006d6:	d00f      	beq.n	100006f8 <irq_add_tail_to_free_list+0x8c>
100006d8:	4a11      	ldr	r2, [pc, #68]	@ (10000720 <irq_add_tail_to_free_list+0xb4>)
100006da:	2400      	movs	r4, #0
100006dc:	7815      	ldrb	r5, [r2, #0]
100006de:	7013      	strb	r3, [r2, #0]
100006e0:	7185      	strb	r5, [r0, #6]
100006e2:	e8c1 4f8f 	stlb	r4, [r1]
100006e6:	f38c 8810 	msr	PRIMASK, ip
100006ea:	bdf0      	pop	{r4, r5, r6, r7, pc}
100006ec:	68b2      	ldr	r2, [r6, #8]
100006ee:	4c0d      	ldr	r4, [pc, #52]	@ (10000724 <irq_add_tail_to_free_list+0xb8>)
100006f0:	f842 4025 	str.w	r4, [r2, r5, lsl #2]
100006f4:	e7f0      	b.n	100006d8 <irq_add_tail_to_free_list+0x6c>
100006f6:	2400      	movs	r4, #0
100006f8:	eb04 0444 	add.w	r4, r4, r4, lsl #1
100006fc:	eb02 0284 	add.w	r2, r2, r4, lsl #2
10000700:	24ff      	movs	r4, #255	@ 0xff
10000702:	7194      	strb	r4, [r2, #6]
10000704:	f64b 5401 	movw	r4, #48385	@ 0xbd01
10000708:	8094      	strh	r4, [r2, #4]
1000070a:	e7e5      	b.n	100006d8 <irq_add_tail_to_free_list+0x6c>
1000070c:	2401      	movs	r4, #1
1000070e:	e7f3      	b.n	100006f8 <irq_add_tail_to_free_list+0x8c>
10000710:	2402      	movs	r4, #2
10000712:	e7f1      	b.n	100006f8 <irq_add_tail_to_free_list+0x8c>
10000714:	200007c1 	.word	0x200007c1
10000718:	e000ed00 	.word	0xe000ed00
1000071c:	200005ac 	.word	0x200005ac
10000720:	2000085c 	.word	0x2000085c
10000724:	10000111 	.word	0x10000111

10000728 <lock_init>:
10000728:	4b01      	ldr	r3, [pc, #4]	@ (10000730 <lock_init+0x8>)
1000072a:	440b      	add	r3, r1
1000072c:	6003      	str	r3, [r0, #0]
1000072e:	4770      	bx	lr
10000730:	200007b8 	.word	0x200007b8

10000734 <runtime_init_mutex>:
10000734:	b570      	push	{r4, r5, r6, lr}
10000736:	4c10      	ldr	r4, [pc, #64]	@ (10000778 <runtime_init_mutex+0x44>)
10000738:	4d10      	ldr	r5, [pc, #64]	@ (1000077c <runtime_init_mutex+0x48>)
1000073a:	42ac      	cmp	r4, r5
1000073c:	d20e      	bcs.n	1000075c <runtime_init_mutex+0x28>
1000073e:	26ff      	movs	r6, #255	@ 0xff
10000740:	6823      	ldr	r3, [r4, #0]
10000742:	b163      	cbz	r3, 1000075e <runtime_init_mutex+0x2a>
10000744:	f7ff fe02 	bl	1000034c <next_striped_spin_lock_num>
10000748:	4601      	mov	r1, r0
1000074a:	4620      	mov	r0, r4
1000074c:	f7ff ffec 	bl	10000728 <lock_init>
10000750:	80a6      	strh	r6, [r4, #4]
10000752:	f3bf 8f5f 	dmb	sy
10000756:	3408      	adds	r4, #8
10000758:	42ac      	cmp	r4, r5
1000075a:	d3f1      	bcc.n	10000740 <runtime_init_mutex+0xc>
1000075c:	bd70      	pop	{r4, r5, r6, pc}
1000075e:	f7ff fdf5 	bl	1000034c <next_striped_spin_lock_num>
10000762:	4601      	mov	r1, r0
10000764:	4620      	mov	r0, r4
10000766:	f7ff ffdf 	bl	10000728 <lock_init>
1000076a:	7126      	strb	r6, [r4, #4]
1000076c:	f3bf 8f5f 	dmb	sy
10000770:	3408      	adds	r4, #8
10000772:	42ac      	cmp	r4, r5
10000774:	d3e4      	bcc.n	10000740 <runtime_init_mutex+0xc>
10000776:	bd70      	pop	{r4, r5, r6, pc}
10000778:	20000624 	.word	0x20000624
1000077c:	20000634 	.word	0x20000634

10000780 <sleep_until_callback>:
10000780:	4b0d      	ldr	r3, [pc, #52]	@ (100007b8 <sleep_until_callback+0x38>)
10000782:	681a      	ldr	r2, [r3, #0]
10000784:	f3ef 8110 	mrs	r1, PRIMASK
10000788:	b672      	cpsid	i
1000078a:	e8d2 cfcf 	ldaexb	ip, [r2]
1000078e:	2001      	movs	r0, #1
10000790:	f1bc 0f00 	cmp.w	ip, #0
10000794:	d1f9      	bne.n	1000078a <sleep_until_callback+0xa>
10000796:	e8c2 0f4c 	strexb	ip, r0, [r2]
1000079a:	f1bc 0f00 	cmp.w	ip, #0
1000079e:	d1f4      	bne.n	1000078a <sleep_until_callback+0xa>
100007a0:	f3bf 8f5f 	dmb	sy
100007a4:	2200      	movs	r2, #0
100007a6:	681b      	ldr	r3, [r3, #0]
100007a8:	e8c3 2f8f 	stlb	r2, [r3]
100007ac:	f381 8810 	msr	PRIMASK, r1
100007b0:	bf40      	sev
100007b2:	2000      	movs	r0, #0
100007b4:	2100      	movs	r1, #0
100007b6:	4770      	bx	lr
100007b8:	20000850 	.word	0x20000850
100007bc:	00000000 	.word	0x00000000

100007c0 <alarm_pool_irq_handler>:
100007c0:	e92d 4ff0 	stmdb	sp!, {r4, r5, r6, r7, r8, r9, sl, fp, lr}
100007c4:	ed2d 8b02 	vpush	{d8}
100007c8:	b085      	sub	sp, #20
100007ca:	f3ef 8305 	mrs	r3, IPSR
100007ce:	b2db      	uxtb	r3, r3
100007d0:	3b10      	subs	r3, #16
100007d2:	089a      	lsrs	r2, r3, #2
100007d4:	bf18      	it	ne
100007d6:	2201      	movne	r2, #1
100007d8:	f04f 0101 	mov.w	r1, #1
100007dc:	f003 0b03 	and.w	fp, r3, #3
100007e0:	bf18      	it	ne
100007e2:	4daf      	ldrne	r5, [pc, #700]	@ (10000aa0 <alarm_pool_irq_handler+0x2e0>)
100007e4:	4baf      	ldr	r3, [pc, #700]	@ (10000aa4 <alarm_pool_irq_handler+0x2e4>)
100007e6:	bf08      	it	eq
100007e8:	4daf      	ldreq	r5, [pc, #700]	@ (10000aa8 <alarm_pool_irq_handler+0x2e8>)
100007ea:	eb0b 0282 	add.w	r2, fp, r2, lsl #2
100007ee:	f853 6022 	ldr.w	r6, [r3, r2, lsl #2]
100007f2:	fa01 f20b 	lsl.w	r2, r1, fp
100007f6:	f505 5341 	add.w	r3, r5, #12352	@ 0x3040
100007fa:	ed9f 8ba7 	vldr	d8, [pc, #668]	@ 10000a98 <alarm_pool_irq_handler+0x2d8>
100007fe:	9201      	str	r2, [sp, #4]
10000800:	605a      	str	r2, [r3, #4]
10000802:	e02f      	b.n	10000864 <alarm_pool_irq_handler+0xa4>
10000804:	88b3      	ldrh	r3, [r6, #4]
10000806:	041c      	lsls	r4, r3, #16
10000808:	f140 8093 	bpl.w	10000932 <alarm_pool_irq_handler+0x172>
1000080c:	79b3      	ldrb	r3, [r6, #6]
1000080e:	2b00      	cmp	r3, #0
10000810:	f040 80dd 	bne.w	100009ce <alarm_pool_irq_handler+0x20e>
10000814:	f9b6 2008 	ldrsh.w	r2, [r6, #8]
10000818:	2a00      	cmp	r2, #0
1000081a:	f2c0 811e 	blt.w	10000a5a <alarm_pool_irq_handler+0x29a>
1000081e:	6973      	ldr	r3, [r6, #20]
10000820:	eb02 0242 	add.w	r2, r2, r2, lsl #1
10000824:	eb03 03c2 	add.w	r3, r3, r2, lsl #3
10000828:	e9d3 4702 	ldrd	r4, r7, [r3, #8]
1000082c:	f1b7 3fff 	cmp.w	r7, #4294967295
10000830:	bf08      	it	eq
10000832:	f1b4 3fff 	cmpeq.w	r4, #4294967295
10000836:	d00e      	beq.n	10000856 <alarm_pool_irq_handler+0x96>
10000838:	eb05 018b 	add.w	r1, r5, fp, lsl #2
1000083c:	6aab      	ldr	r3, [r5, #40]	@ 0x28
1000083e:	690a      	ldr	r2, [r1, #16]
10000840:	1ad2      	subs	r2, r2, r3
10000842:	1ae3      	subs	r3, r4, r3
10000844:	4293      	cmp	r3, r2
10000846:	d305      	bcc.n	10000854 <alarm_pool_irq_handler+0x94>
10000848:	2301      	movs	r3, #1
1000084a:	6a2a      	ldr	r2, [r5, #32]
1000084c:	fa03 f30b 	lsl.w	r3, r3, fp
10000850:	4213      	tst	r3, r2
10000852:	d100      	bne.n	10000856 <alarm_pool_irq_handler+0x96>
10000854:	610c      	str	r4, [r1, #16]
10000856:	4628      	mov	r0, r5
10000858:	f000 fb38 	bl	10000ecc <timer_time_us_64>
1000085c:	42a0      	cmp	r0, r4
1000085e:	41b9      	sbcs	r1, r7
10000860:	f2c0 80fb 	blt.w	10000a5a <alarm_pool_irq_handler+0x29a>
10000864:	f9b6 3008 	ldrsh.w	r3, [r6, #8]
10000868:	9a01      	ldr	r2, [sp, #4]
1000086a:	2b00      	cmp	r3, #0
1000086c:	9300      	str	r3, [sp, #0]
1000086e:	63ea      	str	r2, [r5, #60]	@ 0x3c
10000870:	dbc8      	blt.n	10000804 <alarm_pool_irq_handler+0x44>
10000872:	f8d6 8014 	ldr.w	r8, [r6, #20]
10000876:	eb03 0943 	add.w	r9, r3, r3, lsl #1
1000087a:	4628      	mov	r0, r5
1000087c:	eb08 07c9 	add.w	r7, r8, r9, lsl #3
10000880:	e9d7 4a02 	ldrd	r4, sl, [r7, #8]
10000884:	f000 fb22 	bl	10000ecc <timer_time_us_64>
10000888:	42a0      	cmp	r0, r4
1000088a:	eb71 010a 	sbcs.w	r1, r1, sl
1000088e:	dbb9      	blt.n	10000804 <alarm_pool_irq_handler+0x44>
10000890:	f1ba 0f00 	cmp.w	sl, #0
10000894:	f2c0 80c3 	blt.w	10000a1e <alarm_pool_irq_handler+0x25e>
10000898:	e9d7 3104 	ldrd	r3, r1, [r7, #16]
1000089c:	4a83      	ldr	r2, [pc, #524]	@ (10000aac <alarm_pool_irq_handler+0x2ec>)
1000089e:	4293      	cmp	r3, r2
100008a0:	f000 80ed 	beq.w	10000a7e <alarm_pool_irq_handler+0x2be>
100008a4:	887a      	ldrh	r2, [r7, #2]
100008a6:	f9b6 0008 	ldrsh.w	r0, [r6, #8]
100008aa:	b292      	uxth	r2, r2
100008ac:	ea42 4000 	orr.w	r0, r2, r0, lsl #16
100008b0:	4798      	blx	r3
100008b2:	4602      	mov	r2, r0
100008b4:	460b      	mov	r3, r1
100008b6:	ea52 0103 	orrs.w	r1, r2, r3
100008ba:	f000 80b0 	beq.w	10000a1e <alarm_pool_irq_handler+0x25e>
100008be:	2b00      	cmp	r3, #0
100008c0:	f280 80d1 	bge.w	10000a66 <alarm_pool_irq_handler+0x2a6>
100008c4:	ebb4 0e02 	subs.w	lr, r4, r2
100008c8:	eb6a 0a03 	sbc.w	sl, sl, r3
100008cc:	f938 3039 	ldrsh.w	r3, [r8, r9, lsl #3]
100008d0:	e9c7 ea02 	strd	lr, sl, [r7, #8]
100008d4:	2b00      	cmp	r3, #0
100008d6:	db95      	blt.n	10000804 <alarm_pool_irq_handler+0x44>
100008d8:	6971      	ldr	r1, [r6, #20]
100008da:	eb03 0243 	add.w	r2, r3, r3, lsl #1
100008de:	eb01 02c2 	add.w	r2, r1, r2, lsl #3
100008e2:	e9d2 7002 	ldrd	r7, r0, [r2, #8]
100008e6:	45be      	cmp	lr, r7
100008e8:	eb7a 0c00 	sbcs.w	ip, sl, r0
100008ec:	ea4f 0243 	mov.w	r2, r3, lsl #1
100008f0:	db88      	blt.n	10000804 <alarm_pool_irq_handler+0x44>
100008f2:	46b4      	mov	ip, r6
100008f4:	f82c 3f08 	strh.w	r3, [ip, #8]!
100008f8:	e006      	b.n	10000908 <alarm_pool_irq_handler+0x148>
100008fa:	eb03 0043 	add.w	r0, r3, r3, lsl #1
100008fe:	eb01 00c0 	add.w	r0, r1, r0, lsl #3
10000902:	005a      	lsls	r2, r3, #1
10000904:	e9d0 7002 	ldrd	r7, r0, [r0, #8]
10000908:	45be      	cmp	lr, r7
1000090a:	441a      	add	r2, r3
1000090c:	eb7a 0000 	sbcs.w	r0, sl, r0
10000910:	eb01 04c2 	add.w	r4, r1, r2, lsl #3
10000914:	db04      	blt.n	10000920 <alarm_pool_irq_handler+0x160>
10000916:	f931 3032 	ldrsh.w	r3, [r1, r2, lsl #3]
1000091a:	46a4      	mov	ip, r4
1000091c:	2b00      	cmp	r3, #0
1000091e:	daec      	bge.n	100008fa <alarm_pool_irq_handler+0x13a>
10000920:	f828 3039 	strh.w	r3, [r8, r9, lsl #3]
10000924:	9b00      	ldr	r3, [sp, #0]
10000926:	f8ac 3000 	strh.w	r3, [ip]
1000092a:	88b3      	ldrh	r3, [r6, #4]
1000092c:	041c      	lsls	r4, r3, #16
1000092e:	f53f af6d 	bmi.w	1000080c <alarm_pool_irq_handler+0x4c>
10000932:	6933      	ldr	r3, [r6, #16]
10000934:	f3ef 8210 	mrs	r2, PRIMASK
10000938:	b672      	cpsid	i
1000093a:	e8d3 0fcf 	ldaexb	r0, [r3]
1000093e:	2101      	movs	r1, #1
10000940:	2800      	cmp	r0, #0
10000942:	d1fa      	bne.n	1000093a <alarm_pool_irq_handler+0x17a>
10000944:	e8c3 1f40 	strexb	r0, r1, [r3]
10000948:	2800      	cmp	r0, #0
1000094a:	d1f6      	bne.n	1000093a <alarm_pool_irq_handler+0x17a>
1000094c:	f3bf 8f5f 	dmb	sy
10000950:	f64f 74ff 	movw	r4, #65535	@ 0xffff
10000954:	88b0      	ldrh	r0, [r6, #4]
10000956:	2300      	movs	r3, #0
10000958:	6931      	ldr	r1, [r6, #16]
1000095a:	b200      	sxth	r0, r0
1000095c:	80b4      	strh	r4, [r6, #4]
1000095e:	e8c1 3f8f 	stlb	r3, [r1]
10000962:	f382 8810 	msr	PRIMASK, r2
10000966:	4298      	cmp	r0, r3
10000968:	f6ff af50 	blt.w	1000080c <alarm_pool_irq_handler+0x4c>
1000096c:	4607      	mov	r7, r0
1000096e:	46a9      	mov	r9, r5
10000970:	6974      	ldr	r4, [r6, #20]
10000972:	f106 0808 	add.w	r8, r6, #8
10000976:	eb07 0e47 	add.w	lr, r7, r7, lsl #1
1000097a:	eb04 03ce 	add.w	r3, r4, lr, lsl #3
1000097e:	e9d3 5002 	ldrd	r5, r0, [r3, #8]
10000982:	f9b6 3008 	ldrsh.w	r3, [r6, #8]
10000986:	46c4      	mov	ip, r8
10000988:	2b00      	cmp	r3, #0
1000098a:	db13      	blt.n	100009b4 <alarm_pool_irq_handler+0x1f4>
1000098c:	46b2      	mov	sl, r6
1000098e:	9700      	str	r7, [sp, #0]
10000990:	e004      	b.n	1000099c <alarm_pool_irq_handler+0x1dc>
10000992:	f934 3036 	ldrsh.w	r3, [r4, r6, lsl #3]
10000996:	4694      	mov	ip, r2
10000998:	2b00      	cmp	r3, #0
1000099a:	db09      	blt.n	100009b0 <alarm_pool_irq_handler+0x1f0>
1000099c:	eb03 0643 	add.w	r6, r3, r3, lsl #1
100009a0:	eb04 02c6 	add.w	r2, r4, r6, lsl #3
100009a4:	e9d2 7102 	ldrd	r7, r1, [r2, #8]
100009a8:	42bd      	cmp	r5, r7
100009aa:	eb70 0101 	sbcs.w	r1, r0, r1
100009ae:	daf0      	bge.n	10000992 <alarm_pool_irq_handler+0x1d2>
100009b0:	4656      	mov	r6, sl
100009b2:	9f00      	ldr	r7, [sp, #0]
100009b4:	f8ac 7000 	strh.w	r7, [ip]
100009b8:	f934 703e 	ldrsh.w	r7, [r4, lr, lsl #3]
100009bc:	f824 303e 	strh.w	r3, [r4, lr, lsl #3]
100009c0:	2f00      	cmp	r7, #0
100009c2:	dad8      	bge.n	10000976 <alarm_pool_irq_handler+0x1b6>
100009c4:	79b3      	ldrb	r3, [r6, #6]
100009c6:	464d      	mov	r5, r9
100009c8:	2b00      	cmp	r3, #0
100009ca:	f43f af23 	beq.w	10000814 <alarm_pool_irq_handler+0x54>
100009ce:	2300      	movs	r3, #0
100009d0:	71b3      	strb	r3, [r6, #6]
100009d2:	f9b6 3008 	ldrsh.w	r3, [r6, #8]
100009d6:	f106 0808 	add.w	r8, r6, #8
100009da:	1c58      	adds	r0, r3, #1
100009dc:	d03d      	beq.n	10000a5a <alarm_pool_irq_handler+0x29a>
100009de:	461a      	mov	r2, r3
100009e0:	6977      	ldr	r7, [r6, #20]
100009e2:	e003      	b.n	100009ec <alarm_pool_irq_handler+0x22c>
100009e4:	4680      	mov	r8, r0
100009e6:	1c59      	adds	r1, r3, #1
100009e8:	f43f af16 	beq.w	10000818 <alarm_pool_irq_handler+0x58>
100009ec:	eb03 0143 	add.w	r1, r3, r3, lsl #1
100009f0:	eb07 00c1 	add.w	r0, r7, r1, lsl #3
100009f4:	f8b0 c002 	ldrh.w	ip, [r0, #2]
100009f8:	461c      	mov	r4, r3
100009fa:	f41c 4f00 	tst.w	ip, #32768	@ 0x8000
100009fe:	469e      	mov	lr, r3
10000a00:	f937 3031 	ldrsh.w	r3, [r7, r1, lsl #3]
10000a04:	d0ee      	beq.n	100009e4 <alarm_pool_irq_handler+0x224>
10000a06:	4294      	cmp	r4, r2
10000a08:	ed80 8b02 	vstr	d8, [r0, #8]
10000a0c:	d005      	beq.n	10000a1a <alarm_pool_irq_handler+0x25a>
10000a0e:	f8a8 3000 	strh.w	r3, [r8]
10000a12:	8932      	ldrh	r2, [r6, #8]
10000a14:	f827 2031 	strh.w	r2, [r7, r1, lsl #3]
10000a18:	8134      	strh	r4, [r6, #8]
10000a1a:	4672      	mov	r2, lr
10000a1c:	e7e3      	b.n	100009e6 <alarm_pool_irq_handler+0x226>
10000a1e:	f838 3039 	ldrh.w	r3, [r8, r9, lsl #3]
10000a22:	8133      	strh	r3, [r6, #8]
10000a24:	6933      	ldr	r3, [r6, #16]
10000a26:	f3ef 8210 	mrs	r2, PRIMASK
10000a2a:	b672      	cpsid	i
10000a2c:	e8d3 0fcf 	ldaexb	r0, [r3]
10000a30:	2101      	movs	r1, #1
10000a32:	2800      	cmp	r0, #0
10000a34:	d1fa      	bne.n	10000a2c <alarm_pool_irq_handler+0x26c>
10000a36:	e8c3 1f40 	strexb	r0, r1, [r3]
10000a3a:	2800      	cmp	r0, #0
10000a3c:	d1f6      	bne.n	10000a2c <alarm_pool_irq_handler+0x26c>
10000a3e:	f3bf 8f5f 	dmb	sy
10000a42:	8873      	ldrh	r3, [r6, #2]
10000a44:	6931      	ldr	r1, [r6, #16]
10000a46:	f828 3039 	strh.w	r3, [r8, r9, lsl #3]
10000a4a:	9b00      	ldr	r3, [sp, #0]
10000a4c:	8073      	strh	r3, [r6, #2]
10000a4e:	2300      	movs	r3, #0
10000a50:	e8c1 3f8f 	stlb	r3, [r1]
10000a54:	f382 8810 	msr	PRIMASK, r2
10000a58:	e6d4      	b.n	10000804 <alarm_pool_irq_handler+0x44>
10000a5a:	bf40      	sev
10000a5c:	b005      	add	sp, #20
10000a5e:	ecbd 8b02 	vpop	{d8}
10000a62:	e8bd 8ff0 	ldmia.w	sp!, {r4, r5, r6, r7, r8, r9, sl, fp, pc}
10000a66:	4628      	mov	r0, r5
10000a68:	e9cd 2302 	strd	r2, r3, [sp, #8]
10000a6c:	f000 fa2e 	bl	10000ecc <timer_time_us_64>
10000a70:	9a02      	ldr	r2, [sp, #8]
10000a72:	9b03      	ldr	r3, [sp, #12]
10000a74:	eb10 0e02 	adds.w	lr, r0, r2
10000a78:	eb43 0a01 	adc.w	sl, r3, r1
10000a7c:	e726      	b.n	100008cc <alarm_pool_irq_handler+0x10c>
10000a7e:	4608      	mov	r0, r1
10000a80:	690b      	ldr	r3, [r1, #16]
10000a82:	9102      	str	r1, [sp, #8]
10000a84:	4798      	blx	r3
10000a86:	2800      	cmp	r0, #0
10000a88:	d0c9      	beq.n	10000a1e <alarm_pool_irq_handler+0x25e>
10000a8a:	9902      	ldr	r1, [sp, #8]
10000a8c:	e9d1 2300 	ldrd	r2, r3, [r1]
10000a90:	e711      	b.n	100008b6 <alarm_pool_irq_handler+0xf6>
10000a92:	bf00      	nop
10000a94:	f3af 8000 	nop.w
10000a98:	ffffffff 	.word	0xffffffff
10000a9c:	ffffffff 	.word	0xffffffff
10000aa0:	400b8000 	.word	0x400b8000
10000aa4:	20000830 	.word	0x20000830
10000aa8:	400b0000 	.word	0x400b0000
10000aac:	100007c1 	.word	0x100007c1

10000ab0 <runtime_init_default_alarm_pool>:
10000ab0:	e92d 4ff8 	stmdb	sp!, {r3, r4, r5, r6, r7, r8, r9, sl, fp, lr}
10000ab4:	4c36      	ldr	r4, [pc, #216]	@ (10000b90 <runtime_init_default_alarm_pool+0xe0>)
10000ab6:	6925      	ldr	r5, [r4, #16]
10000ab8:	b12d      	cbz	r5, 10000ac6 <runtime_init_default_alarm_pool+0x16>
10000aba:	e8bd 4ff8 	ldmia.w	sp!, {r3, r4, r5, r6, r7, r8, r9, sl, fp, lr}
10000abe:	210a      	movs	r1, #10
10000ac0:	4834      	ldr	r0, [pc, #208]	@ (10000b94 <runtime_init_default_alarm_pool+0xe4>)
10000ac2:	f7ff be31 	b.w	10000728 <lock_init>
10000ac6:	f8df 80e4 	ldr.w	r8, [pc, #228]	@ 10000bac <runtime_init_default_alarm_pool+0xfc>
10000aca:	2103      	movs	r1, #3
10000acc:	4640      	mov	r0, r8
10000ace:	f000 f9eb 	bl	10000ea8 <timer_hardware_alarm_claim>
10000ad2:	2603      	movs	r6, #3
10000ad4:	f8c4 800c 	str.w	r8, [r4, #12]
10000ad8:	f7ff fc38 	bl	1000034c <next_striped_spin_lock_num>
10000adc:	f04f 4c50 	mov.w	ip, #3489660928	@ 0xd0000000
10000ae0:	4b2d      	ldr	r3, [pc, #180]	@ (10000b98 <runtime_init_default_alarm_pool+0xe8>)
10000ae2:	7026      	strb	r6, [r4, #0]
10000ae4:	4403      	add	r3, r0
10000ae6:	6123      	str	r3, [r4, #16]
10000ae8:	f8dc 3000 	ldr.w	r3, [ip]
10000aec:	210f      	movs	r1, #15
10000aee:	7063      	strb	r3, [r4, #1]
10000af0:	6963      	ldr	r3, [r4, #20]
10000af2:	8061      	strh	r1, [r4, #2]
10000af4:	831d      	strh	r5, [r3, #24]
10000af6:	f04f 0504 	mov.w	r5, #4
10000afa:	f8a3 5078 	strh.w	r5, [r3, #120]	@ 0x78
10000afe:	f04f 0505 	mov.w	r5, #5
10000b02:	f8a3 5090 	strh.w	r5, [r3, #144]	@ 0x90
10000b06:	f04f 0506 	mov.w	r5, #6
10000b0a:	f8a3 50a8 	strh.w	r5, [r3, #168]	@ 0xa8
10000b0e:	f04f 0507 	mov.w	r5, #7
10000b12:	210e      	movs	r1, #14
10000b14:	f64f 72ff 	movw	r2, #65535	@ 0xffff
10000b18:	2708      	movs	r7, #8
10000b1a:	f04f 0e0a 	mov.w	lr, #10
10000b1e:	f8a3 50c0 	strh.w	r5, [r3, #192]	@ 0xc0
10000b22:	f04f 0901 	mov.w	r9, #1
10000b26:	f04f 0c0c 	mov.w	ip, #12
10000b2a:	f04f 0b02 	mov.w	fp, #2
10000b2e:	f04f 0a09 	mov.w	sl, #9
10000b32:	200d      	movs	r0, #13
10000b34:	f04f 050b 	mov.w	r5, #11
10000b38:	f8a3 1168 	strh.w	r1, [r3, #360]	@ 0x168
10000b3c:	4917      	ldr	r1, [pc, #92]	@ (10000b9c <runtime_init_default_alarm_pool+0xec>)
10000b3e:	80a2      	strh	r2, [r4, #4]
10000b40:	f8a3 e108 	strh.w	lr, [r3, #264]	@ 0x108
10000b44:	60a1      	str	r1, [r4, #8]
10000b46:	f8a3 b048 	strh.w	fp, [r3, #72]	@ 0x48
10000b4a:	f8a3 a0f0 	strh.w	sl, [r3, #240]	@ 0xf0
10000b4e:	f8a3 5120 	strh.w	r5, [r3, #288]	@ 0x120
10000b52:	f8a3 c138 	strh.w	ip, [r3, #312]	@ 0x138
10000b56:	f8a3 0150 	strh.w	r0, [r3, #336]	@ 0x150
10000b5a:	f8a3 9030 	strh.w	r9, [r3, #48]	@ 0x30
10000b5e:	f8a3 6060 	strh.w	r6, [r3, #96]	@ 0x60
10000b62:	f8a3 70d8 	strh.w	r7, [r3, #216]	@ 0xd8
10000b66:	801a      	strh	r2, [r3, #0]
10000b68:	4b0d      	ldr	r3, [pc, #52]	@ (10000ba0 <runtime_init_default_alarm_pool+0xf0>)
10000b6a:	4630      	mov	r0, r6
10000b6c:	f8c8 7020 	str.w	r7, [r8, #32]
10000b70:	490c      	ldr	r1, [pc, #48]	@ (10000ba4 <runtime_init_default_alarm_pool+0xf4>)
10000b72:	60dc      	str	r4, [r3, #12]
10000b74:	f7ff fc50 	bl	10000418 <irq_set_exclusive_handler>
10000b78:	4649      	mov	r1, r9
10000b7a:	4630      	mov	r0, r6
10000b7c:	f7ff fc26 	bl	100003cc <irq_set_enabled>
10000b80:	4b09      	ldr	r3, [pc, #36]	@ (10000ba8 <runtime_init_default_alarm_pool+0xf8>)
10000b82:	210a      	movs	r1, #10
10000b84:	641f      	str	r7, [r3, #64]	@ 0x40
10000b86:	4803      	ldr	r0, [pc, #12]	@ (10000b94 <runtime_init_default_alarm_pool+0xe4>)
10000b88:	e8bd 4ff8 	ldmia.w	sp!, {r3, r4, r5, r6, r7, r8, r9, sl, fp, lr}
10000b8c:	f7ff bdcc 	b.w	10000728 <lock_init>
10000b90:	200005f4 	.word	0x200005f4
10000b94:	20000850 	.word	0x20000850
10000b98:	200007b8 	.word	0x200007b8
10000b9c:	0010ffff 	.word	0x0010ffff
10000ba0:	20000830 	.word	0x20000830
10000ba4:	100007c1 	.word	0x100007c1
10000ba8:	400b2000 	.word	0x400b2000
10000bac:	400b0000 	.word	0x400b0000

10000bb0 <alarm_pool_add_alarm_at_force_in_context>:
10000bb0:	4601      	mov	r1, r0
10000bb2:	b5f0      	push	{r4, r5, r6, r7, lr}
10000bb4:	6900      	ldr	r0, [r0, #16]
10000bb6:	f3ef 8710 	mrs	r7, PRIMASK
10000bba:	b672      	cpsid	i
10000bbc:	e8d0 5fcf 	ldaexb	r5, [r0]
10000bc0:	2401      	movs	r4, #1
10000bc2:	2d00      	cmp	r5, #0
10000bc4:	d1fa      	bne.n	10000bbc <alarm_pool_add_alarm_at_force_in_context+0xc>
10000bc6:	e8c0 4f45 	strexb	r5, r4, [r0]
10000bca:	2d00      	cmp	r5, #0
10000bcc:	d1f6      	bne.n	10000bbc <alarm_pool_add_alarm_at_force_in_context+0xc>
10000bce:	f3bf 8f5f 	dmb	sy
10000bd2:	f9b1 e002 	ldrsh.w	lr, [r1, #2]
10000bd6:	694c      	ldr	r4, [r1, #20]
10000bd8:	eb0e 0c4e 	add.w	ip, lr, lr, lsl #1
10000bdc:	f1be 0f00 	cmp.w	lr, #0
10000be0:	ea4f 05cc 	mov.w	r5, ip, lsl #3
10000be4:	6908      	ldr	r0, [r1, #16]
10000be6:	eb04 0ccc 	add.w	ip, r4, ip, lsl #3
10000bea:	db3c      	blt.n	10000c66 <alarm_pool_add_alarm_at_force_in_context+0xb6>
10000bec:	5b66      	ldrh	r6, [r4, r5]
10000bee:	804e      	strh	r6, [r1, #2]
10000bf0:	2600      	movs	r6, #0
10000bf2:	e8c0 6f8f 	stlb	r6, [r0]
10000bf6:	f387 8810 	msr	PRIMASK, r7
10000bfa:	f8bc 0002 	ldrh.w	r0, [ip, #2]
10000bfe:	e9cc 2302 	strd	r2, r3, [ip, #8]
10000c02:	3001      	adds	r0, #1
10000c04:	f3c0 000e 	ubfx	r0, r0, #0, #15
10000c08:	2801      	cmp	r0, #1
10000c0a:	bf38      	it	cc
10000c0c:	2001      	movcc	r0, #1
10000c0e:	9b05      	ldr	r3, [sp, #20]
10000c10:	f8ac 0002 	strh.w	r0, [ip, #2]
10000c14:	f8cc 3010 	str.w	r3, [ip, #16]
10000c18:	9b06      	ldr	r3, [sp, #24]
10000c1a:	ea40 400e 	orr.w	r0, r0, lr, lsl #16
10000c1e:	f8cc 3014 	str.w	r3, [ip, #20]
10000c22:	690b      	ldr	r3, [r1, #16]
10000c24:	f3ef 8210 	mrs	r2, PRIMASK
10000c28:	b672      	cpsid	i
10000c2a:	e8d3 cfcf 	ldaexb	ip, [r3]
10000c2e:	2701      	movs	r7, #1
10000c30:	f1bc 0f00 	cmp.w	ip, #0
10000c34:	d1f9      	bne.n	10000c2a <alarm_pool_add_alarm_at_force_in_context+0x7a>
10000c36:	e8c3 7f4c 	strexb	ip, r7, [r3]
10000c3a:	f1bc 0f00 	cmp.w	ip, #0
10000c3e:	d1f4      	bne.n	10000c2a <alarm_pool_add_alarm_at_force_in_context+0x7a>
10000c40:	f3bf 8f5f 	dmb	sy
10000c44:	888b      	ldrh	r3, [r1, #4]
10000c46:	5363      	strh	r3, [r4, r5]
10000c48:	f8a1 e004 	strh.w	lr, [r1, #4]
10000c4c:	690b      	ldr	r3, [r1, #16]
10000c4e:	e8c3 6f8f 	stlb	r6, [r3]
10000c52:	f382 8810 	msr	PRIMASK, r2
10000c56:	2201      	movs	r2, #1
10000c58:	68cb      	ldr	r3, [r1, #12]
10000c5a:	7809      	ldrb	r1, [r1, #0]
10000c5c:	f503 5301 	add.w	r3, r3, #8256	@ 0x2040
10000c60:	408a      	lsls	r2, r1
10000c62:	605a      	str	r2, [r3, #4]
10000c64:	bdf0      	pop	{r4, r5, r6, r7, pc}
10000c66:	2300      	movs	r3, #0
10000c68:	e8c0 3f8f 	stlb	r3, [r0]
10000c6c:	f387 8810 	msr	PRIMASK, r7
10000c70:	f04f 30ff 	mov.w	r0, #4294967295
10000c74:	bdf0      	pop	{r4, r5, r6, r7, pc}
10000c76:	bf00      	nop

10000c78 <alarm_pool_cancel_alarm>:
10000c78:	4603      	mov	r3, r0
10000c7a:	8940      	ldrh	r0, [r0, #10]
10000c7c:	ebb0 4f21 	cmp.w	r0, r1, asr #16
10000c80:	dd37      	ble.n	10000cf2 <alarm_pool_cancel_alarm+0x7a>
10000c82:	6958      	ldr	r0, [r3, #20]
10000c84:	140a      	asrs	r2, r1, #16
10000c86:	eb02 0242 	add.w	r2, r2, r2, lsl #1
10000c8a:	b510      	push	{r4, lr}
10000c8c:	eb00 00c2 	add.w	r0, r0, r2, lsl #3
10000c90:	691c      	ldr	r4, [r3, #16]
10000c92:	f3ef 8c10 	mrs	ip, PRIMASK
10000c96:	b672      	cpsid	i
10000c98:	e8d4 efcf 	ldaexb	lr, [r4]
10000c9c:	2201      	movs	r2, #1
10000c9e:	f1be 0f00 	cmp.w	lr, #0
10000ca2:	d1f9      	bne.n	10000c98 <alarm_pool_cancel_alarm+0x20>
10000ca4:	e8c4 2f4e 	strexb	lr, r2, [r4]
10000ca8:	f1be 0f00 	cmp.w	lr, #0
10000cac:	d1f4      	bne.n	10000c98 <alarm_pool_cancel_alarm+0x20>
10000cae:	f3bf 8f5f 	dmb	sy
10000cb2:	8842      	ldrh	r2, [r0, #2]
10000cb4:	b289      	uxth	r1, r1
10000cb6:	b292      	uxth	r2, r2
10000cb8:	428a      	cmp	r2, r1
10000cba:	d007      	beq.n	10000ccc <alarm_pool_cancel_alarm+0x54>
10000cbc:	2200      	movs	r2, #0
10000cbe:	691b      	ldr	r3, [r3, #16]
10000cc0:	e8c3 2f8f 	stlb	r2, [r3]
10000cc4:	f38c 8810 	msr	PRIMASK, ip
10000cc8:	2000      	movs	r0, #0
10000cca:	bd10      	pop	{r4, pc}
10000ccc:	f442 4200 	orr.w	r2, r2, #32768	@ 0x8000
10000cd0:	8042      	strh	r2, [r0, #2]
10000cd2:	2101      	movs	r1, #1
10000cd4:	2200      	movs	r2, #0
10000cd6:	6918      	ldr	r0, [r3, #16]
10000cd8:	7199      	strb	r1, [r3, #6]
10000cda:	e8c0 2f8f 	stlb	r2, [r0]
10000cde:	f38c 8810 	msr	PRIMASK, ip
10000ce2:	781c      	ldrb	r4, [r3, #0]
10000ce4:	68da      	ldr	r2, [r3, #12]
10000ce6:	4608      	mov	r0, r1
10000ce8:	f502 5301 	add.w	r3, r2, #8256	@ 0x2040
10000cec:	40a1      	lsls	r1, r4
10000cee:	6059      	str	r1, [r3, #4]
10000cf0:	bd10      	pop	{r4, pc}
10000cf2:	2000      	movs	r0, #0
10000cf4:	4770      	bx	lr
10000cf6:	bf00      	nop

10000cf8 <sleep_ms>:
10000cf8:	e92d 41f0 	stmdb	sp!, {r4, r5, r6, r7, r8, lr}
10000cfc:	b082      	sub	sp, #8
10000cfe:	4606      	mov	r6, r0
10000d00:	f000 f8ec 	bl	10000edc <time_us_64>
10000d04:	f44f 737a 	mov.w	r3, #1000	@ 0x3e8
10000d08:	4604      	mov	r4, r0
10000d0a:	f04f 30ff 	mov.w	r0, #4294967295
10000d0e:	f06f 4200 	mvn.w	r2, #2147483648	@ 0x80000000
10000d12:	fbe6 4103 	umlal	r4, r1, r6, r3
10000d16:	42a0      	cmp	r0, r4
10000d18:	eb72 0301 	sbcs.w	r3, r2, r1
10000d1c:	bf3a      	itte	cc
10000d1e:	4604      	movcc	r4, r0
10000d20:	4615      	movcc	r5, r2
10000d22:	460d      	movcs	r5, r1
10000d24:	1fa6      	subs	r6, r4, #6
10000d26:	f145 37ff 	adc.w	r7, r5, #4294967295
10000d2a:	42b4      	cmp	r4, r6
10000d2c:	eb75 0307 	sbcs.w	r3, r5, r7
10000d30:	bf3c      	itt	cc
10000d32:	2600      	movcc	r6, #0
10000d34:	4637      	movcc	r7, r6
10000d36:	f000 f8d1 	bl	10000edc <time_us_64>
10000d3a:	1a30      	subs	r0, r6, r0
10000d3c:	eb67 0101 	sbc.w	r1, r7, r1
10000d40:	2801      	cmp	r0, #1
10000d42:	f171 0100 	sbcs.w	r1, r1, #0
10000d46:	da06      	bge.n	10000d56 <sleep_ms+0x5e>
10000d48:	4620      	mov	r0, r4
10000d4a:	4629      	mov	r1, r5
10000d4c:	b002      	add	sp, #8
10000d4e:	e8bd 41f0 	ldmia.w	sp!, {r4, r5, r6, r7, r8, lr}
10000d52:	f000 b8fb 	b.w	10000f4c <busy_wait_until>
10000d56:	f000 f8c1 	bl	10000edc <time_us_64>
10000d5a:	4286      	cmp	r6, r0
10000d5c:	eb67 0101 	sbc.w	r1, r7, r1
10000d60:	2900      	cmp	r1, #0
10000d62:	db0a      	blt.n	10000d7a <sleep_ms+0x82>
10000d64:	2100      	movs	r1, #0
10000d66:	4b17      	ldr	r3, [pc, #92]	@ (10000dc4 <sleep_ms+0xcc>)
10000d68:	4632      	mov	r2, r6
10000d6a:	9300      	str	r3, [sp, #0]
10000d6c:	4816      	ldr	r0, [pc, #88]	@ (10000dc8 <sleep_ms+0xd0>)
10000d6e:	463b      	mov	r3, r7
10000d70:	9101      	str	r1, [sp, #4]
10000d72:	f7ff ff1d 	bl	10000bb0 <alarm_pool_add_alarm_at_force_in_context>
10000d76:	3001      	adds	r0, #1
10000d78:	d0e6      	beq.n	10000d48 <sleep_ms+0x50>
10000d7a:	f04f 0c00 	mov.w	ip, #0
10000d7e:	4a13      	ldr	r2, [pc, #76]	@ (10000dcc <sleep_ms+0xd4>)
10000d80:	4913      	ldr	r1, [pc, #76]	@ (10000dd0 <sleep_ms+0xd8>)
10000d82:	6a53      	ldr	r3, [r2, #36]	@ 0x24
10000d84:	429f      	cmp	r7, r3
10000d86:	d804      	bhi.n	10000d92 <sleep_ms+0x9a>
10000d88:	6a90      	ldr	r0, [r2, #40]	@ 0x28
10000d8a:	42b0      	cmp	r0, r6
10000d8c:	d2dc      	bcs.n	10000d48 <sleep_ms+0x50>
10000d8e:	429f      	cmp	r7, r3
10000d90:	d1da      	bne.n	10000d48 <sleep_ms+0x50>
10000d92:	680b      	ldr	r3, [r1, #0]
10000d94:	f3ef 8010 	mrs	r0, PRIMASK
10000d98:	b672      	cpsid	i
10000d9a:	e8d3 8fcf 	ldaexb	r8, [r3]
10000d9e:	f05f 0e01 	movs.w	lr, #1
10000da2:	f1b8 0f00 	cmp.w	r8, #0
10000da6:	d1f8      	bne.n	10000d9a <sleep_ms+0xa2>
10000da8:	e8c3 ef48 	strexb	r8, lr, [r3]
10000dac:	f1b8 0f00 	cmp.w	r8, #0
10000db0:	d1f3      	bne.n	10000d9a <sleep_ms+0xa2>
10000db2:	f3bf 8f5f 	dmb	sy
10000db6:	680b      	ldr	r3, [r1, #0]
10000db8:	e8c3 cf8f 	stlb	ip, [r3]
10000dbc:	f380 8810 	msr	PRIMASK, r0
10000dc0:	bf20      	wfe
10000dc2:	e7de      	b.n	10000d82 <sleep_ms+0x8a>
10000dc4:	10000781 	.word	0x10000781
10000dc8:	200005f4 	.word	0x200005f4
10000dcc:	400b0000 	.word	0x400b0000
10000dd0:	20000850 	.word	0x20000850

10000dd4 <best_effort_wfe_or_timeout>:
10000dd4:	e92d 43f0 	stmdb	sp!, {r4, r5, r6, r7, r8, r9, lr}
10000dd8:	4606      	mov	r6, r0
10000dda:	460d      	mov	r5, r1
10000ddc:	b083      	sub	sp, #12
10000dde:	f3ef 8405 	mrs	r4, IPSR
10000de2:	b2e4      	uxtb	r4, r4
10000de4:	b13c      	cbz	r4, 10000df6 <best_effort_wfe_or_timeout+0x22>
10000de6:	4b2d      	ldr	r3, [pc, #180]	@ (10000e9c <best_effort_wfe_or_timeout+0xc8>)
10000de8:	6a5a      	ldr	r2, [r3, #36]	@ 0x24
10000dea:	42aa      	cmp	r2, r5
10000dec:	d21c      	bcs.n	10000e28 <best_effort_wfe_or_timeout+0x54>
10000dee:	2000      	movs	r0, #0
10000df0:	b003      	add	sp, #12
10000df2:	e8bd 83f0 	ldmia.w	sp!, {r4, r5, r6, r7, r8, r9, pc}
10000df6:	4f2a      	ldr	r7, [pc, #168]	@ (10000ea0 <best_effort_wfe_or_timeout+0xcc>)
10000df8:	f8d7 900c 	ldr.w	r9, [r7, #12]
10000dfc:	f897 8000 	ldrb.w	r8, [r7]
10000e00:	4648      	mov	r0, r9
10000e02:	f000 f863 	bl	10000ecc <timer_time_us_64>
10000e06:	f108 0804 	add.w	r8, r8, #4
10000e0a:	f859 3028 	ldr.w	r3, [r9, r8, lsl #2]
10000e0e:	1a1b      	subs	r3, r3, r0
10000e10:	1a30      	subs	r0, r6, r0
10000e12:	eb65 0101 	sbc.w	r1, r5, r1
10000e16:	4298      	cmp	r0, r3
10000e18:	f171 0100 	sbcs.w	r1, r1, #0
10000e1c:	db10      	blt.n	10000e40 <best_effort_wfe_or_timeout+0x6c>
10000e1e:	bf20      	wfe
10000e20:	4b1e      	ldr	r3, [pc, #120]	@ (10000e9c <best_effort_wfe_or_timeout+0xc8>)
10000e22:	6a5a      	ldr	r2, [r3, #36]	@ 0x24
10000e24:	42aa      	cmp	r2, r5
10000e26:	d3e2      	bcc.n	10000dee <best_effort_wfe_or_timeout+0x1a>
10000e28:	bf14      	ite	ne
10000e2a:	2401      	movne	r4, #1
10000e2c:	2400      	moveq	r4, #0
10000e2e:	6a9b      	ldr	r3, [r3, #40]	@ 0x28
10000e30:	42b3      	cmp	r3, r6
10000e32:	bf34      	ite	cc
10000e34:	4620      	movcc	r0, r4
10000e36:	f044 0001 	orrcs.w	r0, r4, #1
10000e3a:	b003      	add	sp, #12
10000e3c:	e8bd 83f0 	ldmia.w	sp!, {r4, r5, r6, r7, r8, r9, pc}
10000e40:	f000 f84c 	bl	10000edc <time_us_64>
10000e44:	4286      	cmp	r6, r0
10000e46:	eb65 0101 	sbc.w	r1, r5, r1
10000e4a:	2900      	cmp	r1, #0
10000e4c:	db14      	blt.n	10000e78 <best_effort_wfe_or_timeout+0xa4>
10000e4e:	4b15      	ldr	r3, [pc, #84]	@ (10000ea4 <best_effort_wfe_or_timeout+0xd0>)
10000e50:	4638      	mov	r0, r7
10000e52:	e9cd 3400 	strd	r3, r4, [sp]
10000e56:	4632      	mov	r2, r6
10000e58:	462b      	mov	r3, r5
10000e5a:	f7ff fea9 	bl	10000bb0 <alarm_pool_add_alarm_at_force_in_context>
10000e5e:	1e01      	subs	r1, r0, #0
10000e60:	dd0a      	ble.n	10000e78 <best_effort_wfe_or_timeout+0xa4>
10000e62:	4b0e      	ldr	r3, [pc, #56]	@ (10000e9c <best_effort_wfe_or_timeout+0xc8>)
10000e64:	6a5a      	ldr	r2, [r3, #36]	@ 0x24
10000e66:	42aa      	cmp	r2, r5
10000e68:	d316      	bcc.n	10000e98 <best_effort_wfe_or_timeout+0xc4>
10000e6a:	6a9b      	ldr	r3, [r3, #40]	@ 0x28
10000e6c:	42b3      	cmp	r3, r6
10000e6e:	d311      	bcc.n	10000e94 <best_effort_wfe_or_timeout+0xc0>
10000e70:	480b      	ldr	r0, [pc, #44]	@ (10000ea0 <best_effort_wfe_or_timeout+0xcc>)
10000e72:	f7ff ff01 	bl	10000c78 <alarm_pool_cancel_alarm>
10000e76:	e7b6      	b.n	10000de6 <best_effort_wfe_or_timeout+0x12>
10000e78:	4b08      	ldr	r3, [pc, #32]	@ (10000e9c <best_effort_wfe_or_timeout+0xc8>)
10000e7a:	6a5c      	ldr	r4, [r3, #36]	@ 0x24
10000e7c:	42ac      	cmp	r4, r5
10000e7e:	d3b6      	bcc.n	10000dee <best_effort_wfe_or_timeout+0x1a>
10000e80:	1b64      	subs	r4, r4, r5
10000e82:	bf18      	it	ne
10000e84:	2401      	movne	r4, #1
10000e86:	6a9b      	ldr	r3, [r3, #40]	@ 0x28
10000e88:	42b3      	cmp	r3, r6
10000e8a:	bf34      	ite	cc
10000e8c:	4620      	movcc	r0, r4
10000e8e:	f044 0001 	orrcs.w	r0, r4, #1
10000e92:	e7ad      	b.n	10000df0 <best_effort_wfe_or_timeout+0x1c>
10000e94:	42aa      	cmp	r2, r5
10000e96:	d1eb      	bne.n	10000e70 <best_effort_wfe_or_timeout+0x9c>
10000e98:	bf20      	wfe
10000e9a:	e7e9      	b.n	10000e70 <best_effort_wfe_or_timeout+0x9c>
10000e9c:	400b0000 	.word	0x400b0000
10000ea0:	200005f4 	.word	0x200005f4
10000ea4:	10000781 	.word	0x10000781

10000ea8 <timer_hardware_alarm_claim>:
10000ea8:	b410      	push	{r4}
10000eaa:	4b05      	ldr	r3, [pc, #20]	@ (10000ec0 <timer_hardware_alarm_claim+0x18>)
10000eac:	4c05      	ldr	r4, [pc, #20]	@ (10000ec4 <timer_hardware_alarm_claim+0x1c>)
10000eae:	4a06      	ldr	r2, [pc, #24]	@ (10000ec8 <timer_hardware_alarm_claim+0x20>)
10000eb0:	42a0      	cmp	r0, r4
10000eb2:	bf14      	ite	ne
10000eb4:	4618      	movne	r0, r3
10000eb6:	1c58      	addeq	r0, r3, #1
10000eb8:	f85d 4b04 	ldr.w	r4, [sp], #4
10000ebc:	f7ff ba1a 	b.w	100002f4 <hw_claim_or_assert>
10000ec0:	200007e0 	.word	0x200007e0
10000ec4:	400b8000 	.word	0x400b8000
10000ec8:	1000376c 	.word	0x1000376c

10000ecc <timer_time_us_64>:
10000ecc:	4603      	mov	r3, r0
10000ece:	6a41      	ldr	r1, [r0, #36]	@ 0x24
10000ed0:	460a      	mov	r2, r1
10000ed2:	6a98      	ldr	r0, [r3, #40]	@ 0x28
10000ed4:	6a59      	ldr	r1, [r3, #36]	@ 0x24
10000ed6:	428a      	cmp	r2, r1
10000ed8:	d1fa      	bne.n	10000ed0 <timer_time_us_64+0x4>
10000eda:	4770      	bx	lr

10000edc <time_us_64>:
10000edc:	4b03      	ldr	r3, [pc, #12]	@ (10000eec <time_us_64+0x10>)
10000ede:	6a59      	ldr	r1, [r3, #36]	@ 0x24
10000ee0:	460a      	mov	r2, r1
10000ee2:	6a98      	ldr	r0, [r3, #40]	@ 0x28
10000ee4:	6a59      	ldr	r1, [r3, #36]	@ 0x24
10000ee6:	4291      	cmp	r1, r2
10000ee8:	d1fa      	bne.n	10000ee0 <time_us_64+0x4>
10000eea:	4770      	bx	lr
10000eec:	400b0000 	.word	0x400b0000

10000ef0 <busy_wait_us>:
10000ef0:	b430      	push	{r4, r5}
10000ef2:	4a15      	ldr	r2, [pc, #84]	@ (10000f48 <busy_wait_us+0x58>)
10000ef4:	6a53      	ldr	r3, [r2, #36]	@ 0x24
10000ef6:	469c      	mov	ip, r3
10000ef8:	6a94      	ldr	r4, [r2, #40]	@ 0x28
10000efa:	6a53      	ldr	r3, [r2, #36]	@ 0x24
10000efc:	4563      	cmp	r3, ip
10000efe:	d1fa      	bne.n	10000ef6 <busy_wait_us+0x6>
10000f00:	1902      	adds	r2, r0, r4
10000f02:	4159      	adcs	r1, r3
10000f04:	f04f 0500 	mov.w	r5, #0
10000f08:	bf28      	it	cs
10000f0a:	2501      	movcs	r5, #1
10000f0c:	4b0e      	ldr	r3, [pc, #56]	@ (10000f48 <busy_wait_us+0x58>)
10000f0e:	6a5b      	ldr	r3, [r3, #36]	@ 0x24
10000f10:	b1b5      	cbz	r5, 10000f40 <busy_wait_us+0x50>
10000f12:	1c5a      	adds	r2, r3, #1
10000f14:	bf08      	it	eq
10000f16:	461a      	moveq	r2, r3
10000f18:	d008      	beq.n	10000f2c <busy_wait_us+0x3c>
10000f1a:	f04f 31ff 	mov.w	r1, #4294967295
10000f1e:	460a      	mov	r2, r1
10000f20:	4809      	ldr	r0, [pc, #36]	@ (10000f48 <busy_wait_us+0x58>)
10000f22:	6a43      	ldr	r3, [r0, #36]	@ 0x24
10000f24:	428b      	cmp	r3, r1
10000f26:	d3fc      	bcc.n	10000f22 <busy_wait_us+0x32>
10000f28:	428b      	cmp	r3, r1
10000f2a:	d107      	bne.n	10000f3c <busy_wait_us+0x4c>
10000f2c:	4906      	ldr	r1, [pc, #24]	@ (10000f48 <busy_wait_us+0x58>)
10000f2e:	e002      	b.n	10000f36 <busy_wait_us+0x46>
10000f30:	6a48      	ldr	r0, [r1, #36]	@ 0x24
10000f32:	4298      	cmp	r0, r3
10000f34:	d102      	bne.n	10000f3c <busy_wait_us+0x4c>
10000f36:	6a88      	ldr	r0, [r1, #40]	@ 0x28
10000f38:	4290      	cmp	r0, r2
10000f3a:	d3f9      	bcc.n	10000f30 <busy_wait_us+0x40>
10000f3c:	bc30      	pop	{r4, r5}
10000f3e:	4770      	bx	lr
10000f40:	4299      	cmp	r1, r3
10000f42:	d8ed      	bhi.n	10000f20 <busy_wait_us+0x30>
10000f44:	e7f0      	b.n	10000f28 <busy_wait_us+0x38>
10000f46:	bf00      	nop
10000f48:	400b0000 	.word	0x400b0000

10000f4c <busy_wait_until>:
10000f4c:	4a07      	ldr	r2, [pc, #28]	@ (10000f6c <busy_wait_until+0x20>)
10000f4e:	6a53      	ldr	r3, [r2, #36]	@ 0x24
10000f50:	4299      	cmp	r1, r3
10000f52:	d8fc      	bhi.n	10000f4e <busy_wait_until+0x2>
10000f54:	4299      	cmp	r1, r3
10000f56:	d107      	bne.n	10000f68 <busy_wait_until+0x1c>
10000f58:	4b04      	ldr	r3, [pc, #16]	@ (10000f6c <busy_wait_until+0x20>)
10000f5a:	e002      	b.n	10000f62 <busy_wait_until+0x16>
10000f5c:	6a5a      	ldr	r2, [r3, #36]	@ 0x24
10000f5e:	4291      	cmp	r1, r2
10000f60:	d102      	bne.n	10000f68 <busy_wait_until+0x1c>
10000f62:	6a9a      	ldr	r2, [r3, #40]	@ 0x28
10000f64:	4290      	cmp	r0, r2
10000f66:	d8f9      	bhi.n	10000f5c <busy_wait_until+0x10>
10000f68:	4770      	bx	lr
10000f6a:	bf00      	nop
10000f6c:	400b0000 	.word	0x400b0000

10000f70 <uart_init>:
10000f70:	b5f8      	push	{r3, r4, r5, r6, r7, lr}
10000f72:	4605      	mov	r5, r0
10000f74:	2006      	movs	r0, #6
10000f76:	460e      	mov	r6, r1
10000f78:	f000 f8e4 	bl	10001144 <clock_get_hz>
10000f7c:	2800      	cmp	r0, #0
10000f7e:	d042      	beq.n	10001006 <uart_init+0x96>
10000f80:	4a35      	ldr	r2, [pc, #212]	@ (10001058 <uart_init+0xe8>)
10000f82:	4836      	ldr	r0, [pc, #216]	@ (1000105c <uart_init+0xec>)
10000f84:	4295      	cmp	r5, r2
10000f86:	bf14      	ite	ne
10000f88:	f04f 6280 	movne.w	r2, #67108864	@ 0x4000000
10000f8c:	f04f 6200 	moveq.w	r2, #134217728	@ 0x8000000
10000f90:	4b33      	ldr	r3, [pc, #204]	@ (10001060 <uart_init+0xf0>)
10000f92:	4934      	ldr	r1, [pc, #208]	@ (10001064 <uart_init+0xf4>)
10000f94:	6002      	str	r2, [r0, #0]
10000f96:	601a      	str	r2, [r3, #0]
10000f98:	688c      	ldr	r4, [r1, #8]
10000f9a:	ea32 0404 	bics.w	r4, r2, r4
10000f9e:	d1fb      	bne.n	10000f98 <uart_init+0x28>
10000fa0:	4b2d      	ldr	r3, [pc, #180]	@ (10001058 <uart_init+0xe8>)
10000fa2:	f44f 7180 	mov.w	r1, #256	@ 0x100
10000fa6:	1aeb      	subs	r3, r5, r3
10000fa8:	fab3 f383 	clz	r3, r3
10000fac:	4a2e      	ldr	r2, [pc, #184]	@ (10001068 <uart_init+0xf8>)
10000fae:	095b      	lsrs	r3, r3, #5
10000fb0:	2006      	movs	r0, #6
10000fb2:	f822 1013 	strh.w	r1, [r2, r3, lsl #1]
10000fb6:	f000 f8c5 	bl	10001144 <clock_get_hz>
10000fba:	00c3      	lsls	r3, r0, #3
10000fbc:	fbb3 f3f6 	udiv	r3, r3, r6
10000fc0:	3301      	adds	r3, #1
10000fc2:	09da      	lsrs	r2, r3, #7
10000fc4:	d120      	bne.n	10001008 <uart_init+0x98>
10000fc6:	2640      	movs	r6, #64	@ 0x40
10000fc8:	2101      	movs	r1, #1
10000fca:	6269      	str	r1, [r5, #36]	@ 0x24
10000fcc:	62aa      	str	r2, [r5, #40]	@ 0x28
10000fce:	6b2f      	ldr	r7, [r5, #48]	@ 0x30
10000fd0:	07fb      	lsls	r3, r7, #31
10000fd2:	d422      	bmi.n	1000101a <uart_init+0xaa>
10000fd4:	462b      	mov	r3, r5
10000fd6:	2200      	movs	r2, #0
10000fd8:	f853 1f2c 	ldr.w	r1, [r3, #44]!
10000fdc:	2006      	movs	r0, #6
10000fde:	f503 5480 	add.w	r4, r3, #4096	@ 0x1000
10000fe2:	6022      	str	r2, [r4, #0]
10000fe4:	632f      	str	r7, [r5, #48]	@ 0x30
10000fe6:	f000 f8ad 	bl	10001144 <clock_get_hz>
10000fea:	f240 3101 	movw	r1, #769	@ 0x301
10000fee:	2203      	movs	r2, #3
10000ff0:	0080      	lsls	r0, r0, #2
10000ff2:	fbb0 f0f6 	udiv	r0, r0, r6
10000ff6:	6aeb      	ldr	r3, [r5, #44]	@ 0x2c
10000ff8:	f083 0370 	eor.w	r3, r3, #112	@ 0x70
10000ffc:	f003 037e 	and.w	r3, r3, #126	@ 0x7e
10001000:	6023      	str	r3, [r4, #0]
10001002:	6329      	str	r1, [r5, #48]	@ 0x30
10001004:	64aa      	str	r2, [r5, #72]	@ 0x48
10001006:	bdf8      	pop	{r3, r4, r5, r6, r7, pc}
10001008:	f64f 71fe 	movw	r1, #65534	@ 0xfffe
1000100c:	428a      	cmp	r2, r1
1000100e:	d91b      	bls.n	10001048 <uart_init+0xd8>
10001010:	4622      	mov	r2, r4
10001012:	f64f 71ff 	movw	r1, #65535	@ 0xffff
10001016:	4e15      	ldr	r6, [pc, #84]	@ (1000106c <uart_init+0xfc>)
10001018:	e7d7      	b.n	10000fca <uart_init+0x5a>
1000101a:	f240 3201 	movw	r2, #769	@ 0x301
1000101e:	f505 5340 	add.w	r3, r5, #12288	@ 0x3000
10001022:	631a      	str	r2, [r3, #48]	@ 0x30
10001024:	6a6b      	ldr	r3, [r5, #36]	@ 0x24
10001026:	6aac      	ldr	r4, [r5, #40]	@ 0x28
10001028:	2006      	movs	r0, #6
1000102a:	eb04 1483 	add.w	r4, r4, r3, lsl #6
1000102e:	f000 f889 	bl	10001144 <clock_get_hz>
10001032:	4b0f      	ldr	r3, [pc, #60]	@ (10001070 <uart_init+0x100>)
10001034:	02a4      	lsls	r4, r4, #10
10001036:	fba3 2300 	umull	r2, r3, r3, r0
1000103a:	0adb      	lsrs	r3, r3, #11
1000103c:	2100      	movs	r1, #0
1000103e:	fbb4 f0f3 	udiv	r0, r4, r3
10001042:	f7ff ff55 	bl	10000ef0 <busy_wait_us>
10001046:	e7c5      	b.n	10000fd4 <uart_init+0x64>
10001048:	f3c3 0345 	ubfx	r3, r3, #1, #6
1000104c:	4611      	mov	r1, r2
1000104e:	eb03 1682 	add.w	r6, r3, r2, lsl #6
10001052:	461a      	mov	r2, r3
10001054:	e7b9      	b.n	10000fca <uart_init+0x5a>
10001056:	bf00      	nop
10001058:	40078000 	.word	0x40078000
1000105c:	40022000 	.word	0x40022000
10001060:	40023000 	.word	0x40023000
10001064:	40020000 	.word	0x40020000
10001068:	20000854 	.word	0x20000854
1000106c:	003fffc0 	.word	0x003fffc0
10001070:	8f2b7b75 	.word	0x8f2b7b75

10001074 <clock_configure_undivided>:
10001074:	eb00 0c40 	add.w	ip, r0, r0, lsl #1
10001078:	ea4f 0c8c 	mov.w	ip, ip, lsl #2
1000107c:	f10c 4c80 	add.w	ip, ip, #1073741824	@ 0x40000000
10001080:	f50c 3c80 	add.w	ip, ip, #65536	@ 0x10000
10001084:	b5f0      	push	{r4, r5, r6, r7, lr}
10001086:	4616      	mov	r6, r2
10001088:	f8dc 2004 	ldr.w	r2, [ip, #4]
1000108c:	1f05      	subs	r5, r0, #4
1000108e:	f5b2 3f80 	cmp.w	r2, #65536	@ 0x10000
10001092:	bf38      	it	cc
10001094:	f44f 3280 	movcc.w	r2, #65536	@ 0x10000
10001098:	b2ed      	uxtb	r5, r5
1000109a:	bf38      	it	cc
1000109c:	f8cc 2004 	strcc.w	r2, [ip, #4]
100010a0:	2d01      	cmp	r5, #1
100010a2:	d92a      	bls.n	100010fa <clock_configure_undivided+0x86>
100010a4:	f44f 6700 	mov.w	r7, #2048	@ 0x800
100010a8:	4c25      	ldr	r4, [pc, #148]	@ (10001140 <clock_configure_undivided+0xcc>)
100010aa:	f50c 5240 	add.w	r2, ip, #12288	@ 0x3000
100010ae:	6017      	str	r7, [r2, #0]
100010b0:	f854 2020 	ldr.w	r2, [r4, r0, lsl #2]
100010b4:	b9b2      	cbnz	r2, 100010e4 <clock_configure_undivided+0x70>
100010b6:	f8dc 2000 	ldr.w	r2, [ip]
100010ba:	2d01      	cmp	r5, #1
100010bc:	ea82 1246 	eor.w	r2, r2, r6, lsl #5
100010c0:	f002 02e0 	and.w	r2, r2, #224	@ 0xe0
100010c4:	f50c 5680 	add.w	r6, ip, #4096	@ 0x1000
100010c8:	6032      	str	r2, [r6, #0]
100010ca:	d92a      	bls.n	10001122 <clock_configure_undivided+0xae>
100010cc:	f44f 6100 	mov.w	r1, #2048	@ 0x800
100010d0:	f844 3020 	str.w	r3, [r4, r0, lsl #2]
100010d4:	f44f 3380 	mov.w	r3, #65536	@ 0x10000
100010d8:	f50c 5200 	add.w	r2, ip, #8192	@ 0x2000
100010dc:	6011      	str	r1, [r2, #0]
100010de:	f8cc 3004 	str.w	r3, [ip, #4]
100010e2:	bdf0      	pop	{r4, r5, r6, r7, pc}
100010e4:	6967      	ldr	r7, [r4, #20]
100010e6:	fbb7 fef2 	udiv	lr, r7, r2
100010ea:	f10e 0e01 	add.w	lr, lr, #1
100010ee:	eb0e 0e4e 	add.w	lr, lr, lr, lsl #1
100010f2:	f1be 0e03 	subs.w	lr, lr, #3
100010f6:	d2fc      	bcs.n	100010f2 <clock_configure_undivided+0x7e>
100010f8:	e7dd      	b.n	100010b6 <clock_configure_undivided+0x42>
100010fa:	2901      	cmp	r1, #1
100010fc:	d1d2      	bne.n	100010a4 <clock_configure_undivided+0x30>
100010fe:	2403      	movs	r4, #3
10001100:	f50c 5240 	add.w	r2, ip, #12288	@ 0x3000
10001104:	6014      	str	r4, [r2, #0]
10001106:	f8dc 2008 	ldr.w	r2, [ip, #8]
1000110a:	07d2      	lsls	r2, r2, #31
1000110c:	d5fb      	bpl.n	10001106 <clock_configure_undivided+0x92>
1000110e:	f8dc 2000 	ldr.w	r2, [ip]
10001112:	4c0b      	ldr	r4, [pc, #44]	@ (10001140 <clock_configure_undivided+0xcc>)
10001114:	ea82 1246 	eor.w	r2, r2, r6, lsl #5
10001118:	f002 02e0 	and.w	r2, r2, #224	@ 0xe0
1000111c:	f50c 5680 	add.w	r6, ip, #4096	@ 0x1000
10001120:	6032      	str	r2, [r6, #0]
10001122:	2201      	movs	r2, #1
10001124:	f8dc 5000 	ldr.w	r5, [ip]
10001128:	404d      	eors	r5, r1
1000112a:	f005 0503 	and.w	r5, r5, #3
1000112e:	6035      	str	r5, [r6, #0]
10001130:	fa02 f101 	lsl.w	r1, r2, r1
10001134:	f8dc 2008 	ldr.w	r2, [ip, #8]
10001138:	420a      	tst	r2, r1
1000113a:	d0fb      	beq.n	10001134 <clock_configure_undivided+0xc0>
1000113c:	e7c6      	b.n	100010cc <clock_configure_undivided+0x58>
1000113e:	bf00      	nop
10001140:	200007e4 	.word	0x200007e4

10001144 <clock_get_hz>:
10001144:	4b01      	ldr	r3, [pc, #4]	@ (1000114c <clock_get_hz+0x8>)
10001146:	f853 0020 	ldr.w	r0, [r3, r0, lsl #2]
1000114a:	4770      	bx	lr
1000114c:	200007e4 	.word	0x200007e4

10001150 <pll_init>:
10001150:	b470      	push	{r4, r5, r6}
10001152:	9d03      	ldr	r5, [sp, #12]
10001154:	6804      	ldr	r4, [r0, #0]
10001156:	032d      	lsls	r5, r5, #12
10001158:	ea45 4503 	orr.w	r5, r5, r3, lsl #16
1000115c:	4b1b      	ldr	r3, [pc, #108]	@ (100011cc <pll_init+0x7c>)
1000115e:	2c00      	cmp	r4, #0
10001160:	fbb3 f3f1 	udiv	r3, r3, r1
10001164:	fbb2 f6f3 	udiv	r6, r2, r3
10001168:	db1f      	blt.n	100011aa <pll_init+0x5a>
1000116a:	4a19      	ldr	r2, [pc, #100]	@ (100011d0 <pll_init+0x80>)
1000116c:	4b19      	ldr	r3, [pc, #100]	@ (100011d4 <pll_init+0x84>)
1000116e:	4290      	cmp	r0, r2
10001170:	bf14      	ite	ne
10001172:	f44f 4280 	movne.w	r2, #16384	@ 0x4000
10001176:	f44f 4200 	moveq.w	r2, #32768	@ 0x8000
1000117a:	4c17      	ldr	r4, [pc, #92]	@ (100011d8 <pll_init+0x88>)
1000117c:	601a      	str	r2, [r3, #0]
1000117e:	f503 5380 	add.w	r3, r3, #4096	@ 0x1000
10001182:	601a      	str	r2, [r3, #0]
10001184:	68a3      	ldr	r3, [r4, #8]
10001186:	ea32 0303 	bics.w	r3, r2, r3
1000118a:	d1fb      	bne.n	10001184 <pll_init+0x34>
1000118c:	2221      	movs	r2, #33	@ 0x21
1000118e:	f500 5340 	add.w	r3, r0, #12288	@ 0x3000
10001192:	3304      	adds	r3, #4
10001194:	6001      	str	r1, [r0, #0]
10001196:	6086      	str	r6, [r0, #8]
10001198:	601a      	str	r2, [r3, #0]
1000119a:	6802      	ldr	r2, [r0, #0]
1000119c:	2a00      	cmp	r2, #0
1000119e:	dafc      	bge.n	1000119a <pll_init+0x4a>
100011a0:	2208      	movs	r2, #8
100011a2:	60c5      	str	r5, [r0, #12]
100011a4:	601a      	str	r2, [r3, #0]
100011a6:	bc70      	pop	{r4, r5, r6}
100011a8:	4770      	bx	lr
100011aa:	6803      	ldr	r3, [r0, #0]
100011ac:	f003 033f 	and.w	r3, r3, #63	@ 0x3f
100011b0:	428b      	cmp	r3, r1
100011b2:	d1da      	bne.n	1000116a <pll_init+0x1a>
100011b4:	6883      	ldr	r3, [r0, #8]
100011b6:	f3c3 030b 	ubfx	r3, r3, #0, #12
100011ba:	42b3      	cmp	r3, r6
100011bc:	d1d5      	bne.n	1000116a <pll_init+0x1a>
100011be:	68c3      	ldr	r3, [r0, #12]
100011c0:	f403 23ee 	and.w	r3, r3, #487424	@ 0x77000
100011c4:	42ab      	cmp	r3, r5
100011c6:	d1d0      	bne.n	1000116a <pll_init+0x1a>
100011c8:	e7ed      	b.n	100011a6 <pll_init+0x56>
100011ca:	bf00      	nop
100011cc:	00b71b00 	.word	0x00b71b00
100011d0:	40058000 	.word	0x40058000
100011d4:	40022000 	.word	0x40022000
100011d8:	40020000 	.word	0x40020000

100011dc <tick_start>:
100011dc:	2301      	movs	r3, #1
100011de:	eb00 0040 	add.w	r0, r0, r0, lsl #1
100011e2:	0080      	lsls	r0, r0, #2
100011e4:	f100 4080 	add.w	r0, r0, #1073741824	@ 0x40000000
100011e8:	f500 1084 	add.w	r0, r0, #1081344	@ 0x108000
100011ec:	6041      	str	r1, [r0, #4]
100011ee:	6003      	str	r3, [r0, #0]
100011f0:	4770      	bx	lr
100011f2:	bf00      	nop

100011f4 <rom_func_lookup>:
100011f4:	2300      	movs	r3, #0
100011f6:	8adb      	ldrh	r3, [r3, #22]
100011f8:	2200      	movs	r2, #0
100011fa:	e842 f200 	tt	r2, r2
100011fe:	0252      	lsls	r2, r2, #9
10001200:	d401      	bmi.n	10001206 <rom_func_lookup+0x12>
10001202:	2110      	movs	r1, #16
10001204:	4718      	bx	r3
10001206:	2104      	movs	r1, #4
10001208:	4718      	bx	r3
1000120a:	bf00      	nop

1000120c <runtime_init_bootrom_locking_enable>:
1000120c:	4a03      	ldr	r2, [pc, #12]	@ (1000121c <runtime_init_bootrom_locking_enable+0x10>)
1000120e:	f8d2 3828 	ldr.w	r3, [r2, #2088]	@ 0x828
10001212:	2b00      	cmp	r3, #0
10001214:	d0fb      	beq.n	1000120e <runtime_init_bootrom_locking_enable+0x2>
10001216:	f3bf 8f5f 	dmb	sy
1000121a:	4770      	bx	lr
1000121c:	400e0000 	.word	0x400e0000

10001220 <runtime_init_boot_locks_reset>:
10001220:	2100      	movs	r1, #0
10001222:	4b04      	ldr	r3, [pc, #16]	@ (10001234 <runtime_init_boot_locks_reset+0x14>)
10001224:	4a04      	ldr	r2, [pc, #16]	@ (10001238 <runtime_init_boot_locks_reset+0x18>)
10001226:	f3bf 8f5f 	dmb	sy
1000122a:	f843 1b04 	str.w	r1, [r3], #4
1000122e:	4293      	cmp	r3, r2
10001230:	d1f9      	bne.n	10001226 <runtime_init_boot_locks_reset+0x6>
10001232:	4770      	bx	lr
10001234:	400e080c 	.word	0x400e080c
10001238:	400e082c 	.word	0x400e082c

1000123c <xosc_init>:
1000123c:	b410      	push	{r4}
1000123e:	f44f 708d 	mov.w	r0, #282	@ 0x11a
10001242:	f44f 642a 	mov.w	r4, #2720	@ 0xaa0
10001246:	4a06      	ldr	r2, [pc, #24]	@ (10001260 <xosc_init+0x24>)
10001248:	4b06      	ldr	r3, [pc, #24]	@ (10001264 <xosc_init+0x28>)
1000124a:	4907      	ldr	r1, [pc, #28]	@ (10001268 <xosc_init+0x2c>)
1000124c:	6014      	str	r4, [r2, #0]
1000124e:	60d0      	str	r0, [r2, #12]
10001250:	6019      	str	r1, [r3, #0]
10001252:	6853      	ldr	r3, [r2, #4]
10001254:	2b00      	cmp	r3, #0
10001256:	dafc      	bge.n	10001252 <xosc_init+0x16>
10001258:	f85d 4b04 	ldr.w	r4, [sp], #4
1000125c:	4770      	bx	lr
1000125e:	bf00      	nop
10001260:	40048000 	.word	0x40048000
10001264:	4004a000 	.word	0x4004a000
10001268:	00fab000 	.word	0x00fab000

1000126c <first_per_core_initializer>:
1000126c:	4770      	bx	lr
1000126e:	bf00      	nop

10001270 <hard_assertion_failure>:
10001270:	b508      	push	{r3, lr}
10001272:	4801      	ldr	r0, [pc, #4]	@ (10001278 <hard_assertion_failure+0x8>)
10001274:	f7ff f826 	bl	100002c4 <panic>
10001278:	10003790 	.word	0x10003790

1000127c <runtime_run_initializers>:
1000127c:	b538      	push	{r3, r4, r5, lr}
1000127e:	4c05      	ldr	r4, [pc, #20]	@ (10001294 <runtime_run_initializers+0x18>)
10001280:	4d05      	ldr	r5, [pc, #20]	@ (10001298 <runtime_run_initializers+0x1c>)
10001282:	42ac      	cmp	r4, r5
10001284:	d204      	bcs.n	10001290 <runtime_run_initializers+0x14>
10001286:	f854 3b04 	ldr.w	r3, [r4], #4
1000128a:	4798      	blx	r3
1000128c:	42ac      	cmp	r4, r5
1000128e:	d3fa      	bcc.n	10001286 <runtime_run_initializers+0xa>
10001290:	bd38      	pop	{r3, r4, r5, pc}
10001292:	bf00      	nop
10001294:	100036e8 	.word	0x100036e8
10001298:	10003728 	.word	0x10003728

1000129c <runtime_run_per_core_initializers>:
1000129c:	b538      	push	{r3, r4, r5, lr}
1000129e:	4c05      	ldr	r4, [pc, #20]	@ (100012b4 <runtime_run_per_core_initializers+0x18>)
100012a0:	4d05      	ldr	r5, [pc, #20]	@ (100012b8 <runtime_run_per_core_initializers+0x1c>)
100012a2:	42ac      	cmp	r4, r5
100012a4:	d204      	bcs.n	100012b0 <runtime_run_per_core_initializers+0x14>
100012a6:	f854 3b04 	ldr.w	r3, [r4], #4
100012aa:	4798      	blx	r3
100012ac:	42ac      	cmp	r4, r5
100012ae:	d3fa      	bcc.n	100012a6 <runtime_run_per_core_initializers+0xa>
100012b0:	bd38      	pop	{r3, r4, r5, pc}
100012b2:	bf00      	nop
100012b4:	10003714 	.word	0x10003714
100012b8:	10003728 	.word	0x10003728

100012bc <runtime_init_early_resets>:
100012bc:	b410      	push	{r4}
100012be:	4807      	ldr	r0, [pc, #28]	@ (100012dc <runtime_init_early_resets+0x20>)
100012c0:	4c07      	ldr	r4, [pc, #28]	@ (100012e0 <runtime_init_early_resets+0x24>)
100012c2:	4b08      	ldr	r3, [pc, #32]	@ (100012e4 <runtime_init_early_resets+0x28>)
100012c4:	4a08      	ldr	r2, [pc, #32]	@ (100012e8 <runtime_init_early_resets+0x2c>)
100012c6:	4909      	ldr	r1, [pc, #36]	@ (100012ec <runtime_init_early_resets+0x30>)
100012c8:	6004      	str	r4, [r0, #0]
100012ca:	601a      	str	r2, [r3, #0]
100012cc:	688b      	ldr	r3, [r1, #8]
100012ce:	ea32 0303 	bics.w	r3, r2, r3
100012d2:	d1fb      	bne.n	100012cc <runtime_init_early_resets+0x10>
100012d4:	f85d 4b04 	ldr.w	r4, [sp], #4
100012d8:	4770      	bx	lr
100012da:	bf00      	nop
100012dc:	40022000 	.word	0x40022000
100012e0:	efef3b7f 	.word	0xefef3b7f
100012e4:	40023000 	.word	0x40023000
100012e8:	03f3fff6 	.word	0x03f3fff6
100012ec:	40020000 	.word	0x40020000

100012f0 <runtime_init_usb_power_down>:
100012f0:	4b04      	ldr	r3, [pc, #16]	@ (10001304 <runtime_init_usb_power_down+0x14>)
100012f2:	6cdb      	ldr	r3, [r3, #76]	@ 0x4c
100012f4:	f5b3 4f00 	cmp.w	r3, #32768	@ 0x8000
100012f8:	d103      	bne.n	10001302 <runtime_init_usb_power_down+0x12>
100012fa:	f44f 2280 	mov.w	r2, #262144	@ 0x40000
100012fe:	4b02      	ldr	r3, [pc, #8]	@ (10001308 <runtime_init_usb_power_down+0x18>)
10001300:	64da      	str	r2, [r3, #76]	@ 0x4c
10001302:	4770      	bx	lr
10001304:	50110000 	.word	0x50110000
10001308:	50112000 	.word	0x50112000

1000130c <runtime_init_per_core_enable_coprocessors>:
1000130c:	f04f 22e0 	mov.w	r2, #3758153728	@ 0xe000e000
10001310:	4b04      	ldr	r3, [pc, #16]	@ (10001324 <runtime_init_per_core_enable_coprocessors+0x18>)
10001312:	f8d2 1d88 	ldr.w	r1, [r2, #3464]	@ 0xd88
10001316:	430b      	orrs	r3, r1
10001318:	f8c2 3d88 	str.w	r3, [r2, #3464]	@ 0xd88
1000131c:	ee10 0430 			dcp_rcmp r0
10001320:	4770      	bx	lr
10001322:	bf00      	nop
10001324:	00300303 	.word	0x00300303

10001328 <runtime_init_post_clock_resets>:
10001328:	f06f 4160 	mvn.w	r1, #3758096384	@ 0xe0000000
1000132c:	4b04      	ldr	r3, [pc, #16]	@ (10001340 <runtime_init_post_clock_resets+0x18>)
1000132e:	4a05      	ldr	r2, [pc, #20]	@ (10001344 <runtime_init_post_clock_resets+0x1c>)
10001330:	6019      	str	r1, [r3, #0]
10001332:	6893      	ldr	r3, [r2, #8]
10001334:	43db      	mvns	r3, r3
10001336:	f033 4360 	bics.w	r3, r3, #3758096384	@ 0xe0000000
1000133a:	d1fa      	bne.n	10001332 <runtime_init_post_clock_resets+0xa>
1000133c:	4770      	bx	lr
1000133e:	bf00      	nop
10001340:	40023000 	.word	0x40023000
10001344:	40020000 	.word	0x40020000

10001348 <runtime_init_bootrom_reset>:
10001348:	b510      	push	{r4, lr}
1000134a:	f245 2053 	movw	r0, #21075	@ 0x5253
1000134e:	f7ff ff51 	bl	100011f4 <rom_func_lookup>
10001352:	e8bd 4010 	ldmia.w	sp!, {r4, lr}
10001356:	4603      	mov	r3, r0
10001358:	2004      	movs	r0, #4
1000135a:	4718      	bx	r3

1000135c <runtime_init_per_core_bootrom_reset>:
1000135c:	b510      	push	{r4, lr}
1000135e:	f245 2053 	movw	r0, #21075	@ 0x5253
10001362:	f7ff ff47 	bl	100011f4 <rom_func_lookup>
10001366:	e8bd 4010 	ldmia.w	sp!, {r4, lr}
1000136a:	4603      	mov	r3, r0
1000136c:	2001      	movs	r0, #1
1000136e:	4718      	bx	r3

10001370 <runtime_init_spin_locks_reset>:
10001370:	f7ff b800 	b.w	10000374 <spin_locks_reset>

10001374 <runtime_init_install_ram_vector_table>:
10001374:	4914      	ldr	r1, [pc, #80]	@ (100013c8 <runtime_init_install_ram_vector_table+0x54>)
10001376:	4b15      	ldr	r3, [pc, #84]	@ (100013cc <runtime_init_install_ram_vector_table+0x58>)
10001378:	b570      	push	{r4, r5, r6, lr}
1000137a:	1a5c      	subs	r4, r3, r1
1000137c:	10a6      	asrs	r6, r4, #2
1000137e:	2e44      	cmp	r6, #68	@ 0x44
10001380:	4632      	mov	r2, r6
10001382:	bf28      	it	cs
10001384:	2244      	movcs	r2, #68	@ 0x44
10001386:	4d12      	ldr	r5, [pc, #72]	@ (100013d0 <runtime_init_install_ram_vector_table+0x5c>)
10001388:	0092      	lsls	r2, r2, #2
1000138a:	4628      	mov	r0, r5
1000138c:	f002 f8f8 	bl	10003580 <memcpy>
10001390:	f5b4 7f86 	cmp.w	r4, #268	@ 0x10c
10001394:	d813      	bhi.n	100013be <runtime_init_install_ram_vector_table+0x4a>
10001396:	4a0f      	ldr	r2, [pc, #60]	@ (100013d4 <runtime_init_install_ram_vector_table+0x60>)
10001398:	f1c6 0044 	rsb	r0, r6, #68	@ 0x44
1000139c:	d012      	beq.n	100013c4 <runtime_init_install_ram_vector_table+0x50>
1000139e:	192b      	adds	r3, r5, r4
100013a0:	0841      	lsrs	r1, r0, #1
100013a2:	eb03 01c1 	add.w	r1, r3, r1, lsl #3
100013a6:	e9c3 2200 	strd	r2, r2, [r3]
100013aa:	3308      	adds	r3, #8
100013ac:	428b      	cmp	r3, r1
100013ae:	d1fa      	bne.n	100013a6 <runtime_init_install_ram_vector_table+0x32>
100013b0:	07c3      	lsls	r3, r0, #31
100013b2:	d504      	bpl.n	100013be <runtime_init_install_ram_vector_table+0x4a>
100013b4:	f020 0001 	bic.w	r0, r0, #1
100013b8:	4430      	add	r0, r6
100013ba:	f845 2020 	str.w	r2, [r5, r0, lsl #2]
100013be:	4b06      	ldr	r3, [pc, #24]	@ (100013d8 <runtime_init_install_ram_vector_table+0x64>)
100013c0:	609d      	str	r5, [r3, #8]
100013c2:	bd70      	pop	{r4, r5, r6, pc}
100013c4:	2043      	movs	r0, #67	@ 0x43
100013c6:	e7f8      	b.n	100013ba <runtime_init_install_ram_vector_table+0x46>
100013c8:	10000000 	.word	0x10000000
100013cc:	10000110 	.word	0x10000110
100013d0:	20000000 	.word	0x20000000
100013d4:	10000111 	.word	0x10000111
100013d8:	e000ed00 	.word	0xe000ed00

100013dc <runtime_init_clocks>:
100013dc:	2300      	movs	r3, #0
100013de:	b570      	push	{r4, r5, r6, lr}
100013e0:	4c2b      	ldr	r4, [pc, #172]	@ (10001490 <runtime_init_clocks+0xb4>)
100013e2:	b082      	sub	sp, #8
100013e4:	f8c4 3084 	str.w	r3, [r4, #132]	@ 0x84
100013e8:	f7ff ff28 	bl	1000123c <xosc_init>
100013ec:	2201      	movs	r2, #1
100013ee:	4b29      	ldr	r3, [pc, #164]	@ (10001494 <runtime_init_clocks+0xb8>)
100013f0:	63da      	str	r2, [r3, #60]	@ 0x3c
100013f2:	6c63      	ldr	r3, [r4, #68]	@ 0x44
100013f4:	2b01      	cmp	r3, #1
100013f6:	d1fc      	bne.n	100013f2 <runtime_init_clocks+0x16>
100013f8:	2103      	movs	r1, #3
100013fa:	4a26      	ldr	r2, [pc, #152]	@ (10001494 <runtime_init_clocks+0xb8>)
100013fc:	4b24      	ldr	r3, [pc, #144]	@ (10001490 <runtime_init_clocks+0xb4>)
100013fe:	6311      	str	r1, [r2, #48]	@ 0x30
10001400:	6b9c      	ldr	r4, [r3, #56]	@ 0x38
10001402:	2c01      	cmp	r4, #1
10001404:	d1fc      	bne.n	10001400 <runtime_init_clocks+0x24>
10001406:	2602      	movs	r6, #2
10001408:	2505      	movs	r5, #5
1000140a:	4621      	mov	r1, r4
1000140c:	2305      	movs	r3, #5
1000140e:	4a22      	ldr	r2, [pc, #136]	@ (10001498 <runtime_init_clocks+0xbc>)
10001410:	4822      	ldr	r0, [pc, #136]	@ (1000149c <runtime_init_clocks+0xc0>)
10001412:	9600      	str	r6, [sp, #0]
10001414:	f7ff fe9c 	bl	10001150 <pll_init>
10001418:	4621      	mov	r1, r4
1000141a:	462b      	mov	r3, r5
1000141c:	4a20      	ldr	r2, [pc, #128]	@ (100014a0 <runtime_init_clocks+0xc4>)
1000141e:	4821      	ldr	r0, [pc, #132]	@ (100014a4 <runtime_init_clocks+0xc8>)
10001420:	9500      	str	r5, [sp, #0]
10001422:	f7ff fe95 	bl	10001150 <pll_init>
10001426:	2200      	movs	r2, #0
10001428:	2004      	movs	r0, #4
1000142a:	4631      	mov	r1, r6
1000142c:	4b1e      	ldr	r3, [pc, #120]	@ (100014a8 <runtime_init_clocks+0xcc>)
1000142e:	f7ff fe21 	bl	10001074 <clock_configure_undivided>
10001432:	4621      	mov	r1, r4
10001434:	4628      	mov	r0, r5
10001436:	2200      	movs	r2, #0
10001438:	4b1c      	ldr	r3, [pc, #112]	@ (100014ac <runtime_init_clocks+0xd0>)
1000143a:	f7ff fe1b 	bl	10001074 <clock_configure_undivided>
1000143e:	2200      	movs	r2, #0
10001440:	2008      	movs	r0, #8
10001442:	4611      	mov	r1, r2
10001444:	4b1a      	ldr	r3, [pc, #104]	@ (100014b0 <runtime_init_clocks+0xd4>)
10001446:	f7ff fe15 	bl	10001074 <clock_configure_undivided>
1000144a:	2200      	movs	r2, #0
1000144c:	2009      	movs	r0, #9
1000144e:	4611      	mov	r1, r2
10001450:	4b17      	ldr	r3, [pc, #92]	@ (100014b0 <runtime_init_clocks+0xd4>)
10001452:	f7ff fe0f 	bl	10001074 <clock_configure_undivided>
10001456:	2200      	movs	r2, #0
10001458:	2006      	movs	r0, #6
1000145a:	4611      	mov	r1, r2
1000145c:	4b13      	ldr	r3, [pc, #76]	@ (100014ac <runtime_init_clocks+0xd0>)
1000145e:	f7ff fe09 	bl	10001074 <clock_configure_undivided>
10001462:	2200      	movs	r2, #0
10001464:	4b11      	ldr	r3, [pc, #68]	@ (100014ac <runtime_init_clocks+0xd0>)
10001466:	2007      	movs	r0, #7
10001468:	4611      	mov	r1, r2
1000146a:	f7ff fe03 	bl	10001074 <clock_configure_undivided>
1000146e:	2004      	movs	r0, #4
10001470:	f7ff fe68 	bl	10001144 <clock_get_hz>
10001474:	2400      	movs	r4, #0
10001476:	4b0f      	ldr	r3, [pc, #60]	@ (100014b4 <runtime_init_clocks+0xd8>)
10001478:	fba3 3500 	umull	r3, r5, r3, r0
1000147c:	0cad      	lsrs	r5, r5, #18
1000147e:	b2e0      	uxtb	r0, r4
10001480:	4629      	mov	r1, r5
10001482:	3401      	adds	r4, #1
10001484:	f7ff feaa 	bl	100011dc <tick_start>
10001488:	2c06      	cmp	r4, #6
1000148a:	d1f8      	bne.n	1000147e <runtime_init_clocks+0xa2>
1000148c:	b002      	add	sp, #8
1000148e:	bd70      	pop	{r4, r5, r6, pc}
10001490:	40010000 	.word	0x40010000
10001494:	40013000 	.word	0x40013000
10001498:	59682f00 	.word	0x59682f00
1000149c:	40050000 	.word	0x40050000
100014a0:	47868c00 	.word	0x47868c00
100014a4:	40058000 	.word	0x40058000
100014a8:	00b71b00 	.word	0x00b71b00
100014ac:	08f0d180 	.word	0x08f0d180
100014b0:	02dc6c00 	.word	0x02dc6c00
100014b4:	431bde83 	.word	0x431bde83

100014b8 <generic_save_state>:
100014b8:	b086      	sub	sp, #24
100014ba:	b403      	push	{r0, r1}
100014bc:	fc51 0408 	dcp_pxmd r0, r1
100014c0:	e9cd 0102 	strd	r0, r1, [sp, #8]
100014c4:	fc51 0409 	dcp_pymd r0, r1
100014c8:	e9cd 0104 	strd	r0, r1, [sp, #16]
100014cc:	ec51 040a 	dcp_refd r0, r1
100014d0:	e9cd 0106 	strd	r0, r1, [sp, #24]
100014d4:	bc03      	pop	{r0, r1}
100014d6:	47f0      	blx	lr

100014d8 <generic_restore_state>:
100014d8:	e8bd 5000 	ldmia.w	sp!, {ip, lr}
100014dc:	ec4e c400 	dcp_wxmd ip, lr
100014e0:	e8bd 5000 	ldmia.w	sp!, {ip, lr}
100014e4:	ec4e c401 	dcp_wymd ip, lr
100014e8:	e8bd 5000 	ldmia.w	sp!, {ip, lr}
100014ec:	ec4e c402 	dcp_wefd ip, lr
100014f0:	bd00      	pop	{pc}
100014f2:	0000      	movs	r0, r0
100014f4:	b500      	push	{lr}
100014f6:	f7ff ffdf 	bl	100014b8 <generic_save_state>
100014fa:	e002      	b.n	10001502 <__wrap___aeabi_dadd+0x6>

100014fc <__wrap___aeabi_dadd>:
100014fc:	fe10 f430 	dcp_pcmp APSR_nzcv
10001500:	d4f8      	bmi.n	100014f4 <generic_restore_state+0x1c>
10001502:	ec41 0410 	dcp_wxup r0, r1
10001506:	ec43 2411 	dcp_wyup r2, r3
1000150a:	ee00 0401 			dcp_add0
1000150e:	ee10 0401 			dcp_add1
10001512:	ee80 0420 			dcp_nrdd
10001516:	ec51 0410 	dcp_rdda r0, r1
1000151a:	4770      	bx	lr
1000151c:	b500      	push	{lr}
1000151e:	f7ff ffcb 	bl	100014b8 <generic_save_state>
10001522:	e002      	b.n	1000152a <__wrap___aeabi_dsub+0x6>

10001524 <__wrap___aeabi_dsub>:
10001524:	fe10 f430 	dcp_pcmp APSR_nzcv
10001528:	d4f8      	bmi.n	1000151c <__wrap___aeabi_dadd+0x20>
1000152a:	ec41 0410 	dcp_wxup r0, r1
1000152e:	ec43 2411 	dcp_wyup r2, r3
10001532:	ee00 0401 			dcp_add0
10001536:	ee10 0421 			dcp_sub1
1000153a:	ee80 0420 			dcp_nrdd
1000153e:	ec51 0430 	dcp_rdds r0, r1
10001542:	4770      	bx	lr
10001544:	b500      	push	{lr}
10001546:	f7ff ffb7 	bl	100014b8 <generic_save_state>
1000154a:	e002      	b.n	10001552 <__wrap___aeabi_dmul+0x6>

1000154c <__wrap___aeabi_dmul>:
1000154c:	fe10 f430 	dcp_pcmp APSR_nzcv
10001550:	d4f8      	bmi.n	10001544 <__wrap___aeabi_dsub+0x20>
10001552:	b510      	push	{r4, lr}
10001554:	ec41 0410 	dcp_wxup r0, r1
10001558:	ec43 2411 	dcp_wyup r2, r3
1000155c:	ec51 0404 	dcp_rxms r0, r1, #0x0
10001560:	ec53 2405 	dcp_ryms r2, r3, #0x0
10001564:	fba0 4c02 	umull	r4, ip, r0, r2
10001568:	f05f 0e00 	movs.w	lr, #0
1000156c:	fbe0 ce03 	umlal	ip, lr, r0, r3
10001570:	fbe1 ce02 	umlal	ip, lr, r1, r2
10001574:	ec4c 4420 	dcp_wxms r4, ip
10001578:	2400      	movs	r4, #0
1000157a:	fbe1 e403 	umlal	lr, r4, r1, r3
1000157e:	ec44 e430 	dcp_wxmo lr, r4
10001582:	ee80 0420 			dcp_nrdd
10001586:	ec51 0450 	dcp_rddm r0, r1
1000158a:	e8bd 4010 	ldmia.w	sp!, {r4, lr}
1000158e:	4770      	bx	lr
10001590:	b500      	push	{lr}
10001592:	f7ff ff91 	bl	100014b8 <generic_save_state>
10001596:	e002      	b.n	1000159e <__wrap___aeabi_ddiv+0x6>

10001598 <__wrap___aeabi_ddiv>:
10001598:	fe10 f430 	dcp_pcmp APSR_nzcv
1000159c:	d4f8      	bmi.n	10001590 <__wrap___aeabi_dmul+0x44>
1000159e:	ec41 0410 	dcp_wxup r0, r1
100015a2:	ec43 2411 	dcp_wyup r2, r3
100015a6:	ec51 0421 	dcp_rymr r0, r1
100015aa:	fba0 1201 	umull	r1, r2, r0, r1
100015ae:	ea6f 0282 	mvn.w	r2, r2, lsl #2
100015b2:	fb52 0010 	smmlar	r0, r2, r0, r0
100015b6:	fb52 f212 	smmulr	r2, r2, r2
100015ba:	fb52 0010 	smmlar	r0, r2, r0, r0
100015be:	eba0 7cd0 	sub.w	ip, r0, r0, lsr #31
100015c2:	ec53 2404 	dcp_rxms r2, r3, #0x0
100015c6:	fb5c f113 	smmulr	r1, ip, r3
100015ca:	ec53 2415 	dcp_ryms r2, r3, #0x1
100015ce:	fba1 2002 	umull	r2, r0, r1, r2
100015d2:	fb01 0003 	mla	r0, r1, r3, r0
100015d6:	ec53 2444 	dcp_rxms r2, r3, #0x4
100015da:	eba2 0000 	sub.w	r0, r2, r0
100015de:	fb50 f21c 	smmulr	r2, r0, ip
100015e2:	ea4f 1311 	mov.w	r3, r1, lsr #4
100015e6:	eb12 7001 	adds.w	r0, r2, r1, lsl #28
100015ea:	eb43 71e2 	adc.w	r1, r3, r2, asr #31
100015ee:	ea40 5051 	orr.w	r0, r0, r1, lsr #21
100015f2:	ea20 5091 	bic.w	r0, r0, r1, lsr #22
100015f6:	f020 0007 	bic.w	r0, r0, #7
100015fa:	ec53 2475 	dcp_ryms r2, r3, #0x7
100015fe:	fba0 3c02 	umull	r3, ip, r0, r2
10001602:	ec53 2475 	dcp_ryms r2, r3, #0x7
10001606:	fb00 cc03 	mla	ip, r0, r3, ip
1000160a:	fb01 cc02 	mla	ip, r1, r2, ip
1000160e:	ec53 2404 	dcp_rxms r2, r3, #0x0
10001612:	ebac 4c82 	sub.w	ip, ip, r2, lsl #18
10001616:	ea40 705c 	orr.w	r0, r0, ip, lsr #29
1000161a:	f1a0 0001 	sub.w	r0, r0, #1
1000161e:	ec41 0440 	dcp_wxdd r0, r1
10001622:	ee80 0420 			dcp_nrdd
10001626:	ec51 0470 	dcp_rddd r0, r1
1000162a:	4770      	bx	lr
1000162c:	b500      	push	{lr}
1000162e:	f7ff ff43 	bl	100014b8 <generic_save_state>
10001632:	e002      	b.n	1000163a <__wrap___aeabi_i2d+0x6>

10001634 <__wrap___aeabi_i2d>:
10001634:	fe10 f430 	dcp_pcmp APSR_nzcv
10001638:	d4f8      	bmi.n	1000162c <__wrap___aeabi_ddiv+0x94>
1000163a:	ec40 0470 	dcp_wxic r0, r0
1000163e:	ee00 0401 			dcp_add0
10001642:	ee10 0421 			dcp_sub1
10001646:	ee80 0420 			dcp_nrdd
1000164a:	ec51 0430 	dcp_rdds r0, r1
1000164e:	4770      	bx	lr
10001650:	b500      	push	{lr}
10001652:	f7ff ff31 	bl	100014b8 <generic_save_state>
10001656:	e002      	b.n	1000165e <__wrap___aeabi_ui2d+0x6>

10001658 <__wrap___aeabi_ui2d>:
10001658:	fe10 f430 	dcp_pcmp APSR_nzcv
1000165c:	d4f8      	bmi.n	10001650 <__wrap___aeabi_i2d+0x1c>
1000165e:	ec40 0460 	dcp_wxuc r0, r0
10001662:	ee00 0401 			dcp_add0
10001666:	ee10 0421 			dcp_sub1
1000166a:	ee80 0420 			dcp_nrdd
1000166e:	ec51 0430 	dcp_rdds r0, r1
10001672:	4770      	bx	lr
10001674:	b500      	push	{lr}
10001676:	f7ff ff1f 	bl	100014b8 <generic_save_state>
1000167a:	e002      	b.n	10001682 <double2int_z_entry>

1000167c <__wrap___aeabi_d2iz>:
1000167c:	fe10 f430 	dcp_pcmp APSR_nzcv
10001680:	d4f8      	bmi.n	10001674 <__wrap___aeabi_ui2d+0x1c>

10001682 <double2int_z_entry>:
10001682:	ec41 0480 	dcp_wxdc r0, r1
10001686:	ee00 0401 			dcp_add0
1000168a:	ee10 0401 			dcp_add1
1000168e:	ee80 0440 			dcp_ntdc
10001692:	ee10 0413 			dcp_rdic r0
10001696:	4770      	bx	lr
10001698:	b500      	push	{lr}
1000169a:	f7ff ff0d 	bl	100014b8 <generic_save_state>
1000169e:	e002      	b.n	100016a6 <double2uint_z_entry>

100016a0 <__wrap___aeabi_d2uiz>:
100016a0:	fe10 f430 	dcp_pcmp APSR_nzcv
100016a4:	d4f8      	bmi.n	10001698 <double2int_z_entry+0x16>

100016a6 <double2uint_z_entry>:
100016a6:	ec41 0480 	dcp_wxdc r0, r1
100016aa:	ee00 0401 			dcp_add0
100016ae:	ee10 0401 			dcp_add1
100016b2:	ee80 0440 			dcp_ntdc
100016b6:	ee10 0433 			dcp_rduc r0
100016ba:	4770      	bx	lr
100016bc:	b500      	push	{lr}
100016be:	f7ff fefb 	bl	100014b8 <generic_save_state>
100016c2:	e002      	b.n	100016ca <__wrap___aeabi_dcmpun+0x6>

100016c4 <__wrap___aeabi_dcmpun>:
100016c4:	fe10 f430 	dcp_pcmp APSR_nzcv
100016c8:	d4f8      	bmi.n	100016bc <double2uint_z_entry+0x16>
100016ca:	ec41 0410 	dcp_wxup r0, r1
100016ce:	ec43 2411 	dcp_wyup r2, r3
100016d2:	ee00 0401 			dcp_add0
100016d6:	ee10 0430 			dcp_rcmp r0
100016da:	f3c0 7000 	ubfx	r0, r0, #28, #1
100016de:	4770      	bx	lr
100016e0:	b500      	push	{lr}
100016e2:	f7ff fee9 	bl	100014b8 <generic_save_state>
100016e6:	e002      	b.n	100016ee <__wrap___aeabi_dcmplt+0x6>

100016e8 <__wrap___aeabi_dcmplt>:
100016e8:	fe10 f430 	dcp_pcmp APSR_nzcv
100016ec:	d4f8      	bmi.n	100016e0 <__wrap___aeabi_dcmpun+0x1c>
100016ee:	ec43 2410 	dcp_wxup r2, r3
100016f2:	ec41 0411 	dcp_wyup r0, r1
100016f6:	ee00 0401 			dcp_add0
100016fa:	ee10 f430 			dcp_rcmp APSR_nzcv
100016fe:	bf8c      	ite	hi
10001700:	2001      	movhi	r0, #1
10001702:	2000      	movls	r0, #0
10001704:	4770      	bx	lr
10001706:	bf00      	nop
10001708:	b500      	push	{lr}
1000170a:	f7ff fed5 	bl	100014b8 <generic_save_state>
1000170e:	e002      	b.n	10001716 <__wrap___aeabi_dcmple+0x6>

10001710 <__wrap___aeabi_dcmple>:
10001710:	fe10 f430 	dcp_pcmp APSR_nzcv
10001714:	d4f8      	bmi.n	10001708 <__wrap___aeabi_dcmplt+0x20>
10001716:	ec43 2410 	dcp_wxup r2, r3
1000171a:	ec41 0411 	dcp_wyup r0, r1
1000171e:	ee00 0401 			dcp_add0
10001722:	ee10 f430 			dcp_rcmp APSR_nzcv
10001726:	bf2c      	ite	cs
10001728:	2001      	movcs	r0, #1
1000172a:	2000      	movcc	r0, #0
1000172c:	4770      	bx	lr
1000172e:	bf00      	nop
10001730:	b500      	push	{lr}
10001732:	f7ff fec1 	bl	100014b8 <generic_save_state>
10001736:	e002      	b.n	1000173e <__wrap___aeabi_dcmpge+0x6>

10001738 <__wrap___aeabi_dcmpge>:
10001738:	fe10 f430 	dcp_pcmp APSR_nzcv
1000173c:	d4f8      	bmi.n	10001730 <__wrap___aeabi_dcmple+0x20>
1000173e:	ec41 0410 	dcp_wxup r0, r1
10001742:	ec43 2411 	dcp_wyup r2, r3
10001746:	ee00 0401 			dcp_add0
1000174a:	ee10 f430 			dcp_rcmp APSR_nzcv
1000174e:	bf2c      	ite	cs
10001750:	2001      	movcs	r0, #1
10001752:	2000      	movcc	r0, #0
10001754:	4770      	bx	lr
10001756:	bf00      	nop
10001758:	b500      	push	{lr}
1000175a:	f7ff fead 	bl	100014b8 <generic_save_state>
1000175e:	e002      	b.n	10001766 <__wrap___aeabi_dcmpgt+0x6>

10001760 <__wrap___aeabi_dcmpgt>:
10001760:	fe10 f430 	dcp_pcmp APSR_nzcv
10001764:	d4f8      	bmi.n	10001758 <__wrap___aeabi_dcmpge+0x20>
10001766:	ec41 0410 	dcp_wxup r0, r1
1000176a:	ec43 2411 	dcp_wyup r2, r3
1000176e:	ee00 0401 			dcp_add0
10001772:	ee10 f430 			dcp_rcmp APSR_nzcv
10001776:	bf8c      	ite	hi
10001778:	2001      	movhi	r0, #1
1000177a:	2000      	movls	r0, #0
1000177c:	4770      	bx	lr
1000177e:	bf00      	nop

10001780 <_out_null>:
10001780:	4770      	bx	lr
10001782:	bf00      	nop

10001784 <_out_rev>:
10001784:	e92d 4ff0 	stmdb	sp!, {r4, r5, r6, r7, r8, r9, sl, fp, lr}
10001788:	b083      	sub	sp, #12
1000178a:	4699      	mov	r9, r3
1000178c:	e9dd ab0d 	ldrd	sl, fp, [sp, #52]	@ 0x34
10001790:	9b0f      	ldr	r3, [sp, #60]	@ 0x3c
10001792:	4688      	mov	r8, r1
10001794:	4611      	mov	r1, r2
10001796:	079a      	lsls	r2, r3, #30
10001798:	4607      	mov	r7, r0
1000179a:	d116      	bne.n	100017ca <_out_rev+0x46>
1000179c:	45da      	cmp	sl, fp
1000179e:	d23a      	bcs.n	10001816 <_out_rev+0x92>
100017a0:	460c      	mov	r4, r1
100017a2:	460d      	mov	r5, r1
100017a4:	ebab 060a 	sub.w	r6, fp, sl
100017a8:	440e      	add	r6, r1
100017aa:	4622      	mov	r2, r4
100017ac:	464b      	mov	r3, r9
100017ae:	4641      	mov	r1, r8
100017b0:	2020      	movs	r0, #32
100017b2:	3401      	adds	r4, #1
100017b4:	47b8      	blx	r7
100017b6:	42b4      	cmp	r4, r6
100017b8:	d1f7      	bne.n	100017aa <_out_rev+0x26>
100017ba:	4629      	mov	r1, r5
100017bc:	f1ba 0f00 	cmp.w	sl, #0
100017c0:	d108      	bne.n	100017d4 <_out_rev+0x50>
100017c2:	4620      	mov	r0, r4
100017c4:	b003      	add	sp, #12
100017c6:	e8bd 8ff0 	ldmia.w	sp!, {r4, r5, r6, r7, r8, r9, sl, fp, pc}
100017ca:	460c      	mov	r4, r1
100017cc:	f1ba 0f00 	cmp.w	sl, #0
100017d0:	d010      	beq.n	100017f4 <_out_rev+0x70>
100017d2:	460e      	mov	r6, r1
100017d4:	4655      	mov	r5, sl
100017d6:	9b0c      	ldr	r3, [sp, #48]	@ 0x30
100017d8:	442e      	add	r6, r5
100017da:	449a      	add	sl, r3
100017dc:	9101      	str	r1, [sp, #4]
100017de:	1b72      	subs	r2, r6, r5
100017e0:	464b      	mov	r3, r9
100017e2:	3d01      	subs	r5, #1
100017e4:	4641      	mov	r1, r8
100017e6:	f81a 0d01 	ldrb.w	r0, [sl, #-1]!
100017ea:	4634      	mov	r4, r6
100017ec:	47b8      	blx	r7
100017ee:	2d00      	cmp	r5, #0
100017f0:	d1f5      	bne.n	100017de <_out_rev+0x5a>
100017f2:	9901      	ldr	r1, [sp, #4]
100017f4:	9b0f      	ldr	r3, [sp, #60]	@ 0x3c
100017f6:	079b      	lsls	r3, r3, #30
100017f8:	d5e3      	bpl.n	100017c2 <_out_rev+0x3e>
100017fa:	1a65      	subs	r5, r4, r1
100017fc:	45ab      	cmp	fp, r5
100017fe:	d9e0      	bls.n	100017c2 <_out_rev+0x3e>
10001800:	4622      	mov	r2, r4
10001802:	464b      	mov	r3, r9
10001804:	4641      	mov	r1, r8
10001806:	2020      	movs	r0, #32
10001808:	3501      	adds	r5, #1
1000180a:	47b8      	blx	r7
1000180c:	455d      	cmp	r5, fp
1000180e:	f104 0401 	add.w	r4, r4, #1
10001812:	d3f5      	bcc.n	10001800 <_out_rev+0x7c>
10001814:	e7d5      	b.n	100017c2 <_out_rev+0x3e>
10001816:	460c      	mov	r4, r1
10001818:	f1ba 0f00 	cmp.w	sl, #0
1000181c:	d1d9      	bne.n	100017d2 <_out_rev+0x4e>
1000181e:	e7d0      	b.n	100017c2 <_out_rev+0x3e>

10001820 <_ntoa_format>:
10001820:	e92d 4ff0 	stmdb	sp!, {r4, r5, r6, r7, r8, r9, sl, fp, lr}
10001824:	9f0f      	ldr	r7, [sp, #60]	@ 0x3c
10001826:	f8dd 8024 	ldr.w	r8, [sp, #36]	@ 0x24
1000182a:	f017 0f02 	tst.w	r7, #2
1000182e:	9c0a      	ldr	r4, [sp, #40]	@ 0x28
10001830:	f89d a02c 	ldrb.w	sl, [sp, #44]	@ 0x2c
10001834:	9d0e      	ldr	r5, [sp, #56]	@ 0x38
10001836:	e9dd 960c 	ldrd	r9, r6, [sp, #48]	@ 0x30
1000183a:	d144      	bne.n	100018c6 <_ntoa_format+0xa6>
1000183c:	bbf5      	cbnz	r5, 100018bc <_ntoa_format+0x9c>
1000183e:	42b4      	cmp	r4, r6
10001840:	d241      	bcs.n	100018c6 <_ntoa_format+0xa6>
10001842:	f007 0b01 	and.w	fp, r7, #1
10001846:	f104 3cff 	add.w	ip, r4, #4294967295
1000184a:	f04f 0e30 	mov.w	lr, #48	@ 0x30
1000184e:	44c4      	add	ip, r8
10001850:	e004      	b.n	1000185c <_ntoa_format+0x3c>
10001852:	3401      	adds	r4, #1
10001854:	42a6      	cmp	r6, r4
10001856:	f80c ef01 	strb.w	lr, [ip, #1]!
1000185a:	d901      	bls.n	10001860 <_ntoa_format+0x40>
1000185c:	2c20      	cmp	r4, #32
1000185e:	d1f8      	bne.n	10001852 <_ntoa_format+0x32>
10001860:	f1bb 0f00 	cmp.w	fp, #0
10001864:	f000 8088 	beq.w	10001978 <_ntoa_format+0x158>
10001868:	42a5      	cmp	r5, r4
1000186a:	d92c      	bls.n	100018c6 <_ntoa_format+0xa6>
1000186c:	f104 3cff 	add.w	ip, r4, #4294967295
10001870:	f04f 0e30 	mov.w	lr, #48	@ 0x30
10001874:	44c4      	add	ip, r8
10001876:	e004      	b.n	10001882 <_ntoa_format+0x62>
10001878:	3401      	adds	r4, #1
1000187a:	42ac      	cmp	r4, r5
1000187c:	f80c ef01 	strb.w	lr, [ip, #1]!
10001880:	d021      	beq.n	100018c6 <_ntoa_format+0xa6>
10001882:	2c20      	cmp	r4, #32
10001884:	d1f8      	bne.n	10001878 <_ntoa_format+0x58>
10001886:	f017 0f10 	tst.w	r7, #16
1000188a:	d00e      	beq.n	100018aa <_ntoa_format+0x8a>
1000188c:	f417 6f80 	tst.w	r7, #1024	@ 0x400
10001890:	d154      	bne.n	1000193c <_ntoa_format+0x11c>
10001892:	42a6      	cmp	r6, r4
10001894:	d063      	beq.n	1000195e <_ntoa_format+0x13e>
10001896:	42a5      	cmp	r5, r4
10001898:	d061      	beq.n	1000195e <_ntoa_format+0x13e>
1000189a:	f1b9 0f10 	cmp.w	r9, #16
1000189e:	d050      	beq.n	10001942 <_ntoa_format+0x122>
100018a0:	f1b9 0f02 	cmp.w	r9, #2
100018a4:	d056      	beq.n	10001954 <_ntoa_format+0x134>
100018a6:	2c20      	cmp	r4, #32
100018a8:	d129      	bne.n	100018fe <_ntoa_format+0xde>
100018aa:	2420      	movs	r4, #32
100018ac:	e9cd 570b 	strd	r5, r7, [sp, #44]	@ 0x2c
100018b0:	e9cd 8409 	strd	r8, r4, [sp, #36]	@ 0x24
100018b4:	e8bd 4ff0 	ldmia.w	sp!, {r4, r5, r6, r7, r8, r9, sl, fp, lr}
100018b8:	f7ff bf64 	b.w	10001784 <_out_rev>
100018bc:	f017 0b01 	ands.w	fp, r7, #1
100018c0:	d134      	bne.n	1000192c <_ntoa_format+0x10c>
100018c2:	42b4      	cmp	r4, r6
100018c4:	d3bf      	bcc.n	10001846 <_ntoa_format+0x26>
100018c6:	f017 0f10 	tst.w	r7, #16
100018ca:	d01e      	beq.n	1000190a <_ntoa_format+0xea>
100018cc:	f417 6f80 	tst.w	r7, #1024	@ 0x400
100018d0:	d1e3      	bne.n	1000189a <_ntoa_format+0x7a>
100018d2:	2c00      	cmp	r4, #0
100018d4:	d1dd      	bne.n	10001892 <_ntoa_format+0x72>
100018d6:	f1b9 0f10 	cmp.w	r9, #16
100018da:	d063      	beq.n	100019a4 <_ntoa_format+0x184>
100018dc:	f1b9 0f02 	cmp.w	r9, #2
100018e0:	d077      	beq.n	100019d2 <_ntoa_format+0x1b2>
100018e2:	2430      	movs	r4, #48	@ 0x30
100018e4:	f888 4000 	strb.w	r4, [r8]
100018e8:	2401      	movs	r4, #1
100018ea:	f1ba 0f00 	cmp.w	sl, #0
100018ee:	d111      	bne.n	10001914 <_ntoa_format+0xf4>
100018f0:	077e      	lsls	r6, r7, #29
100018f2:	d548      	bpl.n	10001986 <_ntoa_format+0x166>
100018f4:	262b      	movs	r6, #43	@ 0x2b
100018f6:	f808 6004 	strb.w	r6, [r8, r4]
100018fa:	3401      	adds	r4, #1
100018fc:	e7d6      	b.n	100018ac <_ntoa_format+0x8c>
100018fe:	4626      	mov	r6, r4
10001900:	3401      	adds	r4, #1
10001902:	f04f 0c30 	mov.w	ip, #48	@ 0x30
10001906:	f808 c006 	strb.w	ip, [r8, r6]
1000190a:	2c20      	cmp	r4, #32
1000190c:	d0cd      	beq.n	100018aa <_ntoa_format+0x8a>
1000190e:	f1ba 0f00 	cmp.w	sl, #0
10001912:	d0ed      	beq.n	100018f0 <_ntoa_format+0xd0>
10001914:	262d      	movs	r6, #45	@ 0x2d
10001916:	f808 6004 	strb.w	r6, [r8, r4]
1000191a:	3401      	adds	r4, #1
1000191c:	e9cd 570b 	strd	r5, r7, [sp, #44]	@ 0x2c
10001920:	e9cd 8409 	strd	r8, r4, [sp, #36]	@ 0x24
10001924:	e8bd 4ff0 	ldmia.w	sp!, {r4, r5, r6, r7, r8, r9, sl, fp, lr}
10001928:	f7ff bf2c 	b.w	10001784 <_out_rev>
1000192c:	f1ba 0f00 	cmp.w	sl, #0
10001930:	d030      	beq.n	10001994 <_ntoa_format+0x174>
10001932:	42b4      	cmp	r4, r6
10001934:	f105 35ff 	add.w	r5, r5, #4294967295
10001938:	d385      	bcc.n	10001846 <_ntoa_format+0x26>
1000193a:	e795      	b.n	10001868 <_ntoa_format+0x48>
1000193c:	f1b9 0f10 	cmp.w	r9, #16
10001940:	d1b3      	bne.n	100018aa <_ntoa_format+0x8a>
10001942:	06be      	lsls	r6, r7, #26
10001944:	d53b      	bpl.n	100019be <_ntoa_format+0x19e>
10001946:	2c20      	cmp	r4, #32
10001948:	d0af      	beq.n	100018aa <_ntoa_format+0x8a>
1000194a:	2658      	movs	r6, #88	@ 0x58
1000194c:	f808 6004 	strb.w	r6, [r8, r4]
10001950:	3401      	adds	r4, #1
10001952:	e7a8      	b.n	100018a6 <_ntoa_format+0x86>
10001954:	2c20      	cmp	r4, #32
10001956:	d0a8      	beq.n	100018aa <_ntoa_format+0x8a>
10001958:	4626      	mov	r6, r4
1000195a:	3401      	adds	r4, #1
1000195c:	e007      	b.n	1000196e <_ntoa_format+0x14e>
1000195e:	1e66      	subs	r6, r4, #1
10001960:	d0b9      	beq.n	100018d6 <_ntoa_format+0xb6>
10001962:	f1b9 0f10 	cmp.w	r9, #16
10001966:	d036      	beq.n	100019d6 <_ntoa_format+0x1b6>
10001968:	f1b9 0f02 	cmp.w	r9, #2
1000196c:	d1c9      	bne.n	10001902 <_ntoa_format+0xe2>
1000196e:	f04f 0c62 	mov.w	ip, #98	@ 0x62
10001972:	f808 c006 	strb.w	ip, [r8, r6]
10001976:	e796      	b.n	100018a6 <_ntoa_format+0x86>
10001978:	f017 0f10 	tst.w	r7, #16
1000197c:	d0c5      	beq.n	1000190a <_ntoa_format+0xea>
1000197e:	f417 6f80 	tst.w	r7, #1024	@ 0x400
10001982:	d086      	beq.n	10001892 <_ntoa_format+0x72>
10001984:	e789      	b.n	1000189a <_ntoa_format+0x7a>
10001986:	073e      	lsls	r6, r7, #28
10001988:	d590      	bpl.n	100018ac <_ntoa_format+0x8c>
1000198a:	2620      	movs	r6, #32
1000198c:	f808 6004 	strb.w	r6, [r8, r4]
10001990:	3401      	adds	r4, #1
10001992:	e78b      	b.n	100018ac <_ntoa_format+0x8c>
10001994:	f017 0f0c 	tst.w	r7, #12
10001998:	d000      	beq.n	1000199c <_ntoa_format+0x17c>
1000199a:	3d01      	subs	r5, #1
1000199c:	42b4      	cmp	r4, r6
1000199e:	f4ff af52 	bcc.w	10001846 <_ntoa_format+0x26>
100019a2:	e761      	b.n	10001868 <_ntoa_format+0x48>
100019a4:	06bc      	lsls	r4, r7, #26
100019a6:	d412      	bmi.n	100019ce <_ntoa_format+0x1ae>
100019a8:	2478      	movs	r4, #120	@ 0x78
100019aa:	f888 4000 	strb.w	r4, [r8]
100019ae:	2430      	movs	r4, #48	@ 0x30
100019b0:	f888 4001 	strb.w	r4, [r8, #1]
100019b4:	2402      	movs	r4, #2
100019b6:	f1ba 0f00 	cmp.w	sl, #0
100019ba:	d099      	beq.n	100018f0 <_ntoa_format+0xd0>
100019bc:	e7aa      	b.n	10001914 <_ntoa_format+0xf4>
100019be:	2c20      	cmp	r4, #32
100019c0:	f43f af73 	beq.w	100018aa <_ntoa_format+0x8a>
100019c4:	2678      	movs	r6, #120	@ 0x78
100019c6:	f808 6004 	strb.w	r6, [r8, r4]
100019ca:	3401      	adds	r4, #1
100019cc:	e76b      	b.n	100018a6 <_ntoa_format+0x86>
100019ce:	2458      	movs	r4, #88	@ 0x58
100019d0:	e7eb      	b.n	100019aa <_ntoa_format+0x18a>
100019d2:	2462      	movs	r4, #98	@ 0x62
100019d4:	e7e9      	b.n	100019aa <_ntoa_format+0x18a>
100019d6:	f017 0f20 	tst.w	r7, #32
100019da:	f1a4 0c02 	sub.w	ip, r4, #2
100019de:	d004      	beq.n	100019ea <_ntoa_format+0x1ca>
100019e0:	f04f 0e58 	mov.w	lr, #88	@ 0x58
100019e4:	f808 e00c 	strb.w	lr, [r8, ip]
100019e8:	e78b      	b.n	10001902 <_ntoa_format+0xe2>
100019ea:	f04f 0e78 	mov.w	lr, #120	@ 0x78
100019ee:	f808 e00c 	strb.w	lr, [r8, ip]
100019f2:	e786      	b.n	10001902 <_ntoa_format+0xe2>

100019f4 <_out_char>:
100019f4:	b900      	cbnz	r0, 100019f8 <_out_char+0x4>
100019f6:	4770      	bx	lr
100019f8:	f001 bb72 	b.w	100030e0 <__wrap_putchar>

100019fc <_out_fct>:
100019fc:	b110      	cbz	r0, 10001a04 <_out_fct+0x8>
100019fe:	e9d1 3100 	ldrd	r3, r1, [r1]
10001a02:	4718      	bx	r3
10001a04:	4770      	bx	lr
10001a06:	bf00      	nop

10001a08 <_ftoa>:
10001a08:	e92d 4ff0 	stmdb	sp!, {r4, r5, r6, r7, r8, r9, sl, fp, lr}
10001a0c:	b097      	sub	sp, #92	@ 0x5c
10001a0e:	ed9d 7b20 	vldr	d7, [sp, #128]	@ 0x80
10001a12:	e9dd 5b22 	ldrd	r5, fp, [sp, #136]	@ 0x88
10001a16:	4607      	mov	r7, r0
10001a18:	4688      	mov	r8, r1
10001a1a:	ec51 0b17 	vmov	r0, r1, d7
10001a1e:	9c24      	ldr	r4, [sp, #144]	@ 0x90
10001a20:	4699      	mov	r9, r3
10001a22:	920c      	str	r2, [sp, #48]	@ 0x30
10001a24:	460b      	mov	r3, r1
10001a26:	4602      	mov	r2, r0
10001a28:	ed8d 7b04 	vstr	d7, [sp, #16]
10001a2c:	9407      	str	r4, [sp, #28]
10001a2e:	f7ff fe49 	bl	100016c4 <__wrap___aeabi_dcmpun>
10001a32:	2800      	cmp	r0, #0
10001a34:	f040 81f4 	bne.w	10001e20 <_ftoa+0x418>
10001a38:	e9dd 0104 	ldrd	r0, r1, [sp, #16]
10001a3c:	f04f 32ff 	mov.w	r2, #4294967295
10001a40:	f46f 1380 	mvn.w	r3, #1048576	@ 0x100000
10001a44:	f7ff fe50 	bl	100016e8 <__wrap___aeabi_dcmplt>
10001a48:	2800      	cmp	r0, #0
10001a4a:	f040 811b 	bne.w	10001c84 <_ftoa+0x27c>
10001a4e:	e9dd 0104 	ldrd	r0, r1, [sp, #16]
10001a52:	f04f 32ff 	mov.w	r2, #4294967295
10001a56:	4bac      	ldr	r3, [pc, #688]	@ (10001d08 <_ftoa+0x300>)
10001a58:	f7ff fe82 	bl	10001760 <__wrap___aeabi_dcmpgt>
10001a5c:	2800      	cmp	r0, #0
10001a5e:	f040 80ee 	bne.w	10001c3e <_ftoa+0x236>
10001a62:	e9dd 0104 	ldrd	r0, r1, [sp, #16]
10001a66:	a3a4      	add	r3, pc, #656	@ (adr r3, 10001cf8 <_ftoa+0x2f0>)
10001a68:	e9d3 2300 	ldrd	r2, r3, [r3]
10001a6c:	f7ff fe78 	bl	10001760 <__wrap___aeabi_dcmpgt>
10001a70:	2800      	cmp	r0, #0
10001a72:	f040 80d3 	bne.w	10001c1c <_ftoa+0x214>
10001a76:	e9dd 0104 	ldrd	r0, r1, [sp, #16]
10001a7a:	a3a1      	add	r3, pc, #644	@ (adr r3, 10001d00 <_ftoa+0x2f8>)
10001a7c:	e9d3 2300 	ldrd	r2, r3, [r3]
10001a80:	f7ff fe32 	bl	100016e8 <__wrap___aeabi_dcmplt>
10001a84:	2800      	cmp	r0, #0
10001a86:	f040 80c9 	bne.w	10001c1c <_ftoa+0x214>
10001a8a:	e9dd 0104 	ldrd	r0, r1, [sp, #16]
10001a8e:	2200      	movs	r2, #0
10001a90:	2300      	movs	r3, #0
10001a92:	f7ff fe29 	bl	100016e8 <__wrap___aeabi_dcmplt>
10001a96:	2800      	cmp	r0, #0
10001a98:	f040 80e8 	bne.w	10001c6c <_ftoa+0x264>
10001a9c:	4623      	mov	r3, r4
10001a9e:	900d      	str	r0, [sp, #52]	@ 0x34
10001aa0:	f413 6f80 	tst.w	r3, #1024	@ 0x400
10001aa4:	bf08      	it	eq
10001aa6:	2506      	moveq	r5, #6
10001aa8:	2130      	movs	r1, #48	@ 0x30
10001aaa:	462b      	mov	r3, r5
10001aac:	aa0e      	add	r2, sp, #56	@ 0x38
10001aae:	f1a5 0620 	sub.w	r6, r5, #32
10001ab2:	e005      	b.n	10001ac0 <_ftoa+0xb8>
10001ab4:	3b01      	subs	r3, #1
10001ab6:	42b3      	cmp	r3, r6
10001ab8:	f802 1b01 	strb.w	r1, [r2], #1
10001abc:	f000 8193 	beq.w	10001de6 <_ftoa+0x3de>
10001ac0:	2b09      	cmp	r3, #9
10001ac2:	d8f7      	bhi.n	10001ab4 <_ftoa+0xac>
10001ac4:	461e      	mov	r6, r3
10001ac6:	1aed      	subs	r5, r5, r3
10001ac8:	e9dd 0104 	ldrd	r0, r1, [sp, #16]
10001acc:	f7ff fdd6 	bl	1000167c <__wrap___aeabi_d2iz>
10001ad0:	4b8e      	ldr	r3, [pc, #568]	@ (10001d0c <_ftoa+0x304>)
10001ad2:	4604      	mov	r4, r0
10001ad4:	eb03 03c6 	add.w	r3, r3, r6, lsl #3
10001ad8:	ed93 7b00 	vldr	d7, [r3]
10001adc:	ed8d 7b08 	vstr	d7, [sp, #32]
10001ae0:	f7ff fda8 	bl	10001634 <__wrap___aeabi_i2d>
10001ae4:	4602      	mov	r2, r0
10001ae6:	460b      	mov	r3, r1
10001ae8:	e9dd 0104 	ldrd	r0, r1, [sp, #16]
10001aec:	f7ff fd1a 	bl	10001524 <__wrap___aeabi_dsub>
10001af0:	e9dd 2308 	ldrd	r2, r3, [sp, #32]
10001af4:	f7ff fd2a 	bl	1000154c <__wrap___aeabi_dmul>
10001af8:	4602      	mov	r2, r0
10001afa:	460b      	mov	r3, r1
10001afc:	e9cd 230a 	strd	r2, r3, [sp, #40]	@ 0x28
10001b00:	f7ff fdce 	bl	100016a0 <__wrap___aeabi_d2uiz>
10001b04:	4682      	mov	sl, r0
10001b06:	f7ff fda7 	bl	10001658 <__wrap___aeabi_ui2d>
10001b0a:	4602      	mov	r2, r0
10001b0c:	460b      	mov	r3, r1
10001b0e:	e9dd 010a 	ldrd	r0, r1, [sp, #40]	@ 0x28
10001b12:	f7ff fd07 	bl	10001524 <__wrap___aeabi_dsub>
10001b16:	4602      	mov	r2, r0
10001b18:	460b      	mov	r3, r1
10001b1a:	e9cd 230a 	strd	r2, r3, [sp, #40]	@ 0x28
10001b1e:	2200      	movs	r2, #0
10001b20:	4b7b      	ldr	r3, [pc, #492]	@ (10001d10 <_ftoa+0x308>)
10001b22:	f7ff fe1d 	bl	10001760 <__wrap___aeabi_dcmpgt>
10001b26:	2800      	cmp	r0, #0
10001b28:	f000 80fe 	beq.w	10001d28 <_ftoa+0x320>
10001b2c:	f10a 0a01 	add.w	sl, sl, #1
10001b30:	4650      	mov	r0, sl
10001b32:	f7ff fd91 	bl	10001658 <__wrap___aeabi_ui2d>
10001b36:	4602      	mov	r2, r0
10001b38:	460b      	mov	r3, r1
10001b3a:	e9dd 0108 	ldrd	r0, r1, [sp, #32]
10001b3e:	f7ff fde7 	bl	10001710 <__wrap___aeabi_dcmple>
10001b42:	b110      	cbz	r0, 10001b4a <_ftoa+0x142>
10001b44:	f04f 0a00 	mov.w	sl, #0
10001b48:	3401      	adds	r4, #1
10001b4a:	2e00      	cmp	r6, #0
10001b4c:	f000 80fd 	beq.w	10001d4a <_ftoa+0x342>
10001b50:	1e68      	subs	r0, r5, #1
10001b52:	ab0e      	add	r3, sp, #56	@ 0x38
10001b54:	f8df c1cc 	ldr.w	ip, [pc, #460]	@ 10001d24 <_ftoa+0x31c>
10001b58:	4418      	add	r0, r3
10001b5a:	e00f      	b.n	10001b7c <_ftoa+0x174>
10001b5c:	fbac 210a 	umull	r2, r1, ip, sl
10001b60:	08c9      	lsrs	r1, r1, #3
10001b62:	eb01 0281 	add.w	r2, r1, r1, lsl #2
10001b66:	ebaa 0242 	sub.w	r2, sl, r2, lsl #1
10001b6a:	3230      	adds	r2, #48	@ 0x30
10001b6c:	f1ba 0f09 	cmp.w	sl, #9
10001b70:	f800 2f01 	strb.w	r2, [r0, #1]!
10001b74:	f240 811c 	bls.w	10001db0 <_ftoa+0x3a8>
10001b78:	468a      	mov	sl, r1
10001b7a:	461d      	mov	r5, r3
10001b7c:	2d20      	cmp	r5, #32
10001b7e:	f105 0301 	add.w	r3, r5, #1
10001b82:	f106 36ff 	add.w	r6, r6, #4294967295
10001b86:	d1e9      	bne.n	10001b5c <_ftoa+0x154>
10001b88:	2520      	movs	r5, #32
10001b8a:	1e69      	subs	r1, r5, #1
10001b8c:	ab0e      	add	r3, sp, #56	@ 0x38
10001b8e:	4861      	ldr	r0, [pc, #388]	@ (10001d14 <_ftoa+0x30c>)
10001b90:	4419      	add	r1, r3
10001b92:	e010      	b.n	10001bb6 <_ftoa+0x1ae>
10001b94:	fb80 6204 	smull	r6, r2, r0, r4
10001b98:	ebc3 03a2 	rsb	r3, r3, r2, asr #2
10001b9c:	eb03 0283 	add.w	r2, r3, r3, lsl #2
10001ba0:	eba4 0442 	sub.w	r4, r4, r2, lsl #1
10001ba4:	f104 0230 	add.w	r2, r4, #48	@ 0x30
10001ba8:	3501      	adds	r5, #1
10001baa:	461c      	mov	r4, r3
10001bac:	f801 2f01 	strb.w	r2, [r1, #1]!
10001bb0:	2b00      	cmp	r3, #0
10001bb2:	f000 80eb 	beq.w	10001d8c <_ftoa+0x384>
10001bb6:	2d20      	cmp	r5, #32
10001bb8:	ea4f 73e4 	mov.w	r3, r4, asr #31
10001bbc:	d1ea      	bne.n	10001b94 <_ftoa+0x18c>
10001bbe:	9b07      	ldr	r3, [sp, #28]
10001bc0:	f003 0303 	and.w	r3, r3, #3
10001bc4:	2b01      	cmp	r3, #1
10001bc6:	d118      	bne.n	10001bfa <_ftoa+0x1f2>
10001bc8:	f1bb 0f00 	cmp.w	fp, #0
10001bcc:	d015      	beq.n	10001bfa <_ftoa+0x1f2>
10001bce:	9b0d      	ldr	r3, [sp, #52]	@ 0x34
10001bd0:	2b00      	cmp	r3, #0
10001bd2:	f000 810a 	beq.w	10001dea <_ftoa+0x3e2>
10001bd6:	f10b 3bff 	add.w	fp, fp, #4294967295
10001bda:	f1bb 0f20 	cmp.w	fp, #32
10001bde:	d90c      	bls.n	10001bfa <_ftoa+0x1f2>
10001be0:	1e6b      	subs	r3, r5, #1
10001be2:	a90e      	add	r1, sp, #56	@ 0x38
10001be4:	2230      	movs	r2, #48	@ 0x30
10001be6:	440b      	add	r3, r1
10001be8:	e005      	b.n	10001bf6 <_ftoa+0x1ee>
10001bea:	3501      	adds	r5, #1
10001bec:	455d      	cmp	r5, fp
10001bee:	f803 2f01 	strb.w	r2, [r3, #1]!
10001bf2:	f080 80d1 	bcs.w	10001d98 <_ftoa+0x390>
10001bf6:	2d20      	cmp	r5, #32
10001bf8:	d1f7      	bne.n	10001bea <_ftoa+0x1e2>
10001bfa:	9b07      	ldr	r3, [sp, #28]
10001bfc:	ac0e      	add	r4, sp, #56	@ 0x38
10001bfe:	e9cd b302 	strd	fp, r3, [sp, #8]
10001c02:	4641      	mov	r1, r8
10001c04:	464b      	mov	r3, r9
10001c06:	4638      	mov	r0, r7
10001c08:	9a0c      	ldr	r2, [sp, #48]	@ 0x30
10001c0a:	9501      	str	r5, [sp, #4]
10001c0c:	9400      	str	r4, [sp, #0]
10001c0e:	f7ff fdb9 	bl	10001784 <_out_rev>
10001c12:	4682      	mov	sl, r0
10001c14:	4650      	mov	r0, sl
10001c16:	b017      	add	sp, #92	@ 0x5c
10001c18:	e8bd 8ff0 	ldmia.w	sp!, {r4, r5, r6, r7, r8, r9, sl, fp, pc}
10001c1c:	9b07      	ldr	r3, [sp, #28]
10001c1e:	ed9d 7b04 	vldr	d7, [sp, #16]
10001c22:	e9cd b323 	strd	fp, r3, [sp, #140]	@ 0x8c
10001c26:	4641      	mov	r1, r8
10001c28:	464b      	mov	r3, r9
10001c2a:	4638      	mov	r0, r7
10001c2c:	9a0c      	ldr	r2, [sp, #48]	@ 0x30
10001c2e:	ed8d 7b20 	vstr	d7, [sp, #128]	@ 0x80
10001c32:	9522      	str	r5, [sp, #136]	@ 0x88
10001c34:	b017      	add	sp, #92	@ 0x5c
10001c36:	e8bd 4ff0 	ldmia.w	sp!, {r4, r5, r6, r7, r8, r9, sl, fp, lr}
10001c3a:	f000 b945 	b.w	10001ec8 <_etoa>
10001c3e:	0761      	lsls	r1, r4, #29
10001c40:	4623      	mov	r3, r4
10001c42:	bf4c      	ite	mi
10001c44:	2304      	movmi	r3, #4
10001c46:	2303      	movpl	r3, #3
10001c48:	4641      	mov	r1, r8
10001c4a:	9321      	str	r3, [sp, #132]	@ 0x84
10001c4c:	4638      	mov	r0, r7
10001c4e:	464b      	mov	r3, r9
10001c50:	9a07      	ldr	r2, [sp, #28]
10001c52:	bf48      	it	mi
10001c54:	4c30      	ldrmi	r4, [pc, #192]	@ (10001d18 <_ftoa+0x310>)
10001c56:	e9cd b222 	strd	fp, r2, [sp, #136]	@ 0x88
10001c5a:	bf58      	it	pl
10001c5c:	4c2f      	ldrpl	r4, [pc, #188]	@ (10001d1c <_ftoa+0x314>)
10001c5e:	9a0c      	ldr	r2, [sp, #48]	@ 0x30
10001c60:	9420      	str	r4, [sp, #128]	@ 0x80
10001c62:	b017      	add	sp, #92	@ 0x5c
10001c64:	e8bd 4ff0 	ldmia.w	sp!, {r4, r5, r6, r7, r8, r9, sl, fp, lr}
10001c68:	f7ff bd8c 	b.w	10001784 <_out_rev>
10001c6c:	e9dd 2304 	ldrd	r2, r3, [sp, #16]
10001c70:	2000      	movs	r0, #0
10001c72:	2100      	movs	r1, #0
10001c74:	f7ff fc56 	bl	10001524 <__wrap___aeabi_dsub>
10001c78:	2301      	movs	r3, #1
10001c7a:	e9cd 0104 	strd	r0, r1, [sp, #16]
10001c7e:	930d      	str	r3, [sp, #52]	@ 0x34
10001c80:	4623      	mov	r3, r4
10001c82:	e70d      	b.n	10001aa0 <_ftoa+0x98>
10001c84:	4623      	mov	r3, r4
10001c86:	079c      	lsls	r4, r3, #30
10001c88:	f040 80aa 	bne.w	10001de0 <_ftoa+0x3d8>
10001c8c:	f1bb 0f04 	cmp.w	fp, #4
10001c90:	f240 80a6 	bls.w	10001de0 <_ftoa+0x3d8>
10001c94:	9b0c      	ldr	r3, [sp, #48]	@ 0x30
10001c96:	461d      	mov	r5, r3
10001c98:	1f1c      	subs	r4, r3, #4
10001c9a:	eb04 0a0b 	add.w	sl, r4, fp
10001c9e:	462a      	mov	r2, r5
10001ca0:	464b      	mov	r3, r9
10001ca2:	4641      	mov	r1, r8
10001ca4:	2020      	movs	r0, #32
10001ca6:	3501      	adds	r5, #1
10001ca8:	47b8      	blx	r7
10001caa:	45aa      	cmp	sl, r5
10001cac:	d1f7      	bne.n	10001c9e <_ftoa+0x296>
10001cae:	4655      	mov	r5, sl
10001cb0:	4c1b      	ldr	r4, [pc, #108]	@ (10001d20 <_ftoa+0x318>)
10001cb2:	1f26      	subs	r6, r4, #4
10001cb4:	f814 0d01 	ldrb.w	r0, [r4, #-1]!
10001cb8:	462a      	mov	r2, r5
10001cba:	464b      	mov	r3, r9
10001cbc:	4641      	mov	r1, r8
10001cbe:	47b8      	blx	r7
10001cc0:	42b4      	cmp	r4, r6
10001cc2:	f105 0501 	add.w	r5, r5, #1
10001cc6:	d1f5      	bne.n	10001cb4 <_ftoa+0x2ac>
10001cc8:	9b07      	ldr	r3, [sp, #28]
10001cca:	f10a 0a04 	add.w	sl, sl, #4
10001cce:	0798      	lsls	r0, r3, #30
10001cd0:	d5a0      	bpl.n	10001c14 <_ftoa+0x20c>
10001cd2:	9c0c      	ldr	r4, [sp, #48]	@ 0x30
10001cd4:	ebaa 0304 	sub.w	r3, sl, r4
10001cd8:	459b      	cmp	fp, r3
10001cda:	d99b      	bls.n	10001c14 <_ftoa+0x20c>
10001cdc:	4652      	mov	r2, sl
10001cde:	464b      	mov	r3, r9
10001ce0:	4641      	mov	r1, r8
10001ce2:	2020      	movs	r0, #32
10001ce4:	f10a 0a01 	add.w	sl, sl, #1
10001ce8:	47b8      	blx	r7
10001cea:	ebaa 0304 	sub.w	r3, sl, r4
10001cee:	455b      	cmp	r3, fp
10001cf0:	d3f4      	bcc.n	10001cdc <_ftoa+0x2d4>
10001cf2:	e78f      	b.n	10001c14 <_ftoa+0x20c>
10001cf4:	f3af 8000 	nop.w
10001cf8:	00000000 	.word	0x00000000
10001cfc:	41cdcd65 	.word	0x41cdcd65
10001d00:	00000000 	.word	0x00000000
10001d04:	c1cdcd65 	.word	0xc1cdcd65
10001d08:	7fefffff 	.word	0x7fefffff
10001d0c:	10003888 	.word	0x10003888
10001d10:	3fe00000 	.word	0x3fe00000
10001d14:	66666667 	.word	0x66666667
10001d18:	100037e4 	.word	0x100037e4
10001d1c:	100037ec 	.word	0x100037ec
10001d20:	100037f8 	.word	0x100037f8
10001d24:	cccccccd 	.word	0xcccccccd
10001d28:	2200      	movs	r2, #0
10001d2a:	e9dd 010a 	ldrd	r0, r1, [sp, #40]	@ 0x28
10001d2e:	4b63      	ldr	r3, [pc, #396]	@ (10001ebc <_ftoa+0x4b4>)
10001d30:	f7ff fcda 	bl	100016e8 <__wrap___aeabi_dcmplt>
10001d34:	2800      	cmp	r0, #0
10001d36:	f47f af08 	bne.w	10001b4a <_ftoa+0x142>
10001d3a:	f1ba 0f00 	cmp.w	sl, #0
10001d3e:	d16a      	bne.n	10001e16 <_ftoa+0x40e>
10001d40:	f10a 0a01 	add.w	sl, sl, #1
10001d44:	2e00      	cmp	r6, #0
10001d46:	f47f af03 	bne.w	10001b50 <_ftoa+0x148>
10001d4a:	4620      	mov	r0, r4
10001d4c:	f7ff fc72 	bl	10001634 <__wrap___aeabi_i2d>
10001d50:	4602      	mov	r2, r0
10001d52:	460b      	mov	r3, r1
10001d54:	e9dd 0104 	ldrd	r0, r1, [sp, #16]
10001d58:	f7ff fbe4 	bl	10001524 <__wrap___aeabi_dsub>
10001d5c:	4602      	mov	r2, r0
10001d5e:	460b      	mov	r3, r1
10001d60:	e9cd 2304 	strd	r2, r3, [sp, #16]
10001d64:	2200      	movs	r2, #0
10001d66:	4b55      	ldr	r3, [pc, #340]	@ (10001ebc <_ftoa+0x4b4>)
10001d68:	f7ff fcbe 	bl	100016e8 <__wrap___aeabi_dcmplt>
10001d6c:	2800      	cmp	r0, #0
10001d6e:	f47f af0c 	bne.w	10001b8a <_ftoa+0x182>
10001d72:	e9dd 0104 	ldrd	r0, r1, [sp, #16]
10001d76:	2200      	movs	r2, #0
10001d78:	4b50      	ldr	r3, [pc, #320]	@ (10001ebc <_ftoa+0x4b4>)
10001d7a:	f7ff fcf1 	bl	10001760 <__wrap___aeabi_dcmpgt>
10001d7e:	2800      	cmp	r0, #0
10001d80:	f47f af03 	bne.w	10001b8a <_ftoa+0x182>
10001d84:	3401      	adds	r4, #1
10001d86:	f024 0401 	bic.w	r4, r4, #1
10001d8a:	e6fe      	b.n	10001b8a <_ftoa+0x182>
10001d8c:	9b07      	ldr	r3, [sp, #28]
10001d8e:	f003 0303 	and.w	r3, r3, #3
10001d92:	2b01      	cmp	r3, #1
10001d94:	f000 8082 	beq.w	10001e9c <_ftoa+0x494>
10001d98:	2d20      	cmp	r5, #32
10001d9a:	f43f af2e 	beq.w	10001bfa <_ftoa+0x1f2>
10001d9e:	9b0d      	ldr	r3, [sp, #52]	@ 0x34
10001da0:	b37b      	cbz	r3, 10001e02 <_ftoa+0x3fa>
10001da2:	222d      	movs	r2, #45	@ 0x2d
10001da4:	eb0d 0305 	add.w	r3, sp, r5
10001da8:	f883 2038 	strb.w	r2, [r3, #56]	@ 0x38
10001dac:	3501      	adds	r5, #1
10001dae:	e724      	b.n	10001bfa <_ftoa+0x1f2>
10001db0:	2b20      	cmp	r3, #32
10001db2:	f43f aee9 	beq.w	10001b88 <_ftoa+0x180>
10001db6:	aa0e      	add	r2, sp, #56	@ 0x38
10001db8:	4415      	add	r5, r2
10001dba:	441e      	add	r6, r3
10001dbc:	2230      	movs	r2, #48	@ 0x30
10001dbe:	e004      	b.n	10001dca <_ftoa+0x3c2>
10001dc0:	2b20      	cmp	r3, #32
10001dc2:	f805 2f01 	strb.w	r2, [r5, #1]!
10001dc6:	f43f aedf 	beq.w	10001b88 <_ftoa+0x180>
10001dca:	429e      	cmp	r6, r3
10001dcc:	f103 0301 	add.w	r3, r3, #1
10001dd0:	d1f6      	bne.n	10001dc0 <_ftoa+0x3b8>
10001dd2:	222e      	movs	r2, #46	@ 0x2e
10001dd4:	eb0d 0306 	add.w	r3, sp, r6
10001dd8:	f883 2038 	strb.w	r2, [r3, #56]	@ 0x38
10001ddc:	1c75      	adds	r5, r6, #1
10001dde:	e6d4      	b.n	10001b8a <_ftoa+0x182>
10001de0:	f8dd a030 	ldr.w	sl, [sp, #48]	@ 0x30
10001de4:	e763      	b.n	10001cae <_ftoa+0x2a6>
10001de6:	2520      	movs	r5, #32
10001de8:	e66e      	b.n	10001ac8 <_ftoa+0xc0>
10001dea:	9b07      	ldr	r3, [sp, #28]
10001dec:	f013 0f0c 	tst.w	r3, #12
10001df0:	d050      	beq.n	10001e94 <_ftoa+0x48c>
10001df2:	f10b 3bff 	add.w	fp, fp, #4294967295
10001df6:	45ab      	cmp	fp, r5
10001df8:	f63f aef2 	bhi.w	10001be0 <_ftoa+0x1d8>
10001dfc:	2d20      	cmp	r5, #32
10001dfe:	f43f aefc 	beq.w	10001bfa <_ftoa+0x1f2>
10001e02:	9b07      	ldr	r3, [sp, #28]
10001e04:	075a      	lsls	r2, r3, #29
10001e06:	d501      	bpl.n	10001e0c <_ftoa+0x404>
10001e08:	222b      	movs	r2, #43	@ 0x2b
10001e0a:	e7cb      	b.n	10001da4 <_ftoa+0x39c>
10001e0c:	071b      	lsls	r3, r3, #28
10001e0e:	f57f aef4 	bpl.w	10001bfa <_ftoa+0x1f2>
10001e12:	2220      	movs	r2, #32
10001e14:	e7c6      	b.n	10001da4 <_ftoa+0x39c>
10001e16:	f01a 0f01 	tst.w	sl, #1
10001e1a:	f43f ae96 	beq.w	10001b4a <_ftoa+0x142>
10001e1e:	e78f      	b.n	10001d40 <_ftoa+0x338>
10001e20:	07a6      	lsls	r6, r4, #30
10001e22:	d134      	bne.n	10001e8e <_ftoa+0x486>
10001e24:	f1bb 0f03 	cmp.w	fp, #3
10001e28:	d931      	bls.n	10001e8e <_ftoa+0x486>
10001e2a:	9b0c      	ldr	r3, [sp, #48]	@ 0x30
10001e2c:	461d      	mov	r5, r3
10001e2e:	1edc      	subs	r4, r3, #3
10001e30:	eb04 0a0b 	add.w	sl, r4, fp
10001e34:	462a      	mov	r2, r5
10001e36:	464b      	mov	r3, r9
10001e38:	4641      	mov	r1, r8
10001e3a:	2020      	movs	r0, #32
10001e3c:	3501      	adds	r5, #1
10001e3e:	47b8      	blx	r7
10001e40:	4555      	cmp	r5, sl
10001e42:	d1f7      	bne.n	10001e34 <_ftoa+0x42c>
10001e44:	4655      	mov	r5, sl
10001e46:	4c1e      	ldr	r4, [pc, #120]	@ (10001ec0 <_ftoa+0x4b8>)
10001e48:	1ee6      	subs	r6, r4, #3
10001e4a:	f814 0d01 	ldrb.w	r0, [r4, #-1]!
10001e4e:	462a      	mov	r2, r5
10001e50:	464b      	mov	r3, r9
10001e52:	4641      	mov	r1, r8
10001e54:	47b8      	blx	r7
10001e56:	42a6      	cmp	r6, r4
10001e58:	f105 0501 	add.w	r5, r5, #1
10001e5c:	d1f5      	bne.n	10001e4a <_ftoa+0x442>
10001e5e:	9b07      	ldr	r3, [sp, #28]
10001e60:	f10a 0a03 	add.w	sl, sl, #3
10001e64:	079d      	lsls	r5, r3, #30
10001e66:	f57f aed5 	bpl.w	10001c14 <_ftoa+0x20c>
10001e6a:	9c0c      	ldr	r4, [sp, #48]	@ 0x30
10001e6c:	ebaa 0304 	sub.w	r3, sl, r4
10001e70:	459b      	cmp	fp, r3
10001e72:	f67f aecf 	bls.w	10001c14 <_ftoa+0x20c>
10001e76:	4652      	mov	r2, sl
10001e78:	464b      	mov	r3, r9
10001e7a:	4641      	mov	r1, r8
10001e7c:	2020      	movs	r0, #32
10001e7e:	f10a 0a01 	add.w	sl, sl, #1
10001e82:	47b8      	blx	r7
10001e84:	ebaa 0304 	sub.w	r3, sl, r4
10001e88:	459b      	cmp	fp, r3
10001e8a:	d8f4      	bhi.n	10001e76 <_ftoa+0x46e>
10001e8c:	e6c2      	b.n	10001c14 <_ftoa+0x20c>
10001e8e:	f8dd a030 	ldr.w	sl, [sp, #48]	@ 0x30
10001e92:	e7d7      	b.n	10001e44 <_ftoa+0x43c>
10001e94:	45ab      	cmp	fp, r5
10001e96:	f63f aea3 	bhi.w	10001be0 <_ftoa+0x1d8>
10001e9a:	e6ae      	b.n	10001bfa <_ftoa+0x1f2>
10001e9c:	f1bb 0f00 	cmp.w	fp, #0
10001ea0:	f43f af7a 	beq.w	10001d98 <_ftoa+0x390>
10001ea4:	9b0d      	ldr	r3, [sp, #52]	@ 0x34
10001ea6:	2b00      	cmp	r3, #0
10001ea8:	d09f      	beq.n	10001dea <_ftoa+0x3e2>
10001eaa:	f10b 3bff 	add.w	fp, fp, #4294967295
10001eae:	455d      	cmp	r5, fp
10001eb0:	f4ff ae96 	bcc.w	10001be0 <_ftoa+0x1d8>
10001eb4:	2d20      	cmp	r5, #32
10001eb6:	f47f af74 	bne.w	10001da2 <_ftoa+0x39a>
10001eba:	e69e      	b.n	10001bfa <_ftoa+0x1f2>
10001ebc:	3fe00000 	.word	0x3fe00000
10001ec0:	100037f3 	.word	0x100037f3
10001ec4:	00000000 	.word	0x00000000

10001ec8 <_etoa>:
10001ec8:	e92d 4ff0 	stmdb	sp!, {r4, r5, r6, r7, r8, r9, sl, fp, lr}
10001ecc:	b09f      	sub	sp, #124	@ 0x7c
10001ece:	9e2a      	ldr	r6, [sp, #168]	@ 0xa8
10001ed0:	e9dd 4528 	ldrd	r4, r5, [sp, #160]	@ 0xa0
10001ed4:	4607      	mov	r7, r0
10001ed6:	4693      	mov	fp, r2
10001ed8:	9108      	str	r1, [sp, #32]
10001eda:	9309      	str	r3, [sp, #36]	@ 0x24
10001edc:	4622      	mov	r2, r4
10001ede:	462b      	mov	r3, r5
10001ee0:	4620      	mov	r0, r4
10001ee2:	4629      	mov	r1, r5
10001ee4:	960e      	str	r6, [sp, #56]	@ 0x38
10001ee6:	e9dd a62b 	ldrd	sl, r6, [sp, #172]	@ 0xac
10001eea:	f7ff fbeb 	bl	100016c4 <__wrap___aeabi_dcmpun>
10001eee:	2800      	cmp	r0, #0
10001ef0:	f040 80be 	bne.w	10002070 <_etoa+0x1a8>
10001ef4:	4620      	mov	r0, r4
10001ef6:	4629      	mov	r1, r5
10001ef8:	f04f 32ff 	mov.w	r2, #4294967295
10001efc:	4b78      	ldr	r3, [pc, #480]	@ (100020e0 <_etoa+0x218>)
10001efe:	f7ff fc2f 	bl	10001760 <__wrap___aeabi_dcmpgt>
10001f02:	2800      	cmp	r0, #0
10001f04:	f040 80b4 	bne.w	10002070 <_etoa+0x1a8>
10001f08:	4620      	mov	r0, r4
10001f0a:	4629      	mov	r1, r5
10001f0c:	f04f 32ff 	mov.w	r2, #4294967295
10001f10:	f46f 1380 	mvn.w	r3, #1048576	@ 0x100000
10001f14:	f7ff fbe8 	bl	100016e8 <__wrap___aeabi_dcmplt>
10001f18:	2800      	cmp	r0, #0
10001f1a:	f040 80a9 	bne.w	10002070 <_etoa+0x1a8>
10001f1e:	4620      	mov	r0, r4
10001f20:	4629      	mov	r1, r5
10001f22:	2200      	movs	r2, #0
10001f24:	2300      	movs	r3, #0
10001f26:	f7ff fbdf 	bl	100016e8 <__wrap___aeabi_dcmplt>
10001f2a:	2800      	cmp	r0, #0
10001f2c:	f040 81d5 	bne.w	100022da <_etoa+0x412>
10001f30:	e9cd 450a 	strd	r4, r5, [sp, #40]	@ 0x28
10001f34:	e9dd 230a 	ldrd	r2, r3, [sp, #40]	@ 0x28
10001f38:	4690      	mov	r8, r2
10001f3a:	4699      	mov	r9, r3
10001f3c:	f406 6200 	and.w	r2, r6, #2048	@ 0x800
10001f40:	f416 6380 	ands.w	r3, r6, #1024	@ 0x400
10001f44:	920f      	str	r2, [sp, #60]	@ 0x3c
10001f46:	9313      	str	r3, [sp, #76]	@ 0x4c
10001f48:	f040 80a1 	bne.w	1000208e <_etoa+0x1c6>
10001f4c:	ea58 0309 	orrs.w	r3, r8, r9
10001f50:	f040 80ca 	bne.w	100020e8 <_etoa+0x220>
10001f54:	2a00      	cmp	r2, #0
10001f56:	f040 81e3 	bne.w	10002320 <_etoa+0x458>
10001f5a:	2306      	movs	r3, #6
10001f5c:	930e      	str	r3, [sp, #56]	@ 0x38
10001f5e:	f016 0202 	ands.w	r2, r6, #2
10001f62:	9210      	str	r2, [sp, #64]	@ 0x40
10001f64:	f040 81d4 	bne.w	10002310 <_etoa+0x448>
10001f68:	4653      	mov	r3, sl
10001f6a:	2b04      	cmp	r3, #4
10001f6c:	bf38      	it	cc
10001f6e:	2304      	movcc	r3, #4
10001f70:	920c      	str	r2, [sp, #48]	@ 0x30
10001f72:	2204      	movs	r2, #4
10001f74:	3b04      	subs	r3, #4
10001f76:	9212      	str	r2, [sp, #72]	@ 0x48
10001f78:	930f      	str	r3, [sp, #60]	@ 0x3c
10001f7a:	4620      	mov	r0, r4
10001f7c:	4629      	mov	r1, r5
10001f7e:	2200      	movs	r2, #0
10001f80:	2300      	movs	r3, #0
10001f82:	f7ff fbb1 	bl	100016e8 <__wrap___aeabi_dcmplt>
10001f86:	2800      	cmp	r0, #0
10001f88:	f040 81f3 	bne.w	10002372 <_etoa+0x4aa>
10001f8c:	ed9d 7b0a 	vldr	d7, [sp, #40]	@ 0x28
10001f90:	9b0f      	ldr	r3, [sp, #60]	@ 0x3c
10001f92:	465a      	mov	r2, fp
10001f94:	9303      	str	r3, [sp, #12]
10001f96:	9b0e      	ldr	r3, [sp, #56]	@ 0x38
10001f98:	ed8d 7b00 	vstr	d7, [sp]
10001f9c:	9302      	str	r3, [sp, #8]
10001f9e:	f426 6300 	bic.w	r3, r6, #2048	@ 0x800
10001fa2:	9304      	str	r3, [sp, #16]
10001fa4:	4638      	mov	r0, r7
10001fa6:	9b09      	ldr	r3, [sp, #36]	@ 0x24
10001fa8:	9908      	ldr	r1, [sp, #32]
10001faa:	f7ff fd2d 	bl	10001a08 <_ftoa>
10001fae:	4602      	mov	r2, r0
10001fb0:	f016 0f20 	tst.w	r6, #32
10001fb4:	9b09      	ldr	r3, [sp, #36]	@ 0x24
10001fb6:	9908      	ldr	r1, [sp, #32]
10001fb8:	bf0c      	ite	eq
10001fba:	2065      	moveq	r0, #101	@ 0x65
10001fbc:	2045      	movne	r0, #69	@ 0x45
10001fbe:	f102 0801 	add.w	r8, r2, #1
10001fc2:	47b8      	blx	r7
10001fc4:	9a0c      	ldr	r2, [sp, #48]	@ 0x30
10001fc6:	9b12      	ldr	r3, [sp, #72]	@ 0x48
10001fc8:	ac16      	add	r4, sp, #88	@ 0x58
10001fca:	1e5d      	subs	r5, r3, #1
10001fcc:	ea82 73e2 	eor.w	r3, r2, r2, asr #31
10001fd0:	eba3 73e2 	sub.w	r3, r3, r2, asr #31
10001fd4:	0fd1      	lsrs	r1, r2, #31
10001fd6:	2600      	movs	r6, #0
10001fd8:	4622      	mov	r2, r4
10001fda:	4699      	mov	r9, r3
10001fdc:	f8df c104 	ldr.w	ip, [pc, #260]	@ 100020e4 <_etoa+0x21c>
10001fe0:	e001      	b.n	10001fe6 <_etoa+0x11e>
10001fe2:	2e20      	cmp	r6, #32
10001fe4:	d010      	beq.n	10002008 <_etoa+0x140>
10001fe6:	46ce      	mov	lr, r9
10001fe8:	fbac 3009 	umull	r3, r0, ip, r9
10001fec:	08c0      	lsrs	r0, r0, #3
10001fee:	eb00 0380 	add.w	r3, r0, r0, lsl #2
10001ff2:	eba9 0343 	sub.w	r3, r9, r3, lsl #1
10001ff6:	3330      	adds	r3, #48	@ 0x30
10001ff8:	f1be 0f09 	cmp.w	lr, #9
10001ffc:	4681      	mov	r9, r0
10001ffe:	f106 0601 	add.w	r6, r6, #1
10002002:	f802 3b01 	strb.w	r3, [r2], #1
10002006:	d8ec      	bhi.n	10001fe2 <_etoa+0x11a>
10002008:	2305      	movs	r3, #5
1000200a:	2000      	movs	r0, #0
1000200c:	9306      	str	r3, [sp, #24]
1000200e:	230a      	movs	r3, #10
10002010:	9505      	str	r5, [sp, #20]
10002012:	9400      	str	r4, [sp, #0]
10002014:	9d09      	ldr	r5, [sp, #36]	@ 0x24
10002016:	9c08      	ldr	r4, [sp, #32]
10002018:	4642      	mov	r2, r8
1000201a:	e9cd 3003 	strd	r3, r0, [sp, #12]
1000201e:	e9cd 6101 	strd	r6, r1, [sp, #4]
10002022:	462b      	mov	r3, r5
10002024:	4621      	mov	r1, r4
10002026:	4638      	mov	r0, r7
10002028:	f7ff fbfa 	bl	10001820 <_ntoa_format>
1000202c:	9a10      	ldr	r2, [sp, #64]	@ 0x40
1000202e:	4680      	mov	r8, r0
10002030:	b1d2      	cbz	r2, 10002068 <_etoa+0x1a0>
10002032:	eba0 060b 	sub.w	r6, r0, fp
10002036:	45b2      	cmp	sl, r6
10002038:	d916      	bls.n	10002068 <_etoa+0x1a0>
1000203a:	eb0b 0206 	add.w	r2, fp, r6
1000203e:	462b      	mov	r3, r5
10002040:	4621      	mov	r1, r4
10002042:	2020      	movs	r0, #32
10002044:	3601      	adds	r6, #1
10002046:	47b8      	blx	r7
10002048:	45b2      	cmp	sl, r6
1000204a:	d8f6      	bhi.n	1000203a <_etoa+0x172>
1000204c:	f10b 33ff 	add.w	r3, fp, #4294967295
10002050:	4453      	add	r3, sl
10002052:	f1cb 0201 	rsb	r2, fp, #1
10002056:	eba3 0308 	sub.w	r3, r3, r8
1000205a:	4442      	add	r2, r8
1000205c:	4592      	cmp	sl, r2
1000205e:	bf38      	it	cc
10002060:	2300      	movcc	r3, #0
10002062:	f108 0801 	add.w	r8, r8, #1
10002066:	4498      	add	r8, r3
10002068:	4640      	mov	r0, r8
1000206a:	b01f      	add	sp, #124	@ 0x7c
1000206c:	e8bd 8ff0 	ldmia.w	sp!, {r4, r5, r6, r7, r8, r9, sl, fp, pc}
10002070:	465a      	mov	r2, fp
10002072:	4638      	mov	r0, r7
10002074:	e9cd 4528 	strd	r4, r5, [sp, #160]	@ 0xa0
10002078:	e9cd a62b 	strd	sl, r6, [sp, #172]	@ 0xac
1000207c:	9c0e      	ldr	r4, [sp, #56]	@ 0x38
1000207e:	9b09      	ldr	r3, [sp, #36]	@ 0x24
10002080:	9908      	ldr	r1, [sp, #32]
10002082:	942a      	str	r4, [sp, #168]	@ 0xa8
10002084:	b01f      	add	sp, #124	@ 0x7c
10002086:	e8bd 4ff0 	ldmia.w	sp!, {r4, r5, r6, r7, r8, r9, sl, fp, lr}
1000208a:	f7ff bcbd 	b.w	10001a08 <_ftoa>
1000208e:	ea58 0309 	orrs.w	r3, r8, r9
10002092:	d12b      	bne.n	100020ec <_etoa+0x224>
10002094:	2a00      	cmp	r2, #0
10002096:	f43f af62 	beq.w	10001f5e <_etoa+0x96>
1000209a:	2300      	movs	r3, #0
1000209c:	930c      	str	r3, [sp, #48]	@ 0x30
1000209e:	9b0e      	ldr	r3, [sp, #56]	@ 0x38
100020a0:	9a0c      	ldr	r2, [sp, #48]	@ 0x30
100020a2:	4293      	cmp	r3, r2
100020a4:	f300 81b9 	bgt.w	1000241a <_etoa+0x552>
100020a8:	f04f 0800 	mov.w	r8, #0
100020ac:	4620      	mov	r0, r4
100020ae:	4629      	mov	r1, r5
100020b0:	2200      	movs	r2, #0
100020b2:	2300      	movs	r3, #0
100020b4:	f7ff fb18 	bl	100016e8 <__wrap___aeabi_dcmplt>
100020b8:	2800      	cmp	r0, #0
100020ba:	f040 8113 	bne.w	100022e4 <_etoa+0x41c>
100020be:	ed9d 7b0a 	vldr	d7, [sp, #40]	@ 0x28
100020c2:	f426 6600 	bic.w	r6, r6, #2048	@ 0x800
100020c6:	f446 6680 	orr.w	r6, r6, #1024	@ 0x400
100020ca:	ed8d 7b28 	vstr	d7, [sp, #160]	@ 0xa0
100020ce:	465a      	mov	r2, fp
100020d0:	4638      	mov	r0, r7
100020d2:	e9cd 8a2a 	strd	r8, sl, [sp, #168]	@ 0xa8
100020d6:	9b09      	ldr	r3, [sp, #36]	@ 0x24
100020d8:	9908      	ldr	r1, [sp, #32]
100020da:	962c      	str	r6, [sp, #176]	@ 0xb0
100020dc:	e7d2      	b.n	10002084 <_etoa+0x1bc>
100020de:	bf00      	nop
100020e0:	7fefffff 	.word	0x7fefffff
100020e4:	cccccccd 	.word	0xcccccccd
100020e8:	2306      	movs	r3, #6
100020ea:	930e      	str	r3, [sp, #56]	@ 0x38
100020ec:	f3c9 500a 	ubfx	r0, r9, #20, #11
100020f0:	f2a0 30ff 	subw	r0, r0, #1023	@ 0x3ff
100020f4:	f7ff fa9e 	bl	10001634 <__wrap___aeabi_i2d>
100020f8:	a3c1      	add	r3, pc, #772	@ (adr r3, 10002400 <_etoa+0x538>)
100020fa:	e9d3 2300 	ldrd	r2, r3, [r3]
100020fe:	f7ff fa25 	bl	1000154c <__wrap___aeabi_dmul>
10002102:	a3c1      	add	r3, pc, #772	@ (adr r3, 10002408 <_etoa+0x540>)
10002104:	e9d3 2300 	ldrd	r2, r3, [r3]
10002108:	f7ff f9f8 	bl	100014fc <__wrap___aeabi_dadd>
1000210c:	f3c9 0913 	ubfx	r9, r9, #0, #20
10002110:	e9cd 010c 	strd	r0, r1, [sp, #48]	@ 0x30
10002114:	f049 517f 	orr.w	r1, r9, #1069547520	@ 0x3fc00000
10002118:	4640      	mov	r0, r8
1000211a:	2200      	movs	r2, #0
1000211c:	4bb2      	ldr	r3, [pc, #712]	@ (100023e8 <_etoa+0x520>)
1000211e:	f441 1140 	orr.w	r1, r1, #3145728	@ 0x300000
10002122:	f7ff f9ff 	bl	10001524 <__wrap___aeabi_dsub>
10002126:	a3a4      	add	r3, pc, #656	@ (adr r3, 100023b8 <_etoa+0x4f0>)
10002128:	e9d3 2300 	ldrd	r2, r3, [r3]
1000212c:	f7ff fa0e 	bl	1000154c <__wrap___aeabi_dmul>
10002130:	4602      	mov	r2, r0
10002132:	460b      	mov	r3, r1
10002134:	e9dd 010c 	ldrd	r0, r1, [sp, #48]	@ 0x30
10002138:	f7ff f9e0 	bl	100014fc <__wrap___aeabi_dadd>
1000213c:	f7ff fa9e 	bl	1000167c <__wrap___aeabi_d2iz>
10002140:	900c      	str	r0, [sp, #48]	@ 0x30
10002142:	f7ff fa77 	bl	10001634 <__wrap___aeabi_i2d>
10002146:	a39e      	add	r3, pc, #632	@ (adr r3, 100023c0 <_etoa+0x4f8>)
10002148:	e9d3 2300 	ldrd	r2, r3, [r3]
1000214c:	4680      	mov	r8, r0
1000214e:	4689      	mov	r9, r1
10002150:	f7ff f9fc 	bl	1000154c <__wrap___aeabi_dmul>
10002154:	2200      	movs	r2, #0
10002156:	4ba5      	ldr	r3, [pc, #660]	@ (100023ec <_etoa+0x524>)
10002158:	f7ff f9d0 	bl	100014fc <__wrap___aeabi_dadd>
1000215c:	f7ff fa8e 	bl	1000167c <__wrap___aeabi_d2iz>
10002160:	4603      	mov	r3, r0
10002162:	4649      	mov	r1, r9
10002164:	4640      	mov	r0, r8
10002166:	9312      	str	r3, [sp, #72]	@ 0x48
10002168:	a397      	add	r3, pc, #604	@ (adr r3, 100023c8 <_etoa+0x500>)
1000216a:	e9d3 2300 	ldrd	r2, r3, [r3]
1000216e:	f7ff f9ed 	bl	1000154c <__wrap___aeabi_dmul>
10002172:	4680      	mov	r8, r0
10002174:	9812      	ldr	r0, [sp, #72]	@ 0x48
10002176:	4689      	mov	r9, r1
10002178:	f7ff fa5c 	bl	10001634 <__wrap___aeabi_i2d>
1000217c:	a394      	add	r3, pc, #592	@ (adr r3, 100023d0 <_etoa+0x508>)
1000217e:	e9d3 2300 	ldrd	r2, r3, [r3]
10002182:	f7ff f9e3 	bl	1000154c <__wrap___aeabi_dmul>
10002186:	4602      	mov	r2, r0
10002188:	460b      	mov	r3, r1
1000218a:	4640      	mov	r0, r8
1000218c:	4649      	mov	r1, r9
1000218e:	f7ff f9c9 	bl	10001524 <__wrap___aeabi_dsub>
10002192:	4602      	mov	r2, r0
10002194:	460b      	mov	r3, r1
10002196:	4680      	mov	r8, r0
10002198:	4689      	mov	r9, r1
1000219a:	f7ff f9d7 	bl	1000154c <__wrap___aeabi_dmul>
1000219e:	4642      	mov	r2, r8
100021a0:	464b      	mov	r3, r9
100021a2:	e9cd 0110 	strd	r0, r1, [sp, #64]	@ 0x40
100021a6:	4640      	mov	r0, r8
100021a8:	4649      	mov	r1, r9
100021aa:	f7ff f9a7 	bl	100014fc <__wrap___aeabi_dadd>
100021ae:	2200      	movs	r2, #0
100021b0:	e9cd 0114 	strd	r0, r1, [sp, #80]	@ 0x50
100021b4:	e9dd 0110 	ldrd	r0, r1, [sp, #64]	@ 0x40
100021b8:	4b8d      	ldr	r3, [pc, #564]	@ (100023f0 <_etoa+0x528>)
100021ba:	f7ff f9ed 	bl	10001598 <__wrap___aeabi_ddiv>
100021be:	2200      	movs	r2, #0
100021c0:	4b8c      	ldr	r3, [pc, #560]	@ (100023f4 <_etoa+0x52c>)
100021c2:	f7ff f99b 	bl	100014fc <__wrap___aeabi_dadd>
100021c6:	4602      	mov	r2, r0
100021c8:	460b      	mov	r3, r1
100021ca:	e9dd 0110 	ldrd	r0, r1, [sp, #64]	@ 0x40
100021ce:	f7ff f9e3 	bl	10001598 <__wrap___aeabi_ddiv>
100021d2:	2200      	movs	r2, #0
100021d4:	4b88      	ldr	r3, [pc, #544]	@ (100023f8 <_etoa+0x530>)
100021d6:	f7ff f991 	bl	100014fc <__wrap___aeabi_dadd>
100021da:	4602      	mov	r2, r0
100021dc:	460b      	mov	r3, r1
100021de:	e9dd 0110 	ldrd	r0, r1, [sp, #64]	@ 0x40
100021e2:	f7ff f9d9 	bl	10001598 <__wrap___aeabi_ddiv>
100021e6:	4642      	mov	r2, r8
100021e8:	464b      	mov	r3, r9
100021ea:	4680      	mov	r8, r0
100021ec:	4689      	mov	r9, r1
100021ee:	2000      	movs	r0, #0
100021f0:	f04f 4180 	mov.w	r1, #1073741824	@ 0x40000000
100021f4:	f7ff f996 	bl	10001524 <__wrap___aeabi_dsub>
100021f8:	4602      	mov	r2, r0
100021fa:	460b      	mov	r3, r1
100021fc:	4640      	mov	r0, r8
100021fe:	4649      	mov	r1, r9
10002200:	f7ff f97c 	bl	100014fc <__wrap___aeabi_dadd>
10002204:	4602      	mov	r2, r0
10002206:	460b      	mov	r3, r1
10002208:	e9dd 0114 	ldrd	r0, r1, [sp, #80]	@ 0x50
1000220c:	f7ff f9c4 	bl	10001598 <__wrap___aeabi_ddiv>
10002210:	2200      	movs	r2, #0
10002212:	4b7a      	ldr	r3, [pc, #488]	@ (100023fc <_etoa+0x534>)
10002214:	f7ff f972 	bl	100014fc <__wrap___aeabi_dadd>
10002218:	9b12      	ldr	r3, [sp, #72]	@ 0x48
1000221a:	2200      	movs	r2, #0
1000221c:	f203 3cff 	addw	ip, r3, #1023	@ 0x3ff
10002220:	ea4f 530c 	mov.w	r3, ip, lsl #20
10002224:	f7ff f992 	bl	1000154c <__wrap___aeabi_dmul>
10002228:	4680      	mov	r8, r0
1000222a:	4689      	mov	r9, r1
1000222c:	e9dd 010a 	ldrd	r0, r1, [sp, #40]	@ 0x28
10002230:	4642      	mov	r2, r8
10002232:	464b      	mov	r3, r9
10002234:	f7ff fa58 	bl	100016e8 <__wrap___aeabi_dcmplt>
10002238:	b150      	cbz	r0, 10002250 <_etoa+0x388>
1000223a:	9b0c      	ldr	r3, [sp, #48]	@ 0x30
1000223c:	4640      	mov	r0, r8
1000223e:	3b01      	subs	r3, #1
10002240:	4649      	mov	r1, r9
10002242:	930c      	str	r3, [sp, #48]	@ 0x30
10002244:	2200      	movs	r2, #0
10002246:	4b6b      	ldr	r3, [pc, #428]	@ (100023f4 <_etoa+0x52c>)
10002248:	f7ff f9a6 	bl	10001598 <__wrap___aeabi_ddiv>
1000224c:	4680      	mov	r8, r0
1000224e:	4689      	mov	r9, r1
10002250:	9a0c      	ldr	r2, [sp, #48]	@ 0x30
10002252:	4643      	mov	r3, r8
10002254:	3263      	adds	r2, #99	@ 0x63
10002256:	2ac6      	cmp	r2, #198	@ 0xc6
10002258:	f006 0202 	and.w	r2, r6, #2
1000225c:	9210      	str	r2, [sp, #64]	@ 0x40
1000225e:	4649      	mov	r1, r9
10002260:	9a0f      	ldr	r2, [sp, #60]	@ 0x3c
10002262:	d82c      	bhi.n	100022be <_etoa+0x3f6>
10002264:	2a00      	cmp	r2, #0
10002266:	d05e      	beq.n	10002326 <_etoa+0x45e>
10002268:	2204      	movs	r2, #4
1000226a:	9212      	str	r2, [sp, #72]	@ 0x48
1000226c:	430b      	orrs	r3, r1
1000226e:	f43f af16 	beq.w	1000209e <_etoa+0x1d6>
10002272:	e9dd 010a 	ldrd	r0, r1, [sp, #40]	@ 0x28
10002276:	a358      	add	r3, pc, #352	@ (adr r3, 100023d8 <_etoa+0x510>)
10002278:	e9d3 2300 	ldrd	r2, r3, [r3]
1000227c:	f7ff fa5c 	bl	10001738 <__wrap___aeabi_dcmpge>
10002280:	b148      	cbz	r0, 10002296 <_etoa+0x3ce>
10002282:	e9dd 010a 	ldrd	r0, r1, [sp, #40]	@ 0x28
10002286:	a356      	add	r3, pc, #344	@ (adr r3, 100023e0 <_etoa+0x518>)
10002288:	e9d3 2300 	ldrd	r2, r3, [r3]
1000228c:	f7ff fa2c 	bl	100016e8 <__wrap___aeabi_dcmplt>
10002290:	2800      	cmp	r0, #0
10002292:	f47f af04 	bne.w	1000209e <_etoa+0x1d6>
10002296:	9b0e      	ldr	r3, [sp, #56]	@ 0x38
10002298:	2b00      	cmp	r3, #0
1000229a:	d050      	beq.n	1000233e <_etoa+0x476>
1000229c:	9a13      	ldr	r2, [sp, #76]	@ 0x4c
1000229e:	2a00      	cmp	r2, #0
100022a0:	d07d      	beq.n	1000239e <_etoa+0x4d6>
100022a2:	3b01      	subs	r3, #1
100022a4:	930e      	str	r3, [sp, #56]	@ 0x38
100022a6:	9b12      	ldr	r3, [sp, #72]	@ 0x48
100022a8:	459a      	cmp	sl, r3
100022aa:	d905      	bls.n	100022b8 <_etoa+0x3f0>
100022ac:	9b10      	ldr	r3, [sp, #64]	@ 0x40
100022ae:	2b00      	cmp	r3, #0
100022b0:	f000 80ae 	beq.w	10002410 <_etoa+0x548>
100022b4:	2302      	movs	r3, #2
100022b6:	9310      	str	r3, [sp, #64]	@ 0x40
100022b8:	2300      	movs	r3, #0
100022ba:	930f      	str	r3, [sp, #60]	@ 0x3c
100022bc:	e044      	b.n	10002348 <_etoa+0x480>
100022be:	bb22      	cbnz	r2, 1000230a <_etoa+0x442>
100022c0:	f1ba 0f05 	cmp.w	sl, #5
100022c4:	d94f      	bls.n	10002366 <_etoa+0x49e>
100022c6:	f006 0302 	and.w	r3, r6, #2
100022ca:	2b00      	cmp	r3, #0
100022cc:	d149      	bne.n	10002362 <_etoa+0x49a>
100022ce:	2305      	movs	r3, #5
100022d0:	9312      	str	r3, [sp, #72]	@ 0x48
100022d2:	f1aa 0305 	sub.w	r3, sl, #5
100022d6:	930f      	str	r3, [sp, #60]	@ 0x3c
100022d8:	e03a      	b.n	10002350 <_etoa+0x488>
100022da:	f105 4300 	add.w	r3, r5, #2147483648	@ 0x80000000
100022de:	940a      	str	r4, [sp, #40]	@ 0x28
100022e0:	930b      	str	r3, [sp, #44]	@ 0x2c
100022e2:	e627      	b.n	10001f34 <_etoa+0x6c>
100022e4:	f426 6600 	bic.w	r6, r6, #2048	@ 0x800
100022e8:	f446 6680 	orr.w	r6, r6, #1024	@ 0x400
100022ec:	4638      	mov	r0, r7
100022ee:	962c      	str	r6, [sp, #176]	@ 0xb0
100022f0:	e9dd 670a 	ldrd	r6, r7, [sp, #40]	@ 0x28
100022f4:	4634      	mov	r4, r6
100022f6:	f107 4500 	add.w	r5, r7, #2147483648	@ 0x80000000
100022fa:	465a      	mov	r2, fp
100022fc:	e9cd 8a2a 	strd	r8, sl, [sp, #168]	@ 0xa8
10002300:	e9cd 4528 	strd	r4, r5, [sp, #160]	@ 0xa0
10002304:	9b09      	ldr	r3, [sp, #36]	@ 0x24
10002306:	9908      	ldr	r1, [sp, #32]
10002308:	e6bc      	b.n	10002084 <_etoa+0x1bc>
1000230a:	2205      	movs	r2, #5
1000230c:	9212      	str	r2, [sp, #72]	@ 0x48
1000230e:	e7ad      	b.n	1000226c <_etoa+0x3a4>
10002310:	2300      	movs	r3, #0
10002312:	2202      	movs	r2, #2
10002314:	e9cd 320f 	strd	r3, r2, [sp, #60]	@ 0x3c
10002318:	2204      	movs	r2, #4
1000231a:	930c      	str	r3, [sp, #48]	@ 0x30
1000231c:	9212      	str	r2, [sp, #72]	@ 0x48
1000231e:	e62c      	b.n	10001f7a <_etoa+0xb2>
10002320:	f04f 0805 	mov.w	r8, #5
10002324:	e6c2      	b.n	100020ac <_etoa+0x1e4>
10002326:	f1ba 0f04 	cmp.w	sl, #4
1000232a:	d91f      	bls.n	1000236c <_etoa+0x4a4>
1000232c:	9b10      	ldr	r3, [sp, #64]	@ 0x40
1000232e:	2b00      	cmp	r3, #0
10002330:	d178      	bne.n	10002424 <_etoa+0x55c>
10002332:	2304      	movs	r3, #4
10002334:	9312      	str	r3, [sp, #72]	@ 0x48
10002336:	f1aa 0304 	sub.w	r3, sl, #4
1000233a:	930f      	str	r3, [sp, #60]	@ 0x3c
1000233c:	e004      	b.n	10002348 <_etoa+0x480>
1000233e:	9b12      	ldr	r3, [sp, #72]	@ 0x48
10002340:	459a      	cmp	sl, r3
10002342:	d831      	bhi.n	100023a8 <_etoa+0x4e0>
10002344:	9b0e      	ldr	r3, [sp, #56]	@ 0x38
10002346:	930f      	str	r3, [sp, #60]	@ 0x3c
10002348:	9b0c      	ldr	r3, [sp, #48]	@ 0x30
1000234a:	2b00      	cmp	r3, #0
1000234c:	f43f ae15 	beq.w	10001f7a <_etoa+0xb2>
10002350:	e9dd 010a 	ldrd	r0, r1, [sp, #40]	@ 0x28
10002354:	4642      	mov	r2, r8
10002356:	464b      	mov	r3, r9
10002358:	f7ff f91e 	bl	10001598 <__wrap___aeabi_ddiv>
1000235c:	e9cd 010a 	strd	r0, r1, [sp, #40]	@ 0x28
10002360:	e60b      	b.n	10001f7a <_etoa+0xb2>
10002362:	2302      	movs	r3, #2
10002364:	9310      	str	r3, [sp, #64]	@ 0x40
10002366:	2305      	movs	r3, #5
10002368:	9312      	str	r3, [sp, #72]	@ 0x48
1000236a:	e7f1      	b.n	10002350 <_etoa+0x488>
1000236c:	2304      	movs	r3, #4
1000236e:	9312      	str	r3, [sp, #72]	@ 0x48
10002370:	e7ea      	b.n	10002348 <_etoa+0x480>
10002372:	e9dd 450a 	ldrd	r4, r5, [sp, #40]	@ 0x28
10002376:	46a0      	mov	r8, r4
10002378:	9b0f      	ldr	r3, [sp, #60]	@ 0x3c
1000237a:	f105 4900 	add.w	r9, r5, #2147483648	@ 0x80000000
1000237e:	9303      	str	r3, [sp, #12]
10002380:	9b0e      	ldr	r3, [sp, #56]	@ 0x38
10002382:	465a      	mov	r2, fp
10002384:	9302      	str	r3, [sp, #8]
10002386:	f426 6300 	bic.w	r3, r6, #2048	@ 0x800
1000238a:	9304      	str	r3, [sp, #16]
1000238c:	4638      	mov	r0, r7
1000238e:	e9cd 8900 	strd	r8, r9, [sp]
10002392:	9b09      	ldr	r3, [sp, #36]	@ 0x24
10002394:	9908      	ldr	r1, [sp, #32]
10002396:	f7ff fb37 	bl	10001a08 <_ftoa>
1000239a:	4602      	mov	r2, r0
1000239c:	e608      	b.n	10001fb0 <_etoa+0xe8>
1000239e:	9b12      	ldr	r3, [sp, #72]	@ 0x48
100023a0:	459a      	cmp	sl, r3
100023a2:	d844      	bhi.n	1000242e <_etoa+0x566>
100023a4:	920f      	str	r2, [sp, #60]	@ 0x3c
100023a6:	e7cf      	b.n	10002348 <_etoa+0x480>
100023a8:	9b10      	ldr	r3, [sp, #64]	@ 0x40
100023aa:	b38b      	cbz	r3, 10002410 <_etoa+0x548>
100023ac:	9b0e      	ldr	r3, [sp, #56]	@ 0x38
100023ae:	930f      	str	r3, [sp, #60]	@ 0x3c
100023b0:	2302      	movs	r3, #2
100023b2:	9310      	str	r3, [sp, #64]	@ 0x40
100023b4:	e7c8      	b.n	10002348 <_etoa+0x480>
100023b6:	bf00      	nop
100023b8:	636f4361 	.word	0x636f4361
100023bc:	3fd287a7 	.word	0x3fd287a7
100023c0:	0979a371 	.word	0x0979a371
100023c4:	400a934f 	.word	0x400a934f
100023c8:	bbb55516 	.word	0xbbb55516
100023cc:	40026bb1 	.word	0x40026bb1
100023d0:	fefa39ef 	.word	0xfefa39ef
100023d4:	3fe62e42 	.word	0x3fe62e42
100023d8:	eb1c432d 	.word	0xeb1c432d
100023dc:	3f1a36e2 	.word	0x3f1a36e2
100023e0:	00000000 	.word	0x00000000
100023e4:	412e8480 	.word	0x412e8480
100023e8:	3ff80000 	.word	0x3ff80000
100023ec:	3fe00000 	.word	0x3fe00000
100023f0:	402c0000 	.word	0x402c0000
100023f4:	40240000 	.word	0x40240000
100023f8:	40180000 	.word	0x40180000
100023fc:	3ff00000 	.word	0x3ff00000
10002400:	509f79fb 	.word	0x509f79fb
10002404:	3fd34413 	.word	0x3fd34413
10002408:	8b60c8b3 	.word	0x8b60c8b3
1000240c:	3fc68a28 	.word	0x3fc68a28
10002410:	9b12      	ldr	r3, [sp, #72]	@ 0x48
10002412:	ebaa 0303 	sub.w	r3, sl, r3
10002416:	930f      	str	r3, [sp, #60]	@ 0x3c
10002418:	e796      	b.n	10002348 <_etoa+0x480>
1000241a:	eba3 0802 	sub.w	r8, r3, r2
1000241e:	f108 38ff 	add.w	r8, r8, #4294967295
10002422:	e643      	b.n	100020ac <_etoa+0x1e4>
10002424:	2304      	movs	r3, #4
10002426:	9312      	str	r3, [sp, #72]	@ 0x48
10002428:	2302      	movs	r3, #2
1000242a:	9310      	str	r3, [sp, #64]	@ 0x40
1000242c:	e78c      	b.n	10002348 <_etoa+0x480>
1000242e:	9b10      	ldr	r3, [sp, #64]	@ 0x40
10002430:	2b00      	cmp	r3, #0
10002432:	d0ed      	beq.n	10002410 <_etoa+0x548>
10002434:	2302      	movs	r3, #2
10002436:	920f      	str	r2, [sp, #60]	@ 0x3c
10002438:	9310      	str	r3, [sp, #64]	@ 0x40
1000243a:	e785      	b.n	10002348 <_etoa+0x480>

1000243c <_vsnprintf>:
1000243c:	e92d 4ff0 	stmdb	sp!, {r4, r5, r6, r7, r8, r9, sl, fp, lr}
10002440:	b09b      	sub	sp, #108	@ 0x6c
10002442:	9c24      	ldr	r4, [sp, #144]	@ 0x90
10002444:	4d95      	ldr	r5, [pc, #596]	@ (1000269c <_vsnprintf+0x260>)
10002446:	940a      	str	r4, [sp, #40]	@ 0x28
10002448:	4c95      	ldr	r4, [pc, #596]	@ (100026a0 <_vsnprintf+0x264>)
1000244a:	f1b1 0a00 	subs.w	sl, r1, #0
1000244e:	bf18      	it	ne
10002450:	4683      	movne	fp, r0
10002452:	6025      	str	r5, [r4, #0]
10002454:	7818      	ldrb	r0, [r3, #0]
10002456:	4c93      	ldr	r4, [pc, #588]	@ (100026a4 <_vsnprintf+0x268>)
10002458:	4691      	mov	r9, r2
1000245a:	bf08      	it	eq
1000245c:	46a3      	moveq	fp, r4
1000245e:	9309      	str	r3, [sp, #36]	@ 0x24
10002460:	2800      	cmp	r0, #0
10002462:	f000 8293 	beq.w	1000298c <_vsnprintf+0x550>
10002466:	f04f 0800 	mov.w	r8, #0
1000246a:	e00a      	b.n	10002482 <_vsnprintf+0x46>
1000246c:	4642      	mov	r2, r8
1000246e:	464b      	mov	r3, r9
10002470:	4651      	mov	r1, sl
10002472:	f108 0801 	add.w	r8, r8, #1
10002476:	47d8      	blx	fp
10002478:	9b09      	ldr	r3, [sp, #36]	@ 0x24
1000247a:	7818      	ldrb	r0, [r3, #0]
1000247c:	2800      	cmp	r0, #0
1000247e:	f000 80ce 	beq.w	1000261e <_vsnprintf+0x1e2>
10002482:	9b09      	ldr	r3, [sp, #36]	@ 0x24
10002484:	2825      	cmp	r0, #37	@ 0x25
10002486:	f103 0301 	add.w	r3, r3, #1
1000248a:	9309      	str	r3, [sp, #36]	@ 0x24
1000248c:	d1ee      	bne.n	1000246c <_vsnprintf+0x30>
1000248e:	461c      	mov	r4, r3
10002490:	2300      	movs	r3, #0
10002492:	4622      	mov	r2, r4
10002494:	f812 0b01 	ldrb.w	r0, [r2], #1
10002498:	f1a0 0120 	sub.w	r1, r0, #32
1000249c:	2910      	cmp	r1, #16
1000249e:	d80a      	bhi.n	100024b6 <_vsnprintf+0x7a>
100024a0:	e8df f001 	tbb	[pc, r1]
100024a4:	3c090940 	.word	0x3c090940
100024a8:	09090909 	.word	0x09090909
100024ac:	38090909 	.word	0x38090909
100024b0:	09093409 	.word	0x09093409
100024b4:	30          	.byte	0x30
100024b5:	00          	.byte	0x00
100024b6:	f1a0 0130 	sub.w	r1, r0, #48	@ 0x30
100024ba:	2909      	cmp	r1, #9
100024bc:	9409      	str	r4, [sp, #36]	@ 0x24
100024be:	f240 808a 	bls.w	100025d6 <_vsnprintf+0x19a>
100024c2:	282a      	cmp	r0, #42	@ 0x2a
100024c4:	f000 80f0 	beq.w	100026a8 <_vsnprintf+0x26c>
100024c8:	2500      	movs	r5, #0
100024ca:	282e      	cmp	r0, #46	@ 0x2e
100024cc:	f000 8096 	beq.w	100025fc <_vsnprintf+0x1c0>
100024d0:	2600      	movs	r6, #0
100024d2:	f1a0 0168 	sub.w	r1, r0, #104	@ 0x68
100024d6:	2912      	cmp	r1, #18
100024d8:	d82d      	bhi.n	10002536 <_vsnprintf+0xfa>
100024da:	e8df f011 	tbh	[pc, r1, lsl #1]
100024de:	0149      	.short	0x0149
100024e0:	0143002c 	.word	0x0143002c
100024e4:	0138002c 	.word	0x0138002c
100024e8:	002c002c 	.word	0x002c002c
100024ec:	002c002c 	.word	0x002c002c
100024f0:	002c002c 	.word	0x002c002c
100024f4:	0027002c 	.word	0x0027002c
100024f8:	002c002c 	.word	0x002c002c
100024fc:	002c002c 	.word	0x002c002c
10002500:	0027002c 	.word	0x0027002c
10002504:	4614      	mov	r4, r2
10002506:	f043 0301 	orr.w	r3, r3, #1
1000250a:	e7c2      	b.n	10002492 <_vsnprintf+0x56>
1000250c:	4614      	mov	r4, r2
1000250e:	f043 0302 	orr.w	r3, r3, #2
10002512:	e7be      	b.n	10002492 <_vsnprintf+0x56>
10002514:	4614      	mov	r4, r2
10002516:	f043 0304 	orr.w	r3, r3, #4
1000251a:	e7ba      	b.n	10002492 <_vsnprintf+0x56>
1000251c:	4614      	mov	r4, r2
1000251e:	f043 0310 	orr.w	r3, r3, #16
10002522:	e7b6      	b.n	10002492 <_vsnprintf+0x56>
10002524:	4614      	mov	r4, r2
10002526:	f043 0308 	orr.w	r3, r3, #8
1000252a:	e7b2      	b.n	10002492 <_vsnprintf+0x56>
1000252c:	9909      	ldr	r1, [sp, #36]	@ 0x24
1000252e:	7848      	ldrb	r0, [r1, #1]
10002530:	f443 7380 	orr.w	r3, r3, #256	@ 0x100
10002534:	3201      	adds	r2, #1
10002536:	2867      	cmp	r0, #103	@ 0x67
10002538:	9209      	str	r2, [sp, #36]	@ 0x24
1000253a:	d87e      	bhi.n	1000263a <_vsnprintf+0x1fe>
1000253c:	2824      	cmp	r0, #36	@ 0x24
1000253e:	f240 80c1 	bls.w	100026c4 <_vsnprintf+0x288>
10002542:	f1a0 0225 	sub.w	r2, r0, #37	@ 0x25
10002546:	2a42      	cmp	r2, #66	@ 0x42
10002548:	f200 80bc 	bhi.w	100026c4 <_vsnprintf+0x288>
1000254c:	e8df f012 	tbh	[pc, r2, lsl #1]
10002550:	00ba0150 	.word	0x00ba0150
10002554:	00ba00ba 	.word	0x00ba00ba
10002558:	00ba00ba 	.word	0x00ba00ba
1000255c:	00ba00ba 	.word	0x00ba00ba
10002560:	00ba00ba 	.word	0x00ba00ba
10002564:	00ba00ba 	.word	0x00ba00ba
10002568:	00ba00ba 	.word	0x00ba00ba
1000256c:	00ba00ba 	.word	0x00ba00ba
10002570:	00ba00ba 	.word	0x00ba00ba
10002574:	00ba00ba 	.word	0x00ba00ba
10002578:	00ba00ba 	.word	0x00ba00ba
1000257c:	00ba00ba 	.word	0x00ba00ba
10002580:	00ba00ba 	.word	0x00ba00ba
10002584:	00ba00ba 	.word	0x00ba00ba
10002588:	00ba00ba 	.word	0x00ba00ba
1000258c:	00ba00ba 	.word	0x00ba00ba
10002590:	01370119 	.word	0x01370119
10002594:	00ba0119 	.word	0x00ba0119
10002598:	00ba00ba 	.word	0x00ba00ba
1000259c:	00ba00ba 	.word	0x00ba00ba
100025a0:	00ba00ba 	.word	0x00ba00ba
100025a4:	00ba00ba 	.word	0x00ba00ba
100025a8:	00ba00ba 	.word	0x00ba00ba
100025ac:	00ba00ba 	.word	0x00ba00ba
100025b0:	00ba00ba 	.word	0x00ba00ba
100025b4:	01bc00ba 	.word	0x01bc00ba
100025b8:	00ba00ba 	.word	0x00ba00ba
100025bc:	00ba00ba 	.word	0x00ba00ba
100025c0:	00ba00ba 	.word	0x00ba00ba
100025c4:	00ba00ba 	.word	0x00ba00ba
100025c8:	01bc00ba 	.word	0x01bc00ba
100025cc:	01bc0158 	.word	0x01bc0158
100025d0:	01370119 	.word	0x01370119
100025d4:	0119      	.short	0x0119
100025d6:	2500      	movs	r5, #0
100025d8:	e000      	b.n	100025dc <_vsnprintf+0x1a0>
100025da:	3201      	adds	r2, #1
100025dc:	eb05 0585 	add.w	r5, r5, r5, lsl #2
100025e0:	eb00 0545 	add.w	r5, r0, r5, lsl #1
100025e4:	7810      	ldrb	r0, [r2, #0]
100025e6:	3d30      	subs	r5, #48	@ 0x30
100025e8:	f1a0 0130 	sub.w	r1, r0, #48	@ 0x30
100025ec:	2909      	cmp	r1, #9
100025ee:	d9f4      	bls.n	100025da <_vsnprintf+0x19e>
100025f0:	282e      	cmp	r0, #46	@ 0x2e
100025f2:	9209      	str	r2, [sp, #36]	@ 0x24
100025f4:	f102 0201 	add.w	r2, r2, #1
100025f8:	f47f af6a 	bne.w	100024d0 <_vsnprintf+0x94>
100025fc:	9909      	ldr	r1, [sp, #36]	@ 0x24
100025fe:	f443 6380 	orr.w	r3, r3, #1024	@ 0x400
10002602:	7848      	ldrb	r0, [r1, #1]
10002604:	4611      	mov	r1, r2
10002606:	f1a0 0630 	sub.w	r6, r0, #48	@ 0x30
1000260a:	2e09      	cmp	r6, #9
1000260c:	f240 8121 	bls.w	10002852 <_vsnprintf+0x416>
10002610:	282a      	cmp	r0, #42	@ 0x2a
10002612:	f000 812f 	beq.w	10002874 <_vsnprintf+0x438>
10002616:	9209      	str	r2, [sp, #36]	@ 0x24
10002618:	2600      	movs	r6, #0
1000261a:	3201      	adds	r2, #1
1000261c:	e759      	b.n	100024d2 <_vsnprintf+0x96>
1000261e:	4644      	mov	r4, r8
10002620:	45c1      	cmp	r9, r8
10002622:	d801      	bhi.n	10002628 <_vsnprintf+0x1ec>
10002624:	f109 38ff 	add.w	r8, r9, #4294967295
10002628:	464b      	mov	r3, r9
1000262a:	4642      	mov	r2, r8
1000262c:	4651      	mov	r1, sl
1000262e:	2000      	movs	r0, #0
10002630:	47d8      	blx	fp
10002632:	4620      	mov	r0, r4
10002634:	b01b      	add	sp, #108	@ 0x6c
10002636:	e8bd 8ff0 	ldmia.w	sp!, {r4, r5, r6, r7, r8, r9, sl, fp, pc}
1000263a:	f1a0 0269 	sub.w	r2, r0, #105	@ 0x69
1000263e:	b2d2      	uxtb	r2, r2
10002640:	2a0f      	cmp	r2, #15
10002642:	d83f      	bhi.n	100026c4 <_vsnprintf+0x288>
10002644:	2101      	movs	r1, #1
10002646:	f249 0741 	movw	r7, #36929	@ 0x9041
1000264a:	4091      	lsls	r1, r2
1000264c:	4039      	ands	r1, r7
1000264e:	f040 80f3 	bne.w	10002838 <_vsnprintf+0x3fc>
10002652:	2a0a      	cmp	r2, #10
10002654:	d03d      	beq.n	100026d2 <_vsnprintf+0x296>
10002656:	2a07      	cmp	r2, #7
10002658:	d134      	bne.n	100026c4 <_vsnprintf+0x288>
1000265a:	9d0a      	ldr	r5, [sp, #40]	@ 0x28
1000265c:	f855 2b04 	ldr.w	r2, [r5], #4
10002660:	2a00      	cmp	r2, #0
10002662:	f000 8113 	beq.w	1000288c <_vsnprintf+0x450>
10002666:	f043 0021 	orr.w	r0, r3, #33	@ 0x21
1000266a:	ab12      	add	r3, sp, #72	@ 0x48
1000266c:	461f      	mov	r7, r3
1000266e:	930b      	str	r3, [sp, #44]	@ 0x2c
10002670:	e003      	b.n	1000267a <_vsnprintf+0x23e>
10002672:	2920      	cmp	r1, #32
10002674:	f000 8114 	beq.w	100028a0 <_vsnprintf+0x464>
10002678:	461a      	mov	r2, r3
1000267a:	f002 040f 	and.w	r4, r2, #15
1000267e:	4623      	mov	r3, r4
10002680:	2c09      	cmp	r4, #9
10002682:	bf94      	ite	ls
10002684:	3330      	addls	r3, #48	@ 0x30
10002686:	3337      	addhi	r3, #55	@ 0x37
10002688:	2a0f      	cmp	r2, #15
1000268a:	f807 3b01 	strb.w	r3, [r7], #1
1000268e:	f101 0101 	add.w	r1, r1, #1
10002692:	ea4f 1312 	mov.w	r3, r2, lsr #4
10002696:	d8ec      	bhi.n	10002672 <_vsnprintf+0x236>
10002698:	e102      	b.n	100028a0 <_vsnprintf+0x464>
1000269a:	bf00      	nop
1000269c:	1000243d 	.word	0x1000243d
100026a0:	20000814 	.word	0x20000814
100026a4:	10001781 	.word	0x10001781
100026a8:	990a      	ldr	r1, [sp, #40]	@ 0x28
100026aa:	9809      	ldr	r0, [sp, #36]	@ 0x24
100026ac:	f851 5b04 	ldr.w	r5, [r1], #4
100026b0:	7840      	ldrb	r0, [r0, #1]
100026b2:	2d00      	cmp	r5, #0
100026b4:	e9cd 2109 	strd	r2, r1, [sp, #36]	@ 0x24
100026b8:	bfbc      	itt	lt
100026ba:	f043 0302 	orrlt.w	r3, r3, #2
100026be:	426d      	neglt	r5, r5
100026c0:	3201      	adds	r2, #1
100026c2:	e702      	b.n	100024ca <_vsnprintf+0x8e>
100026c4:	4642      	mov	r2, r8
100026c6:	464b      	mov	r3, r9
100026c8:	4651      	mov	r1, sl
100026ca:	f108 0801 	add.w	r8, r8, #1
100026ce:	47d8      	blx	fp
100026d0:	e6d2      	b.n	10002478 <_vsnprintf+0x3c>
100026d2:	990a      	ldr	r1, [sp, #40]	@ 0x28
100026d4:	2e00      	cmp	r6, #0
100026d6:	f851 7b04 	ldr.w	r7, [r1], #4
100026da:	bf18      	it	ne
100026dc:	4632      	movne	r2, r6
100026de:	7838      	ldrb	r0, [r7, #0]
100026e0:	bf08      	it	eq
100026e2:	f04f 32ff 	moveq.w	r2, #4294967295
100026e6:	2800      	cmp	r0, #0
100026e8:	f000 837b 	beq.w	10002de2 <_vsnprintf+0x9a6>
100026ec:	18bc      	adds	r4, r7, r2
100026ee:	46a4      	mov	ip, r4
100026f0:	463a      	mov	r2, r7
100026f2:	e004      	b.n	100026fe <_vsnprintf+0x2c2>
100026f4:	f812 4f01 	ldrb.w	r4, [r2, #1]!
100026f8:	2c00      	cmp	r4, #0
100026fa:	f000 813f 	beq.w	1000297c <_vsnprintf+0x540>
100026fe:	4594      	cmp	ip, r2
10002700:	d1f8      	bne.n	100026f4 <_vsnprintf+0x2b8>
10002702:	4664      	mov	r4, ip
10002704:	1be4      	subs	r4, r4, r7
10002706:	055a      	lsls	r2, r3, #21
10002708:	f140 8122 	bpl.w	10002950 <_vsnprintf+0x514>
1000270c:	42b4      	cmp	r4, r6
1000270e:	bf28      	it	cs
10002710:	4634      	movcs	r4, r6
10002712:	f013 0302 	ands.w	r3, r3, #2
10002716:	f000 8288 	beq.w	10002c2a <_vsnprintf+0x7ee>
1000271a:	2302      	movs	r3, #2
1000271c:	e9cd 510a 	strd	r5, r1, [sp, #40]	@ 0x28
10002720:	4642      	mov	r2, r8
10002722:	461d      	mov	r5, r3
10002724:	4446      	add	r6, r8
10002726:	e008      	b.n	1000273a <_vsnprintf+0x2fe>
10002728:	464b      	mov	r3, r9
1000272a:	4651      	mov	r1, sl
1000272c:	47d8      	blx	fp
1000272e:	f817 0f01 	ldrb.w	r0, [r7, #1]!
10002732:	f108 0801 	add.w	r8, r8, #1
10002736:	b110      	cbz	r0, 1000273e <_vsnprintf+0x302>
10002738:	4642      	mov	r2, r8
1000273a:	4546      	cmp	r6, r8
1000273c:	d1f4      	bne.n	10002728 <_vsnprintf+0x2ec>
1000273e:	462b      	mov	r3, r5
10002740:	990b      	ldr	r1, [sp, #44]	@ 0x2c
10002742:	9d0a      	ldr	r5, [sp, #40]	@ 0x28
10002744:	2b00      	cmp	r3, #0
10002746:	f040 8141 	bne.w	100029cc <_vsnprintf+0x590>
1000274a:	910a      	str	r1, [sp, #40]	@ 0x28
1000274c:	e694      	b.n	10002478 <_vsnprintf+0x3c>
1000274e:	9909      	ldr	r1, [sp, #36]	@ 0x24
10002750:	7848      	ldrb	r0, [r1, #1]
10002752:	286c      	cmp	r0, #108	@ 0x6c
10002754:	f47f aeec 	bne.w	10002530 <_vsnprintf+0xf4>
10002758:	460a      	mov	r2, r1
1000275a:	7888      	ldrb	r0, [r1, #2]
1000275c:	f443 7340 	orr.w	r3, r3, #768	@ 0x300
10002760:	3203      	adds	r2, #3
10002762:	e6e8      	b.n	10002536 <_vsnprintf+0xfa>
10002764:	9909      	ldr	r1, [sp, #36]	@ 0x24
10002766:	f443 7300 	orr.w	r3, r3, #512	@ 0x200
1000276a:	7848      	ldrb	r0, [r1, #1]
1000276c:	3201      	adds	r2, #1
1000276e:	e6e2      	b.n	10002536 <_vsnprintf+0xfa>
10002770:	9909      	ldr	r1, [sp, #36]	@ 0x24
10002772:	7848      	ldrb	r0, [r1, #1]
10002774:	2868      	cmp	r0, #104	@ 0x68
10002776:	f000 8103 	beq.w	10002980 <_vsnprintf+0x544>
1000277a:	f043 0380 	orr.w	r3, r3, #128	@ 0x80
1000277e:	3201      	adds	r2, #1
10002780:	e6d9      	b.n	10002536 <_vsnprintf+0xfa>
10002782:	2867      	cmp	r0, #103	@ 0x67
10002784:	f000 80d9 	beq.w	1000293a <_vsnprintf+0x4fe>
10002788:	2847      	cmp	r0, #71	@ 0x47
1000278a:	f000 80dc 	beq.w	10002946 <_vsnprintf+0x50a>
1000278e:	2845      	cmp	r0, #69	@ 0x45
10002790:	f000 80db 	beq.w	1000294a <_vsnprintf+0x50e>
10002794:	e9cd 5303 	strd	r5, r3, [sp, #12]
10002798:	9b0a      	ldr	r3, [sp, #40]	@ 0x28
1000279a:	9602      	str	r6, [sp, #8]
1000279c:	3307      	adds	r3, #7
1000279e:	f023 0307 	bic.w	r3, r3, #7
100027a2:	461c      	mov	r4, r3
100027a4:	4642      	mov	r2, r8
100027a6:	e8f4 6702 	ldrd	r6, r7, [r4], #8
100027aa:	464b      	mov	r3, r9
100027ac:	4651      	mov	r1, sl
100027ae:	4658      	mov	r0, fp
100027b0:	e9cd 6700 	strd	r6, r7, [sp]
100027b4:	940a      	str	r4, [sp, #40]	@ 0x28
100027b6:	f7ff fb87 	bl	10001ec8 <_etoa>
100027ba:	4680      	mov	r8, r0
100027bc:	e65c      	b.n	10002478 <_vsnprintf+0x3c>
100027be:	2846      	cmp	r0, #70	@ 0x46
100027c0:	bf08      	it	eq
100027c2:	f043 0320 	orreq.w	r3, r3, #32
100027c6:	e9cd 5303 	strd	r5, r3, [sp, #12]
100027ca:	9b0a      	ldr	r3, [sp, #40]	@ 0x28
100027cc:	9602      	str	r6, [sp, #8]
100027ce:	3307      	adds	r3, #7
100027d0:	f023 0307 	bic.w	r3, r3, #7
100027d4:	461c      	mov	r4, r3
100027d6:	4642      	mov	r2, r8
100027d8:	e8f4 6702 	ldrd	r6, r7, [r4], #8
100027dc:	464b      	mov	r3, r9
100027de:	4651      	mov	r1, sl
100027e0:	4658      	mov	r0, fp
100027e2:	e9cd 6700 	strd	r6, r7, [sp]
100027e6:	940a      	str	r4, [sp, #40]	@ 0x28
100027e8:	f7ff f90e 	bl	10001a08 <_ftoa>
100027ec:	4680      	mov	r8, r0
100027ee:	e643      	b.n	10002478 <_vsnprintf+0x3c>
100027f0:	4642      	mov	r2, r8
100027f2:	464b      	mov	r3, r9
100027f4:	4651      	mov	r1, sl
100027f6:	2025      	movs	r0, #37	@ 0x25
100027f8:	f108 0801 	add.w	r8, r8, #1
100027fc:	47d8      	blx	fp
100027fe:	e63b      	b.n	10002478 <_vsnprintf+0x3c>
10002800:	9a0a      	ldr	r2, [sp, #40]	@ 0x28
10002802:	0799      	lsls	r1, r3, #30
10002804:	f102 0404 	add.w	r4, r2, #4
10002808:	f108 0601 	add.w	r6, r8, #1
1000280c:	f140 80c6 	bpl.w	1000299c <_vsnprintf+0x560>
10002810:	7810      	ldrb	r0, [r2, #0]
10002812:	464b      	mov	r3, r9
10002814:	4642      	mov	r2, r8
10002816:	4651      	mov	r1, sl
10002818:	47d8      	blx	fp
1000281a:	2d01      	cmp	r5, #1
1000281c:	bf88      	it	hi
1000281e:	44a8      	addhi	r8, r5
10002820:	f240 81bd 	bls.w	10002b9e <_vsnprintf+0x762>
10002824:	4632      	mov	r2, r6
10002826:	464b      	mov	r3, r9
10002828:	4651      	mov	r1, sl
1000282a:	2020      	movs	r0, #32
1000282c:	3601      	adds	r6, #1
1000282e:	47d8      	blx	fp
10002830:	4546      	cmp	r6, r8
10002832:	d1f7      	bne.n	10002824 <_vsnprintf+0x3e8>
10002834:	940a      	str	r4, [sp, #40]	@ 0x28
10002836:	e61f      	b.n	10002478 <_vsnprintf+0x3c>
10002838:	286f      	cmp	r0, #111	@ 0x6f
1000283a:	f000 8081 	beq.w	10002940 <_vsnprintf+0x504>
1000283e:	f240 8248 	bls.w	10002cd2 <_vsnprintf+0x896>
10002842:	2878      	cmp	r0, #120	@ 0x78
10002844:	f000 8190 	beq.w	10002b68 <_vsnprintf+0x72c>
10002848:	270a      	movs	r7, #10
1000284a:	f023 0310 	bic.w	r3, r3, #16
1000284e:	46bc      	mov	ip, r7
10002850:	e041      	b.n	100028d6 <_vsnprintf+0x49a>
10002852:	2600      	movs	r6, #0
10002854:	eb06 0686 	add.w	r6, r6, r6, lsl #2
10002858:	eb00 0046 	add.w	r0, r0, r6, lsl #1
1000285c:	f1a0 0630 	sub.w	r6, r0, #48	@ 0x30
10002860:	f811 0f01 	ldrb.w	r0, [r1, #1]!
10002864:	f1a0 0230 	sub.w	r2, r0, #48	@ 0x30
10002868:	2a09      	cmp	r2, #9
1000286a:	d9f3      	bls.n	10002854 <_vsnprintf+0x418>
1000286c:	460a      	mov	r2, r1
1000286e:	9109      	str	r1, [sp, #36]	@ 0x24
10002870:	3201      	adds	r2, #1
10002872:	e62e      	b.n	100024d2 <_vsnprintf+0x96>
10002874:	e9dd 2109 	ldrd	r2, r1, [sp, #36]	@ 0x24
10002878:	f851 6b04 	ldr.w	r6, [r1], #4
1000287c:	7890      	ldrb	r0, [r2, #2]
1000287e:	3202      	adds	r2, #2
10002880:	9209      	str	r2, [sp, #36]	@ 0x24
10002882:	910a      	str	r1, [sp, #40]	@ 0x28
10002884:	3201      	adds	r2, #1
10002886:	ea26 76e6 	bic.w	r6, r6, r6, asr #31
1000288a:	e622      	b.n	100024d2 <_vsnprintf+0x96>
1000288c:	f023 0010 	bic.w	r0, r3, #16
10002890:	f413 6280 	ands.w	r2, r3, #1024	@ 0x400
10002894:	f040 0021 	orr.w	r0, r0, #33	@ 0x21
10002898:	f43f aee7 	beq.w	1000266a <_vsnprintf+0x22e>
1000289c:	ab12      	add	r3, sp, #72	@ 0x48
1000289e:	930b      	str	r3, [sp, #44]	@ 0x2c
100028a0:	9b0b      	ldr	r3, [sp, #44]	@ 0x2c
100028a2:	9006      	str	r0, [sp, #24]
100028a4:	9300      	str	r3, [sp, #0]
100028a6:	2308      	movs	r3, #8
100028a8:	2010      	movs	r0, #16
100028aa:	9305      	str	r3, [sp, #20]
100028ac:	2300      	movs	r3, #0
100028ae:	4642      	mov	r2, r8
100028b0:	e9cd 3002 	strd	r3, r0, [sp, #8]
100028b4:	9101      	str	r1, [sp, #4]
100028b6:	464b      	mov	r3, r9
100028b8:	4651      	mov	r1, sl
100028ba:	4658      	mov	r0, fp
100028bc:	9604      	str	r6, [sp, #16]
100028be:	f7fe ffaf 	bl	10001820 <_ntoa_format>
100028c2:	950a      	str	r5, [sp, #40]	@ 0x28
100028c4:	4680      	mov	r8, r0
100028c6:	e5d7      	b.n	10002478 <_vsnprintf+0x3c>
100028c8:	2858      	cmp	r0, #88	@ 0x58
100028ca:	d062      	beq.n	10002992 <_vsnprintf+0x556>
100028cc:	2862      	cmp	r0, #98	@ 0x62
100028ce:	f040 808f 	bne.w	100029f0 <_vsnprintf+0x5b4>
100028d2:	2702      	movs	r7, #2
100028d4:	46bc      	mov	ip, r7
100028d6:	f413 6080 	ands.w	r0, r3, #1024	@ 0x400
100028da:	f000 80dd 	beq.w	10002a98 <_vsnprintf+0x65c>
100028de:	f023 030d 	bic.w	r3, r3, #13
100028e2:	f413 7200 	ands.w	r2, r3, #512	@ 0x200
100028e6:	f040 8181 	bne.w	10002bec <_vsnprintf+0x7b0>
100028ea:	990a      	ldr	r1, [sp, #40]	@ 0x28
100028ec:	1d0f      	adds	r7, r1, #4
100028ee:	f413 7180 	ands.w	r1, r3, #256	@ 0x100
100028f2:	f040 8237 	bne.w	10002d64 <_vsnprintf+0x928>
100028f6:	065c      	lsls	r4, r3, #25
100028f8:	9a0a      	ldr	r2, [sp, #40]	@ 0x28
100028fa:	f140 813b 	bpl.w	10002b74 <_vsnprintf+0x738>
100028fe:	7812      	ldrb	r2, [r2, #0]
10002900:	2a00      	cmp	r2, #0
10002902:	f040 814e 	bne.w	10002ba2 <_vsnprintf+0x766>
10002906:	f023 0310 	bic.w	r3, r3, #16
1000290a:	2800      	cmp	r0, #0
1000290c:	f000 8149 	beq.w	10002ba2 <_vsnprintf+0x766>
10002910:	4611      	mov	r1, r2
10002912:	aa12      	add	r2, sp, #72	@ 0x48
10002914:	920b      	str	r2, [sp, #44]	@ 0x2c
10002916:	e9cd 5305 	strd	r5, r3, [sp, #20]
1000291a:	e9cd c603 	strd	ip, r6, [sp, #12]
1000291e:	9101      	str	r1, [sp, #4]
10002920:	9b0b      	ldr	r3, [sp, #44]	@ 0x2c
10002922:	4642      	mov	r2, r8
10002924:	9300      	str	r3, [sp, #0]
10002926:	2300      	movs	r3, #0
10002928:	4651      	mov	r1, sl
1000292a:	9302      	str	r3, [sp, #8]
1000292c:	4658      	mov	r0, fp
1000292e:	464b      	mov	r3, r9
10002930:	f7fe ff76 	bl	10001820 <_ntoa_format>
10002934:	970a      	str	r7, [sp, #40]	@ 0x28
10002936:	4680      	mov	r8, r0
10002938:	e59e      	b.n	10002478 <_vsnprintf+0x3c>
1000293a:	f443 6300 	orr.w	r3, r3, #2048	@ 0x800
1000293e:	e729      	b.n	10002794 <_vsnprintf+0x358>
10002940:	2708      	movs	r7, #8
10002942:	46bc      	mov	ip, r7
10002944:	e7c7      	b.n	100028d6 <_vsnprintf+0x49a>
10002946:	f443 6300 	orr.w	r3, r3, #2048	@ 0x800
1000294a:	f043 0320 	orr.w	r3, r3, #32
1000294e:	e721      	b.n	10002794 <_vsnprintf+0x358>
10002950:	f013 0302 	ands.w	r3, r3, #2
10002954:	f000 818e 	beq.w	10002c74 <_vsnprintf+0x838>
10002958:	2302      	movs	r3, #2
1000295a:	950a      	str	r5, [sp, #40]	@ 0x28
1000295c:	461e      	mov	r6, r3
1000295e:	460d      	mov	r5, r1
10002960:	4642      	mov	r2, r8
10002962:	464b      	mov	r3, r9
10002964:	4651      	mov	r1, sl
10002966:	47d8      	blx	fp
10002968:	f817 0f01 	ldrb.w	r0, [r7, #1]!
1000296c:	f108 0801 	add.w	r8, r8, #1
10002970:	2800      	cmp	r0, #0
10002972:	d1f5      	bne.n	10002960 <_vsnprintf+0x524>
10002974:	4629      	mov	r1, r5
10002976:	4633      	mov	r3, r6
10002978:	9d0a      	ldr	r5, [sp, #40]	@ 0x28
1000297a:	e6e3      	b.n	10002744 <_vsnprintf+0x308>
1000297c:	1bd4      	subs	r4, r2, r7
1000297e:	e6c2      	b.n	10002706 <_vsnprintf+0x2ca>
10002980:	460a      	mov	r2, r1
10002982:	7888      	ldrb	r0, [r1, #2]
10002984:	f043 03c0 	orr.w	r3, r3, #192	@ 0xc0
10002988:	3203      	adds	r2, #3
1000298a:	e5d4      	b.n	10002536 <_vsnprintf+0xfa>
1000298c:	4604      	mov	r4, r0
1000298e:	4680      	mov	r8, r0
10002990:	e646      	b.n	10002620 <_vsnprintf+0x1e4>
10002992:	2710      	movs	r7, #16
10002994:	f043 0320 	orr.w	r3, r3, #32
10002998:	46bc      	mov	ip, r7
1000299a:	e79c      	b.n	100028d6 <_vsnprintf+0x49a>
1000299c:	2d01      	cmp	r5, #1
1000299e:	f240 80f8 	bls.w	10002b92 <_vsnprintf+0x756>
100029a2:	4646      	mov	r6, r8
100029a4:	f108 37ff 	add.w	r7, r8, #4294967295
100029a8:	442f      	add	r7, r5
100029aa:	4632      	mov	r2, r6
100029ac:	464b      	mov	r3, r9
100029ae:	4651      	mov	r1, sl
100029b0:	2020      	movs	r0, #32
100029b2:	3601      	adds	r6, #1
100029b4:	47d8      	blx	fp
100029b6:	42be      	cmp	r6, r7
100029b8:	d1f7      	bne.n	100029aa <_vsnprintf+0x56e>
100029ba:	9b0a      	ldr	r3, [sp, #40]	@ 0x28
100029bc:	4632      	mov	r2, r6
100029be:	7818      	ldrb	r0, [r3, #0]
100029c0:	4651      	mov	r1, sl
100029c2:	464b      	mov	r3, r9
100029c4:	47d8      	blx	fp
100029c6:	44a8      	add	r8, r5
100029c8:	940a      	str	r4, [sp, #40]	@ 0x28
100029ca:	e555      	b.n	10002478 <_vsnprintf+0x3c>
100029cc:	4646      	mov	r6, r8
100029ce:	42a5      	cmp	r5, r4
100029d0:	f67f aebb 	bls.w	1000274a <_vsnprintf+0x30e>
100029d4:	44a8      	add	r8, r5
100029d6:	eba8 0804 	sub.w	r8, r8, r4
100029da:	460c      	mov	r4, r1
100029dc:	4632      	mov	r2, r6
100029de:	464b      	mov	r3, r9
100029e0:	4651      	mov	r1, sl
100029e2:	2020      	movs	r0, #32
100029e4:	3601      	adds	r6, #1
100029e6:	47d8      	blx	fp
100029e8:	4546      	cmp	r6, r8
100029ea:	d1f7      	bne.n	100029dc <_vsnprintf+0x5a0>
100029ec:	4621      	mov	r1, r4
100029ee:	e6ac      	b.n	1000274a <_vsnprintf+0x30e>
100029f0:	f413 6280 	ands.w	r2, r3, #1024	@ 0x400
100029f4:	f000 80bb 	beq.w	10002b6e <_vsnprintf+0x732>
100029f8:	f44f 6280 	mov.w	r2, #1024	@ 0x400
100029fc:	f023 0c11 	bic.w	ip, r3, #17
10002a00:	f41c 7700 	ands.w	r7, ip, #512	@ 0x200
10002a04:	9b0a      	ldr	r3, [sp, #40]	@ 0x28
10002a06:	d14a      	bne.n	10002a9e <_vsnprintf+0x662>
10002a08:	f41c 7080 	ands.w	r0, ip, #256	@ 0x100
10002a0c:	f103 0404 	add.w	r4, r3, #4
10002a10:	f040 8134 	bne.w	10002c7c <_vsnprintf+0x840>
10002a14:	f01c 0f40 	tst.w	ip, #64	@ 0x40
10002a18:	f040 80a3 	bne.w	10002b62 <_vsnprintf+0x726>
10002a1c:	f01c 0f80 	tst.w	ip, #128	@ 0x80
10002a20:	f000 81d3 	beq.w	10002dca <_vsnprintf+0x98e>
10002a24:	f9b3 1000 	ldrsh.w	r1, [r3]
10002a28:	ea81 77e1 	eor.w	r7, r1, r1, asr #31
10002a2c:	eba7 77e1 	sub.w	r7, r7, r1, asr #31
10002a30:	b2bf      	uxth	r7, r7
10002a32:	0fcb      	lsrs	r3, r1, #31
10002a34:	2900      	cmp	r1, #0
10002a36:	f000 8156 	beq.w	10002ce6 <_vsnprintf+0x8aa>
10002a3a:	463a      	mov	r2, r7
10002a3c:	a912      	add	r1, sp, #72	@ 0x48
10002a3e:	460f      	mov	r7, r1
10002a40:	f8df e3d8 	ldr.w	lr, [pc, #984]	@ 10002e1c <_vsnprintf+0x9e0>
10002a44:	910b      	str	r1, [sp, #44]	@ 0x2c
10002a46:	930a      	str	r3, [sp, #40]	@ 0x28
10002a48:	950c      	str	r5, [sp, #48]	@ 0x30
10002a4a:	e001      	b.n	10002a50 <_vsnprintf+0x614>
10002a4c:	2820      	cmp	r0, #32
10002a4e:	d00f      	beq.n	10002a70 <_vsnprintf+0x634>
10002a50:	4615      	mov	r5, r2
10002a52:	fbae 1302 	umull	r1, r3, lr, r2
10002a56:	08db      	lsrs	r3, r3, #3
10002a58:	eb03 0183 	add.w	r1, r3, r3, lsl #2
10002a5c:	eba2 0141 	sub.w	r1, r2, r1, lsl #1
10002a60:	3130      	adds	r1, #48	@ 0x30
10002a62:	2d09      	cmp	r5, #9
10002a64:	461a      	mov	r2, r3
10002a66:	f100 0001 	add.w	r0, r0, #1
10002a6a:	f807 1b01 	strb.w	r1, [r7], #1
10002a6e:	d8ed      	bhi.n	10002a4c <_vsnprintf+0x610>
10002a70:	9b0a      	ldr	r3, [sp, #40]	@ 0x28
10002a72:	9d0c      	ldr	r5, [sp, #48]	@ 0x30
10002a74:	e9cd 5c05 	strd	r5, ip, [sp, #20]
10002a78:	e9cd 0301 	strd	r0, r3, [sp, #4]
10002a7c:	9604      	str	r6, [sp, #16]
10002a7e:	9b0b      	ldr	r3, [sp, #44]	@ 0x2c
10002a80:	4642      	mov	r2, r8
10002a82:	9300      	str	r3, [sp, #0]
10002a84:	230a      	movs	r3, #10
10002a86:	4651      	mov	r1, sl
10002a88:	9303      	str	r3, [sp, #12]
10002a8a:	4658      	mov	r0, fp
10002a8c:	464b      	mov	r3, r9
10002a8e:	f7fe fec7 	bl	10001820 <_ntoa_format>
10002a92:	940a      	str	r4, [sp, #40]	@ 0x28
10002a94:	4680      	mov	r8, r0
10002a96:	e4ef      	b.n	10002478 <_vsnprintf+0x3c>
10002a98:	f023 030c 	bic.w	r3, r3, #12
10002a9c:	e721      	b.n	100028e2 <_vsnprintf+0x4a6>
10002a9e:	3307      	adds	r3, #7
10002aa0:	f023 0307 	bic.w	r3, r3, #7
10002aa4:	4619      	mov	r1, r3
10002aa6:	4608      	mov	r0, r1
10002aa8:	685b      	ldr	r3, [r3, #4]
10002aaa:	f850 1b08 	ldr.w	r1, [r0], #8
10002aae:	0fdf      	lsrs	r7, r3, #31
10002ab0:	900a      	str	r0, [sp, #40]	@ 0x28
10002ab2:	ea51 0003 	orrs.w	r0, r1, r3
10002ab6:	d162      	bne.n	10002b7e <_vsnprintf+0x742>
10002ab8:	2a00      	cmp	r2, #0
10002aba:	f040 819f 	bne.w	10002dfc <_vsnprintf+0x9c0>
10002abe:	4613      	mov	r3, r2
10002ac0:	4611      	mov	r1, r2
10002ac2:	aa12      	add	r2, sp, #72	@ 0x48
10002ac4:	e9cd 750c 	strd	r7, r5, [sp, #48]	@ 0x30
10002ac8:	2000      	movs	r0, #0
10002aca:	4615      	mov	r5, r2
10002acc:	e9cd 680e 	strd	r6, r8, [sp, #56]	@ 0x38
10002ad0:	f8df e348 	ldr.w	lr, [pc, #840]	@ 10002e1c <_vsnprintf+0x9e0>
10002ad4:	920b      	str	r2, [sp, #44]	@ 0x2c
10002ad6:	e001      	b.n	10002adc <_vsnprintf+0x6a0>
10002ad8:	2820      	cmp	r0, #32
10002ada:	d02d      	beq.n	10002b38 <_vsnprintf+0x6fc>
10002adc:	185a      	adds	r2, r3, r1
10002ade:	f142 0200 	adc.w	r2, r2, #0
10002ae2:	fbae 7802 	umull	r7, r8, lr, r2
10002ae6:	f028 0703 	bic.w	r7, r8, #3
10002aea:	eb07 0798 	add.w	r7, r7, r8, lsr #2
10002aee:	1bd2      	subs	r2, r2, r7
10002af0:	461e      	mov	r6, r3
10002af2:	1a9b      	subs	r3, r3, r2
10002af4:	f161 0700 	sbc.w	r7, r1, #0
10002af8:	460c      	mov	r4, r1
10002afa:	f04f 31cc 	mov.w	r1, #3435973836	@ 0xcccccccc
10002afe:	fb01 f103 	mul.w	r1, r1, r3
10002b02:	fb0e 1107 	mla	r1, lr, r7, r1
10002b06:	fba3 730e 	umull	r7, r3, r3, lr
10002b0a:	4419      	add	r1, r3
10002b0c:	2305      	movs	r3, #5
10002b0e:	f007 0801 	and.w	r8, r7, #1
10002b12:	fba8 3803 	umull	r3, r8, r8, r3
10002b16:	189b      	adds	r3, r3, r2
10002b18:	2e0a      	cmp	r6, #10
10002b1a:	f103 0330 	add.w	r3, r3, #48	@ 0x30
10002b1e:	ea4f 0757 	mov.w	r7, r7, lsr #1
10002b22:	f174 0400 	sbcs.w	r4, r4, #0
10002b26:	f805 3b01 	strb.w	r3, [r5], #1
10002b2a:	f100 0001 	add.w	r0, r0, #1
10002b2e:	ea47 73c1 	orr.w	r3, r7, r1, lsl #31
10002b32:	ea4f 0151 	mov.w	r1, r1, lsr #1
10002b36:	d2cf      	bcs.n	10002ad8 <_vsnprintf+0x69c>
10002b38:	e9dd 750c 	ldrd	r7, r5, [sp, #48]	@ 0x30
10002b3c:	e9dd 680e 	ldrd	r6, r8, [sp, #56]	@ 0x38
10002b40:	9b0b      	ldr	r3, [sp, #44]	@ 0x2c
10002b42:	4642      	mov	r2, r8
10002b44:	9300      	str	r3, [sp, #0]
10002b46:	230a      	movs	r3, #10
10002b48:	e9cd 5c05 	strd	r5, ip, [sp, #20]
10002b4c:	e9cd 0701 	strd	r0, r7, [sp, #4]
10002b50:	9604      	str	r6, [sp, #16]
10002b52:	9303      	str	r3, [sp, #12]
10002b54:	464b      	mov	r3, r9
10002b56:	4651      	mov	r1, sl
10002b58:	4658      	mov	r0, fp
10002b5a:	f7fe fe61 	bl	10001820 <_ntoa_format>
10002b5e:	4680      	mov	r8, r0
10002b60:	e48a      	b.n	10002478 <_vsnprintf+0x3c>
10002b62:	7819      	ldrb	r1, [r3, #0]
10002b64:	460f      	mov	r7, r1
10002b66:	e764      	b.n	10002a32 <_vsnprintf+0x5f6>
10002b68:	2710      	movs	r7, #16
10002b6a:	46bc      	mov	ip, r7
10002b6c:	e6b3      	b.n	100028d6 <_vsnprintf+0x49a>
10002b6e:	f023 0c10 	bic.w	ip, r3, #16
10002b72:	e745      	b.n	10002a00 <_vsnprintf+0x5c4>
10002b74:	061c      	lsls	r4, r3, #24
10002b76:	bf4c      	ite	mi
10002b78:	8812      	ldrhmi	r2, [r2, #0]
10002b7a:	6812      	ldrpl	r2, [r2, #0]
10002b7c:	e6c0      	b.n	10002900 <_vsnprintf+0x4c4>
10002b7e:	460a      	mov	r2, r1
10002b80:	1e19      	subs	r1, r3, #0
10002b82:	db01      	blt.n	10002b88 <_vsnprintf+0x74c>
10002b84:	4613      	mov	r3, r2
10002b86:	e79c      	b.n	10002ac2 <_vsnprintf+0x686>
10002b88:	4252      	negs	r2, r2
10002b8a:	4613      	mov	r3, r2
10002b8c:	eb61 0141 	sbc.w	r1, r1, r1, lsl #1
10002b90:	e797      	b.n	10002ac2 <_vsnprintf+0x686>
10002b92:	4613      	mov	r3, r2
10002b94:	4651      	mov	r1, sl
10002b96:	7818      	ldrb	r0, [r3, #0]
10002b98:	4642      	mov	r2, r8
10002b9a:	464b      	mov	r3, r9
10002b9c:	47d8      	blx	fp
10002b9e:	46b0      	mov	r8, r6
10002ba0:	e648      	b.n	10002834 <_vsnprintf+0x3f8>
10002ba2:	f013 0f20 	tst.w	r3, #32
10002ba6:	bf14      	ite	ne
10002ba8:	2041      	movne	r0, #65	@ 0x41
10002baa:	2061      	moveq	r0, #97	@ 0x61
10002bac:	ac12      	add	r4, sp, #72	@ 0x48
10002bae:	46a6      	mov	lr, r4
10002bb0:	940b      	str	r4, [sp, #44]	@ 0x2c
10002bb2:	930a      	str	r3, [sp, #40]	@ 0x28
10002bb4:	f1a0 040a 	sub.w	r4, r0, #10
10002bb8:	950c      	str	r5, [sp, #48]	@ 0x30
10002bba:	e002      	b.n	10002bc2 <_vsnprintf+0x786>
10002bbc:	2920      	cmp	r1, #32
10002bbe:	d012      	beq.n	10002be6 <_vsnprintf+0x7aa>
10002bc0:	462a      	mov	r2, r5
10002bc2:	fbb2 f5fc 	udiv	r5, r2, ip
10002bc6:	fb0c 2015 	mls	r0, ip, r5, r2
10002bca:	b2c3      	uxtb	r3, r0
10002bcc:	2809      	cmp	r0, #9
10002bce:	f103 0030 	add.w	r0, r3, #48	@ 0x30
10002bd2:	bf8a      	itet	hi
10002bd4:	191b      	addhi	r3, r3, r4
10002bd6:	b2c3      	uxtbls	r3, r0
10002bd8:	b2db      	uxtbhi	r3, r3
10002bda:	4562      	cmp	r2, ip
10002bdc:	f80e 3b01 	strb.w	r3, [lr], #1
10002be0:	f101 0101 	add.w	r1, r1, #1
10002be4:	d2ea      	bcs.n	10002bbc <_vsnprintf+0x780>
10002be6:	9b0a      	ldr	r3, [sp, #40]	@ 0x28
10002be8:	9d0c      	ldr	r5, [sp, #48]	@ 0x30
10002bea:	e694      	b.n	10002916 <_vsnprintf+0x4da>
10002bec:	9a0a      	ldr	r2, [sp, #40]	@ 0x28
10002bee:	3207      	adds	r2, #7
10002bf0:	f022 0207 	bic.w	r2, r2, #7
10002bf4:	6851      	ldr	r1, [r2, #4]
10002bf6:	f852 4b08 	ldr.w	r4, [r2], #8
10002bfa:	468e      	mov	lr, r1
10002bfc:	920a      	str	r2, [sp, #40]	@ 0x28
10002bfe:	ea54 0201 	orrs.w	r2, r4, r1
10002c02:	d176      	bne.n	10002cf2 <_vsnprintf+0x8b6>
10002c04:	f023 0310 	bic.w	r3, r3, #16
10002c08:	2800      	cmp	r0, #0
10002c0a:	d072      	beq.n	10002cf2 <_vsnprintf+0x8b6>
10002c0c:	2200      	movs	r2, #0
10002c0e:	4611      	mov	r1, r2
10002c10:	aa12      	add	r2, sp, #72	@ 0x48
10002c12:	920b      	str	r2, [sp, #44]	@ 0x2c
10002c14:	e9cd 5305 	strd	r5, r3, [sp, #20]
10002c18:	9b0b      	ldr	r3, [sp, #44]	@ 0x2c
10002c1a:	4642      	mov	r2, r8
10002c1c:	9300      	str	r3, [sp, #0]
10002c1e:	2300      	movs	r3, #0
10002c20:	e9cd c603 	strd	ip, r6, [sp, #12]
10002c24:	9101      	str	r1, [sp, #4]
10002c26:	9302      	str	r3, [sp, #8]
10002c28:	e794      	b.n	10002b54 <_vsnprintf+0x718>
10002c2a:	42a5      	cmp	r5, r4
10002c2c:	bf98      	it	ls
10002c2e:	3401      	addls	r4, #1
10002c30:	f67f ad74 	bls.w	1000271c <_vsnprintf+0x2e0>
10002c34:	f44f 6380 	mov.w	r3, #1024	@ 0x400
10002c38:	e9cd 750a 	strd	r7, r5, [sp, #40]	@ 0x28
10002c3c:	eb05 0208 	add.w	r2, r5, r8
10002c40:	461f      	mov	r7, r3
10002c42:	460d      	mov	r5, r1
10002c44:	1b14      	subs	r4, r2, r4
10002c46:	4642      	mov	r2, r8
10002c48:	464b      	mov	r3, r9
10002c4a:	4651      	mov	r1, sl
10002c4c:	2020      	movs	r0, #32
10002c4e:	f108 0801 	add.w	r8, r8, #1
10002c52:	47d8      	blx	fp
10002c54:	45a0      	cmp	r8, r4
10002c56:	d1f6      	bne.n	10002c46 <_vsnprintf+0x80a>
10002c58:	463b      	mov	r3, r7
10002c5a:	9f0a      	ldr	r7, [sp, #40]	@ 0x28
10002c5c:	4629      	mov	r1, r5
10002c5e:	7838      	ldrb	r0, [r7, #0]
10002c60:	9d0b      	ldr	r5, [sp, #44]	@ 0x2c
10002c62:	1c6c      	adds	r4, r5, #1
10002c64:	2800      	cmp	r0, #0
10002c66:	f43f ad70 	beq.w	1000274a <_vsnprintf+0x30e>
10002c6a:	2b00      	cmp	r3, #0
10002c6c:	f43f ae75 	beq.w	1000295a <_vsnprintf+0x51e>
10002c70:	2300      	movs	r3, #0
10002c72:	e553      	b.n	1000271c <_vsnprintf+0x2e0>
10002c74:	42a5      	cmp	r5, r4
10002c76:	d8df      	bhi.n	10002c38 <_vsnprintf+0x7fc>
10002c78:	3401      	adds	r4, #1
10002c7a:	e66e      	b.n	1000295a <_vsnprintf+0x51e>
10002c7c:	6819      	ldr	r1, [r3, #0]
10002c7e:	0fcb      	lsrs	r3, r1, #31
10002c80:	2900      	cmp	r1, #0
10002c82:	f000 80a8 	beq.w	10002dd6 <_vsnprintf+0x99a>
10002c86:	ea81 72e1 	eor.w	r2, r1, r1, asr #31
10002c8a:	eba2 72e1 	sub.w	r2, r2, r1, asr #31
10002c8e:	a912      	add	r1, sp, #72	@ 0x48
10002c90:	4608      	mov	r0, r1
10002c92:	f8df e188 	ldr.w	lr, [pc, #392]	@ 10002e1c <_vsnprintf+0x9e0>
10002c96:	910b      	str	r1, [sp, #44]	@ 0x2c
10002c98:	930a      	str	r3, [sp, #40]	@ 0x28
10002c9a:	950c      	str	r5, [sp, #48]	@ 0x30
10002c9c:	e001      	b.n	10002ca2 <_vsnprintf+0x866>
10002c9e:	2f20      	cmp	r7, #32
10002ca0:	d00f      	beq.n	10002cc2 <_vsnprintf+0x886>
10002ca2:	4615      	mov	r5, r2
10002ca4:	fbae 1302 	umull	r1, r3, lr, r2
10002ca8:	08db      	lsrs	r3, r3, #3
10002caa:	eb03 0183 	add.w	r1, r3, r3, lsl #2
10002cae:	eba2 0141 	sub.w	r1, r2, r1, lsl #1
10002cb2:	3130      	adds	r1, #48	@ 0x30
10002cb4:	2d09      	cmp	r5, #9
10002cb6:	461a      	mov	r2, r3
10002cb8:	f107 0701 	add.w	r7, r7, #1
10002cbc:	f800 1b01 	strb.w	r1, [r0], #1
10002cc0:	d8ed      	bhi.n	10002c9e <_vsnprintf+0x862>
10002cc2:	9b0a      	ldr	r3, [sp, #40]	@ 0x28
10002cc4:	9d0c      	ldr	r5, [sp, #48]	@ 0x30
10002cc6:	e9cd 5c05 	strd	r5, ip, [sp, #20]
10002cca:	e9cd 7301 	strd	r7, r3, [sp, #4]
10002cce:	9604      	str	r6, [sp, #16]
10002cd0:	e6d5      	b.n	10002a7e <_vsnprintf+0x642>
10002cd2:	2869      	cmp	r0, #105	@ 0x69
10002cd4:	f023 0c10 	bic.w	ip, r3, #16
10002cd8:	f040 808c 	bne.w	10002df4 <_vsnprintf+0x9b8>
10002cdc:	f413 6280 	ands.w	r2, r3, #1024	@ 0x400
10002ce0:	f43f ae8e 	beq.w	10002a00 <_vsnprintf+0x5c4>
10002ce4:	e688      	b.n	100029f8 <_vsnprintf+0x5bc>
10002ce6:	2a00      	cmp	r2, #0
10002ce8:	f43f aea8 	beq.w	10002a3c <_vsnprintf+0x600>
10002cec:	aa12      	add	r2, sp, #72	@ 0x48
10002cee:	920b      	str	r2, [sp, #44]	@ 0x2c
10002cf0:	e6c0      	b.n	10002a74 <_vsnprintf+0x638>
10002cf2:	f013 0f20 	tst.w	r3, #32
10002cf6:	bf14      	ite	ne
10002cf8:	2241      	movne	r2, #65	@ 0x41
10002cfa:	2261      	moveq	r2, #97	@ 0x61
10002cfc:	2000      	movs	r0, #0
10002cfe:	a912      	add	r1, sp, #72	@ 0x48
10002d00:	3a0a      	subs	r2, #10
10002d02:	e9cd 680e 	strd	r6, r8, [sp, #56]	@ 0x38
10002d06:	e9cd 350c 	strd	r3, r5, [sp, #48]	@ 0x30
10002d0a:	f8cd b044 	str.w	fp, [sp, #68]	@ 0x44
10002d0e:	4606      	mov	r6, r0
10002d10:	4688      	mov	r8, r1
10002d12:	4675      	mov	r5, lr
10002d14:	4693      	mov	fp, r2
10002d16:	910b      	str	r1, [sp, #44]	@ 0x2c
10002d18:	f8cd c040 	str.w	ip, [sp, #64]	@ 0x40
10002d1c:	e003      	b.n	10002d26 <_vsnprintf+0x8ea>
10002d1e:	2e20      	cmp	r6, #32
10002d20:	d017      	beq.n	10002d52 <_vsnprintf+0x916>
10002d22:	4604      	mov	r4, r0
10002d24:	460d      	mov	r5, r1
10002d26:	4629      	mov	r1, r5
10002d28:	463a      	mov	r2, r7
10002d2a:	2300      	movs	r3, #0
10002d2c:	4620      	mov	r0, r4
10002d2e:	f000 fccf 	bl	100036d0 <____aeabi_uldivmod_veneer>
10002d32:	b2d2      	uxtb	r2, r2
10002d34:	2a09      	cmp	r2, #9
10002d36:	f102 0330 	add.w	r3, r2, #48	@ 0x30
10002d3a:	bf88      	it	hi
10002d3c:	eb02 030b 	addhi.w	r3, r2, fp
10002d40:	42bc      	cmp	r4, r7
10002d42:	b2db      	uxtb	r3, r3
10002d44:	f175 0500 	sbcs.w	r5, r5, #0
10002d48:	f808 3b01 	strb.w	r3, [r8], #1
10002d4c:	f106 0601 	add.w	r6, r6, #1
10002d50:	d2e5      	bcs.n	10002d1e <_vsnprintf+0x8e2>
10002d52:	4631      	mov	r1, r6
10002d54:	e9dd 350c 	ldrd	r3, r5, [sp, #48]	@ 0x30
10002d58:	e9dd cb10 	ldrd	ip, fp, [sp, #64]	@ 0x40
10002d5c:	f8dd 803c 	ldr.w	r8, [sp, #60]	@ 0x3c
10002d60:	9e0e      	ldr	r6, [sp, #56]	@ 0x38
10002d62:	e757      	b.n	10002c14 <_vsnprintf+0x7d8>
10002d64:	990a      	ldr	r1, [sp, #40]	@ 0x28
10002d66:	6809      	ldr	r1, [r1, #0]
10002d68:	b951      	cbnz	r1, 10002d80 <_vsnprintf+0x944>
10002d6a:	f023 0310 	bic.w	r3, r3, #16
10002d6e:	b138      	cbz	r0, 10002d80 <_vsnprintf+0x944>
10002d70:	a912      	add	r1, sp, #72	@ 0x48
10002d72:	910b      	str	r1, [sp, #44]	@ 0x2c
10002d74:	e9cd 5305 	strd	r5, r3, [sp, #20]
10002d78:	e9cd c603 	strd	ip, r6, [sp, #12]
10002d7c:	9201      	str	r2, [sp, #4]
10002d7e:	e5cf      	b.n	10002920 <_vsnprintf+0x4e4>
10002d80:	f013 0f20 	tst.w	r3, #32
10002d84:	bf14      	ite	ne
10002d86:	2041      	movne	r0, #65	@ 0x41
10002d88:	2061      	moveq	r0, #97	@ 0x61
10002d8a:	ac12      	add	r4, sp, #72	@ 0x48
10002d8c:	46a6      	mov	lr, r4
10002d8e:	940b      	str	r4, [sp, #44]	@ 0x2c
10002d90:	930a      	str	r3, [sp, #40]	@ 0x28
10002d92:	f1a0 040a 	sub.w	r4, r0, #10
10002d96:	950c      	str	r5, [sp, #48]	@ 0x30
10002d98:	e002      	b.n	10002da0 <_vsnprintf+0x964>
10002d9a:	2a20      	cmp	r2, #32
10002d9c:	d012      	beq.n	10002dc4 <_vsnprintf+0x988>
10002d9e:	4629      	mov	r1, r5
10002da0:	fbb1 f5fc 	udiv	r5, r1, ip
10002da4:	fb0c 1015 	mls	r0, ip, r5, r1
10002da8:	b2c3      	uxtb	r3, r0
10002daa:	2809      	cmp	r0, #9
10002dac:	f103 0030 	add.w	r0, r3, #48	@ 0x30
10002db0:	bf8a      	itet	hi
10002db2:	191b      	addhi	r3, r3, r4
10002db4:	b2c3      	uxtbls	r3, r0
10002db6:	b2db      	uxtbhi	r3, r3
10002db8:	4561      	cmp	r1, ip
10002dba:	f80e 3b01 	strb.w	r3, [lr], #1
10002dbe:	f102 0201 	add.w	r2, r2, #1
10002dc2:	d2ea      	bcs.n	10002d9a <_vsnprintf+0x95e>
10002dc4:	9b0a      	ldr	r3, [sp, #40]	@ 0x28
10002dc6:	9d0c      	ldr	r5, [sp, #48]	@ 0x30
10002dc8:	e7d4      	b.n	10002d74 <_vsnprintf+0x938>
10002dca:	6819      	ldr	r1, [r3, #0]
10002dcc:	ea81 77e1 	eor.w	r7, r1, r1, asr #31
10002dd0:	eba7 77e1 	sub.w	r7, r7, r1, asr #31
10002dd4:	e62d      	b.n	10002a32 <_vsnprintf+0x5f6>
10002dd6:	2a00      	cmp	r2, #0
10002dd8:	f43f af59 	beq.w	10002c8e <_vsnprintf+0x852>
10002ddc:	aa12      	add	r2, sp, #72	@ 0x48
10002dde:	920b      	str	r2, [sp, #44]	@ 0x2c
10002de0:	e771      	b.n	10002cc6 <_vsnprintf+0x88a>
10002de2:	f413 6480 	ands.w	r4, r3, #1024	@ 0x400
10002de6:	d00d      	beq.n	10002e04 <_vsnprintf+0x9c8>
10002de8:	f013 0402 	ands.w	r4, r3, #2
10002dec:	d012      	beq.n	10002e14 <_vsnprintf+0x9d8>
10002dee:	4604      	mov	r4, r0
10002df0:	4646      	mov	r6, r8
10002df2:	e5ec      	b.n	100029ce <_vsnprintf+0x592>
10002df4:	270a      	movs	r7, #10
10002df6:	4663      	mov	r3, ip
10002df8:	46bc      	mov	ip, r7
10002dfa:	e56c      	b.n	100028d6 <_vsnprintf+0x49a>
10002dfc:	ab12      	add	r3, sp, #72	@ 0x48
10002dfe:	2000      	movs	r0, #0
10002e00:	930b      	str	r3, [sp, #44]	@ 0x2c
10002e02:	e69d      	b.n	10002b40 <_vsnprintf+0x704>
10002e04:	f013 0302 	ands.w	r3, r3, #2
10002e08:	f47f ade0 	bne.w	100029cc <_vsnprintf+0x590>
10002e0c:	2d00      	cmp	r5, #0
10002e0e:	f47f af13 	bne.w	10002c38 <_vsnprintf+0x7fc>
10002e12:	e49a      	b.n	1000274a <_vsnprintf+0x30e>
10002e14:	2d00      	cmp	r5, #0
10002e16:	f47f af0d 	bne.w	10002c34 <_vsnprintf+0x7f8>
10002e1a:	e496      	b.n	1000274a <_vsnprintf+0x30e>
10002e1c:	cccccccd 	.word	0xcccccccd

10002e20 <vfctprintf>:
10002e20:	b570      	push	{r4, r5, r6, lr}
10002e22:	4694      	mov	ip, r2
10002e24:	461e      	mov	r6, r3
10002e26:	4605      	mov	r5, r0
10002e28:	460c      	mov	r4, r1
10002e2a:	b084      	sub	sp, #16
10002e2c:	f04f 32ff 	mov.w	r2, #4294967295
10002e30:	4663      	mov	r3, ip
10002e32:	a902      	add	r1, sp, #8
10002e34:	9600      	str	r6, [sp, #0]
10002e36:	4803      	ldr	r0, [pc, #12]	@ (10002e44 <vfctprintf+0x24>)
10002e38:	e9cd 5402 	strd	r5, r4, [sp, #8]
10002e3c:	f7ff fafe 	bl	1000243c <_vsnprintf>
10002e40:	b004      	add	sp, #16
10002e42:	bd70      	pop	{r4, r5, r6, pc}
10002e44:	100019fd 	.word	0x100019fd

10002e48 <weak_raw_vprintf>:
10002e48:	b510      	push	{r4, lr}
10002e4a:	4b09      	ldr	r3, [pc, #36]	@ (10002e70 <weak_raw_vprintf+0x28>)
10002e4c:	b084      	sub	sp, #16
10002e4e:	681c      	ldr	r4, [r3, #0]
10002e50:	b14c      	cbz	r4, 10002e66 <weak_raw_vprintf+0x1e>
10002e52:	4603      	mov	r3, r0
10002e54:	9100      	str	r1, [sp, #0]
10002e56:	f04f 32ff 	mov.w	r2, #4294967295
10002e5a:	a903      	add	r1, sp, #12
10002e5c:	4805      	ldr	r0, [pc, #20]	@ (10002e74 <weak_raw_vprintf+0x2c>)
10002e5e:	47a0      	blx	r4
10002e60:	2001      	movs	r0, #1
10002e62:	b004      	add	sp, #16
10002e64:	bd10      	pop	{r4, pc}
10002e66:	f000 f97d 	bl	10003164 <__wrap_puts>
10002e6a:	4620      	mov	r0, r4
10002e6c:	b004      	add	sp, #16
10002e6e:	bd10      	pop	{r4, pc}
10002e70:	20000814 	.word	0x20000814
10002e74:	100019f5 	.word	0x100019f5

10002e78 <_exit>:
10002e78:	be00      	bkpt	0x0000
10002e7a:	e7fd      	b.n	10002e78 <_exit>

10002e7c <exit>:
10002e7c:	b508      	push	{r3, lr}
10002e7e:	f7ff fffb 	bl	10002e78 <_exit>
10002e82:	bf00      	nop

10002e84 <runtime_init>:
10002e84:	b538      	push	{r3, r4, r5, lr}
10002e86:	4c06      	ldr	r4, [pc, #24]	@ (10002ea0 <runtime_init+0x1c>)
10002e88:	4d06      	ldr	r5, [pc, #24]	@ (10002ea4 <runtime_init+0x20>)
10002e8a:	f7fe f9f7 	bl	1000127c <runtime_run_initializers>
10002e8e:	42ac      	cmp	r4, r5
10002e90:	d204      	bcs.n	10002e9c <runtime_init+0x18>
10002e92:	f854 3b04 	ldr.w	r3, [r4], #4
10002e96:	4798      	blx	r3
10002e98:	42ac      	cmp	r4, r5
10002e9a:	d3fa      	bcc.n	10002e92 <runtime_init+0xe>
10002e9c:	bd38      	pop	{r3, r4, r5, pc}
10002e9e:	bf00      	nop
10002ea0:	10003728 	.word	0x10003728
10002ea4:	1000372c 	.word	0x1000372c

10002ea8 <stdio_out_chars_no_crlf>:
10002ea8:	6803      	ldr	r3, [r0, #0]
10002eaa:	4608      	mov	r0, r1
10002eac:	4611      	mov	r1, r2
10002eae:	4718      	bx	r3

10002eb0 <stdio_out_chars_crlf>:
10002eb0:	e92d 41f0 	stmdb	sp!, {r4, r5, r6, r7, r8, lr}
10002eb4:	4615      	mov	r5, r2
10002eb6:	7d42      	ldrb	r2, [r0, #21]
10002eb8:	4607      	mov	r7, r0
10002eba:	4688      	mov	r8, r1
10002ebc:	2a00      	cmp	r2, #0
10002ebe:	d046      	beq.n	10002f4e <stdio_out_chars_crlf+0x9e>
10002ec0:	2d00      	cmp	r5, #0
10002ec2:	dd1d      	ble.n	10002f00 <stdio_out_chars_crlf+0x50>
10002ec4:	780b      	ldrb	r3, [r1, #0]
10002ec6:	2b0a      	cmp	r3, #10
10002ec8:	d023      	beq.n	10002f12 <stdio_out_chars_crlf+0x62>
10002eca:	2d01      	cmp	r5, #1
10002ecc:	f04f 0c00 	mov.w	ip, #0
10002ed0:	d018      	beq.n	10002f04 <stdio_out_chars_crlf+0x54>
10002ed2:	4646      	mov	r6, r8
10002ed4:	2401      	movs	r4, #1
10002ed6:	f816 2f01 	ldrb.w	r2, [r6, #1]!
10002eda:	4621      	mov	r1, r4
10002edc:	2a0a      	cmp	r2, #10
10002ede:	f104 0401 	add.w	r4, r4, #1
10002ee2:	d022      	beq.n	10002f2a <stdio_out_chars_crlf+0x7a>
10002ee4:	42a5      	cmp	r5, r4
10002ee6:	d1f6      	bne.n	10002ed6 <stdio_out_chars_crlf+0x26>
10002ee8:	4565      	cmp	r5, ip
10002eea:	dc0b      	bgt.n	10002f04 <stdio_out_chars_crlf+0x54>
10002eec:	eb08 0305 	add.w	r3, r8, r5
10002ef0:	f813 3c01 	ldrb.w	r3, [r3, #-1]
10002ef4:	f1a3 030d 	sub.w	r3, r3, #13
10002ef8:	fab3 f383 	clz	r3, r3
10002efc:	095b      	lsrs	r3, r3, #5
10002efe:	753b      	strb	r3, [r7, #20]
10002f00:	e8bd 81f0 	ldmia.w	sp!, {r4, r5, r6, r7, r8, pc}
10002f04:	683b      	ldr	r3, [r7, #0]
10002f06:	eba5 010c 	sub.w	r1, r5, ip
10002f0a:	eb08 000c 	add.w	r0, r8, ip
10002f0e:	4798      	blx	r3
10002f10:	e7ec      	b.n	10002eec <stdio_out_chars_crlf+0x3c>
10002f12:	7d03      	ldrb	r3, [r0, #20]
10002f14:	2b00      	cmp	r3, #0
10002f16:	d1d8      	bne.n	10002eca <stdio_out_chars_crlf+0x1a>
10002f18:	6803      	ldr	r3, [r0, #0]
10002f1a:	2102      	movs	r1, #2
10002f1c:	480f      	ldr	r0, [pc, #60]	@ (10002f5c <stdio_out_chars_crlf+0xac>)
10002f1e:	4798      	blx	r3
10002f20:	2d01      	cmp	r5, #1
10002f22:	d0e3      	beq.n	10002eec <stdio_out_chars_crlf+0x3c>
10002f24:	f04f 0c01 	mov.w	ip, #1
10002f28:	e7d3      	b.n	10002ed2 <stdio_out_chars_crlf+0x22>
10002f2a:	f816 3c01 	ldrb.w	r3, [r6, #-1]
10002f2e:	2b0d      	cmp	r3, #13
10002f30:	d0d8      	beq.n	10002ee4 <stdio_out_chars_crlf+0x34>
10002f32:	458c      	cmp	ip, r1
10002f34:	eb08 000c 	add.w	r0, r8, ip
10002f38:	eba1 010c 	sub.w	r1, r1, ip
10002f3c:	da01      	bge.n	10002f42 <stdio_out_chars_crlf+0x92>
10002f3e:	683b      	ldr	r3, [r7, #0]
10002f40:	4798      	blx	r3
10002f42:	2102      	movs	r1, #2
10002f44:	4805      	ldr	r0, [pc, #20]	@ (10002f5c <stdio_out_chars_crlf+0xac>)
10002f46:	683b      	ldr	r3, [r7, #0]
10002f48:	4798      	blx	r3
10002f4a:	46a4      	mov	ip, r4
10002f4c:	e7ca      	b.n	10002ee4 <stdio_out_chars_crlf+0x34>
10002f4e:	4629      	mov	r1, r5
10002f50:	4640      	mov	r0, r8
10002f52:	683b      	ldr	r3, [r7, #0]
10002f54:	e8bd 41f0 	ldmia.w	sp!, {r4, r5, r6, r7, r8, lr}
10002f58:	4718      	bx	r3
10002f5a:	bf00      	nop
10002f5c:	100038d8 	.word	0x100038d8

10002f60 <stdio_buffered_printer>:
10002f60:	680b      	ldr	r3, [r1, #0]
10002f62:	e92d 41f0 	stmdb	sp!, {r4, r5, r6, r7, r8, lr}
10002f66:	2b80      	cmp	r3, #128	@ 0x80
10002f68:	460d      	mov	r5, r1
10002f6a:	4606      	mov	r6, r0
10002f6c:	d005      	beq.n	10002f7a <stdio_buffered_printer+0x1a>
10002f6e:	1c5a      	adds	r2, r3, #1
10002f70:	442b      	add	r3, r5
10002f72:	602a      	str	r2, [r5, #0]
10002f74:	711e      	strb	r6, [r3, #4]
10002f76:	e8bd 81f0 	ldmia.w	sp!, {r4, r5, r6, r7, r8, pc}
10002f7a:	4b0f      	ldr	r3, [pc, #60]	@ (10002fb8 <stdio_buffered_printer+0x58>)
10002f7c:	681c      	ldr	r4, [r3, #0]
10002f7e:	b1a4      	cbz	r4, 10002faa <stdio_buffered_printer+0x4a>
10002f80:	4f0e      	ldr	r7, [pc, #56]	@ (10002fbc <stdio_buffered_printer+0x5c>)
10002f82:	f101 0804 	add.w	r8, r1, #4
10002f86:	e001      	b.n	10002f8c <stdio_buffered_printer+0x2c>
10002f88:	6924      	ldr	r4, [r4, #16]
10002f8a:	b174      	cbz	r4, 10002faa <stdio_buffered_printer+0x4a>
10002f8c:	6823      	ldr	r3, [r4, #0]
10002f8e:	2b00      	cmp	r3, #0
10002f90:	d0fa      	beq.n	10002f88 <stdio_buffered_printer+0x28>
10002f92:	683b      	ldr	r3, [r7, #0]
10002f94:	b10b      	cbz	r3, 10002f9a <stdio_buffered_printer+0x3a>
10002f96:	42a3      	cmp	r3, r4
10002f98:	d1f6      	bne.n	10002f88 <stdio_buffered_printer+0x28>
10002f9a:	4620      	mov	r0, r4
10002f9c:	4641      	mov	r1, r8
10002f9e:	682a      	ldr	r2, [r5, #0]
10002fa0:	f7ff ff86 	bl	10002eb0 <stdio_out_chars_crlf>
10002fa4:	6924      	ldr	r4, [r4, #16]
10002fa6:	2c00      	cmp	r4, #0
10002fa8:	d1f0      	bne.n	10002f8c <stdio_buffered_printer+0x2c>
10002faa:	2300      	movs	r3, #0
10002fac:	2201      	movs	r2, #1
10002fae:	442b      	add	r3, r5
10002fb0:	602a      	str	r2, [r5, #0]
10002fb2:	711e      	strb	r6, [r3, #4]
10002fb4:	e8bd 81f0 	ldmia.w	sp!, {r4, r5, r6, r7, r8, pc}
10002fb8:	2000080c 	.word	0x2000080c
10002fbc:	20000810 	.word	0x20000810

10002fc0 <stdio_put_string>:
10002fc0:	e92d 47f0 	stmdb	sp!, {r4, r5, r6, r7, r8, r9, sl, lr}
10002fc4:	b082      	sub	sp, #8
10002fc6:	460d      	mov	r5, r1
10002fc8:	4691      	mov	r9, r2
10002fca:	461c      	mov	r4, r3
10002fcc:	4606      	mov	r6, r0
10002fce:	f7fd ff85 	bl	10000edc <time_us_64>
10002fd2:	f04f 3cff 	mov.w	ip, #4294967295
10002fd6:	f06f 4700 	mvn.w	r7, #2147483648	@ 0x80000000
10002fda:	4a2e      	ldr	r2, [pc, #184]	@ (10003094 <stdio_put_string+0xd4>)
10002fdc:	1882      	adds	r2, r0, r2
10002fde:	f141 0300 	adc.w	r3, r1, #0
10002fe2:	4594      	cmp	ip, r2
10002fe4:	eb77 0103 	sbcs.w	r1, r7, r3
10002fe8:	bf3c      	itt	cc
10002fea:	4662      	movcc	r2, ip
10002fec:	463b      	movcc	r3, r7
10002fee:	482a      	ldr	r0, [pc, #168]	@ (10003098 <stdio_put_string+0xd8>)
10002ff0:	f000 fb76 	bl	100036e0 <__mutex_try_enter_block_until_veneer>
10002ff4:	1c6b      	adds	r3, r5, #1
10002ff6:	4680      	mov	r8, r0
10002ff8:	d040      	beq.n	1000307c <stdio_put_string+0xbc>
10002ffa:	b30c      	cbz	r4, 10003040 <stdio_put_string+0x80>
10002ffc:	4f27      	ldr	r7, [pc, #156]	@ (1000309c <stdio_put_string+0xdc>)
10002ffe:	4b28      	ldr	r3, [pc, #160]	@ (100030a0 <stdio_put_string+0xe0>)
10003000:	681c      	ldr	r4, [r3, #0]
10003002:	b1b4      	cbz	r4, 10003032 <stdio_put_string+0x72>
10003004:	f1b9 0f00 	cmp.w	r9, #0
10003008:	d11c      	bne.n	10003044 <stdio_put_string+0x84>
1000300a:	f8df 909c 	ldr.w	r9, [pc, #156]	@ 100030a8 <stdio_put_string+0xe8>
1000300e:	e001      	b.n	10003014 <stdio_put_string+0x54>
10003010:	6924      	ldr	r4, [r4, #16]
10003012:	b174      	cbz	r4, 10003032 <stdio_put_string+0x72>
10003014:	6823      	ldr	r3, [r4, #0]
10003016:	2b00      	cmp	r3, #0
10003018:	d0fa      	beq.n	10003010 <stdio_put_string+0x50>
1000301a:	f8d9 3000 	ldr.w	r3, [r9]
1000301e:	b10b      	cbz	r3, 10003024 <stdio_put_string+0x64>
10003020:	429c      	cmp	r4, r3
10003022:	d1f5      	bne.n	10003010 <stdio_put_string+0x50>
10003024:	4620      	mov	r0, r4
10003026:	462a      	mov	r2, r5
10003028:	4631      	mov	r1, r6
1000302a:	47b8      	blx	r7
1000302c:	6924      	ldr	r4, [r4, #16]
1000302e:	2c00      	cmp	r4, #0
10003030:	d1f0      	bne.n	10003014 <stdio_put_string+0x54>
10003032:	f1b8 0f00 	cmp.w	r8, #0
10003036:	d126      	bne.n	10003086 <stdio_put_string+0xc6>
10003038:	4628      	mov	r0, r5
1000303a:	b002      	add	sp, #8
1000303c:	e8bd 87f0 	ldmia.w	sp!, {r4, r5, r6, r7, r8, r9, sl, pc}
10003040:	4f18      	ldr	r7, [pc, #96]	@ (100030a4 <stdio_put_string+0xe4>)
10003042:	e7dc      	b.n	10002ffe <stdio_put_string+0x3e>
10003044:	f04f 0a0a 	mov.w	sl, #10
10003048:	f8df 905c 	ldr.w	r9, [pc, #92]	@ 100030a8 <stdio_put_string+0xe8>
1000304c:	e002      	b.n	10003054 <stdio_put_string+0x94>
1000304e:	6924      	ldr	r4, [r4, #16]
10003050:	2c00      	cmp	r4, #0
10003052:	d0ee      	beq.n	10003032 <stdio_put_string+0x72>
10003054:	6823      	ldr	r3, [r4, #0]
10003056:	2b00      	cmp	r3, #0
10003058:	d0f9      	beq.n	1000304e <stdio_put_string+0x8e>
1000305a:	f8d9 3000 	ldr.w	r3, [r9]
1000305e:	b10b      	cbz	r3, 10003064 <stdio_put_string+0xa4>
10003060:	42a3      	cmp	r3, r4
10003062:	d1f4      	bne.n	1000304e <stdio_put_string+0x8e>
10003064:	462a      	mov	r2, r5
10003066:	4631      	mov	r1, r6
10003068:	4620      	mov	r0, r4
1000306a:	47b8      	blx	r7
1000306c:	2201      	movs	r2, #1
1000306e:	4620      	mov	r0, r4
10003070:	f10d 0107 	add.w	r1, sp, #7
10003074:	f88d a007 	strb.w	sl, [sp, #7]
10003078:	47b8      	blx	r7
1000307a:	e7e8      	b.n	1000304e <stdio_put_string+0x8e>
1000307c:	4630      	mov	r0, r6
1000307e:	f000 faf5 	bl	1000366c <strlen>
10003082:	4605      	mov	r5, r0
10003084:	e7b9      	b.n	10002ffa <stdio_put_string+0x3a>
10003086:	4804      	ldr	r0, [pc, #16]	@ (10003098 <stdio_put_string+0xd8>)
10003088:	f000 fb26 	bl	100036d8 <__mutex_exit_veneer>
1000308c:	4628      	mov	r0, r5
1000308e:	b002      	add	sp, #8
10003090:	e8bd 87f0 	ldmia.w	sp!, {r4, r5, r6, r7, r8, r9, sl, pc}
10003094:	000f4240 	.word	0x000f4240
10003098:	2000062c 	.word	0x2000062c
1000309c:	10002eb1 	.word	0x10002eb1
100030a0:	2000080c 	.word	0x2000080c
100030a4:	10002ea9 	.word	0x10002ea9
100030a8:	20000810 	.word	0x20000810

100030ac <stdio_set_driver_enabled>:
100030ac:	4a08      	ldr	r2, [pc, #32]	@ (100030d0 <stdio_set_driver_enabled+0x24>)
100030ae:	6813      	ldr	r3, [r2, #0]
100030b0:	b923      	cbnz	r3, 100030bc <stdio_set_driver_enabled+0x10>
100030b2:	e00a      	b.n	100030ca <stdio_set_driver_enabled+0x1e>
100030b4:	f103 0210 	add.w	r2, r3, #16
100030b8:	691b      	ldr	r3, [r3, #16]
100030ba:	b133      	cbz	r3, 100030ca <stdio_set_driver_enabled+0x1e>
100030bc:	4283      	cmp	r3, r0
100030be:	d1f9      	bne.n	100030b4 <stdio_set_driver_enabled+0x8>
100030c0:	b929      	cbnz	r1, 100030ce <stdio_set_driver_enabled+0x22>
100030c2:	6918      	ldr	r0, [r3, #16]
100030c4:	6010      	str	r0, [r2, #0]
100030c6:	6119      	str	r1, [r3, #16]
100030c8:	4770      	bx	lr
100030ca:	b101      	cbz	r1, 100030ce <stdio_set_driver_enabled+0x22>
100030cc:	6010      	str	r0, [r2, #0]
100030ce:	4770      	bx	lr
100030d0:	2000080c 	.word	0x2000080c

100030d4 <stdio_init_all>:
100030d4:	b508      	push	{r3, lr}
100030d6:	f000 f9a3 	bl	10003420 <stdio_uart_init>
100030da:	2001      	movs	r0, #1
100030dc:	bd08      	pop	{r3, pc}
100030de:	bf00      	nop

100030e0 <__wrap_putchar>:
100030e0:	b5f0      	push	{r4, r5, r6, r7, lr}
100030e2:	b083      	sub	sp, #12
100030e4:	4606      	mov	r6, r0
100030e6:	f88d 0007 	strb.w	r0, [sp, #7]
100030ea:	f7fd fef7 	bl	10000edc <time_us_64>
100030ee:	f04f 35ff 	mov.w	r5, #4294967295
100030f2:	f06f 4400 	mvn.w	r4, #2147483648	@ 0x80000000
100030f6:	4a17      	ldr	r2, [pc, #92]	@ (10003154 <__wrap_putchar+0x74>)
100030f8:	1882      	adds	r2, r0, r2
100030fa:	f141 0300 	adc.w	r3, r1, #0
100030fe:	4295      	cmp	r5, r2
10003100:	eb74 0103 	sbcs.w	r1, r4, r3
10003104:	bf3c      	itt	cc
10003106:	4623      	movcc	r3, r4
10003108:	462a      	movcc	r2, r5
1000310a:	4813      	ldr	r0, [pc, #76]	@ (10003158 <__wrap_putchar+0x78>)
1000310c:	f000 fae8 	bl	100036e0 <__mutex_try_enter_block_until_veneer>
10003110:	4b12      	ldr	r3, [pc, #72]	@ (1000315c <__wrap_putchar+0x7c>)
10003112:	4607      	mov	r7, r0
10003114:	681c      	ldr	r4, [r3, #0]
10003116:	b19c      	cbz	r4, 10003140 <__wrap_putchar+0x60>
10003118:	4d11      	ldr	r5, [pc, #68]	@ (10003160 <__wrap_putchar+0x80>)
1000311a:	e001      	b.n	10003120 <__wrap_putchar+0x40>
1000311c:	6924      	ldr	r4, [r4, #16]
1000311e:	b17c      	cbz	r4, 10003140 <__wrap_putchar+0x60>
10003120:	6823      	ldr	r3, [r4, #0]
10003122:	2b00      	cmp	r3, #0
10003124:	d0fa      	beq.n	1000311c <__wrap_putchar+0x3c>
10003126:	682b      	ldr	r3, [r5, #0]
10003128:	b10b      	cbz	r3, 1000312e <__wrap_putchar+0x4e>
1000312a:	429c      	cmp	r4, r3
1000312c:	d1f6      	bne.n	1000311c <__wrap_putchar+0x3c>
1000312e:	4620      	mov	r0, r4
10003130:	2201      	movs	r2, #1
10003132:	f10d 0107 	add.w	r1, sp, #7
10003136:	f7ff febb 	bl	10002eb0 <stdio_out_chars_crlf>
1000313a:	6924      	ldr	r4, [r4, #16]
1000313c:	2c00      	cmp	r4, #0
1000313e:	d1ef      	bne.n	10003120 <__wrap_putchar+0x40>
10003140:	b917      	cbnz	r7, 10003148 <__wrap_putchar+0x68>
10003142:	4630      	mov	r0, r6
10003144:	b003      	add	sp, #12
10003146:	bdf0      	pop	{r4, r5, r6, r7, pc}
10003148:	4803      	ldr	r0, [pc, #12]	@ (10003158 <__wrap_putchar+0x78>)
1000314a:	f000 fac5 	bl	100036d8 <__mutex_exit_veneer>
1000314e:	4630      	mov	r0, r6
10003150:	b003      	add	sp, #12
10003152:	bdf0      	pop	{r4, r5, r6, r7, pc}
10003154:	000f4240 	.word	0x000f4240
10003158:	2000062c 	.word	0x2000062c
1000315c:	2000080c 	.word	0x2000080c
10003160:	20000810 	.word	0x20000810

10003164 <__wrap_puts>:
10003164:	b538      	push	{r3, r4, r5, lr}
10003166:	4604      	mov	r4, r0
10003168:	f000 fa80 	bl	1000366c <strlen>
1000316c:	2301      	movs	r3, #1
1000316e:	4605      	mov	r5, r0
10003170:	461a      	mov	r2, r3
10003172:	4620      	mov	r0, r4
10003174:	4629      	mov	r1, r5
10003176:	f7ff ff23 	bl	10002fc0 <stdio_put_string>
1000317a:	4b08      	ldr	r3, [pc, #32]	@ (1000319c <__wrap_puts+0x38>)
1000317c:	681c      	ldr	r4, [r3, #0]
1000317e:	b12c      	cbz	r4, 1000318c <__wrap_puts+0x28>
10003180:	6863      	ldr	r3, [r4, #4]
10003182:	b12b      	cbz	r3, 10003190 <__wrap_puts+0x2c>
10003184:	4798      	blx	r3
10003186:	6924      	ldr	r4, [r4, #16]
10003188:	2c00      	cmp	r4, #0
1000318a:	d1f9      	bne.n	10003180 <__wrap_puts+0x1c>
1000318c:	4628      	mov	r0, r5
1000318e:	bd38      	pop	{r3, r4, r5, pc}
10003190:	6924      	ldr	r4, [r4, #16]
10003192:	2c00      	cmp	r4, #0
10003194:	d1f4      	bne.n	10003180 <__wrap_puts+0x1c>
10003196:	4628      	mov	r0, r5
10003198:	bd38      	pop	{r3, r4, r5, pc}
1000319a:	bf00      	nop
1000319c:	2000080c 	.word	0x2000080c

100031a0 <__wrap_vprintf>:
100031a0:	e92d 41f0 	stmdb	sp!, {r4, r5, r6, r7, r8, lr}
100031a4:	b0a2      	sub	sp, #136	@ 0x88
100031a6:	4604      	mov	r4, r0
100031a8:	460d      	mov	r5, r1
100031aa:	f7fd fe97 	bl	10000edc <time_us_64>
100031ae:	f04f 37ff 	mov.w	r7, #4294967295
100031b2:	f06f 4600 	mvn.w	r6, #2147483648	@ 0x80000000
100031b6:	4a26      	ldr	r2, [pc, #152]	@ (10003250 <__wrap_vprintf+0xb0>)
100031b8:	f8df 80a4 	ldr.w	r8, [pc, #164]	@ 10003260 <__wrap_vprintf+0xc0>
100031bc:	1882      	adds	r2, r0, r2
100031be:	f141 0300 	adc.w	r3, r1, #0
100031c2:	4297      	cmp	r7, r2
100031c4:	eb76 0103 	sbcs.w	r1, r6, r3
100031c8:	bf3c      	itt	cc
100031ca:	463a      	movcc	r2, r7
100031cc:	4633      	movcc	r3, r6
100031ce:	4821      	ldr	r0, [pc, #132]	@ (10003254 <__wrap_vprintf+0xb4>)
100031d0:	f000 fa86 	bl	100036e0 <__mutex_try_enter_block_until_veneer>
100031d4:	2700      	movs	r7, #0
100031d6:	462b      	mov	r3, r5
100031d8:	4622      	mov	r2, r4
100031da:	4606      	mov	r6, r0
100031dc:	a901      	add	r1, sp, #4
100031de:	481e      	ldr	r0, [pc, #120]	@ (10003258 <__wrap_vprintf+0xb8>)
100031e0:	9701      	str	r7, [sp, #4]
100031e2:	f7ff fe1d 	bl	10002e20 <vfctprintf>
100031e6:	9b01      	ldr	r3, [sp, #4]
100031e8:	4605      	mov	r5, r0
100031ea:	f8d8 4000 	ldr.w	r4, [r8]
100031ee:	b1c3      	cbz	r3, 10003222 <__wrap_vprintf+0x82>
100031f0:	2c00      	cmp	r4, #0
100031f2:	d02b      	beq.n	1000324c <__wrap_vprintf+0xac>
100031f4:	4f19      	ldr	r7, [pc, #100]	@ (1000325c <__wrap_vprintf+0xbc>)
100031f6:	e001      	b.n	100031fc <__wrap_vprintf+0x5c>
100031f8:	6924      	ldr	r4, [r4, #16]
100031fa:	b174      	cbz	r4, 1000321a <__wrap_vprintf+0x7a>
100031fc:	6823      	ldr	r3, [r4, #0]
100031fe:	2b00      	cmp	r3, #0
10003200:	d0fa      	beq.n	100031f8 <__wrap_vprintf+0x58>
10003202:	683b      	ldr	r3, [r7, #0]
10003204:	b10b      	cbz	r3, 1000320a <__wrap_vprintf+0x6a>
10003206:	42a3      	cmp	r3, r4
10003208:	d1f6      	bne.n	100031f8 <__wrap_vprintf+0x58>
1000320a:	4620      	mov	r0, r4
1000320c:	9a01      	ldr	r2, [sp, #4]
1000320e:	a902      	add	r1, sp, #8
10003210:	f7ff fe4e 	bl	10002eb0 <stdio_out_chars_crlf>
10003214:	6924      	ldr	r4, [r4, #16]
10003216:	2c00      	cmp	r4, #0
10003218:	d1f0      	bne.n	100031fc <__wrap_vprintf+0x5c>
1000321a:	2300      	movs	r3, #0
1000321c:	f8d8 4000 	ldr.w	r4, [r8]
10003220:	9301      	str	r3, [sp, #4]
10003222:	b12c      	cbz	r4, 10003230 <__wrap_vprintf+0x90>
10003224:	6863      	ldr	r3, [r4, #4]
10003226:	b143      	cbz	r3, 1000323a <__wrap_vprintf+0x9a>
10003228:	4798      	blx	r3
1000322a:	6924      	ldr	r4, [r4, #16]
1000322c:	2c00      	cmp	r4, #0
1000322e:	d1f9      	bne.n	10003224 <__wrap_vprintf+0x84>
10003230:	b92e      	cbnz	r6, 1000323e <__wrap_vprintf+0x9e>
10003232:	4628      	mov	r0, r5
10003234:	b022      	add	sp, #136	@ 0x88
10003236:	e8bd 81f0 	ldmia.w	sp!, {r4, r5, r6, r7, r8, pc}
1000323a:	6924      	ldr	r4, [r4, #16]
1000323c:	e7f1      	b.n	10003222 <__wrap_vprintf+0x82>
1000323e:	4805      	ldr	r0, [pc, #20]	@ (10003254 <__wrap_vprintf+0xb4>)
10003240:	f000 fa4a 	bl	100036d8 <__mutex_exit_veneer>
10003244:	4628      	mov	r0, r5
10003246:	b022      	add	sp, #136	@ 0x88
10003248:	e8bd 81f0 	ldmia.w	sp!, {r4, r5, r6, r7, r8, pc}
1000324c:	9401      	str	r4, [sp, #4]
1000324e:	e7ef      	b.n	10003230 <__wrap_vprintf+0x90>
10003250:	000f4240 	.word	0x000f4240
10003254:	2000062c 	.word	0x2000062c
10003258:	10002f61 	.word	0x10002f61
1000325c:	20000810 	.word	0x20000810
10003260:	2000080c 	.word	0x2000080c

10003264 <__wrap_printf>:
10003264:	b40f      	push	{r0, r1, r2, r3}
10003266:	b500      	push	{lr}
10003268:	b083      	sub	sp, #12
1000326a:	a904      	add	r1, sp, #16
1000326c:	f851 0b04 	ldr.w	r0, [r1], #4
10003270:	9101      	str	r1, [sp, #4]
10003272:	f7ff ff95 	bl	100031a0 <__wrap_vprintf>
10003276:	b003      	add	sp, #12
10003278:	f85d eb04 	ldr.w	lr, [sp], #4
1000327c:	b004      	add	sp, #16
1000327e:	4770      	bx	lr

10003280 <stdio_uart_out_chars>:
10003280:	f1b1 0c00 	subs.w	ip, r1, #0
10003284:	dd1d      	ble.n	100032c2 <stdio_uart_out_chars+0x42>
10003286:	4a0f      	ldr	r2, [pc, #60]	@ (100032c4 <stdio_uart_out_chars+0x44>)
10003288:	4b0f      	ldr	r3, [pc, #60]	@ (100032c8 <stdio_uart_out_chars+0x48>)
1000328a:	6812      	ldr	r2, [r2, #0]
1000328c:	b530      	push	{r4, r5, lr}
1000328e:	1ad3      	subs	r3, r2, r3
10003290:	fab3 f383 	clz	r3, r3
10003294:	240d      	movs	r4, #13
10003296:	4d0d      	ldr	r5, [pc, #52]	@ (100032cc <stdio_uart_out_chars+0x4c>)
10003298:	095b      	lsrs	r3, r3, #5
1000329a:	1e41      	subs	r1, r0, #1
1000329c:	f935 e013 	ldrsh.w	lr, [r5, r3, lsl #1]
100032a0:	448c      	add	ip, r1
100032a2:	f811 0f01 	ldrb.w	r0, [r1, #1]!
100032a6:	4586      	cmp	lr, r0
100032a8:	d006      	beq.n	100032b8 <stdio_uart_out_chars+0x38>
100032aa:	6993      	ldr	r3, [r2, #24]
100032ac:	069b      	lsls	r3, r3, #26
100032ae:	d4fc      	bmi.n	100032aa <stdio_uart_out_chars+0x2a>
100032b0:	4561      	cmp	r1, ip
100032b2:	6010      	str	r0, [r2, #0]
100032b4:	d1f5      	bne.n	100032a2 <stdio_uart_out_chars+0x22>
100032b6:	bd30      	pop	{r4, r5, pc}
100032b8:	6993      	ldr	r3, [r2, #24]
100032ba:	069d      	lsls	r5, r3, #26
100032bc:	d4fc      	bmi.n	100032b8 <stdio_uart_out_chars+0x38>
100032be:	6014      	str	r4, [r2, #0]
100032c0:	e7f3      	b.n	100032aa <stdio_uart_out_chars+0x2a>
100032c2:	4770      	bx	lr
100032c4:	20000858 	.word	0x20000858
100032c8:	40078000 	.word	0x40078000
100032cc:	20000854 	.word	0x20000854

100032d0 <stdio_uart_in_chars>:
100032d0:	4b22      	ldr	r3, [pc, #136]	@ (1000335c <stdio_uart_in_chars+0x8c>)
100032d2:	f1b1 0c00 	subs.w	ip, r1, #0
100032d6:	b410      	push	{r4}
100032d8:	681c      	ldr	r4, [r3, #0]
100032da:	dd2e      	ble.n	1000333a <stdio_uart_in_chars+0x6a>
100032dc:	4603      	mov	r3, r0
100032de:	2000      	movs	r0, #0
100032e0:	4a1f      	ldr	r2, [pc, #124]	@ (10003360 <stdio_uart_in_chars+0x90>)
100032e2:	1e59      	subs	r1, r3, #1
100032e4:	6812      	ldr	r2, [r2, #0]
100032e6:	6993      	ldr	r3, [r2, #24]
100032e8:	06db      	lsls	r3, r3, #27
100032ea:	d417      	bmi.n	1000331c <stdio_uart_in_chars+0x4c>
100032ec:	3001      	adds	r0, #1
100032ee:	6993      	ldr	r3, [r2, #24]
100032f0:	06db      	lsls	r3, r3, #27
100032f2:	d4fc      	bmi.n	100032ee <stdio_uart_in_chars+0x1e>
100032f4:	6813      	ldr	r3, [r2, #0]
100032f6:	4584      	cmp	ip, r0
100032f8:	f801 3f01 	strb.w	r3, [r1, #1]!
100032fc:	d1f3      	bne.n	100032e6 <stdio_uart_in_chars+0x16>
100032fe:	b14c      	cbz	r4, 10003314 <stdio_uart_in_chars+0x44>
10003300:	2150      	movs	r1, #80	@ 0x50
10003302:	4613      	mov	r3, r2
10003304:	6391      	str	r1, [r2, #56]	@ 0x38
10003306:	f853 2f34 	ldr.w	r2, [r3, #52]!
1000330a:	f002 0238 	and.w	r2, r2, #56	@ 0x38
1000330e:	f503 5380 	add.w	r3, r3, #4096	@ 0x1000
10003312:	601a      	str	r2, [r3, #0]
10003314:	4660      	mov	r0, ip
10003316:	f85d 4b04 	ldr.w	r4, [sp], #4
1000331a:	4770      	bx	lr
1000331c:	b14c      	cbz	r4, 10003332 <stdio_uart_in_chars+0x62>
1000331e:	2150      	movs	r1, #80	@ 0x50
10003320:	4613      	mov	r3, r2
10003322:	6391      	str	r1, [r2, #56]	@ 0x38
10003324:	f853 2f34 	ldr.w	r2, [r3, #52]!
10003328:	f002 0238 	and.w	r2, r2, #56	@ 0x38
1000332c:	f503 5380 	add.w	r3, r3, #4096	@ 0x1000
10003330:	601a      	str	r2, [r3, #0]
10003332:	b178      	cbz	r0, 10003354 <stdio_uart_in_chars+0x84>
10003334:	f85d 4b04 	ldr.w	r4, [sp], #4
10003338:	4770      	bx	lr
1000333a:	b15c      	cbz	r4, 10003354 <stdio_uart_in_chars+0x84>
1000333c:	4b08      	ldr	r3, [pc, #32]	@ (10003360 <stdio_uart_in_chars+0x90>)
1000333e:	2150      	movs	r1, #80	@ 0x50
10003340:	681a      	ldr	r2, [r3, #0]
10003342:	4613      	mov	r3, r2
10003344:	6391      	str	r1, [r2, #56]	@ 0x38
10003346:	f853 2f34 	ldr.w	r2, [r3, #52]!
1000334a:	f002 0238 	and.w	r2, r2, #56	@ 0x38
1000334e:	f503 5380 	add.w	r3, r3, #4096	@ 0x1000
10003352:	601a      	str	r2, [r3, #0]
10003354:	f06f 0002 	mvn.w	r0, #2
10003358:	e7dd      	b.n	10003316 <stdio_uart_in_chars+0x46>
1000335a:	bf00      	nop
1000335c:	200007d8 	.word	0x200007d8
10003360:	20000858 	.word	0x20000858

10003364 <on_uart_rx>:
10003364:	4b05      	ldr	r3, [pc, #20]	@ (1000337c <on_uart_rx+0x18>)
10003366:	681b      	ldr	r3, [r3, #0]
10003368:	b133      	cbz	r3, 10003378 <on_uart_rx+0x14>
1000336a:	2100      	movs	r1, #0
1000336c:	4a04      	ldr	r2, [pc, #16]	@ (10003380 <on_uart_rx+0x1c>)
1000336e:	4805      	ldr	r0, [pc, #20]	@ (10003384 <on_uart_rx+0x20>)
10003370:	6812      	ldr	r2, [r2, #0]
10003372:	6800      	ldr	r0, [r0, #0]
10003374:	6391      	str	r1, [r2, #56]	@ 0x38
10003376:	4718      	bx	r3
10003378:	4770      	bx	lr
1000337a:	bf00      	nop
1000337c:	200007d8 	.word	0x200007d8
10003380:	20000858 	.word	0x20000858
10003384:	200007dc 	.word	0x200007dc

10003388 <stdio_uart_out_flush>:
10003388:	4b02      	ldr	r3, [pc, #8]	@ (10003394 <stdio_uart_out_flush+0xc>)
1000338a:	681a      	ldr	r2, [r3, #0]
1000338c:	6993      	ldr	r3, [r2, #24]
1000338e:	071b      	lsls	r3, r3, #28
10003390:	d4fc      	bmi.n	1000338c <stdio_uart_out_flush+0x4>
10003392:	4770      	bx	lr
10003394:	20000858 	.word	0x20000858

10003398 <stdio_uart_set_chars_available_callback>:
10003398:	b5f8      	push	{r3, r4, r5, r6, r7, lr}
1000339a:	4f1c      	ldr	r7, [pc, #112]	@ (1000340c <stdio_uart_set_chars_available_callback+0x74>)
1000339c:	4d1c      	ldr	r5, [pc, #112]	@ (10003410 <stdio_uart_set_chars_available_callback+0x78>)
1000339e:	683a      	ldr	r2, [r7, #0]
100033a0:	4e1c      	ldr	r6, [pc, #112]	@ (10003414 <stdio_uart_set_chars_available_callback+0x7c>)
100033a2:	42aa      	cmp	r2, r5
100033a4:	bf14      	ite	ne
100033a6:	2521      	movne	r5, #33	@ 0x21
100033a8:	2522      	moveq	r5, #34	@ 0x22
100033aa:	4604      	mov	r4, r0
100033ac:	f8d6 c000 	ldr.w	ip, [r6]
100033b0:	b118      	cbz	r0, 100033ba <stdio_uart_set_chars_available_callback+0x22>
100033b2:	f1bc 0f00 	cmp.w	ip, #0
100033b6:	d010      	beq.n	100033da <stdio_uart_set_chars_available_callback+0x42>
100033b8:	bdf8      	pop	{r3, r4, r5, r6, r7, pc}
100033ba:	f1bc 0f00 	cmp.w	ip, #0
100033be:	d0fb      	beq.n	100033b8 <stdio_uart_set_chars_available_callback+0x20>
100033c0:	4601      	mov	r1, r0
100033c2:	6390      	str	r0, [r2, #56]	@ 0x38
100033c4:	4628      	mov	r0, r5
100033c6:	f7fd f801 	bl	100003cc <irq_set_enabled>
100033ca:	4628      	mov	r0, r5
100033cc:	4912      	ldr	r1, [pc, #72]	@ (10003418 <stdio_uart_set_chars_available_callback+0x80>)
100033ce:	f7fd f853 	bl	10000478 <irq_remove_handler>
100033d2:	4b12      	ldr	r3, [pc, #72]	@ (1000341c <stdio_uart_set_chars_available_callback+0x84>)
100033d4:	6034      	str	r4, [r6, #0]
100033d6:	601c      	str	r4, [r3, #0]
100033d8:	bdf8      	pop	{r3, r4, r5, r6, r7, pc}
100033da:	460b      	mov	r3, r1
100033dc:	4a0f      	ldr	r2, [pc, #60]	@ (1000341c <stdio_uart_set_chars_available_callback+0x84>)
100033de:	490e      	ldr	r1, [pc, #56]	@ (10003418 <stdio_uart_set_chars_available_callback+0x80>)
100033e0:	6030      	str	r0, [r6, #0]
100033e2:	4628      	mov	r0, r5
100033e4:	6013      	str	r3, [r2, #0]
100033e6:	f7fd f817 	bl	10000418 <irq_set_exclusive_handler>
100033ea:	2101      	movs	r1, #1
100033ec:	4628      	mov	r0, r5
100033ee:	f7fc ffed 	bl	100003cc <irq_set_enabled>
100033f2:	683a      	ldr	r2, [r7, #0]
100033f4:	2150      	movs	r1, #80	@ 0x50
100033f6:	4613      	mov	r3, r2
100033f8:	6391      	str	r1, [r2, #56]	@ 0x38
100033fa:	f853 2f34 	ldr.w	r2, [r3, #52]!
100033fe:	f002 0238 	and.w	r2, r2, #56	@ 0x38
10003402:	f503 5380 	add.w	r3, r3, #4096	@ 0x1000
10003406:	601a      	str	r2, [r3, #0]
10003408:	bdf8      	pop	{r3, r4, r5, r6, r7, pc}
1000340a:	bf00      	nop
1000340c:	20000858 	.word	0x20000858
10003410:	40078000 	.word	0x40078000
10003414:	200007d8 	.word	0x200007d8
10003418:	10003365 	.word	0x10003365
1000341c:	200007dc 	.word	0x200007dc

10003420 <stdio_uart_init>:
10003420:	b510      	push	{r4, lr}
10003422:	490e      	ldr	r1, [pc, #56]	@ (1000345c <stdio_uart_init+0x3c>)
10003424:	4c0e      	ldr	r4, [pc, #56]	@ (10003460 <stdio_uart_init+0x40>)
10003426:	480f      	ldr	r0, [pc, #60]	@ (10003464 <stdio_uart_init+0x44>)
10003428:	4a0f      	ldr	r2, [pc, #60]	@ (10003468 <stdio_uart_init+0x48>)
1000342a:	4b10      	ldr	r3, [pc, #64]	@ (1000346c <stdio_uart_init+0x4c>)
1000342c:	7800      	ldrb	r0, [r0, #0]
1000342e:	6021      	str	r1, [r4, #0]
10003430:	2000      	movs	r0, #0
10003432:	2102      	movs	r1, #2
10003434:	7812      	ldrb	r2, [r2, #0]
10003436:	781b      	ldrb	r3, [r3, #0]
10003438:	f7fc ff26 	bl	10000288 <gpio_set_function>
1000343c:	2102      	movs	r1, #2
1000343e:	2001      	movs	r0, #1
10003440:	f7fc ff22 	bl	10000288 <gpio_set_function>
10003444:	f44f 31e1 	mov.w	r1, #115200	@ 0x1c200
10003448:	6820      	ldr	r0, [r4, #0]
1000344a:	f7fd fd91 	bl	10000f70 <uart_init>
1000344e:	e8bd 4010 	ldmia.w	sp!, {r4, lr}
10003452:	2101      	movs	r1, #1
10003454:	4806      	ldr	r0, [pc, #24]	@ (10003470 <stdio_uart_init+0x50>)
10003456:	f7ff be29 	b.w	100030ac <stdio_set_driver_enabled>
1000345a:	bf00      	nop
1000345c:	40070000 	.word	0x40070000
10003460:	20000858 	.word	0x20000858
10003464:	10003928 	.word	0x10003928
10003468:	10003924 	.word	0x10003924
1000346c:	10003920 	.word	0x10003920
10003470:	2000060c 	.word	0x2000060c

10003474 <core1_trampoline>:
10003474:	bd03      	pop	{r0, r1, pc}
10003476:	bf00      	nop

10003478 <core1_wrapper>:
10003478:	b510      	push	{r4, lr}
1000347a:	4604      	mov	r4, r0
1000347c:	f7fd ff0e 	bl	1000129c <runtime_run_per_core_initializers>
10003480:	4623      	mov	r3, r4
10003482:	e8bd 4010 	ldmia.w	sp!, {r4, lr}
10003486:	4718      	bx	r3

10003488 <multicore_fifo_push_blocking>:
10003488:	f04f 4250 	mov.w	r2, #3489660928	@ 0xd0000000
1000348c:	6d13      	ldr	r3, [r2, #80]	@ 0x50
1000348e:	079b      	lsls	r3, r3, #30
10003490:	d5fc      	bpl.n	1000348c <multicore_fifo_push_blocking+0x4>
10003492:	6550      	str	r0, [r2, #84]	@ 0x54
10003494:	bf40      	sev
10003496:	4770      	bx	lr

10003498 <multicore_fifo_pop_blocking>:
10003498:	f04f 4250 	mov.w	r2, #3489660928	@ 0xd0000000
1000349c:	6d13      	ldr	r3, [r2, #80]	@ 0x50
1000349e:	07d9      	lsls	r1, r3, #31
100034a0:	d403      	bmi.n	100034aa <multicore_fifo_pop_blocking+0x12>
100034a2:	bf20      	wfe
100034a4:	6d13      	ldr	r3, [r2, #80]	@ 0x50
100034a6:	07db      	lsls	r3, r3, #31
100034a8:	d5fb      	bpl.n	100034a2 <multicore_fifo_pop_blocking+0xa>
100034aa:	f04f 4350 	mov.w	r3, #3489660928	@ 0xd0000000
100034ae:	6d98      	ldr	r0, [r3, #88]	@ 0x58
100034b0:	4770      	bx	lr
100034b2:	bf00      	nop

100034b4 <multicore_launch_core1_raw>:
100034b4:	b5f0      	push	{r4, r5, r6, r7, lr}
100034b6:	4605      	mov	r5, r0
100034b8:	b087      	sub	sp, #28
100034ba:	2019      	movs	r0, #25
100034bc:	4617      	mov	r7, r2
100034be:	460e      	mov	r6, r1
100034c0:	f7fc ff9a 	bl	100003f8 <irq_is_enabled>
100034c4:	2100      	movs	r1, #0
100034c6:	4604      	mov	r4, r0
100034c8:	2019      	movs	r0, #25
100034ca:	f7fc ff7f 	bl	100003cc <irq_set_enabled>
100034ce:	2100      	movs	r1, #0
100034d0:	e9cd 6504 	strd	r6, r5, [sp, #16]
100034d4:	9703      	str	r7, [sp, #12]
100034d6:	2600      	movs	r6, #0
100034d8:	2700      	movs	r7, #0
100034da:	2201      	movs	r2, #1
100034dc:	f04f 4350 	mov.w	r3, #3489660928	@ 0xd0000000
100034e0:	468c      	mov	ip, r1
100034e2:	e9cd 6700 	strd	r6, r7, [sp]
100034e6:	9202      	str	r2, [sp, #8]
100034e8:	b1a9      	cbz	r1, 10003516 <multicore_launch_core1_raw+0x62>
100034ea:	6d1a      	ldr	r2, [r3, #80]	@ 0x50
100034ec:	0795      	lsls	r5, r2, #30
100034ee:	d5fc      	bpl.n	100034ea <multicore_launch_core1_raw+0x36>
100034f0:	6559      	str	r1, [r3, #84]	@ 0x54
100034f2:	bf40      	sev
100034f4:	6d1a      	ldr	r2, [r3, #80]	@ 0x50
100034f6:	07d0      	lsls	r0, r2, #31
100034f8:	d403      	bmi.n	10003502 <multicore_launch_core1_raw+0x4e>
100034fa:	bf20      	wfe
100034fc:	6d1a      	ldr	r2, [r3, #80]	@ 0x50
100034fe:	07d2      	lsls	r2, r2, #31
10003500:	d5fb      	bpl.n	100034fa <multicore_launch_core1_raw+0x46>
10003502:	6d9a      	ldr	r2, [r3, #88]	@ 0x58
10003504:	428a      	cmp	r2, r1
10003506:	d00b      	beq.n	10003520 <multicore_launch_core1_raw+0x6c>
10003508:	f04f 0c00 	mov.w	ip, #0
1000350c:	eb0d 028c 	add.w	r2, sp, ip, lsl #2
10003510:	6811      	ldr	r1, [r2, #0]
10003512:	e7e9      	b.n	100034e8 <multicore_launch_core1_raw+0x34>
10003514:	6d9a      	ldr	r2, [r3, #88]	@ 0x58
10003516:	6d1a      	ldr	r2, [r3, #80]	@ 0x50
10003518:	07d6      	lsls	r6, r2, #31
1000351a:	d4fb      	bmi.n	10003514 <multicore_launch_core1_raw+0x60>
1000351c:	bf40      	sev
1000351e:	e7e4      	b.n	100034ea <multicore_launch_core1_raw+0x36>
10003520:	f10c 0c01 	add.w	ip, ip, #1
10003524:	f1bc 0f06 	cmp.w	ip, #6
10003528:	d1f0      	bne.n	1000350c <multicore_launch_core1_raw+0x58>
1000352a:	4621      	mov	r1, r4
1000352c:	2019      	movs	r0, #25
1000352e:	b007      	add	sp, #28
10003530:	e8bd 40f0 	ldmia.w	sp!, {r4, r5, r6, r7, lr}
10003534:	f7fc bf4a 	b.w	100003cc <irq_set_enabled>

10003538 <multicore_launch_core1>:
10003538:	4b0c      	ldr	r3, [pc, #48]	@ (1000356c <multicore_launch_core1+0x34>)
1000353a:	4a0d      	ldr	r2, [pc, #52]	@ (10003570 <multicore_launch_core1+0x38>)
1000353c:	4293      	cmp	r3, r2
1000353e:	d30e      	bcc.n	1000355e <multicore_launch_core1+0x26>
10003540:	469c      	mov	ip, r3
10003542:	f203 71f4 	addw	r1, r3, #2036	@ 0x7f4
10003546:	4a0b      	ldr	r2, [pc, #44]	@ (10003574 <multicore_launch_core1+0x3c>)
10003548:	6892      	ldr	r2, [r2, #8]
1000354a:	f8cc 07f4 	str.w	r0, [ip, #2036]	@ 0x7f4
1000354e:	480a      	ldr	r0, [pc, #40]	@ (10003578 <multicore_launch_core1+0x40>)
10003550:	f8cc 37f8 	str.w	r3, [ip, #2040]	@ 0x7f8
10003554:	f8cc 07fc 	str.w	r0, [ip, #2044]	@ 0x7fc
10003558:	4808      	ldr	r0, [pc, #32]	@ (1000357c <multicore_launch_core1+0x44>)
1000355a:	f7ff bfab 	b.w	100034b4 <multicore_launch_core1_raw>
1000355e:	f04f 33ff 	mov.w	r3, #4294967295
10003562:	f240 71f3 	movw	r1, #2035	@ 0x7f3
10003566:	469c      	mov	ip, r3
10003568:	e7ed      	b.n	10003546 <multicore_launch_core1+0xe>
1000356a:	bf00      	nop
1000356c:	20080800 	.word	0x20080800
10003570:	20080000 	.word	0x20080000
10003574:	e000ed00 	.word	0xe000ed00
10003578:	10003479 	.word	0x10003479
1000357c:	10003475 	.word	0x10003475

10003580 <memcpy>:
10003580:	4684      	mov	ip, r0
10003582:	ea41 0300 	orr.w	r3, r1, r0
10003586:	f013 0303 	ands.w	r3, r3, #3
1000358a:	d149      	bne.n	10003620 <memcpy+0xa0>
1000358c:	3a40      	subs	r2, #64	@ 0x40
1000358e:	d323      	bcc.n	100035d8 <memcpy+0x58>
10003590:	680b      	ldr	r3, [r1, #0]
10003592:	6003      	str	r3, [r0, #0]
10003594:	684b      	ldr	r3, [r1, #4]
10003596:	6043      	str	r3, [r0, #4]
10003598:	688b      	ldr	r3, [r1, #8]
1000359a:	6083      	str	r3, [r0, #8]
1000359c:	68cb      	ldr	r3, [r1, #12]
1000359e:	60c3      	str	r3, [r0, #12]
100035a0:	690b      	ldr	r3, [r1, #16]
100035a2:	6103      	str	r3, [r0, #16]
100035a4:	694b      	ldr	r3, [r1, #20]
100035a6:	6143      	str	r3, [r0, #20]
100035a8:	698b      	ldr	r3, [r1, #24]
100035aa:	6183      	str	r3, [r0, #24]
100035ac:	69cb      	ldr	r3, [r1, #28]
100035ae:	61c3      	str	r3, [r0, #28]
100035b0:	6a0b      	ldr	r3, [r1, #32]
100035b2:	6203      	str	r3, [r0, #32]
100035b4:	6a4b      	ldr	r3, [r1, #36]	@ 0x24
100035b6:	6243      	str	r3, [r0, #36]	@ 0x24
100035b8:	6a8b      	ldr	r3, [r1, #40]	@ 0x28
100035ba:	6283      	str	r3, [r0, #40]	@ 0x28
100035bc:	6acb      	ldr	r3, [r1, #44]	@ 0x2c
100035be:	62c3      	str	r3, [r0, #44]	@ 0x2c
100035c0:	6b0b      	ldr	r3, [r1, #48]	@ 0x30
100035c2:	6303      	str	r3, [r0, #48]	@ 0x30
100035c4:	6b4b      	ldr	r3, [r1, #52]	@ 0x34
100035c6:	6343      	str	r3, [r0, #52]	@ 0x34
100035c8:	6b8b      	ldr	r3, [r1, #56]	@ 0x38
100035ca:	6383      	str	r3, [r0, #56]	@ 0x38
100035cc:	6bcb      	ldr	r3, [r1, #60]	@ 0x3c
100035ce:	63c3      	str	r3, [r0, #60]	@ 0x3c
100035d0:	3040      	adds	r0, #64	@ 0x40
100035d2:	3140      	adds	r1, #64	@ 0x40
100035d4:	3a40      	subs	r2, #64	@ 0x40
100035d6:	d2db      	bcs.n	10003590 <memcpy+0x10>
100035d8:	3230      	adds	r2, #48	@ 0x30
100035da:	d30b      	bcc.n	100035f4 <memcpy+0x74>
100035dc:	680b      	ldr	r3, [r1, #0]
100035de:	6003      	str	r3, [r0, #0]
100035e0:	684b      	ldr	r3, [r1, #4]
100035e2:	6043      	str	r3, [r0, #4]
100035e4:	688b      	ldr	r3, [r1, #8]
100035e6:	6083      	str	r3, [r0, #8]
100035e8:	68cb      	ldr	r3, [r1, #12]
100035ea:	60c3      	str	r3, [r0, #12]
100035ec:	3010      	adds	r0, #16
100035ee:	3110      	adds	r1, #16
100035f0:	3a10      	subs	r2, #16
100035f2:	d2f3      	bcs.n	100035dc <memcpy+0x5c>
100035f4:	320c      	adds	r2, #12
100035f6:	d305      	bcc.n	10003604 <memcpy+0x84>
100035f8:	f851 3b04 	ldr.w	r3, [r1], #4
100035fc:	f840 3b04 	str.w	r3, [r0], #4
10003600:	3a04      	subs	r2, #4
10003602:	d2f9      	bcs.n	100035f8 <memcpy+0x78>
10003604:	3204      	adds	r2, #4
10003606:	d008      	beq.n	1000361a <memcpy+0x9a>
10003608:	07d2      	lsls	r2, r2, #31
1000360a:	bf1c      	itt	ne
1000360c:	f811 3b01 	ldrbne.w	r3, [r1], #1
10003610:	f800 3b01 	strbne.w	r3, [r0], #1
10003614:	d301      	bcc.n	1000361a <memcpy+0x9a>
10003616:	880b      	ldrh	r3, [r1, #0]
10003618:	8003      	strh	r3, [r0, #0]
1000361a:	4660      	mov	r0, ip
1000361c:	4770      	bx	lr
1000361e:	bf00      	nop
10003620:	2a08      	cmp	r2, #8
10003622:	d313      	bcc.n	1000364c <memcpy+0xcc>
10003624:	078b      	lsls	r3, r1, #30
10003626:	d0b1      	beq.n	1000358c <memcpy+0xc>
10003628:	f010 0303 	ands.w	r3, r0, #3
1000362c:	d0ae      	beq.n	1000358c <memcpy+0xc>
1000362e:	f1c3 0304 	rsb	r3, r3, #4
10003632:	1ad2      	subs	r2, r2, r3
10003634:	07db      	lsls	r3, r3, #31
10003636:	bf1c      	itt	ne
10003638:	f811 3b01 	ldrbne.w	r3, [r1], #1
1000363c:	f800 3b01 	strbne.w	r3, [r0], #1
10003640:	d3a4      	bcc.n	1000358c <memcpy+0xc>
10003642:	f831 3b02 	ldrh.w	r3, [r1], #2
10003646:	f820 3b02 	strh.w	r3, [r0], #2
1000364a:	e79f      	b.n	1000358c <memcpy+0xc>
1000364c:	3a04      	subs	r2, #4
1000364e:	d3d9      	bcc.n	10003604 <memcpy+0x84>
10003650:	3a01      	subs	r2, #1
10003652:	f811 3b01 	ldrb.w	r3, [r1], #1
10003656:	f800 3b01 	strb.w	r3, [r0], #1
1000365a:	d2f9      	bcs.n	10003650 <memcpy+0xd0>
1000365c:	780b      	ldrb	r3, [r1, #0]
1000365e:	7003      	strb	r3, [r0, #0]
10003660:	784b      	ldrb	r3, [r1, #1]
10003662:	7043      	strb	r3, [r0, #1]
10003664:	788b      	ldrb	r3, [r1, #2]
10003666:	7083      	strb	r3, [r0, #2]
10003668:	4660      	mov	r0, ip
1000366a:	4770      	bx	lr

1000366c <strlen>:
1000366c:	f020 0103 	bic.w	r1, r0, #3
10003670:	f010 0003 	ands.w	r0, r0, #3
10003674:	f1c0 0000 	rsb	r0, r0, #0
10003678:	f851 3b04 	ldr.w	r3, [r1], #4
1000367c:	f100 0c04 	add.w	ip, r0, #4
10003680:	ea4f 0ccc 	mov.w	ip, ip, lsl #3
10003684:	f06f 0200 	mvn.w	r2, #0
10003688:	bf1c      	itt	ne
1000368a:	fa22 f20c 	lsrne.w	r2, r2, ip
1000368e:	4313      	orrne	r3, r2
10003690:	f04f 0c01 	mov.w	ip, #1
10003694:	ea4c 2c0c 	orr.w	ip, ip, ip, lsl #8
10003698:	ea4c 4c0c 	orr.w	ip, ip, ip, lsl #16
1000369c:	eba3 020c 	sub.w	r2, r3, ip
100036a0:	ea22 0203 	bic.w	r2, r2, r3
100036a4:	ea12 12cc 	ands.w	r2, r2, ip, lsl #7
100036a8:	bf04      	itt	eq
100036aa:	f851 3b04 	ldreq.w	r3, [r1], #4
100036ae:	3004      	addeq	r0, #4
100036b0:	d0f4      	beq.n	1000369c <strlen+0x30>
100036b2:	f1c2 0100 	rsb	r1, r2, #0
100036b6:	ea02 0201 	and.w	r2, r2, r1
100036ba:	fab2 f282 	clz	r2, r2
100036be:	f1c2 021f 	rsb	r2, r2, #31
100036c2:	eb00 00d2 	add.w	r0, r0, r2, lsr #3
100036c6:	4770      	bx	lr

100036c8 <_fini>:
100036c8:	b5f8      	push	{r3, r4, r5, r6, r7, lr}
100036ca:	bf00      	nop
100036cc:	0000      	movs	r0, r0
	...

100036d0 <____aeabi_uldivmod_veneer>:
100036d0:	f85f f000 	ldr.w	pc, [pc]	@ 100036d4 <____aeabi_uldivmod_veneer+0x4>
100036d4:	20000221 	.word	0x20000221

100036d8 <__mutex_exit_veneer>:
100036d8:	f85f f000 	ldr.w	pc, [pc]	@ 100036dc <__mutex_exit_veneer+0x4>
100036dc:	200001e5 	.word	0x200001e5

100036e0 <__mutex_try_enter_block_until_veneer>:
100036e0:	f85f f000 	ldr.w	pc, [pc]	@ 100036e4 <__mutex_try_enter_block_until_veneer+0x4>
100036e4:	2000017d 	.word	0x2000017d

100036e8 <__pre_init_runtime_init_bootrom_reset>:
100036e8:	10001349                                I...

100036ec <__pre_init_runtime_init_early_resets>:
100036ec:	100012bd                                ....

100036f0 <__pre_init_runtime_init_usb_power_down>:
100036f0:	100012f1                                ....

100036f4 <__pre_init_runtime_init_clocks>:
100036f4:	100013dd                                ....

100036f8 <__pre_init_runtime_init_post_clock_resets>:
100036f8:	10001329                                )...

100036fc <__pre_init_runtime_init_boot_locks_reset>:
100036fc:	10001221                                !...

10003700 <__pre_init_runtime_init_spin_locks_reset>:
10003700:	10001371                                q...

10003704 <__pre_init_runtime_init_bootrom_locking_enable>:
10003704:	1000120d                                ....

10003708 <__pre_init_runtime_init_mutex>:
10003708:	10000735                                5...

1000370c <__pre_init_runtime_init_install_ram_vector_table>:
1000370c:	10001375                                u...

10003710 <__pre_init_runtime_init_default_alarm_pool>:
10003710:	10000ab1                                ....

10003714 <__pre_init_first_per_core_initializer>:
10003714:	1000126d                                m...

10003718 <__pre_init_runtime_init_per_core_bootrom_reset>:
10003718:	1000135d                                ]...

1000371c <__pre_init_runtime_init_per_core_enable_coprocessors>:
1000371c:	1000130d                                ....

10003720 <__pre_init_spinlock_set_extexclall>:
10003720:	10000365                                e...

10003724 <__pre_init_runtime_init_per_core_irq_priorities>:
10003724:	1000038d                                ....

10003728 <__frame_dummy_init_array_entry>:
10003728:	10000211                                ....

Disassembly of section .data:

20000110 <mutex_enter_block_until>:
20000110:	f04f 4150 	mov.w	r1, #3489660928	@ 0xd0000000
20000114:	e92d 41f0 	stmdb	sp!, {r4, r5, r6, r7, r8, lr}
20000118:	2700      	movs	r7, #0
2000011a:	4604      	mov	r4, r0
2000011c:	4616      	mov	r6, r2
2000011e:	461d      	mov	r5, r3
20000120:	f8d1 8000 	ldr.w	r8, [r1]
20000124:	e008      	b.n	20000138 <mutex_enter_block_until+0x28>
20000126:	e8c1 7f8f 	stlb	r7, [r1]
2000012a:	f38c 8810 	msr	PRIMASK, ip
2000012e:	4630      	mov	r0, r6
20000130:	4629      	mov	r1, r5
20000132:	f000 fa35 	bl	200005a0 <__best_effort_wfe_or_timeout_veneer>
20000136:	b9e8      	cbnz	r0, 20000174 <mutex_enter_block_until+0x64>
20000138:	6821      	ldr	r1, [r4, #0]
2000013a:	f3ef 8c10 	mrs	ip, PRIMASK
2000013e:	b672      	cpsid	i
20000140:	e8d1 2fcf 	ldaexb	r2, [r1]
20000144:	2301      	movs	r3, #1
20000146:	2a00      	cmp	r2, #0
20000148:	d1fa      	bne.n	20000140 <mutex_enter_block_until+0x30>
2000014a:	e8c1 3f42 	strexb	r2, r3, [r1]
2000014e:	2a00      	cmp	r2, #0
20000150:	d1f6      	bne.n	20000140 <mutex_enter_block_until+0x30>
20000152:	f3bf 8f5f 	dmb	sy
20000156:	f994 3004 	ldrsb.w	r3, [r4, #4]
2000015a:	6821      	ldr	r1, [r4, #0]
2000015c:	2b00      	cmp	r3, #0
2000015e:	dae2      	bge.n	20000126 <mutex_enter_block_until+0x16>
20000160:	2300      	movs	r3, #0
20000162:	f884 8004 	strb.w	r8, [r4, #4]
20000166:	e8c1 3f8f 	stlb	r3, [r1]
2000016a:	f38c 8810 	msr	PRIMASK, ip
2000016e:	2001      	movs	r0, #1
20000170:	e8bd 81f0 	ldmia.w	sp!, {r4, r5, r6, r7, r8, pc}
20000174:	2000      	movs	r0, #0
20000176:	e8bd 81f0 	ldmia.w	sp!, {r4, r5, r6, r7, r8, pc}
2000017a:	bf00      	nop

2000017c <mutex_try_enter_block_until>:
2000017c:	b530      	push	{r4, r5, lr}
2000017e:	6804      	ldr	r4, [r0, #0]
20000180:	f3ef 8c10 	mrs	ip, PRIMASK
20000184:	b672      	cpsid	i
20000186:	e8d4 efcf 	ldaexb	lr, [r4]
2000018a:	2501      	movs	r5, #1
2000018c:	f1be 0f00 	cmp.w	lr, #0
20000190:	d1f9      	bne.n	20000186 <mutex_try_enter_block_until+0xa>
20000192:	e8c4 5f4e 	strexb	lr, r5, [r4]
20000196:	f1be 0f00 	cmp.w	lr, #0
2000019a:	d1f4      	bne.n	20000186 <mutex_try_enter_block_until+0xa>
2000019c:	f3bf 8f5f 	dmb	sy
200001a0:	f990 4004 	ldrsb.w	r4, [r0, #4]
200001a4:	6805      	ldr	r5, [r0, #0]
200001a6:	2c00      	cmp	r4, #0
200001a8:	db10      	blt.n	200001cc <mutex_try_enter_block_until+0x50>
200001aa:	2100      	movs	r1, #0
200001ac:	e8c5 1f8f 	stlb	r1, [r5]
200001b0:	f38c 8810 	msr	PRIMASK, ip
200001b4:	f04f 4550 	mov.w	r5, #3489660928	@ 0xd0000000
200001b8:	f995 5000 	ldrsb.w	r5, [r5]
200001bc:	42a5      	cmp	r5, r4
200001be:	d101      	bne.n	200001c4 <mutex_try_enter_block_until+0x48>
200001c0:	4608      	mov	r0, r1
200001c2:	bd30      	pop	{r4, r5, pc}
200001c4:	e8bd 4030 	ldmia.w	sp!, {r4, r5, lr}
200001c8:	f7ff bfa2 	b.w	20000110 <mutex_enter_block_until>
200001cc:	f04f 4250 	mov.w	r2, #3489660928	@ 0xd0000000
200001d0:	6812      	ldr	r2, [r2, #0]
200001d2:	2300      	movs	r3, #0
200001d4:	7102      	strb	r2, [r0, #4]
200001d6:	e8c5 3f8f 	stlb	r3, [r5]
200001da:	f38c 8810 	msr	PRIMASK, ip
200001de:	2001      	movs	r0, #1
200001e0:	bd30      	pop	{r4, r5, pc}
200001e2:	bf00      	nop

200001e4 <mutex_exit>:
200001e4:	6803      	ldr	r3, [r0, #0]
200001e6:	f3ef 8210 	mrs	r2, PRIMASK
200001ea:	b672      	cpsid	i
200001ec:	e8d3 cfcf 	ldaexb	ip, [r3]
200001f0:	2101      	movs	r1, #1
200001f2:	f1bc 0f00 	cmp.w	ip, #0
200001f6:	d1f9      	bne.n	200001ec <mutex_exit+0x8>
200001f8:	e8c3 1f4c 	strexb	ip, r1, [r3]
200001fc:	f1bc 0f00 	cmp.w	ip, #0
20000200:	d1f4      	bne.n	200001ec <mutex_exit+0x8>
20000202:	f3bf 8f5f 	dmb	sy
20000206:	f04f 0cff 	mov.w	ip, #255	@ 0xff
2000020a:	2300      	movs	r3, #0
2000020c:	6801      	ldr	r1, [r0, #0]
2000020e:	f880 c004 	strb.w	ip, [r0, #4]
20000212:	e8c1 3f8f 	stlb	r3, [r1]
20000216:	f382 8810 	msr	PRIMASK, r2
2000021a:	bf40      	sev
2000021c:	4770      	bx	lr
2000021e:	bf00      	nop

20000220 <__aeabi_uldivmod>:
20000220:	b953      	cbnz	r3, 20000238 <__aeabi_uldivmod+0x18>
20000222:	b94a      	cbnz	r2, 20000238 <__aeabi_uldivmod+0x18>
20000224:	2900      	cmp	r1, #0
20000226:	bf08      	it	eq
20000228:	2800      	cmpeq	r0, #0
2000022a:	bf1c      	itt	ne
2000022c:	f04f 31ff 	movne.w	r1, #4294967295
20000230:	f04f 30ff 	movne.w	r0, #4294967295
20000234:	f000 b9b2 	b.w	2000059c <__aeabi_idiv0>
20000238:	f1ad 0c08 	sub.w	ip, sp, #8
2000023c:	e96d ce04 	strd	ip, lr, [sp, #-16]!
20000240:	f000 f806 	bl	20000250 <__udivmoddi4>
20000244:	f8dd e004 	ldr.w	lr, [sp, #4]
20000248:	e9dd 2302 	ldrd	r2, r3, [sp, #8]
2000024c:	b004      	add	sp, #16
2000024e:	4770      	bx	lr

20000250 <__udivmoddi4>:
20000250:	e92d 4ff0 	stmdb	sp!, {r4, r5, r6, r7, r8, r9, sl, fp, lr}
20000254:	468c      	mov	ip, r1
20000256:	9e09      	ldr	r6, [sp, #36]	@ 0x24
20000258:	4604      	mov	r4, r0
2000025a:	460f      	mov	r7, r1
2000025c:	2b00      	cmp	r3, #0
2000025e:	d148      	bne.n	200002f2 <__udivmoddi4+0xa2>
20000260:	428a      	cmp	r2, r1
20000262:	4615      	mov	r5, r2
20000264:	d95e      	bls.n	20000324 <__udivmoddi4+0xd4>
20000266:	fab2 f382 	clz	r3, r2
2000026a:	b13b      	cbz	r3, 2000027c <__udivmoddi4+0x2c>
2000026c:	f1c3 0220 	rsb	r2, r3, #32
20000270:	409f      	lsls	r7, r3
20000272:	409d      	lsls	r5, r3
20000274:	409c      	lsls	r4, r3
20000276:	fa20 f202 	lsr.w	r2, r0, r2
2000027a:	4317      	orrs	r7, r2
2000027c:	ea4f 4e15 	mov.w	lr, r5, lsr #16
20000280:	fa1f fc85 	uxth.w	ip, r5
20000284:	0c22      	lsrs	r2, r4, #16
20000286:	fbb7 f1fe 	udiv	r1, r7, lr
2000028a:	fb0e 7711 	mls	r7, lr, r1, r7
2000028e:	fb01 f00c 	mul.w	r0, r1, ip
20000292:	ea42 4207 	orr.w	r2, r2, r7, lsl #16
20000296:	4290      	cmp	r0, r2
20000298:	d907      	bls.n	200002aa <__udivmoddi4+0x5a>
2000029a:	18aa      	adds	r2, r5, r2
2000029c:	f101 37ff 	add.w	r7, r1, #4294967295
200002a0:	d202      	bcs.n	200002a8 <__udivmoddi4+0x58>
200002a2:	4290      	cmp	r0, r2
200002a4:	f200 8158 	bhi.w	20000558 <__udivmoddi4+0x308>
200002a8:	4639      	mov	r1, r7
200002aa:	1a12      	subs	r2, r2, r0
200002ac:	b2a4      	uxth	r4, r4
200002ae:	fbb2 f0fe 	udiv	r0, r2, lr
200002b2:	fb0e 2210 	mls	r2, lr, r0, r2
200002b6:	fb00 fc0c 	mul.w	ip, r0, ip
200002ba:	ea44 4402 	orr.w	r4, r4, r2, lsl #16
200002be:	45a4      	cmp	ip, r4
200002c0:	d90b      	bls.n	200002da <__udivmoddi4+0x8a>
200002c2:	192c      	adds	r4, r5, r4
200002c4:	f100 32ff 	add.w	r2, r0, #4294967295
200002c8:	bf2c      	ite	cs
200002ca:	2701      	movcs	r7, #1
200002cc:	2700      	movcc	r7, #0
200002ce:	45a4      	cmp	ip, r4
200002d0:	d902      	bls.n	200002d8 <__udivmoddi4+0x88>
200002d2:	2f00      	cmp	r7, #0
200002d4:	f000 8143 	beq.w	2000055e <__udivmoddi4+0x30e>
200002d8:	4610      	mov	r0, r2
200002da:	ea40 4001 	orr.w	r0, r0, r1, lsl #16
200002de:	eba4 040c 	sub.w	r4, r4, ip
200002e2:	2100      	movs	r1, #0
200002e4:	b11e      	cbz	r6, 200002ee <__udivmoddi4+0x9e>
200002e6:	40dc      	lsrs	r4, r3
200002e8:	2300      	movs	r3, #0
200002ea:	e9c6 4300 	strd	r4, r3, [r6]
200002ee:	e8bd 8ff0 	ldmia.w	sp!, {r4, r5, r6, r7, r8, r9, sl, fp, pc}
200002f2:	428b      	cmp	r3, r1
200002f4:	d906      	bls.n	20000304 <__udivmoddi4+0xb4>
200002f6:	b10e      	cbz	r6, 200002fc <__udivmoddi4+0xac>
200002f8:	e9c6 0100 	strd	r0, r1, [r6]
200002fc:	2100      	movs	r1, #0
200002fe:	4608      	mov	r0, r1
20000300:	e8bd 8ff0 	ldmia.w	sp!, {r4, r5, r6, r7, r8, r9, sl, fp, pc}
20000304:	fab3 f183 	clz	r1, r3
20000308:	2900      	cmp	r1, #0
2000030a:	d151      	bne.n	200003b0 <__udivmoddi4+0x160>
2000030c:	4563      	cmp	r3, ip
2000030e:	f0c0 8116 	bcc.w	2000053e <__udivmoddi4+0x2ee>
20000312:	4282      	cmp	r2, r0
20000314:	f240 8113 	bls.w	2000053e <__udivmoddi4+0x2ee>
20000318:	4608      	mov	r0, r1
2000031a:	2e00      	cmp	r6, #0
2000031c:	d0e7      	beq.n	200002ee <__udivmoddi4+0x9e>
2000031e:	e9c6 4700 	strd	r4, r7, [r6]
20000322:	e7e4      	b.n	200002ee <__udivmoddi4+0x9e>
20000324:	2a00      	cmp	r2, #0
20000326:	f000 80af 	beq.w	20000488 <__udivmoddi4+0x238>
2000032a:	fab2 f382 	clz	r3, r2
2000032e:	2b00      	cmp	r3, #0
20000330:	f040 80c2 	bne.w	200004b8 <__udivmoddi4+0x268>
20000334:	1a8a      	subs	r2, r1, r2
20000336:	ea4f 4e15 	mov.w	lr, r5, lsr #16
2000033a:	b2af      	uxth	r7, r5
2000033c:	2101      	movs	r1, #1
2000033e:	0c20      	lsrs	r0, r4, #16
20000340:	fbb2 fcfe 	udiv	ip, r2, lr
20000344:	fb0e 221c 	mls	r2, lr, ip, r2
20000348:	ea40 4202 	orr.w	r2, r0, r2, lsl #16
2000034c:	fb07 f00c 	mul.w	r0, r7, ip
20000350:	4290      	cmp	r0, r2
20000352:	d90e      	bls.n	20000372 <__udivmoddi4+0x122>
20000354:	18aa      	adds	r2, r5, r2
20000356:	f10c 38ff 	add.w	r8, ip, #4294967295
2000035a:	bf2c      	ite	cs
2000035c:	f04f 0901 	movcs.w	r9, #1
20000360:	f04f 0900 	movcc.w	r9, #0
20000364:	4290      	cmp	r0, r2
20000366:	d903      	bls.n	20000370 <__udivmoddi4+0x120>
20000368:	f1b9 0f00 	cmp.w	r9, #0
2000036c:	f000 80f0 	beq.w	20000550 <__udivmoddi4+0x300>
20000370:	46c4      	mov	ip, r8
20000372:	1a12      	subs	r2, r2, r0
20000374:	b2a4      	uxth	r4, r4
20000376:	fbb2 f0fe 	udiv	r0, r2, lr
2000037a:	fb0e 2210 	mls	r2, lr, r0, r2
2000037e:	fb00 f707 	mul.w	r7, r0, r7
20000382:	ea44 4402 	orr.w	r4, r4, r2, lsl #16
20000386:	42a7      	cmp	r7, r4
20000388:	d90e      	bls.n	200003a8 <__udivmoddi4+0x158>
2000038a:	192c      	adds	r4, r5, r4
2000038c:	f100 32ff 	add.w	r2, r0, #4294967295
20000390:	bf2c      	ite	cs
20000392:	f04f 0e01 	movcs.w	lr, #1
20000396:	f04f 0e00 	movcc.w	lr, #0
2000039a:	42a7      	cmp	r7, r4
2000039c:	d903      	bls.n	200003a6 <__udivmoddi4+0x156>
2000039e:	f1be 0f00 	cmp.w	lr, #0
200003a2:	f000 80d2 	beq.w	2000054a <__udivmoddi4+0x2fa>
200003a6:	4610      	mov	r0, r2
200003a8:	1be4      	subs	r4, r4, r7
200003aa:	ea40 400c 	orr.w	r0, r0, ip, lsl #16
200003ae:	e799      	b.n	200002e4 <__udivmoddi4+0x94>
200003b0:	f1c1 0520 	rsb	r5, r1, #32
200003b4:	408b      	lsls	r3, r1
200003b6:	fa0c f401 	lsl.w	r4, ip, r1
200003ba:	fa00 f901 	lsl.w	r9, r0, r1
200003be:	fa22 f705 	lsr.w	r7, r2, r5
200003c2:	fa2c fc05 	lsr.w	ip, ip, r5
200003c6:	408a      	lsls	r2, r1
200003c8:	431f      	orrs	r7, r3
200003ca:	fa20 f305 	lsr.w	r3, r0, r5
200003ce:	0c38      	lsrs	r0, r7, #16
200003d0:	4323      	orrs	r3, r4
200003d2:	fa1f fe87 	uxth.w	lr, r7
200003d6:	0c1c      	lsrs	r4, r3, #16
200003d8:	fbbc f8f0 	udiv	r8, ip, r0
200003dc:	fb00 cc18 	mls	ip, r0, r8, ip
200003e0:	ea44 440c 	orr.w	r4, r4, ip, lsl #16
200003e4:	fb08 fc0e 	mul.w	ip, r8, lr
200003e8:	45a4      	cmp	ip, r4
200003ea:	d90e      	bls.n	2000040a <__udivmoddi4+0x1ba>
200003ec:	193c      	adds	r4, r7, r4
200003ee:	f108 3aff 	add.w	sl, r8, #4294967295
200003f2:	bf2c      	ite	cs
200003f4:	f04f 0b01 	movcs.w	fp, #1
200003f8:	f04f 0b00 	movcc.w	fp, #0
200003fc:	45a4      	cmp	ip, r4
200003fe:	d903      	bls.n	20000408 <__udivmoddi4+0x1b8>
20000400:	f1bb 0f00 	cmp.w	fp, #0
20000404:	f000 80b8 	beq.w	20000578 <__udivmoddi4+0x328>
20000408:	46d0      	mov	r8, sl
2000040a:	eba4 040c 	sub.w	r4, r4, ip
2000040e:	fa1f fc83 	uxth.w	ip, r3
20000412:	fbb4 f3f0 	udiv	r3, r4, r0
20000416:	fb00 4413 	mls	r4, r0, r3, r4
2000041a:	fb03 fe0e 	mul.w	lr, r3, lr
2000041e:	ea4c 4404 	orr.w	r4, ip, r4, lsl #16
20000422:	45a6      	cmp	lr, r4
20000424:	d90e      	bls.n	20000444 <__udivmoddi4+0x1f4>
20000426:	193c      	adds	r4, r7, r4
20000428:	f103 30ff 	add.w	r0, r3, #4294967295
2000042c:	bf2c      	ite	cs
2000042e:	f04f 0c01 	movcs.w	ip, #1
20000432:	f04f 0c00 	movcc.w	ip, #0
20000436:	45a6      	cmp	lr, r4
20000438:	d903      	bls.n	20000442 <__udivmoddi4+0x1f2>
2000043a:	f1bc 0f00 	cmp.w	ip, #0
2000043e:	f000 809f 	beq.w	20000580 <__udivmoddi4+0x330>
20000442:	4603      	mov	r3, r0
20000444:	ea43 4008 	orr.w	r0, r3, r8, lsl #16
20000448:	eba4 040e 	sub.w	r4, r4, lr
2000044c:	fba0 ec02 	umull	lr, ip, r0, r2
20000450:	4564      	cmp	r4, ip
20000452:	4673      	mov	r3, lr
20000454:	46e0      	mov	r8, ip
20000456:	d302      	bcc.n	2000045e <__udivmoddi4+0x20e>
20000458:	d107      	bne.n	2000046a <__udivmoddi4+0x21a>
2000045a:	45f1      	cmp	r9, lr
2000045c:	d205      	bcs.n	2000046a <__udivmoddi4+0x21a>
2000045e:	ebbe 0302 	subs.w	r3, lr, r2
20000462:	eb6c 0c07 	sbc.w	ip, ip, r7
20000466:	3801      	subs	r0, #1
20000468:	46e0      	mov	r8, ip
2000046a:	b15e      	cbz	r6, 20000484 <__udivmoddi4+0x234>
2000046c:	ebb9 0203 	subs.w	r2, r9, r3
20000470:	eb64 0408 	sbc.w	r4, r4, r8
20000474:	fa04 f505 	lsl.w	r5, r4, r5
20000478:	fa22 f301 	lsr.w	r3, r2, r1
2000047c:	40cc      	lsrs	r4, r1
2000047e:	431d      	orrs	r5, r3
20000480:	e9c6 5400 	strd	r5, r4, [r6]
20000484:	2100      	movs	r1, #0
20000486:	e732      	b.n	200002ee <__udivmoddi4+0x9e>
20000488:	0842      	lsrs	r2, r0, #1
2000048a:	462f      	mov	r7, r5
2000048c:	084b      	lsrs	r3, r1, #1
2000048e:	46ac      	mov	ip, r5
20000490:	ea42 72c1 	orr.w	r2, r2, r1, lsl #31
20000494:	46ae      	mov	lr, r5
20000496:	07c4      	lsls	r4, r0, #31
20000498:	0c11      	lsrs	r1, r2, #16
2000049a:	b292      	uxth	r2, r2
2000049c:	ea41 4103 	orr.w	r1, r1, r3, lsl #16
200004a0:	ea42 4201 	orr.w	r2, r2, r1, lsl #16
200004a4:	fbb1 f1f5 	udiv	r1, r1, r5
200004a8:	fbb3 f0f5 	udiv	r0, r3, r5
200004ac:	231f      	movs	r3, #31
200004ae:	eba2 020c 	sub.w	r2, r2, ip
200004b2:	ea41 4100 	orr.w	r1, r1, r0, lsl #16
200004b6:	e742      	b.n	2000033e <__udivmoddi4+0xee>
200004b8:	409d      	lsls	r5, r3
200004ba:	f1c3 0220 	rsb	r2, r3, #32
200004be:	4099      	lsls	r1, r3
200004c0:	409c      	lsls	r4, r3
200004c2:	fa2c fc02 	lsr.w	ip, ip, r2
200004c6:	ea4f 4e15 	mov.w	lr, r5, lsr #16
200004ca:	fa20 f202 	lsr.w	r2, r0, r2
200004ce:	b2af      	uxth	r7, r5
200004d0:	fbbc f8fe 	udiv	r8, ip, lr
200004d4:	430a      	orrs	r2, r1
200004d6:	fb0e cc18 	mls	ip, lr, r8, ip
200004da:	0c11      	lsrs	r1, r2, #16
200004dc:	ea41 410c 	orr.w	r1, r1, ip, lsl #16
200004e0:	fb08 fc07 	mul.w	ip, r8, r7
200004e4:	458c      	cmp	ip, r1
200004e6:	d950      	bls.n	2000058a <__udivmoddi4+0x33a>
200004e8:	1869      	adds	r1, r5, r1
200004ea:	f108 30ff 	add.w	r0, r8, #4294967295
200004ee:	bf2c      	ite	cs
200004f0:	f04f 0901 	movcs.w	r9, #1
200004f4:	f04f 0900 	movcc.w	r9, #0
200004f8:	458c      	cmp	ip, r1
200004fa:	d902      	bls.n	20000502 <__udivmoddi4+0x2b2>
200004fc:	f1b9 0f00 	cmp.w	r9, #0
20000500:	d030      	beq.n	20000564 <__udivmoddi4+0x314>
20000502:	eba1 010c 	sub.w	r1, r1, ip
20000506:	fbb1 f8fe 	udiv	r8, r1, lr
2000050a:	fb08 fc07 	mul.w	ip, r8, r7
2000050e:	fb0e 1118 	mls	r1, lr, r8, r1
20000512:	b292      	uxth	r2, r2
20000514:	ea42 4201 	orr.w	r2, r2, r1, lsl #16
20000518:	4562      	cmp	r2, ip
2000051a:	d234      	bcs.n	20000586 <__udivmoddi4+0x336>
2000051c:	18aa      	adds	r2, r5, r2
2000051e:	f108 31ff 	add.w	r1, r8, #4294967295
20000522:	bf2c      	ite	cs
20000524:	f04f 0901 	movcs.w	r9, #1
20000528:	f04f 0900 	movcc.w	r9, #0
2000052c:	4562      	cmp	r2, ip
2000052e:	d2be      	bcs.n	200004ae <__udivmoddi4+0x25e>
20000530:	f1b9 0f00 	cmp.w	r9, #0
20000534:	d1bb      	bne.n	200004ae <__udivmoddi4+0x25e>
20000536:	f1a8 0102 	sub.w	r1, r8, #2
2000053a:	442a      	add	r2, r5
2000053c:	e7b7      	b.n	200004ae <__udivmoddi4+0x25e>
2000053e:	1a84      	subs	r4, r0, r2
20000540:	eb6c 0203 	sbc.w	r2, ip, r3
20000544:	2001      	movs	r0, #1
20000546:	4617      	mov	r7, r2
20000548:	e6e7      	b.n	2000031a <__udivmoddi4+0xca>
2000054a:	442c      	add	r4, r5
2000054c:	3802      	subs	r0, #2
2000054e:	e72b      	b.n	200003a8 <__udivmoddi4+0x158>
20000550:	f1ac 0c02 	sub.w	ip, ip, #2
20000554:	442a      	add	r2, r5
20000556:	e70c      	b.n	20000372 <__udivmoddi4+0x122>
20000558:	3902      	subs	r1, #2
2000055a:	442a      	add	r2, r5
2000055c:	e6a5      	b.n	200002aa <__udivmoddi4+0x5a>
2000055e:	442c      	add	r4, r5
20000560:	3802      	subs	r0, #2
20000562:	e6ba      	b.n	200002da <__udivmoddi4+0x8a>
20000564:	eba5 0c0c 	sub.w	ip, r5, ip
20000568:	f1a8 0002 	sub.w	r0, r8, #2
2000056c:	4461      	add	r1, ip
2000056e:	fbb1 f8fe 	udiv	r8, r1, lr
20000572:	fb08 fc07 	mul.w	ip, r8, r7
20000576:	e7ca      	b.n	2000050e <__udivmoddi4+0x2be>
20000578:	f1a8 0802 	sub.w	r8, r8, #2
2000057c:	443c      	add	r4, r7
2000057e:	e744      	b.n	2000040a <__udivmoddi4+0x1ba>
20000580:	3b02      	subs	r3, #2
20000582:	443c      	add	r4, r7
20000584:	e75e      	b.n	20000444 <__udivmoddi4+0x1f4>
20000586:	4641      	mov	r1, r8
20000588:	e791      	b.n	200004ae <__udivmoddi4+0x25e>
2000058a:	eba1 010c 	sub.w	r1, r1, ip
2000058e:	4640      	mov	r0, r8
20000590:	fbb1 f8fe 	udiv	r8, r1, lr
20000594:	fb08 fc07 	mul.w	ip, r8, r7
20000598:	e7b9      	b.n	2000050e <__udivmoddi4+0x2be>
2000059a:	bf00      	nop

2000059c <__aeabi_idiv0>:
2000059c:	4770      	bx	lr
2000059e:	bf00      	nop

200005a0 <__best_effort_wfe_or_timeout_veneer>:
200005a0:	f85f f000 	ldr.w	pc, [pc]	@ 200005a4 <__best_effort_wfe_or_timeout_veneer+0x4>
200005a4:	10000dd5 	.word	0x10000dd5

200005a8 <striped_spin_lock_num>:
200005a8:	00000010                                ....

200005ac <irq_handler_chain_slots>:
200005ac:	00000000 	.word	0x00000000
200005b0:	00010000 	.word	0x00010000
	...
200005bc:	00020000 	.word	0x00020000
	...
200005c8:	00030000 	.word	0x00030000
	...
200005d4:	00ff0000 	.word	0x00ff0000
200005d8:	00000000 	.word	0x00000000

200005dc <irq_handler_chain_first_slot>:
200005dc:	b501      	push	{r0, lr}
200005de:	6848      	ldr	r0, [r1, #4]
200005e0:	3101      	adds	r1, #1
200005e2:	468e      	mov	lr, r1
200005e4:	4700      	bx	r0

200005e6 <irq_handler_chain_remove_tail>:
200005e6:	4670      	mov	r0, lr
200005e8:	3809      	subs	r0, #9
200005ea:	4901      	ldr	r1, [pc, #4]	@ (200005f0 <irq_handler_chain_remove_tail+0xa>)
200005ec:	4788      	blx	r1
200005ee:	bd01      	pop	{r0, pc}
200005f0:	1000066d 	.word	0x1000066d

200005f4 <default_alarm_pool>:
	...
20000608:	20000638                                8.. 

2000060c <stdio_uart>:
2000060c:	10003281 10003389 100032d1 10003399     .2...3...2...3..
2000061c:	00000000 00000100                       ........

20000624 <malloc_mutex>:
	...

2000062c <print_mutex>:
	...
