
C:/Users/assem.KEVINTHOMAS/OneDrive/Documents/Embedded-Hacking/drivers/0x02_blink/build/0x02_blink.elf:     file format elf32-littlearm

Sections:
Idx Name          Size      VMA       LMA       File off  Algn
  0 .text         0000366c  10000000  10000000  00001000  2**3
                  CONTENTS, ALLOC, LOAD, READONLY, CODE
  1 .rodata       000001d8  10003670  10003670  00004670  2**3
                  CONTENTS, ALLOC, LOAD, READONLY, DATA
  2 .ARM.exidx    00000008  10003848  10003848  00004848  2**2
                  CONTENTS, ALLOC, LOAD, READONLY, DATA
  3 .binary_info  0000002c  10003850  10003850  00004850  2**2
                  CONTENTS, ALLOC, LOAD, READONLY, DATA
  4 .ram_vector_table 00000110  20000000  20000000  00006000  2**2
                  ALLOC
  5 .uninitialized_data 00000000  20000110  20000110  00005dac  2**0
                  CONTENTS
  6 .data         0000051c  20000110  1000387c  00005110  2**3
                  CONTENTS, ALLOC, LOAD, READONLY, CODE
  7 .tdata        00000000  2000062c  2000062c  00005dac  2**0
                  CONTENTS, ALLOC, LOAD, DATA, THREAD_LOCAL
  8 .tbss         00000000  2000062c  2000062c  00000000  2**0
                  ALLOC, THREAD_LOCAL
  9 .bss          00000228  20000630  10003d98  00006630  2**3
                  ALLOC
 10 .heap         00000800  20000858  10003d98  00006858  2**2
                  ALLOC, READONLY
 11 .scratch_x    00000000  20080000  20080000  00005dac  2**0
                  CONTENTS
 12 .scratch_y    00000000  20081000  20081000  00005dac  2**0
                  CONTENTS
 13 .stack_dummy  00000800  20081000  20081000  00006000  2**5
                  ALLOC, READONLY
 14 .flash_end    00000014  10003d98  10003d98  00005d98  2**2
                  CONTENTS, ALLOC, LOAD, READONLY, DATA
 15 .ARM.attributes 00000034  00000000  00000000  00005dac  2**0
                  CONTENTS, READONLY
 16 .comment      00000045  00000000  00000000  00005de0  2**0
                  CONTENTS, READONLY
 17 .debug_info   00020fd4  00000000  00000000  00005e25  2**0
                  CONTENTS, READONLY, DEBUGGING, OCTETS
 18 .debug_abbrev 00005803  00000000  00000000  00026df9  2**0
                  CONTENTS, READONLY, DEBUGGING, OCTETS
 19 .debug_aranges 00000c28  00000000  00000000  0002c600  2**3
                  CONTENTS, READONLY, DEBUGGING, OCTETS
 20 .debug_rnglists 00003080  00000000  00000000  0002d228  2**0
                  CONTENTS, READONLY, DEBUGGING, OCTETS
 21 .debug_line   00016711  00000000  00000000  000302a8  2**0
                  CONTENTS, READONLY, DEBUGGING, OCTETS
 22 .debug_str    00005b00  00000000  00000000  000469b9  2**0
                  CONTENTS, READONLY, DEBUGGING, OCTETS
 23 .debug_frame  00001fa0  00000000  00000000  0004c4bc  2**2
                  CONTENTS, READONLY, DEBUGGING, OCTETS
 24 .debug_loclists 0001011a  00000000  00000000  0004e45c  2**0
                  CONTENTS, READONLY, DEBUGGING, OCTETS
 25 .debug_line_str 000002c8  00000000  00000000  0005e576  2**0
                  CONTENTS, READONLY, DEBUGGING, OCTETS

C:/Users/assem.KEVINTHOMAS/OneDrive/Documents/Embedded-Hacking/drivers/0x02_blink/build/0x02_blink.elf:     file format elf32-littlearm


Disassembly of section .text:

10000000 <__VECTOR_TABLE>:
10000000:	20082000 	.word	0x20082000
10000004:	1000015d 	.word	0x1000015d
10000008:	1000011b 	.word	0x1000011b
1000000c:	1000011d 	.word	0x1000011d
10000010:	10000111 	.word	0x10000111
10000014:	10000111 	.word	0x10000111
10000018:	10000111 	.word	0x10000111
1000001c:	10000111 	.word	0x10000111
10000020:	10000119 	.word	0x10000119
10000024:	10000119 	.word	0x10000119
10000028:	10000119 	.word	0x10000119
1000002c:	1000011f 	.word	0x1000011f
10000030:	10000111 	.word	0x10000111
10000034:	10000119 	.word	0x10000119
10000038:	10000121 	.word	0x10000121
1000003c:	10000123 	.word	0x10000123
10000040:	10000111 	.word	0x10000111
10000044:	10000111 	.word	0x10000111
10000048:	10000111 	.word	0x10000111
1000004c:	10000111 	.word	0x10000111
10000050:	10000111 	.word	0x10000111
10000054:	10000111 	.word	0x10000111
10000058:	10000111 	.word	0x10000111
1000005c:	10000111 	.word	0x10000111
10000060:	10000111 	.word	0x10000111
10000064:	10000111 	.word	0x10000111
10000068:	10000111 	.word	0x10000111
1000006c:	10000111 	.word	0x10000111
10000070:	10000111 	.word	0x10000111
10000074:	10000111 	.word	0x10000111
10000078:	10000111 	.word	0x10000111
1000007c:	10000111 	.word	0x10000111
10000080:	10000111 	.word	0x10000111
10000084:	10000111 	.word	0x10000111
10000088:	10000111 	.word	0x10000111
1000008c:	10000111 	.word	0x10000111
10000090:	10000111 	.word	0x10000111
10000094:	10000111 	.word	0x10000111
10000098:	10000111 	.word	0x10000111
1000009c:	10000111 	.word	0x10000111
100000a0:	10000111 	.word	0x10000111
100000a4:	10000111 	.word	0x10000111
100000a8:	10000111 	.word	0x10000111
100000ac:	10000111 	.word	0x10000111
100000b0:	10000111 	.word	0x10000111
100000b4:	10000111 	.word	0x10000111
100000b8:	10000111 	.word	0x10000111
100000bc:	10000111 	.word	0x10000111
100000c0:	10000111 	.word	0x10000111
100000c4:	10000111 	.word	0x10000111
100000c8:	10000111 	.word	0x10000111
100000cc:	10000111 	.word	0x10000111
100000d0:	10000111 	.word	0x10000111
100000d4:	10000111 	.word	0x10000111
100000d8:	10000111 	.word	0x10000111
100000dc:	10000111 	.word	0x10000111
100000e0:	10000111 	.word	0x10000111
100000e4:	10000111 	.word	0x10000111
100000e8:	10000111 	.word	0x10000111
100000ec:	10000111 	.word	0x10000111
100000f0:	10000111 	.word	0x10000111
100000f4:	10000111 	.word	0x10000111
100000f8:	10000111 	.word	0x10000111
100000fc:	10000111 	.word	0x10000111
10000100:	10000111 	.word	0x10000111
10000104:	10000111 	.word	0x10000111
10000108:	10000111 	.word	0x10000111
1000010c:	10000111 	.word	0x10000111

10000110 <__unhandled_user_irq>:
10000110:	f3ef 8005 	mrs	r0, IPSR
10000114:	3810      	subs	r0, #16

10000116 <unhandled_user_irq_num_in_r0>:
10000116:	be00      	bkpt	0x0000

10000118 <isr_invalid>:
10000118:	be00      	bkpt	0x0000

1000011a <isr_nmi>:
1000011a:	be00      	bkpt	0x0000

1000011c <isr_hardfault>:
1000011c:	be00      	bkpt	0x0000

1000011e <isr_svcall>:
1000011e:	be00      	bkpt	0x0000

10000120 <isr_pendsv>:
10000120:	be00      	bkpt	0x0000

10000122 <isr_systick>:
10000122:	be00      	bkpt	0x0000

10000124 <__default_isrs_end>:
10000124:	7188ebf2 	.word	0x7188ebf2
10000128:	10003850 	.word	0x10003850
1000012c:	1000387c 	.word	0x1000387c
10000130:	100001a0 	.word	0x100001a0
10000134:	e71aa390 	.word	0xe71aa390

10000138 <__binary_info_header_end>:
10000138:	ffffded3 	.word	0xffffded3
1000013c:	10210142 	.word	0x10210142
10000140:	000001ff 	.word	0x000001ff
10000144:	00003c60 	.word	0x00003c60
10000148:	ab123579 	.word	0xab123579

1000014c <_entry_point>:
1000014c:	f04f 0000 	mov.w	r0, #0

10000150 <_enter_vtable_in_r0>:
10000150:	491e      	ldr	r1, [pc, #120]	@ (100001cc <data_cpy_table+0x2c>)
10000152:	6008      	str	r0, [r1, #0]
10000154:	c806      	ldmia	r0!, {r1, r2}
10000156:	f381 8808 	msr	MSP, r1
1000015a:	4710      	bx	r2

1000015c <_reset_handler>:
1000015c:	f04f 4050 	mov.w	r0, #3489660928	@ 0xd0000000
10000160:	6800      	ldr	r0, [r0, #0]
10000162:	b110      	cbz	r0, 1000016a <hold_non_core0_in_bootrom+0x6>

10000164 <hold_non_core0_in_bootrom>:
10000164:	f04f 0000 	mov.w	r0, #0
10000168:	e7f2      	b.n	10000150 <_enter_vtable_in_r0>
1000016a:	a40d      	add	r4, pc, #52	@ (adr r4, 100001a0 <data_cpy_table>)
1000016c:	cc0e      	ldmia	r4!, {r1, r2, r3}
1000016e:	2900      	cmp	r1, #0
10000170:	d002      	beq.n	10000178 <hold_non_core0_in_bootrom+0x14>
10000172:	f000 f812 	bl	1000019a <data_cpy>
10000176:	e7f9      	b.n	1000016c <hold_non_core0_in_bootrom+0x8>
10000178:	4915      	ldr	r1, [pc, #84]	@ (100001d0 <data_cpy_table+0x30>)
1000017a:	4a16      	ldr	r2, [pc, #88]	@ (100001d4 <data_cpy_table+0x34>)
1000017c:	2000      	movs	r0, #0
1000017e:	e000      	b.n	10000182 <bss_fill_test>

10000180 <bss_fill_loop>:
10000180:	c101      	stmia	r1!, {r0}

10000182 <bss_fill_test>:
10000182:	4291      	cmp	r1, r2
10000184:	d1fc      	bne.n	10000180 <bss_fill_loop>

10000186 <platform_entry>:
10000186:	4914      	ldr	r1, [pc, #80]	@ (100001d8 <data_cpy_table+0x38>)
10000188:	4788      	blx	r1
1000018a:	4914      	ldr	r1, [pc, #80]	@ (100001dc <data_cpy_table+0x3c>)
1000018c:	4788      	blx	r1
1000018e:	4914      	ldr	r1, [pc, #80]	@ (100001e0 <data_cpy_table+0x40>)
10000190:	4788      	blx	r1
10000192:	be00      	bkpt	0x0000
10000194:	e7fd      	b.n	10000192 <platform_entry+0xc>

10000196 <data_cpy_loop>:
10000196:	c901      	ldmia	r1!, {r0}
10000198:	c201      	stmia	r2!, {r0}

1000019a <data_cpy>:
1000019a:	429a      	cmp	r2, r3
1000019c:	d3fb      	bcc.n	10000196 <data_cpy_loop>
1000019e:	4770      	bx	lr

100001a0 <data_cpy_table>:
100001a0:	1000387c 	.word	0x1000387c
100001a4:	20000110 	.word	0x20000110
100001a8:	2000062c 	.word	0x2000062c
100001ac:	10003d98 	.word	0x10003d98
100001b0:	20080000 	.word	0x20080000
100001b4:	20080000 	.word	0x20080000
100001b8:	10003d98 	.word	0x10003d98
100001bc:	20081000 	.word	0x20081000
100001c0:	20081000 	.word	0x20081000
100001c4:	00000000 	.word	0x00000000
100001c8:	4770      	bx	lr
100001ca:	0000      	.short	0x0000
100001cc:	e000ed08 	.word	0xe000ed08
100001d0:	2000062c 	.word	0x2000062c
100001d4:	20000858 	.word	0x20000858
100001d8:	10002ed5 	.word	0x10002ed5
100001dc:	10000235 	.word	0x10000235
100001e0:	10002ecd 	.word	0x10002ecd

100001e4 <_init>:
100001e4:	b5f8      	push	{r3, r4, r5, r6, r7, lr}
100001e6:	bf00      	nop

100001e8 <register_tm_clones>:
100001e8:	4b06      	ldr	r3, [pc, #24]	@ (10000204 <register_tm_clones+0x1c>)
100001ea:	4907      	ldr	r1, [pc, #28]	@ (10000208 <register_tm_clones+0x20>)
100001ec:	1ac9      	subs	r1, r1, r3
100001ee:	1089      	asrs	r1, r1, #2
100001f0:	bf48      	it	mi
100001f2:	3101      	addmi	r1, #1
100001f4:	1049      	asrs	r1, r1, #1
100001f6:	d003      	beq.n	10000200 <register_tm_clones+0x18>
100001f8:	4b04      	ldr	r3, [pc, #16]	@ (1000020c <register_tm_clones+0x24>)
100001fa:	b10b      	cbz	r3, 10000200 <register_tm_clones+0x18>
100001fc:	4801      	ldr	r0, [pc, #4]	@ (10000204 <register_tm_clones+0x1c>)
100001fe:	4718      	bx	r3
10000200:	4770      	bx	lr
10000202:	bf00      	nop
10000204:	2000062c 	.word	0x2000062c
10000208:	2000062c 	.word	0x2000062c
1000020c:	00000000 	.word	0x00000000

10000210 <frame_dummy>:
10000210:	b508      	push	{r3, lr}
10000212:	4b05      	ldr	r3, [pc, #20]	@ (10000228 <frame_dummy+0x18>)
10000214:	b11b      	cbz	r3, 1000021e <frame_dummy+0xe>
10000216:	4905      	ldr	r1, [pc, #20]	@ (1000022c <frame_dummy+0x1c>)
10000218:	4805      	ldr	r0, [pc, #20]	@ (10000230 <frame_dummy+0x20>)
1000021a:	f3af 8000 	nop.w
1000021e:	e8bd 4008 	ldmia.w	sp!, {r3, lr}
10000222:	f7ff bfe1 	b.w	100001e8 <register_tm_clones>
10000226:	bf00      	nop
10000228:	00000000 	.word	0x00000000
1000022c:	20000810 	.word	0x20000810
10000230:	1000366c 	.word	0x1000366c

10000234 <main>:
10000234:	b508      	push	{r3, lr}
10000236:	f002 ff75 	bl	10003124 <stdio_init_all>
1000023a:	2019      	movs	r0, #25
1000023c:	f000 f822 	bl	10000284 <blink_init>
10000240:	2119      	movs	r1, #25
10000242:	480c      	ldr	r0, [pc, #48]	@ (10000274 <main+0x40>)
10000244:	f003 f836 	bl	100032b4 <__wrap_printf>
10000248:	4d0b      	ldr	r5, [pc, #44]	@ (10000278 <main+0x44>)
1000024a:	4c0c      	ldr	r4, [pc, #48]	@ (1000027c <main+0x48>)
1000024c:	2019      	movs	r0, #25
1000024e:	f000 f827 	bl	100002a0 <blink_toggle>
10000252:	2019      	movs	r0, #25
10000254:	f000 f830 	bl	100002b8 <blink_get_state>
10000258:	4603      	mov	r3, r0
1000025a:	2b00      	cmp	r3, #0
1000025c:	bf0c      	ite	eq
1000025e:	4629      	moveq	r1, r5
10000260:	4621      	movne	r1, r4
10000262:	4807      	ldr	r0, [pc, #28]	@ (10000280 <main+0x4c>)
10000264:	f003 f826 	bl	100032b4 <__wrap_printf>
10000268:	f44f 70fa 	mov.w	r0, #500	@ 0x1f4
1000026c:	f000 fd7c 	bl	10000d68 <sleep_ms>
10000270:	e7ec      	b.n	1000024c <main+0x18>
10000272:	bf00      	nop
10000274:	1000367c 	.word	0x1000367c
10000278:	10003678 	.word	0x10003678
1000027c:	10003670 	.word	0x10003670
10000280:	100036a4 	.word	0x100036a4

10000284 <blink_init>:
10000284:	b510      	push	{r4, lr}
10000286:	4604      	mov	r4, r0
10000288:	f000 f840 	bl	1000030c <gpio_init>
1000028c:	f04f 0301 	mov.w	r3, #1
10000290:	ec43 4044 	gpioc_bit_oe_put r4, r3
10000294:	f04f 0300 	mov.w	r3, #0
10000298:	ec43 4040 	gpioc_bit_out_put r4, r3
1000029c:	bd10      	pop	{r4, pc}
1000029e:	bf00      	nop

100002a0 <blink_toggle>:
100002a0:	f04f 4250 	mov.w	r2, #3489660928	@ 0xd0000000
100002a4:	2301      	movs	r3, #1
100002a6:	6852      	ldr	r2, [r2, #4]
100002a8:	4083      	lsls	r3, r0
100002aa:	4013      	ands	r3, r2
100002ac:	fab3 f383 	clz	r3, r3
100002b0:	095b      	lsrs	r3, r3, #5
100002b2:	ec43 0040 	gpioc_bit_out_put r0, r3
100002b6:	4770      	bx	lr

100002b8 <blink_get_state>:
100002b8:	f04f 4250 	mov.w	r2, #3489660928	@ 0xd0000000
100002bc:	2301      	movs	r3, #1
100002be:	6852      	ldr	r2, [r2, #4]
100002c0:	fa03 f000 	lsl.w	r0, r3, r0
100002c4:	4010      	ands	r0, r2
100002c6:	3800      	subs	r0, #0
100002c8:	bf18      	it	ne
100002ca:	2001      	movne	r0, #1
100002cc:	4770      	bx	lr
100002ce:	bf00      	nop

100002d0 <gpio_set_function>:
100002d0:	b410      	push	{r4}
100002d2:	f44f 7480 	mov.w	r4, #256	@ 0x100
100002d6:	4b0c      	ldr	r3, [pc, #48]	@ (10000308 <gpio_set_function+0x38>)
100002d8:	f853 2020 	ldr.w	r2, [r3, r0, lsl #2]
100002dc:	eb03 0380 	add.w	r3, r3, r0, lsl #2
100002e0:	00c0      	lsls	r0, r0, #3
100002e2:	f082 0240 	eor.w	r2, r2, #64	@ 0x40
100002e6:	f100 4080 	add.w	r0, r0, #1073741824	@ 0x40000000
100002ea:	f503 5c80 	add.w	ip, r3, #4096	@ 0x1000
100002ee:	f002 02c0 	and.w	r2, r2, #192	@ 0xc0
100002f2:	f500 3020 	add.w	r0, r0, #163840	@ 0x28000
100002f6:	f503 5340 	add.w	r3, r3, #12288	@ 0x3000
100002fa:	f8cc 2000 	str.w	r2, [ip]
100002fe:	6041      	str	r1, [r0, #4]
10000300:	601c      	str	r4, [r3, #0]
10000302:	f85d 4b04 	ldr.w	r4, [sp], #4
10000306:	4770      	bx	lr
10000308:	40038004 	.word	0x40038004

1000030c <gpio_init>:
1000030c:	b430      	push	{r4, r5}
1000030e:	f04f 0300 	mov.w	r3, #0
10000312:	ec43 0044 	gpioc_bit_oe_put r0, r3
10000316:	ec43 0040 	gpioc_bit_out_put r0, r3
1000031a:	2505      	movs	r5, #5
1000031c:	f44f 7480 	mov.w	r4, #256	@ 0x100
10000320:	4b0b      	ldr	r3, [pc, #44]	@ (10000350 <gpio_init+0x44>)
10000322:	00c2      	lsls	r2, r0, #3
10000324:	f853 1020 	ldr.w	r1, [r3, r0, lsl #2]
10000328:	eb03 0080 	add.w	r0, r3, r0, lsl #2
1000032c:	f081 0140 	eor.w	r1, r1, #64	@ 0x40
10000330:	f102 4380 	add.w	r3, r2, #1073741824	@ 0x40000000
10000334:	f503 3320 	add.w	r3, r3, #163840	@ 0x28000
10000338:	f001 02c0 	and.w	r2, r1, #192	@ 0xc0
1000033c:	f500 5180 	add.w	r1, r0, #4096	@ 0x1000
10000340:	f500 5040 	add.w	r0, r0, #12288	@ 0x3000
10000344:	600a      	str	r2, [r1, #0]
10000346:	605d      	str	r5, [r3, #4]
10000348:	6004      	str	r4, [r0, #0]
1000034a:	bc30      	pop	{r4, r5}
1000034c:	4770      	bx	lr
1000034e:	bf00      	nop
10000350:	40038004 	.word	0x40038004

10000354 <panic>:
10000354:	b40f      	push	{r0, r1, r2, r3}
10000356:	b500      	push	{lr}
10000358:	b083      	sub	sp, #12
1000035a:	9c04      	ldr	r4, [sp, #16]
1000035c:	4807      	ldr	r0, [pc, #28]	@ (1000037c <panic+0x28>)
1000035e:	f002 ff29 	bl	100031b4 <__wrap_puts>
10000362:	b13c      	cbz	r4, 10000374 <panic+0x20>
10000364:	a905      	add	r1, sp, #20
10000366:	4620      	mov	r0, r4
10000368:	9101      	str	r1, [sp, #4]
1000036a:	f002 fd95 	bl	10002e98 <weak_raw_vprintf>
1000036e:	4804      	ldr	r0, [pc, #16]	@ (10000380 <panic+0x2c>)
10000370:	f002 ff20 	bl	100031b4 <__wrap_puts>
10000374:	2001      	movs	r0, #1
10000376:	f002 fda7 	bl	10002ec8 <_exit>
1000037a:	bf00      	nop
1000037c:	100036b0 	.word	0x100036b0
10000380:	100036a0 	.word	0x100036a0

10000384 <hw_claim_or_assert>:
10000384:	b570      	push	{r4, r5, r6, lr}
10000386:	4686      	mov	lr, r0
10000388:	f3ef 8510 	mrs	r5, PRIMASK
1000038c:	b672      	cpsid	i
1000038e:	4c12      	ldr	r4, [pc, #72]	@ (100003d8 <hw_claim_or_assert+0x54>)
10000390:	e8d4 6fcf 	ldaexb	r6, [r4]
10000394:	2001      	movs	r0, #1
10000396:	2e00      	cmp	r6, #0
10000398:	d1fa      	bne.n	10000390 <hw_claim_or_assert+0xc>
1000039a:	e8c4 0f46 	strexb	r6, r0, [r4]
1000039e:	2e00      	cmp	r6, #0
100003a0:	d1f6      	bne.n	10000390 <hw_claim_or_assert+0xc>
100003a2:	f3bf 8f5f 	dmb	sy
100003a6:	f04f 0c01 	mov.w	ip, #1
100003aa:	08c8      	lsrs	r0, r1, #3
100003ac:	f001 0307 	and.w	r3, r1, #7
100003b0:	fa0c f303 	lsl.w	r3, ip, r3
100003b4:	f81e c000 	ldrb.w	ip, [lr, r0]
100003b8:	ea1c 0603 	ands.w	r6, ip, r3
100003bc:	d108      	bne.n	100003d0 <hw_claim_or_assert+0x4c>
100003be:	ea4c 0c03 	orr.w	ip, ip, r3
100003c2:	f80e c000 	strb.w	ip, [lr, r0]
100003c6:	e8c4 6f8f 	stlb	r6, [r4]
100003ca:	f385 8810 	msr	PRIMASK, r5
100003ce:	bd70      	pop	{r4, r5, r6, pc}
100003d0:	4610      	mov	r0, r2
100003d2:	f7ff ffbf 	bl	10000354 <panic>
100003d6:	bf00      	nop
100003d8:	200007bb 	.word	0x200007bb

100003dc <next_striped_spin_lock_num>:
100003dc:	4a04      	ldr	r2, [pc, #16]	@ (100003f0 <next_striped_spin_lock_num+0x14>)
100003de:	7810      	ldrb	r0, [r2, #0]
100003e0:	1c43      	adds	r3, r0, #1
100003e2:	b2db      	uxtb	r3, r3
100003e4:	2b18      	cmp	r3, #24
100003e6:	bf28      	it	cs
100003e8:	2310      	movcs	r3, #16
100003ea:	7013      	strb	r3, [r2, #0]
100003ec:	4770      	bx	lr
100003ee:	bf00      	nop
100003f0:	200005a8 	.word	0x200005a8

100003f4 <spinlock_set_extexclall>:
100003f4:	f04f 22e0 	mov.w	r2, #3758153728	@ 0xe000e000
100003f8:	6893      	ldr	r3, [r2, #8]
100003fa:	f043 5300 	orr.w	r3, r3, #536870912	@ 0x20000000
100003fe:	6093      	str	r3, [r2, #8]
10000400:	4770      	bx	lr
10000402:	bf00      	nop

10000404 <spin_locks_reset>:
10000404:	2100      	movs	r1, #0
10000406:	4b04      	ldr	r3, [pc, #16]	@ (10000418 <spin_locks_reset+0x14>)
10000408:	f103 0220 	add.w	r2, r3, #32
1000040c:	e8c3 1f8f 	stlb	r1, [r3]
10000410:	3301      	adds	r3, #1
10000412:	4293      	cmp	r3, r2
10000414:	d1fa      	bne.n	1000040c <spin_locks_reset+0x8>
10000416:	4770      	bx	lr
10000418:	200007b0 	.word	0x200007b0

1000041c <runtime_init_per_core_irq_priorities>:
1000041c:	f04f 23e0 	mov.w	r3, #3758153728	@ 0xe000e000
10000420:	f04f 3280 	mov.w	r2, #2155905152	@ 0x80808080
10000424:	f8c3 2400 	str.w	r2, [r3, #1024]	@ 0x400
10000428:	f8c3 2404 	str.w	r2, [r3, #1028]	@ 0x404
1000042c:	f8c3 2408 	str.w	r2, [r3, #1032]	@ 0x408
10000430:	f8c3 240c 	str.w	r2, [r3, #1036]	@ 0x40c
10000434:	f8c3 2410 	str.w	r2, [r3, #1040]	@ 0x410
10000438:	f8c3 2414 	str.w	r2, [r3, #1044]	@ 0x414
1000043c:	f8c3 2418 	str.w	r2, [r3, #1048]	@ 0x418
10000440:	f8c3 241c 	str.w	r2, [r3, #1052]	@ 0x41c
10000444:	f8c3 2420 	str.w	r2, [r3, #1056]	@ 0x420
10000448:	f8c3 2424 	str.w	r2, [r3, #1060]	@ 0x424
1000044c:	f8c3 2428 	str.w	r2, [r3, #1064]	@ 0x428
10000450:	f8c3 242c 	str.w	r2, [r3, #1068]	@ 0x42c
10000454:	f8c3 2430 	str.w	r2, [r3, #1072]	@ 0x430
10000458:	b662      	cpsie	i
1000045a:	4770      	bx	lr

1000045c <irq_set_enabled>:
1000045c:	2301      	movs	r3, #1
1000045e:	f000 021f 	and.w	r2, r0, #31
10000462:	4093      	lsls	r3, r2
10000464:	0940      	lsrs	r0, r0, #5
10000466:	b141      	cbz	r1, 1000047a <irq_set_enabled+0x1e>
10000468:	0080      	lsls	r0, r0, #2
1000046a:	f100 4060 	add.w	r0, r0, #3758096384	@ 0xe0000000
1000046e:	f500 4061 	add.w	r0, r0, #57600	@ 0xe100
10000472:	f8c0 3180 	str.w	r3, [r0, #384]	@ 0x180
10000476:	6003      	str	r3, [r0, #0]
10000478:	4770      	bx	lr
1000047a:	4a02      	ldr	r2, [pc, #8]	@ (10000484 <irq_set_enabled+0x28>)
1000047c:	3020      	adds	r0, #32
1000047e:	f842 3020 	str.w	r3, [r2, r0, lsl #2]
10000482:	4770      	bx	lr
10000484:	e000e100 	.word	0xe000e100

10000488 <irq_set_exclusive_handler>:
10000488:	b5f8      	push	{r3, r4, r5, r6, r7, lr}
1000048a:	460d      	mov	r5, r1
1000048c:	f3ef 8710 	mrs	r7, PRIMASK
10000490:	b672      	cpsid	i
10000492:	4e12      	ldr	r6, [pc, #72]	@ (100004dc <irq_set_exclusive_handler+0x54>)
10000494:	e8d6 2fcf 	ldaexb	r2, [r6]
10000498:	2301      	movs	r3, #1
1000049a:	2a00      	cmp	r2, #0
1000049c:	d1fa      	bne.n	10000494 <irq_set_exclusive_handler+0xc>
1000049e:	e8c6 3f42 	strexb	r2, r3, [r6]
100004a2:	2a00      	cmp	r2, #0
100004a4:	d1f6      	bne.n	10000494 <irq_set_exclusive_handler+0xc>
100004a6:	f3bf 8f5f 	dmb	sy
100004aa:	4b0d      	ldr	r3, [pc, #52]	@ (100004e0 <irq_set_exclusive_handler+0x58>)
100004ac:	f100 0410 	add.w	r4, r0, #16
100004b0:	689b      	ldr	r3, [r3, #8]
100004b2:	4a0c      	ldr	r2, [pc, #48]	@ (100004e4 <irq_set_exclusive_handler+0x5c>)
100004b4:	f853 3024 	ldr.w	r3, [r3, r4, lsl #2]
100004b8:	4293      	cmp	r3, r2
100004ba:	d003      	beq.n	100004c4 <irq_set_exclusive_handler+0x3c>
100004bc:	4299      	cmp	r1, r3
100004be:	d001      	beq.n	100004c4 <irq_set_exclusive_handler+0x3c>
100004c0:	f000 ff0e 	bl	100012e0 <hard_assertion_failure>
100004c4:	4b06      	ldr	r3, [pc, #24]	@ (100004e0 <irq_set_exclusive_handler+0x58>)
100004c6:	689b      	ldr	r3, [r3, #8]
100004c8:	f843 5024 	str.w	r5, [r3, r4, lsl #2]
100004cc:	f3bf 8f5f 	dmb	sy
100004d0:	2300      	movs	r3, #0
100004d2:	e8c6 3f8f 	stlb	r3, [r6]
100004d6:	f387 8810 	msr	PRIMASK, r7
100004da:	bdf8      	pop	{r3, r4, r5, r6, r7, pc}
100004dc:	200007b9 	.word	0x200007b9
100004e0:	e000ed00 	.word	0xe000ed00
100004e4:	10000111 	.word	0x10000111

100004e8 <irq_remove_handler>:
100004e8:	e92d 4ff0 	stmdb	sp!, {r4, r5, r6, r7, r8, r9, sl, fp, lr}
100004ec:	b083      	sub	sp, #12
100004ee:	f3ef 8a10 	mrs	sl, PRIMASK
100004f2:	b672      	cpsid	i
100004f4:	4e71      	ldr	r6, [pc, #452]	@ (100006bc <irq_remove_handler+0x1d4>)
100004f6:	e8d6 2fcf 	ldaexb	r2, [r6]
100004fa:	2301      	movs	r3, #1
100004fc:	2a00      	cmp	r2, #0
100004fe:	d1fa      	bne.n	100004f6 <irq_remove_handler+0xe>
10000500:	e8c6 3f42 	strexb	r2, r3, [r6]
10000504:	2a00      	cmp	r2, #0
10000506:	d1f6      	bne.n	100004f6 <irq_remove_handler+0xe>
10000508:	f3bf 8f5f 	dmb	sy
1000050c:	4b6c      	ldr	r3, [pc, #432]	@ (100006c0 <irq_remove_handler+0x1d8>)
1000050e:	f100 0810 	add.w	r8, r0, #16
10000512:	689b      	ldr	r3, [r3, #8]
10000514:	4a6b      	ldr	r2, [pc, #428]	@ (100006c4 <irq_remove_handler+0x1dc>)
10000516:	f853 5028 	ldr.w	r5, [r3, r8, lsl #2]
1000051a:	4295      	cmp	r5, r2
1000051c:	d045      	beq.n	100005aa <irq_remove_handler+0xc2>
1000051e:	428d      	cmp	r5, r1
10000520:	460c      	mov	r4, r1
10000522:	d050      	beq.n	100005c6 <irq_remove_handler+0xde>
10000524:	4f68      	ldr	r7, [pc, #416]	@ (100006c8 <irq_remove_handler+0x1e0>)
10000526:	1beb      	subs	r3, r5, r7
10000528:	2b2f      	cmp	r3, #47	@ 0x2f
1000052a:	d83e      	bhi.n	100005aa <irq_remove_handler+0xc2>
1000052c:	2101      	movs	r1, #1
1000052e:	ea4f 1950 	mov.w	r9, r0, lsr #5
10000532:	ea4f 0989 	mov.w	r9, r9, lsl #2
10000536:	f109 4960 	add.w	r9, r9, #3758096384	@ 0xe0000000
1000053a:	f509 4961 	add.w	r9, r9, #57600	@ 0xe100
1000053e:	f000 031f 	and.w	r3, r0, #31
10000542:	fa01 f003 	lsl.w	r0, r1, r3
10000546:	f8d9 3000 	ldr.w	r3, [r9]
1000054a:	f8c9 0080 	str.w	r0, [r9, #128]	@ 0x80
1000054e:	ea00 0b03 	and.w	fp, r0, r3
10000552:	f3bf 8f5f 	dmb	sy
10000556:	f3ef 8105 	mrs	r1, IPSR
1000055a:	b2c9      	uxtb	r1, r1
1000055c:	2900      	cmp	r1, #0
1000055e:	d034      	beq.n	100005ca <irq_remove_handler+0xe2>
10000560:	4588      	cmp	r8, r1
10000562:	d005      	beq.n	10000570 <irq_remove_handler+0x88>
10000564:	e9cd 1000 	strd	r1, r0, [sp]
10000568:	f000 feba 	bl	100012e0 <hard_assertion_failure>
1000056c:	e9dd 1000 	ldrd	r1, r0, [sp]
10000570:	f025 0e01 	bic.w	lr, r5, #1
10000574:	f8de c008 	ldr.w	ip, [lr, #8]
10000578:	4564      	cmp	r4, ip
1000057a:	d105      	bne.n	10000588 <irq_remove_handler+0xa0>
1000057c:	e089      	b.n	10000692 <irq_remove_handler+0x1aa>
1000057e:	f8d3 c008 	ldr.w	ip, [r3, #8]
10000582:	4564      	cmp	r4, ip
10000584:	d031      	beq.n	100005ea <irq_remove_handler+0x102>
10000586:	469e      	mov	lr, r3
10000588:	f99e 2006 	ldrsb.w	r2, [lr, #6]
1000058c:	eb02 0342 	add.w	r3, r2, r2, lsl #1
10000590:	2a00      	cmp	r2, #0
10000592:	eb07 0383 	add.w	r3, r7, r3, lsl #2
10000596:	daf2      	bge.n	1000057e <irq_remove_handler+0x96>
10000598:	4564      	cmp	r4, ip
1000059a:	d061      	beq.n	10000660 <irq_remove_handler+0x178>
1000059c:	f1bb 0f00 	cmp.w	fp, #0
100005a0:	d020      	beq.n	100005e4 <irq_remove_handler+0xfc>
100005a2:	f8c9 0180 	str.w	r0, [r9, #384]	@ 0x180
100005a6:	f8c9 0000 	str.w	r0, [r9]
100005aa:	4b45      	ldr	r3, [pc, #276]	@ (100006c0 <irq_remove_handler+0x1d8>)
100005ac:	689b      	ldr	r3, [r3, #8]
100005ae:	f843 5028 	str.w	r5, [r3, r8, lsl #2]
100005b2:	f3bf 8f5f 	dmb	sy
100005b6:	2300      	movs	r3, #0
100005b8:	e8c6 3f8f 	stlb	r3, [r6]
100005bc:	f38a 8810 	msr	PRIMASK, sl
100005c0:	b003      	add	sp, #12
100005c2:	e8bd 8ff0 	ldmia.w	sp!, {r4, r5, r6, r7, r8, r9, sl, fp, pc}
100005c6:	4615      	mov	r5, r2
100005c8:	e7ef      	b.n	100005aa <irq_remove_handler+0xc2>
100005ca:	f025 0e01 	bic.w	lr, r5, #1
100005ce:	f8de c008 	ldr.w	ip, [lr, #8]
100005d2:	4564      	cmp	r4, ip
100005d4:	d1d8      	bne.n	10000588 <irq_remove_handler+0xa0>
100005d6:	f99e 4006 	ldrsb.w	r4, [lr, #6]
100005da:	4673      	mov	r3, lr
100005dc:	2c00      	cmp	r4, #0
100005de:	da08      	bge.n	100005f2 <irq_remove_handler+0x10a>
100005e0:	4615      	mov	r5, r2
100005e2:	e046      	b.n	10000672 <irq_remove_handler+0x18a>
100005e4:	f8c9 0080 	str.w	r0, [r9, #128]	@ 0x80
100005e8:	e7df      	b.n	100005aa <irq_remove_handler+0xc2>
100005ea:	f993 4006 	ldrsb.w	r4, [r3, #6]
100005ee:	2c00      	cmp	r4, #0
100005f0:	db37      	blt.n	10000662 <irq_remove_handler+0x17a>
100005f2:	eb04 0c44 	add.w	ip, r4, r4, lsl #1
100005f6:	eb07 0c8c 	add.w	ip, r7, ip, lsl #2
100005fa:	f89c 1007 	ldrb.w	r1, [ip, #7]
100005fe:	f8dc 2008 	ldr.w	r2, [ip, #8]
10000602:	71d9      	strb	r1, [r3, #7]
10000604:	609a      	str	r2, [r3, #8]
10000606:	f99c 2006 	ldrsb.w	r2, [ip, #6]
1000060a:	0061      	lsls	r1, r4, #1
1000060c:	2a00      	cmp	r2, #0
1000060e:	719a      	strb	r2, [r3, #6]
10000610:	db3d      	blt.n	1000068e <irq_remove_handler+0x1a6>
10000612:	f8bc e004 	ldrh.w	lr, [ip, #4]
10000616:	ea5f 5e4e 	movs.w	lr, lr, lsl #21
1000061a:	d505      	bpl.n	10000628 <irq_remove_handler+0x140>
1000061c:	f50e 1eff 	add.w	lr, lr, #2088960	@ 0x1fe000
10000620:	f50e 5eff 	add.w	lr, lr, #8160	@ 0x1fe0
10000624:	f10e 0e1f 	add.w	lr, lr, #31
10000628:	f06f 0c07 	mvn.w	ip, #7
1000062c:	190a      	adds	r2, r1, r4
1000062e:	ea4f 5e6e 	mov.w	lr, lr, asr #21
10000632:	0092      	lsls	r2, r2, #2
10000634:	eb02 024e 	add.w	r2, r2, lr, lsl #1
10000638:	3208      	adds	r2, #8
1000063a:	443a      	add	r2, r7
1000063c:	ebac 0c03 	sub.w	ip, ip, r3
10000640:	4462      	add	r2, ip
10000642:	f3c2 024a 	ubfx	r2, r2, #1, #11
10000646:	ea6f 42c2 	mvn.w	r2, r2, lsl #19
1000064a:	ea6f 42d2 	mvn.w	r2, r2, lsr #19
1000064e:	809a      	strh	r2, [r3, #4]
10000650:	4b1e      	ldr	r3, [pc, #120]	@ (100006cc <irq_remove_handler+0x1e4>)
10000652:	4421      	add	r1, r4
10000654:	781a      	ldrb	r2, [r3, #0]
10000656:	eb07 0181 	add.w	r1, r7, r1, lsl #2
1000065a:	701c      	strb	r4, [r3, #0]
1000065c:	718a      	strb	r2, [r1, #6]
1000065e:	e79d      	b.n	1000059c <irq_remove_handler+0xb4>
10000660:	4673      	mov	r3, lr
10000662:	b9d9      	cbnz	r1, 1000069c <irq_remove_handler+0x1b4>
10000664:	22ff      	movs	r2, #255	@ 0xff
10000666:	f88e 2006 	strb.w	r2, [lr, #6]
1000066a:	f64b 5201 	movw	r2, #48385	@ 0xbd01
1000066e:	f8ae 2004 	strh.w	r2, [lr, #4]
10000672:	4c16      	ldr	r4, [pc, #88]	@ (100006cc <irq_remove_handler+0x1e4>)
10000674:	f64a 22aa 	movw	r2, #43690	@ 0xaaaa
10000678:	f894 c000 	ldrb.w	ip, [r4]
1000067c:	4619      	mov	r1, r3
1000067e:	1bc9      	subs	r1, r1, r7
10000680:	4149      	adcs	r1, r1
10000682:	434a      	muls	r2, r1
10000684:	0d12      	lsrs	r2, r2, #20
10000686:	f883 c006 	strb.w	ip, [r3, #6]
1000068a:	7022      	strb	r2, [r4, #0]
1000068c:	e786      	b.n	1000059c <irq_remove_handler+0xb4>
1000068e:	4a10      	ldr	r2, [pc, #64]	@ (100006d0 <irq_remove_handler+0x1e8>)
10000690:	e7dd      	b.n	1000064e <irq_remove_handler+0x166>
10000692:	f99e 4006 	ldrsb.w	r4, [lr, #6]
10000696:	4673      	mov	r3, lr
10000698:	2c00      	cmp	r4, #0
1000069a:	daaa      	bge.n	100005f2 <irq_remove_handler+0x10a>
1000069c:	4a0d      	ldr	r2, [pc, #52]	@ (100006d4 <irq_remove_handler+0x1ec>)
1000069e:	4c0e      	ldr	r4, [pc, #56]	@ (100006d8 <irq_remove_handler+0x1f0>)
100006a0:	1ad2      	subs	r2, r2, r3
100006a2:	3a08      	subs	r2, #8
100006a4:	f3c2 310a 	ubfx	r1, r2, #12, #11
100006a8:	ea6f 5101 	mvn.w	r1, r1, lsl #20
100006ac:	ea6f 5111 	mvn.w	r1, r1, lsr #20
100006b0:	ea44 0252 	orr.w	r2, r4, r2, lsr #1
100006b4:	80da      	strh	r2, [r3, #6]
100006b6:	8099      	strh	r1, [r3, #4]
100006b8:	e770      	b.n	1000059c <irq_remove_handler+0xb4>
100006ba:	bf00      	nop
100006bc:	200007b9 	.word	0x200007b9
100006c0:	e000ed00 	.word	0xe000ed00
100006c4:	10000111 	.word	0x10000111
100006c8:	200005ac 	.word	0x200005ac
100006cc:	20000854 	.word	0x20000854
100006d0:	ffffbd01 	.word	0xffffbd01
100006d4:	200005e6 	.word	0x200005e6
100006d8:	fffff800 	.word	0xfffff800

100006dc <irq_add_tail_to_free_list>:
100006dc:	b5f0      	push	{r4, r5, r6, r7, lr}
100006de:	f3ef 8505 	mrs	r5, IPSR
100006e2:	b2ed      	uxtb	r5, r5
100006e4:	f3ef 8c10 	mrs	ip, PRIMASK
100006e8:	b672      	cpsid	i
100006ea:	4926      	ldr	r1, [pc, #152]	@ (10000784 <irq_add_tail_to_free_list+0xa8>)
100006ec:	e8d1 2fcf 	ldaexb	r2, [r1]
100006f0:	2301      	movs	r3, #1
100006f2:	2a00      	cmp	r2, #0
100006f4:	d1fa      	bne.n	100006ec <irq_add_tail_to_free_list+0x10>
100006f6:	e8c1 3f42 	strexb	r2, r3, [r1]
100006fa:	2a00      	cmp	r2, #0
100006fc:	d1f6      	bne.n	100006ec <irq_add_tail_to_free_list+0x10>
100006fe:	f3bf 8f5f 	dmb	sy
10000702:	4e21      	ldr	r6, [pc, #132]	@ (10000788 <irq_add_tail_to_free_list+0xac>)
10000704:	f040 0e01 	orr.w	lr, r0, #1
10000708:	68b4      	ldr	r4, [r6, #8]
1000070a:	f64a 23aa 	movw	r3, #43690	@ 0xaaaa
1000070e:	f854 7025 	ldr.w	r7, [r4, r5, lsl #2]
10000712:	4a1e      	ldr	r2, [pc, #120]	@ (1000078c <irq_add_tail_to_free_list+0xb0>)
10000714:	4604      	mov	r4, r0
10000716:	1aa4      	subs	r4, r4, r2
10000718:	4164      	adcs	r4, r4
1000071a:	4363      	muls	r3, r4
1000071c:	0d1b      	lsrs	r3, r3, #20
1000071e:	4577      	cmp	r7, lr
10000720:	b25b      	sxtb	r3, r3
10000722:	d01b      	beq.n	1000075c <irq_add_tail_to_free_list+0x80>
10000724:	f992 4006 	ldrsb.w	r4, [r2, #6]
10000728:	429c      	cmp	r4, r3
1000072a:	d01c      	beq.n	10000766 <irq_add_tail_to_free_list+0x8a>
1000072c:	f992 4012 	ldrsb.w	r4, [r2, #18]
10000730:	429c      	cmp	r4, r3
10000732:	d023      	beq.n	1000077c <irq_add_tail_to_free_list+0xa0>
10000734:	f992 401e 	ldrsb.w	r4, [r2, #30]
10000738:	429c      	cmp	r4, r3
1000073a:	d021      	beq.n	10000780 <irq_add_tail_to_free_list+0xa4>
1000073c:	f992 402a 	ldrsb.w	r4, [r2, #42]	@ 0x2a
10000740:	429c      	cmp	r4, r3
10000742:	bf08      	it	eq
10000744:	2403      	moveq	r4, #3
10000746:	d00f      	beq.n	10000768 <irq_add_tail_to_free_list+0x8c>
10000748:	4a11      	ldr	r2, [pc, #68]	@ (10000790 <irq_add_tail_to_free_list+0xb4>)
1000074a:	2400      	movs	r4, #0
1000074c:	7815      	ldrb	r5, [r2, #0]
1000074e:	7013      	strb	r3, [r2, #0]
10000750:	7185      	strb	r5, [r0, #6]
10000752:	e8c1 4f8f 	stlb	r4, [r1]
10000756:	f38c 8810 	msr	PRIMASK, ip
1000075a:	bdf0      	pop	{r4, r5, r6, r7, pc}
1000075c:	68b2      	ldr	r2, [r6, #8]
1000075e:	4c0d      	ldr	r4, [pc, #52]	@ (10000794 <irq_add_tail_to_free_list+0xb8>)
10000760:	f842 4025 	str.w	r4, [r2, r5, lsl #2]
10000764:	e7f0      	b.n	10000748 <irq_add_tail_to_free_list+0x6c>
10000766:	2400      	movs	r4, #0
10000768:	eb04 0444 	add.w	r4, r4, r4, lsl #1
1000076c:	eb02 0284 	add.w	r2, r2, r4, lsl #2
10000770:	24ff      	movs	r4, #255	@ 0xff
10000772:	7194      	strb	r4, [r2, #6]
10000774:	f64b 5401 	movw	r4, #48385	@ 0xbd01
10000778:	8094      	strh	r4, [r2, #4]
1000077a:	e7e5      	b.n	10000748 <irq_add_tail_to_free_list+0x6c>
1000077c:	2401      	movs	r4, #1
1000077e:	e7f3      	b.n	10000768 <irq_add_tail_to_free_list+0x8c>
10000780:	2402      	movs	r4, #2
10000782:	e7f1      	b.n	10000768 <irq_add_tail_to_free_list+0x8c>
10000784:	200007b9 	.word	0x200007b9
10000788:	e000ed00 	.word	0xe000ed00
1000078c:	200005ac 	.word	0x200005ac
10000790:	20000854 	.word	0x20000854
10000794:	10000111 	.word	0x10000111

10000798 <lock_init>:
10000798:	4b01      	ldr	r3, [pc, #4]	@ (100007a0 <lock_init+0x8>)
1000079a:	440b      	add	r3, r1
1000079c:	6003      	str	r3, [r0, #0]
1000079e:	4770      	bx	lr
100007a0:	200007b0 	.word	0x200007b0

100007a4 <runtime_init_mutex>:
100007a4:	b570      	push	{r4, r5, r6, lr}
100007a6:	4c10      	ldr	r4, [pc, #64]	@ (100007e8 <runtime_init_mutex+0x44>)
100007a8:	4d10      	ldr	r5, [pc, #64]	@ (100007ec <runtime_init_mutex+0x48>)
100007aa:	42ac      	cmp	r4, r5
100007ac:	d20e      	bcs.n	100007cc <runtime_init_mutex+0x28>
100007ae:	26ff      	movs	r6, #255	@ 0xff
100007b0:	6823      	ldr	r3, [r4, #0]
100007b2:	b163      	cbz	r3, 100007ce <runtime_init_mutex+0x2a>
100007b4:	f7ff fe12 	bl	100003dc <next_striped_spin_lock_num>
100007b8:	4601      	mov	r1, r0
100007ba:	4620      	mov	r0, r4
100007bc:	f7ff ffec 	bl	10000798 <lock_init>
100007c0:	80a6      	strh	r6, [r4, #4]
100007c2:	f3bf 8f5f 	dmb	sy
100007c6:	3408      	adds	r4, #8
100007c8:	42ac      	cmp	r4, r5
100007ca:	d3f1      	bcc.n	100007b0 <runtime_init_mutex+0xc>
100007cc:	bd70      	pop	{r4, r5, r6, pc}
100007ce:	f7ff fe05 	bl	100003dc <next_striped_spin_lock_num>
100007d2:	4601      	mov	r1, r0
100007d4:	4620      	mov	r0, r4
100007d6:	f7ff ffdf 	bl	10000798 <lock_init>
100007da:	7126      	strb	r6, [r4, #4]
100007dc:	f3bf 8f5f 	dmb	sy
100007e0:	3408      	adds	r4, #8
100007e2:	42ac      	cmp	r4, r5
100007e4:	d3e4      	bcc.n	100007b0 <runtime_init_mutex+0xc>
100007e6:	bd70      	pop	{r4, r5, r6, pc}
100007e8:	20000624 	.word	0x20000624
100007ec:	2000062c 	.word	0x2000062c

100007f0 <sleep_until_callback>:
100007f0:	4b0d      	ldr	r3, [pc, #52]	@ (10000828 <sleep_until_callback+0x38>)
100007f2:	681a      	ldr	r2, [r3, #0]
100007f4:	f3ef 8110 	mrs	r1, PRIMASK
100007f8:	b672      	cpsid	i
100007fa:	e8d2 cfcf 	ldaexb	ip, [r2]
100007fe:	2001      	movs	r0, #1
10000800:	f1bc 0f00 	cmp.w	ip, #0
10000804:	d1f9      	bne.n	100007fa <sleep_until_callback+0xa>
10000806:	e8c2 0f4c 	strexb	ip, r0, [r2]
1000080a:	f1bc 0f00 	cmp.w	ip, #0
1000080e:	d1f4      	bne.n	100007fa <sleep_until_callback+0xa>
10000810:	f3bf 8f5f 	dmb	sy
10000814:	2200      	movs	r2, #0
10000816:	681b      	ldr	r3, [r3, #0]
10000818:	e8c3 2f8f 	stlb	r2, [r3]
1000081c:	f381 8810 	msr	PRIMASK, r1
10000820:	bf40      	sev
10000822:	2000      	movs	r0, #0
10000824:	2100      	movs	r1, #0
10000826:	4770      	bx	lr
10000828:	20000848 	.word	0x20000848
1000082c:	00000000 	.word	0x00000000

10000830 <alarm_pool_irq_handler>:
10000830:	e92d 4ff0 	stmdb	sp!, {r4, r5, r6, r7, r8, r9, sl, fp, lr}
10000834:	ed2d 8b02 	vpush	{d8}
10000838:	b085      	sub	sp, #20
1000083a:	f3ef 8305 	mrs	r3, IPSR
1000083e:	b2db      	uxtb	r3, r3
10000840:	3b10      	subs	r3, #16
10000842:	089a      	lsrs	r2, r3, #2
10000844:	bf18      	it	ne
10000846:	2201      	movne	r2, #1
10000848:	f04f 0101 	mov.w	r1, #1
1000084c:	f003 0b03 	and.w	fp, r3, #3
10000850:	bf18      	it	ne
10000852:	4daf      	ldrne	r5, [pc, #700]	@ (10000b10 <alarm_pool_irq_handler+0x2e0>)
10000854:	4baf      	ldr	r3, [pc, #700]	@ (10000b14 <alarm_pool_irq_handler+0x2e4>)
10000856:	bf08      	it	eq
10000858:	4daf      	ldreq	r5, [pc, #700]	@ (10000b18 <alarm_pool_irq_handler+0x2e8>)
1000085a:	eb0b 0282 	add.w	r2, fp, r2, lsl #2
1000085e:	f853 6022 	ldr.w	r6, [r3, r2, lsl #2]
10000862:	fa01 f20b 	lsl.w	r2, r1, fp
10000866:	f505 5341 	add.w	r3, r5, #12352	@ 0x3040
1000086a:	ed9f 8ba7 	vldr	d8, [pc, #668]	@ 10000b08 <alarm_pool_irq_handler+0x2d8>
1000086e:	9201      	str	r2, [sp, #4]
10000870:	605a      	str	r2, [r3, #4]
10000872:	e02f      	b.n	100008d4 <alarm_pool_irq_handler+0xa4>
10000874:	88b3      	ldrh	r3, [r6, #4]
10000876:	041c      	lsls	r4, r3, #16
10000878:	f140 8093 	bpl.w	100009a2 <alarm_pool_irq_handler+0x172>
1000087c:	79b3      	ldrb	r3, [r6, #6]
1000087e:	2b00      	cmp	r3, #0
10000880:	f040 80dd 	bne.w	10000a3e <alarm_pool_irq_handler+0x20e>
10000884:	f9b6 2008 	ldrsh.w	r2, [r6, #8]
10000888:	2a00      	cmp	r2, #0
1000088a:	f2c0 811e 	blt.w	10000aca <alarm_pool_irq_handler+0x29a>
1000088e:	6973      	ldr	r3, [r6, #20]
10000890:	eb02 0242 	add.w	r2, r2, r2, lsl #1
10000894:	eb03 03c2 	add.w	r3, r3, r2, lsl #3
10000898:	e9d3 4702 	ldrd	r4, r7, [r3, #8]
1000089c:	f1b7 3fff 	cmp.w	r7, #4294967295
100008a0:	bf08      	it	eq
100008a2:	f1b4 3fff 	cmpeq.w	r4, #4294967295
100008a6:	d00e      	beq.n	100008c6 <alarm_pool_irq_handler+0x96>
100008a8:	eb05 018b 	add.w	r1, r5, fp, lsl #2
100008ac:	6aab      	ldr	r3, [r5, #40]	@ 0x28
100008ae:	690a      	ldr	r2, [r1, #16]
100008b0:	1ad2      	subs	r2, r2, r3
100008b2:	1ae3      	subs	r3, r4, r3
100008b4:	4293      	cmp	r3, r2
100008b6:	d305      	bcc.n	100008c4 <alarm_pool_irq_handler+0x94>
100008b8:	2301      	movs	r3, #1
100008ba:	6a2a      	ldr	r2, [r5, #32]
100008bc:	fa03 f30b 	lsl.w	r3, r3, fp
100008c0:	4213      	tst	r3, r2
100008c2:	d100      	bne.n	100008c6 <alarm_pool_irq_handler+0x96>
100008c4:	610c      	str	r4, [r1, #16]
100008c6:	4628      	mov	r0, r5
100008c8:	f000 fb38 	bl	10000f3c <timer_time_us_64>
100008cc:	42a0      	cmp	r0, r4
100008ce:	41b9      	sbcs	r1, r7
100008d0:	f2c0 80fb 	blt.w	10000aca <alarm_pool_irq_handler+0x29a>
100008d4:	f9b6 3008 	ldrsh.w	r3, [r6, #8]
100008d8:	9a01      	ldr	r2, [sp, #4]
100008da:	2b00      	cmp	r3, #0
100008dc:	9300      	str	r3, [sp, #0]
100008de:	63ea      	str	r2, [r5, #60]	@ 0x3c
100008e0:	dbc8      	blt.n	10000874 <alarm_pool_irq_handler+0x44>
100008e2:	f8d6 8014 	ldr.w	r8, [r6, #20]
100008e6:	eb03 0943 	add.w	r9, r3, r3, lsl #1
100008ea:	4628      	mov	r0, r5
100008ec:	eb08 07c9 	add.w	r7, r8, r9, lsl #3
100008f0:	e9d7 4a02 	ldrd	r4, sl, [r7, #8]
100008f4:	f000 fb22 	bl	10000f3c <timer_time_us_64>
100008f8:	42a0      	cmp	r0, r4
100008fa:	eb71 010a 	sbcs.w	r1, r1, sl
100008fe:	dbb9      	blt.n	10000874 <alarm_pool_irq_handler+0x44>
10000900:	f1ba 0f00 	cmp.w	sl, #0
10000904:	f2c0 80c3 	blt.w	10000a8e <alarm_pool_irq_handler+0x25e>
10000908:	e9d7 3104 	ldrd	r3, r1, [r7, #16]
1000090c:	4a83      	ldr	r2, [pc, #524]	@ (10000b1c <alarm_pool_irq_handler+0x2ec>)
1000090e:	4293      	cmp	r3, r2
10000910:	f000 80ed 	beq.w	10000aee <alarm_pool_irq_handler+0x2be>
10000914:	887a      	ldrh	r2, [r7, #2]
10000916:	f9b6 0008 	ldrsh.w	r0, [r6, #8]
1000091a:	b292      	uxth	r2, r2
1000091c:	ea42 4000 	orr.w	r0, r2, r0, lsl #16
10000920:	4798      	blx	r3
10000922:	4602      	mov	r2, r0
10000924:	460b      	mov	r3, r1
10000926:	ea52 0103 	orrs.w	r1, r2, r3
1000092a:	f000 80b0 	beq.w	10000a8e <alarm_pool_irq_handler+0x25e>
1000092e:	2b00      	cmp	r3, #0
10000930:	f280 80d1 	bge.w	10000ad6 <alarm_pool_irq_handler+0x2a6>
10000934:	ebb4 0e02 	subs.w	lr, r4, r2
10000938:	eb6a 0a03 	sbc.w	sl, sl, r3
1000093c:	f938 3039 	ldrsh.w	r3, [r8, r9, lsl #3]
10000940:	e9c7 ea02 	strd	lr, sl, [r7, #8]
10000944:	2b00      	cmp	r3, #0
10000946:	db95      	blt.n	10000874 <alarm_pool_irq_handler+0x44>
10000948:	6971      	ldr	r1, [r6, #20]
1000094a:	eb03 0243 	add.w	r2, r3, r3, lsl #1
1000094e:	eb01 02c2 	add.w	r2, r1, r2, lsl #3
10000952:	e9d2 7002 	ldrd	r7, r0, [r2, #8]
10000956:	45be      	cmp	lr, r7
10000958:	eb7a 0c00 	sbcs.w	ip, sl, r0
1000095c:	ea4f 0243 	mov.w	r2, r3, lsl #1
10000960:	db88      	blt.n	10000874 <alarm_pool_irq_handler+0x44>
10000962:	46b4      	mov	ip, r6
10000964:	f82c 3f08 	strh.w	r3, [ip, #8]!
10000968:	e006      	b.n	10000978 <alarm_pool_irq_handler+0x148>
1000096a:	eb03 0043 	add.w	r0, r3, r3, lsl #1
1000096e:	eb01 00c0 	add.w	r0, r1, r0, lsl #3
10000972:	005a      	lsls	r2, r3, #1
10000974:	e9d0 7002 	ldrd	r7, r0, [r0, #8]
10000978:	45be      	cmp	lr, r7
1000097a:	441a      	add	r2, r3
1000097c:	eb7a 0000 	sbcs.w	r0, sl, r0
10000980:	eb01 04c2 	add.w	r4, r1, r2, lsl #3
10000984:	db04      	blt.n	10000990 <alarm_pool_irq_handler+0x160>
10000986:	f931 3032 	ldrsh.w	r3, [r1, r2, lsl #3]
1000098a:	46a4      	mov	ip, r4
1000098c:	2b00      	cmp	r3, #0
1000098e:	daec      	bge.n	1000096a <alarm_pool_irq_handler+0x13a>
10000990:	f828 3039 	strh.w	r3, [r8, r9, lsl #3]
10000994:	9b00      	ldr	r3, [sp, #0]
10000996:	f8ac 3000 	strh.w	r3, [ip]
1000099a:	88b3      	ldrh	r3, [r6, #4]
1000099c:	041c      	lsls	r4, r3, #16
1000099e:	f53f af6d 	bmi.w	1000087c <alarm_pool_irq_handler+0x4c>
100009a2:	6933      	ldr	r3, [r6, #16]
100009a4:	f3ef 8210 	mrs	r2, PRIMASK
100009a8:	b672      	cpsid	i
100009aa:	e8d3 0fcf 	ldaexb	r0, [r3]
100009ae:	2101      	movs	r1, #1
100009b0:	2800      	cmp	r0, #0
100009b2:	d1fa      	bne.n	100009aa <alarm_pool_irq_handler+0x17a>
100009b4:	e8c3 1f40 	strexb	r0, r1, [r3]
100009b8:	2800      	cmp	r0, #0
100009ba:	d1f6      	bne.n	100009aa <alarm_pool_irq_handler+0x17a>
100009bc:	f3bf 8f5f 	dmb	sy
100009c0:	f64f 74ff 	movw	r4, #65535	@ 0xffff
100009c4:	88b0      	ldrh	r0, [r6, #4]
100009c6:	2300      	movs	r3, #0
100009c8:	6931      	ldr	r1, [r6, #16]
100009ca:	b200      	sxth	r0, r0
100009cc:	80b4      	strh	r4, [r6, #4]
100009ce:	e8c1 3f8f 	stlb	r3, [r1]
100009d2:	f382 8810 	msr	PRIMASK, r2
100009d6:	4298      	cmp	r0, r3
100009d8:	f6ff af50 	blt.w	1000087c <alarm_pool_irq_handler+0x4c>
100009dc:	4607      	mov	r7, r0
100009de:	46a9      	mov	r9, r5
100009e0:	6974      	ldr	r4, [r6, #20]
100009e2:	f106 0808 	add.w	r8, r6, #8
100009e6:	eb07 0e47 	add.w	lr, r7, r7, lsl #1
100009ea:	eb04 03ce 	add.w	r3, r4, lr, lsl #3
100009ee:	e9d3 5002 	ldrd	r5, r0, [r3, #8]
100009f2:	f9b6 3008 	ldrsh.w	r3, [r6, #8]
100009f6:	46c4      	mov	ip, r8
100009f8:	2b00      	cmp	r3, #0
100009fa:	db13      	blt.n	10000a24 <alarm_pool_irq_handler+0x1f4>
100009fc:	46b2      	mov	sl, r6
100009fe:	9700      	str	r7, [sp, #0]
10000a00:	e004      	b.n	10000a0c <alarm_pool_irq_handler+0x1dc>
10000a02:	f934 3036 	ldrsh.w	r3, [r4, r6, lsl #3]
10000a06:	4694      	mov	ip, r2
10000a08:	2b00      	cmp	r3, #0
10000a0a:	db09      	blt.n	10000a20 <alarm_pool_irq_handler+0x1f0>
10000a0c:	eb03 0643 	add.w	r6, r3, r3, lsl #1
10000a10:	eb04 02c6 	add.w	r2, r4, r6, lsl #3
10000a14:	e9d2 7102 	ldrd	r7, r1, [r2, #8]
10000a18:	42bd      	cmp	r5, r7
10000a1a:	eb70 0101 	sbcs.w	r1, r0, r1
10000a1e:	daf0      	bge.n	10000a02 <alarm_pool_irq_handler+0x1d2>
10000a20:	4656      	mov	r6, sl
10000a22:	9f00      	ldr	r7, [sp, #0]
10000a24:	f8ac 7000 	strh.w	r7, [ip]
10000a28:	f934 703e 	ldrsh.w	r7, [r4, lr, lsl #3]
10000a2c:	f824 303e 	strh.w	r3, [r4, lr, lsl #3]
10000a30:	2f00      	cmp	r7, #0
10000a32:	dad8      	bge.n	100009e6 <alarm_pool_irq_handler+0x1b6>
10000a34:	79b3      	ldrb	r3, [r6, #6]
10000a36:	464d      	mov	r5, r9
10000a38:	2b00      	cmp	r3, #0
10000a3a:	f43f af23 	beq.w	10000884 <alarm_pool_irq_handler+0x54>
10000a3e:	2300      	movs	r3, #0
10000a40:	71b3      	strb	r3, [r6, #6]
10000a42:	f9b6 3008 	ldrsh.w	r3, [r6, #8]
10000a46:	f106 0808 	add.w	r8, r6, #8
10000a4a:	1c58      	adds	r0, r3, #1
10000a4c:	d03d      	beq.n	10000aca <alarm_pool_irq_handler+0x29a>
10000a4e:	461a      	mov	r2, r3
10000a50:	6977      	ldr	r7, [r6, #20]
10000a52:	e003      	b.n	10000a5c <alarm_pool_irq_handler+0x22c>
10000a54:	4680      	mov	r8, r0
10000a56:	1c59      	adds	r1, r3, #1
10000a58:	f43f af16 	beq.w	10000888 <alarm_pool_irq_handler+0x58>
10000a5c:	eb03 0143 	add.w	r1, r3, r3, lsl #1
10000a60:	eb07 00c1 	add.w	r0, r7, r1, lsl #3
10000a64:	f8b0 c002 	ldrh.w	ip, [r0, #2]
10000a68:	461c      	mov	r4, r3
10000a6a:	f41c 4f00 	tst.w	ip, #32768	@ 0x8000
10000a6e:	469e      	mov	lr, r3
10000a70:	f937 3031 	ldrsh.w	r3, [r7, r1, lsl #3]
10000a74:	d0ee      	beq.n	10000a54 <alarm_pool_irq_handler+0x224>
10000a76:	4294      	cmp	r4, r2
10000a78:	ed80 8b02 	vstr	d8, [r0, #8]
10000a7c:	d005      	beq.n	10000a8a <alarm_pool_irq_handler+0x25a>
10000a7e:	f8a8 3000 	strh.w	r3, [r8]
10000a82:	8932      	ldrh	r2, [r6, #8]
10000a84:	f827 2031 	strh.w	r2, [r7, r1, lsl #3]
10000a88:	8134      	strh	r4, [r6, #8]
10000a8a:	4672      	mov	r2, lr
10000a8c:	e7e3      	b.n	10000a56 <alarm_pool_irq_handler+0x226>
10000a8e:	f838 3039 	ldrh.w	r3, [r8, r9, lsl #3]
10000a92:	8133      	strh	r3, [r6, #8]
10000a94:	6933      	ldr	r3, [r6, #16]
10000a96:	f3ef 8210 	mrs	r2, PRIMASK
10000a9a:	b672      	cpsid	i
10000a9c:	e8d3 0fcf 	ldaexb	r0, [r3]
10000aa0:	2101      	movs	r1, #1
10000aa2:	2800      	cmp	r0, #0
10000aa4:	d1fa      	bne.n	10000a9c <alarm_pool_irq_handler+0x26c>
10000aa6:	e8c3 1f40 	strexb	r0, r1, [r3]
10000aaa:	2800      	cmp	r0, #0
10000aac:	d1f6      	bne.n	10000a9c <alarm_pool_irq_handler+0x26c>
10000aae:	f3bf 8f5f 	dmb	sy
10000ab2:	8873      	ldrh	r3, [r6, #2]
10000ab4:	6931      	ldr	r1, [r6, #16]
10000ab6:	f828 3039 	strh.w	r3, [r8, r9, lsl #3]
10000aba:	9b00      	ldr	r3, [sp, #0]
10000abc:	8073      	strh	r3, [r6, #2]
10000abe:	2300      	movs	r3, #0
10000ac0:	e8c1 3f8f 	stlb	r3, [r1]
10000ac4:	f382 8810 	msr	PRIMASK, r2
10000ac8:	e6d4      	b.n	10000874 <alarm_pool_irq_handler+0x44>
10000aca:	bf40      	sev
10000acc:	b005      	add	sp, #20
10000ace:	ecbd 8b02 	vpop	{d8}
10000ad2:	e8bd 8ff0 	ldmia.w	sp!, {r4, r5, r6, r7, r8, r9, sl, fp, pc}
10000ad6:	4628      	mov	r0, r5
10000ad8:	e9cd 2302 	strd	r2, r3, [sp, #8]
10000adc:	f000 fa2e 	bl	10000f3c <timer_time_us_64>
10000ae0:	9a02      	ldr	r2, [sp, #8]
10000ae2:	9b03      	ldr	r3, [sp, #12]
10000ae4:	eb10 0e02 	adds.w	lr, r0, r2
10000ae8:	eb43 0a01 	adc.w	sl, r3, r1
10000aec:	e726      	b.n	1000093c <alarm_pool_irq_handler+0x10c>
10000aee:	4608      	mov	r0, r1
10000af0:	690b      	ldr	r3, [r1, #16]
10000af2:	9102      	str	r1, [sp, #8]
10000af4:	4798      	blx	r3
10000af6:	2800      	cmp	r0, #0
10000af8:	d0c9      	beq.n	10000a8e <alarm_pool_irq_handler+0x25e>
10000afa:	9902      	ldr	r1, [sp, #8]
10000afc:	e9d1 2300 	ldrd	r2, r3, [r1]
10000b00:	e711      	b.n	10000926 <alarm_pool_irq_handler+0xf6>
10000b02:	bf00      	nop
10000b04:	f3af 8000 	nop.w
10000b08:	ffffffff 	.word	0xffffffff
10000b0c:	ffffffff 	.word	0xffffffff
10000b10:	400b8000 	.word	0x400b8000
10000b14:	20000828 	.word	0x20000828
10000b18:	400b0000 	.word	0x400b0000
10000b1c:	10000831 	.word	0x10000831

10000b20 <runtime_init_default_alarm_pool>:
10000b20:	e92d 4ff8 	stmdb	sp!, {r3, r4, r5, r6, r7, r8, r9, sl, fp, lr}
10000b24:	4c36      	ldr	r4, [pc, #216]	@ (10000c00 <runtime_init_default_alarm_pool+0xe0>)
10000b26:	6925      	ldr	r5, [r4, #16]
10000b28:	b12d      	cbz	r5, 10000b36 <runtime_init_default_alarm_pool+0x16>
10000b2a:	e8bd 4ff8 	ldmia.w	sp!, {r3, r4, r5, r6, r7, r8, r9, sl, fp, lr}
10000b2e:	210a      	movs	r1, #10
10000b30:	4834      	ldr	r0, [pc, #208]	@ (10000c04 <runtime_init_default_alarm_pool+0xe4>)
10000b32:	f7ff be31 	b.w	10000798 <lock_init>
10000b36:	f8df 80e4 	ldr.w	r8, [pc, #228]	@ 10000c1c <runtime_init_default_alarm_pool+0xfc>
10000b3a:	2103      	movs	r1, #3
10000b3c:	4640      	mov	r0, r8
10000b3e:	f000 f9eb 	bl	10000f18 <timer_hardware_alarm_claim>
10000b42:	2603      	movs	r6, #3
10000b44:	f8c4 800c 	str.w	r8, [r4, #12]
10000b48:	f7ff fc48 	bl	100003dc <next_striped_spin_lock_num>
10000b4c:	f04f 4c50 	mov.w	ip, #3489660928	@ 0xd0000000
10000b50:	4b2d      	ldr	r3, [pc, #180]	@ (10000c08 <runtime_init_default_alarm_pool+0xe8>)
10000b52:	7026      	strb	r6, [r4, #0]
10000b54:	4403      	add	r3, r0
10000b56:	6123      	str	r3, [r4, #16]
10000b58:	f8dc 3000 	ldr.w	r3, [ip]
10000b5c:	210f      	movs	r1, #15
10000b5e:	7063      	strb	r3, [r4, #1]
10000b60:	6963      	ldr	r3, [r4, #20]
10000b62:	8061      	strh	r1, [r4, #2]
10000b64:	831d      	strh	r5, [r3, #24]
10000b66:	f04f 0504 	mov.w	r5, #4
10000b6a:	f8a3 5078 	strh.w	r5, [r3, #120]	@ 0x78
10000b6e:	f04f 0505 	mov.w	r5, #5
10000b72:	f8a3 5090 	strh.w	r5, [r3, #144]	@ 0x90
10000b76:	f04f 0506 	mov.w	r5, #6
10000b7a:	f8a3 50a8 	strh.w	r5, [r3, #168]	@ 0xa8
10000b7e:	f04f 0507 	mov.w	r5, #7
10000b82:	210e      	movs	r1, #14
10000b84:	f64f 72ff 	movw	r2, #65535	@ 0xffff
10000b88:	2708      	movs	r7, #8
10000b8a:	f04f 0e0a 	mov.w	lr, #10
10000b8e:	f8a3 50c0 	strh.w	r5, [r3, #192]	@ 0xc0
10000b92:	f04f 0901 	mov.w	r9, #1
10000b96:	f04f 0c0c 	mov.w	ip, #12
10000b9a:	f04f 0b02 	mov.w	fp, #2
10000b9e:	f04f 0a09 	mov.w	sl, #9
10000ba2:	200d      	movs	r0, #13
10000ba4:	f04f 050b 	mov.w	r5, #11
10000ba8:	f8a3 1168 	strh.w	r1, [r3, #360]	@ 0x168
10000bac:	4917      	ldr	r1, [pc, #92]	@ (10000c0c <runtime_init_default_alarm_pool+0xec>)
10000bae:	80a2      	strh	r2, [r4, #4]
10000bb0:	f8a3 e108 	strh.w	lr, [r3, #264]	@ 0x108
10000bb4:	60a1      	str	r1, [r4, #8]
10000bb6:	f8a3 b048 	strh.w	fp, [r3, #72]	@ 0x48
10000bba:	f8a3 a0f0 	strh.w	sl, [r3, #240]	@ 0xf0
10000bbe:	f8a3 5120 	strh.w	r5, [r3, #288]	@ 0x120
10000bc2:	f8a3 c138 	strh.w	ip, [r3, #312]	@ 0x138
10000bc6:	f8a3 0150 	strh.w	r0, [r3, #336]	@ 0x150
10000bca:	f8a3 9030 	strh.w	r9, [r3, #48]	@ 0x30
10000bce:	f8a3 6060 	strh.w	r6, [r3, #96]	@ 0x60
10000bd2:	f8a3 70d8 	strh.w	r7, [r3, #216]	@ 0xd8
10000bd6:	801a      	strh	r2, [r3, #0]
10000bd8:	4b0d      	ldr	r3, [pc, #52]	@ (10000c10 <runtime_init_default_alarm_pool+0xf0>)
10000bda:	4630      	mov	r0, r6
10000bdc:	f8c8 7020 	str.w	r7, [r8, #32]
10000be0:	490c      	ldr	r1, [pc, #48]	@ (10000c14 <runtime_init_default_alarm_pool+0xf4>)
10000be2:	60dc      	str	r4, [r3, #12]
10000be4:	f7ff fc50 	bl	10000488 <irq_set_exclusive_handler>
10000be8:	4649      	mov	r1, r9
10000bea:	4630      	mov	r0, r6
10000bec:	f7ff fc36 	bl	1000045c <irq_set_enabled>
10000bf0:	4b09      	ldr	r3, [pc, #36]	@ (10000c18 <runtime_init_default_alarm_pool+0xf8>)
10000bf2:	210a      	movs	r1, #10
10000bf4:	641f      	str	r7, [r3, #64]	@ 0x40
10000bf6:	4803      	ldr	r0, [pc, #12]	@ (10000c04 <runtime_init_default_alarm_pool+0xe4>)
10000bf8:	e8bd 4ff8 	ldmia.w	sp!, {r3, r4, r5, r6, r7, r8, r9, sl, fp, lr}
10000bfc:	f7ff bdcc 	b.w	10000798 <lock_init>
10000c00:	200005f4 	.word	0x200005f4
10000c04:	20000848 	.word	0x20000848
10000c08:	200007b0 	.word	0x200007b0
10000c0c:	0010ffff 	.word	0x0010ffff
10000c10:	20000828 	.word	0x20000828
10000c14:	10000831 	.word	0x10000831
10000c18:	400b2000 	.word	0x400b2000
10000c1c:	400b0000 	.word	0x400b0000

10000c20 <alarm_pool_add_alarm_at_force_in_context>:
10000c20:	4601      	mov	r1, r0
10000c22:	b5f0      	push	{r4, r5, r6, r7, lr}
10000c24:	6900      	ldr	r0, [r0, #16]
10000c26:	f3ef 8710 	mrs	r7, PRIMASK
10000c2a:	b672      	cpsid	i
10000c2c:	e8d0 5fcf 	ldaexb	r5, [r0]
10000c30:	2401      	movs	r4, #1
10000c32:	2d00      	cmp	r5, #0
10000c34:	d1fa      	bne.n	10000c2c <alarm_pool_add_alarm_at_force_in_context+0xc>
10000c36:	e8c0 4f45 	strexb	r5, r4, [r0]
10000c3a:	2d00      	cmp	r5, #0
10000c3c:	d1f6      	bne.n	10000c2c <alarm_pool_add_alarm_at_force_in_context+0xc>
10000c3e:	f3bf 8f5f 	dmb	sy
10000c42:	f9b1 e002 	ldrsh.w	lr, [r1, #2]
10000c46:	694c      	ldr	r4, [r1, #20]
10000c48:	eb0e 0c4e 	add.w	ip, lr, lr, lsl #1
10000c4c:	f1be 0f00 	cmp.w	lr, #0
10000c50:	ea4f 05cc 	mov.w	r5, ip, lsl #3
10000c54:	6908      	ldr	r0, [r1, #16]
10000c56:	eb04 0ccc 	add.w	ip, r4, ip, lsl #3
10000c5a:	db3c      	blt.n	10000cd6 <alarm_pool_add_alarm_at_force_in_context+0xb6>
10000c5c:	5b66      	ldrh	r6, [r4, r5]
10000c5e:	804e      	strh	r6, [r1, #2]
10000c60:	2600      	movs	r6, #0
10000c62:	e8c0 6f8f 	stlb	r6, [r0]
10000c66:	f387 8810 	msr	PRIMASK, r7
10000c6a:	f8bc 0002 	ldrh.w	r0, [ip, #2]
10000c6e:	e9cc 2302 	strd	r2, r3, [ip, #8]
10000c72:	3001      	adds	r0, #1
10000c74:	f3c0 000e 	ubfx	r0, r0, #0, #15
10000c78:	2801      	cmp	r0, #1
10000c7a:	bf38      	it	cc
10000c7c:	2001      	movcc	r0, #1
10000c7e:	9b05      	ldr	r3, [sp, #20]
10000c80:	f8ac 0002 	strh.w	r0, [ip, #2]
10000c84:	f8cc 3010 	str.w	r3, [ip, #16]
10000c88:	9b06      	ldr	r3, [sp, #24]
10000c8a:	ea40 400e 	orr.w	r0, r0, lr, lsl #16
10000c8e:	f8cc 3014 	str.w	r3, [ip, #20]
10000c92:	690b      	ldr	r3, [r1, #16]
10000c94:	f3ef 8210 	mrs	r2, PRIMASK
10000c98:	b672      	cpsid	i
10000c9a:	e8d3 cfcf 	ldaexb	ip, [r3]
10000c9e:	2701      	movs	r7, #1
10000ca0:	f1bc 0f00 	cmp.w	ip, #0
10000ca4:	d1f9      	bne.n	10000c9a <alarm_pool_add_alarm_at_force_in_context+0x7a>
10000ca6:	e8c3 7f4c 	strexb	ip, r7, [r3]
10000caa:	f1bc 0f00 	cmp.w	ip, #0
10000cae:	d1f4      	bne.n	10000c9a <alarm_pool_add_alarm_at_force_in_context+0x7a>
10000cb0:	f3bf 8f5f 	dmb	sy
10000cb4:	888b      	ldrh	r3, [r1, #4]
10000cb6:	5363      	strh	r3, [r4, r5]
10000cb8:	f8a1 e004 	strh.w	lr, [r1, #4]
10000cbc:	690b      	ldr	r3, [r1, #16]
10000cbe:	e8c3 6f8f 	stlb	r6, [r3]
10000cc2:	f382 8810 	msr	PRIMASK, r2
10000cc6:	2201      	movs	r2, #1
10000cc8:	68cb      	ldr	r3, [r1, #12]
10000cca:	7809      	ldrb	r1, [r1, #0]
10000ccc:	f503 5301 	add.w	r3, r3, #8256	@ 0x2040
10000cd0:	408a      	lsls	r2, r1
10000cd2:	605a      	str	r2, [r3, #4]
10000cd4:	bdf0      	pop	{r4, r5, r6, r7, pc}
10000cd6:	2300      	movs	r3, #0
10000cd8:	e8c0 3f8f 	stlb	r3, [r0]
10000cdc:	f387 8810 	msr	PRIMASK, r7
10000ce0:	f04f 30ff 	mov.w	r0, #4294967295
10000ce4:	bdf0      	pop	{r4, r5, r6, r7, pc}
10000ce6:	bf00      	nop

10000ce8 <alarm_pool_cancel_alarm>:
10000ce8:	4603      	mov	r3, r0
10000cea:	8940      	ldrh	r0, [r0, #10]
10000cec:	ebb0 4f21 	cmp.w	r0, r1, asr #16
10000cf0:	dd37      	ble.n	10000d62 <alarm_pool_cancel_alarm+0x7a>
10000cf2:	6958      	ldr	r0, [r3, #20]
10000cf4:	140a      	asrs	r2, r1, #16
10000cf6:	eb02 0242 	add.w	r2, r2, r2, lsl #1
10000cfa:	b510      	push	{r4, lr}
10000cfc:	eb00 00c2 	add.w	r0, r0, r2, lsl #3
10000d00:	691c      	ldr	r4, [r3, #16]
10000d02:	f3ef 8c10 	mrs	ip, PRIMASK
10000d06:	b672      	cpsid	i
10000d08:	e8d4 efcf 	ldaexb	lr, [r4]
10000d0c:	2201      	movs	r2, #1
10000d0e:	f1be 0f00 	cmp.w	lr, #0
10000d12:	d1f9      	bne.n	10000d08 <alarm_pool_cancel_alarm+0x20>
10000d14:	e8c4 2f4e 	strexb	lr, r2, [r4]
10000d18:	f1be 0f00 	cmp.w	lr, #0
10000d1c:	d1f4      	bne.n	10000d08 <alarm_pool_cancel_alarm+0x20>
10000d1e:	f3bf 8f5f 	dmb	sy
10000d22:	8842      	ldrh	r2, [r0, #2]
10000d24:	b289      	uxth	r1, r1
10000d26:	b292      	uxth	r2, r2
10000d28:	428a      	cmp	r2, r1
10000d2a:	d007      	beq.n	10000d3c <alarm_pool_cancel_alarm+0x54>
10000d2c:	2200      	movs	r2, #0
10000d2e:	691b      	ldr	r3, [r3, #16]
10000d30:	e8c3 2f8f 	stlb	r2, [r3]
10000d34:	f38c 8810 	msr	PRIMASK, ip
10000d38:	2000      	movs	r0, #0
10000d3a:	bd10      	pop	{r4, pc}
10000d3c:	f442 4200 	orr.w	r2, r2, #32768	@ 0x8000
10000d40:	8042      	strh	r2, [r0, #2]
10000d42:	2101      	movs	r1, #1
10000d44:	2200      	movs	r2, #0
10000d46:	6918      	ldr	r0, [r3, #16]
10000d48:	7199      	strb	r1, [r3, #6]
10000d4a:	e8c0 2f8f 	stlb	r2, [r0]
10000d4e:	f38c 8810 	msr	PRIMASK, ip
10000d52:	781c      	ldrb	r4, [r3, #0]
10000d54:	68da      	ldr	r2, [r3, #12]
10000d56:	4608      	mov	r0, r1
10000d58:	f502 5301 	add.w	r3, r2, #8256	@ 0x2040
10000d5c:	40a1      	lsls	r1, r4
10000d5e:	6059      	str	r1, [r3, #4]
10000d60:	bd10      	pop	{r4, pc}
10000d62:	2000      	movs	r0, #0
10000d64:	4770      	bx	lr
10000d66:	bf00      	nop

10000d68 <sleep_ms>:
10000d68:	e92d 41f0 	stmdb	sp!, {r4, r5, r6, r7, r8, lr}
10000d6c:	b082      	sub	sp, #8
10000d6e:	4606      	mov	r6, r0
10000d70:	f000 f8ec 	bl	10000f4c <time_us_64>
10000d74:	f44f 737a 	mov.w	r3, #1000	@ 0x3e8
10000d78:	4604      	mov	r4, r0
10000d7a:	f04f 30ff 	mov.w	r0, #4294967295
10000d7e:	f06f 4200 	mvn.w	r2, #2147483648	@ 0x80000000
10000d82:	fbe6 4103 	umlal	r4, r1, r6, r3
10000d86:	42a0      	cmp	r0, r4
10000d88:	eb72 0301 	sbcs.w	r3, r2, r1
10000d8c:	bf3a      	itte	cc
10000d8e:	4604      	movcc	r4, r0
10000d90:	4615      	movcc	r5, r2
10000d92:	460d      	movcs	r5, r1
10000d94:	1fa6      	subs	r6, r4, #6
10000d96:	f145 37ff 	adc.w	r7, r5, #4294967295
10000d9a:	42b4      	cmp	r4, r6
10000d9c:	eb75 0307 	sbcs.w	r3, r5, r7
10000da0:	bf3c      	itt	cc
10000da2:	2600      	movcc	r6, #0
10000da4:	4637      	movcc	r7, r6
10000da6:	f000 f8d1 	bl	10000f4c <time_us_64>
10000daa:	1a30      	subs	r0, r6, r0
10000dac:	eb67 0101 	sbc.w	r1, r7, r1
10000db0:	2801      	cmp	r0, #1
10000db2:	f171 0100 	sbcs.w	r1, r1, #0
10000db6:	da06      	bge.n	10000dc6 <sleep_ms+0x5e>
10000db8:	4620      	mov	r0, r4
10000dba:	4629      	mov	r1, r5
10000dbc:	b002      	add	sp, #8
10000dbe:	e8bd 41f0 	ldmia.w	sp!, {r4, r5, r6, r7, r8, lr}
10000dc2:	f000 b8fb 	b.w	10000fbc <busy_wait_until>
10000dc6:	f000 f8c1 	bl	10000f4c <time_us_64>
10000dca:	4286      	cmp	r6, r0
10000dcc:	eb67 0101 	sbc.w	r1, r7, r1
10000dd0:	2900      	cmp	r1, #0
10000dd2:	db0a      	blt.n	10000dea <sleep_ms+0x82>
10000dd4:	2100      	movs	r1, #0
10000dd6:	4b17      	ldr	r3, [pc, #92]	@ (10000e34 <sleep_ms+0xcc>)
10000dd8:	4632      	mov	r2, r6
10000dda:	9300      	str	r3, [sp, #0]
10000ddc:	4816      	ldr	r0, [pc, #88]	@ (10000e38 <sleep_ms+0xd0>)
10000dde:	463b      	mov	r3, r7
10000de0:	9101      	str	r1, [sp, #4]
10000de2:	f7ff ff1d 	bl	10000c20 <alarm_pool_add_alarm_at_force_in_context>
10000de6:	3001      	adds	r0, #1
10000de8:	d0e6      	beq.n	10000db8 <sleep_ms+0x50>
10000dea:	f04f 0c00 	mov.w	ip, #0
10000dee:	4a13      	ldr	r2, [pc, #76]	@ (10000e3c <sleep_ms+0xd4>)
10000df0:	4913      	ldr	r1, [pc, #76]	@ (10000e40 <sleep_ms+0xd8>)
10000df2:	6a53      	ldr	r3, [r2, #36]	@ 0x24
10000df4:	429f      	cmp	r7, r3
10000df6:	d804      	bhi.n	10000e02 <sleep_ms+0x9a>
10000df8:	6a90      	ldr	r0, [r2, #40]	@ 0x28
10000dfa:	42b0      	cmp	r0, r6
10000dfc:	d2dc      	bcs.n	10000db8 <sleep_ms+0x50>
10000dfe:	429f      	cmp	r7, r3
10000e00:	d1da      	bne.n	10000db8 <sleep_ms+0x50>
10000e02:	680b      	ldr	r3, [r1, #0]
10000e04:	f3ef 8010 	mrs	r0, PRIMASK
10000e08:	b672      	cpsid	i
10000e0a:	e8d3 8fcf 	ldaexb	r8, [r3]
10000e0e:	f05f 0e01 	movs.w	lr, #1
10000e12:	f1b8 0f00 	cmp.w	r8, #0
10000e16:	d1f8      	bne.n	10000e0a <sleep_ms+0xa2>
10000e18:	e8c3 ef48 	strexb	r8, lr, [r3]
10000e1c:	f1b8 0f00 	cmp.w	r8, #0
10000e20:	d1f3      	bne.n	10000e0a <sleep_ms+0xa2>
10000e22:	f3bf 8f5f 	dmb	sy
10000e26:	680b      	ldr	r3, [r1, #0]
10000e28:	e8c3 cf8f 	stlb	ip, [r3]
10000e2c:	f380 8810 	msr	PRIMASK, r0
10000e30:	bf20      	wfe
10000e32:	e7de      	b.n	10000df2 <sleep_ms+0x8a>
10000e34:	100007f1 	.word	0x100007f1
10000e38:	200005f4 	.word	0x200005f4
10000e3c:	400b0000 	.word	0x400b0000
10000e40:	20000848 	.word	0x20000848

10000e44 <best_effort_wfe_or_timeout>:
10000e44:	e92d 43f0 	stmdb	sp!, {r4, r5, r6, r7, r8, r9, lr}
10000e48:	4606      	mov	r6, r0
10000e4a:	460d      	mov	r5, r1
10000e4c:	b083      	sub	sp, #12
10000e4e:	f3ef 8405 	mrs	r4, IPSR
10000e52:	b2e4      	uxtb	r4, r4
10000e54:	b13c      	cbz	r4, 10000e66 <best_effort_wfe_or_timeout+0x22>
10000e56:	4b2d      	ldr	r3, [pc, #180]	@ (10000f0c <best_effort_wfe_or_timeout+0xc8>)
10000e58:	6a5a      	ldr	r2, [r3, #36]	@ 0x24
10000e5a:	42aa      	cmp	r2, r5
10000e5c:	d21c      	bcs.n	10000e98 <best_effort_wfe_or_timeout+0x54>
10000e5e:	2000      	movs	r0, #0
10000e60:	b003      	add	sp, #12
10000e62:	e8bd 83f0 	ldmia.w	sp!, {r4, r5, r6, r7, r8, r9, pc}
10000e66:	4f2a      	ldr	r7, [pc, #168]	@ (10000f10 <best_effort_wfe_or_timeout+0xcc>)
10000e68:	f8d7 900c 	ldr.w	r9, [r7, #12]
10000e6c:	f897 8000 	ldrb.w	r8, [r7]
10000e70:	4648      	mov	r0, r9
10000e72:	f000 f863 	bl	10000f3c <timer_time_us_64>
10000e76:	f108 0804 	add.w	r8, r8, #4
10000e7a:	f859 3028 	ldr.w	r3, [r9, r8, lsl #2]
10000e7e:	1a1b      	subs	r3, r3, r0
10000e80:	1a30      	subs	r0, r6, r0
10000e82:	eb65 0101 	sbc.w	r1, r5, r1
10000e86:	4298      	cmp	r0, r3
10000e88:	f171 0100 	sbcs.w	r1, r1, #0
10000e8c:	db10      	blt.n	10000eb0 <best_effort_wfe_or_timeout+0x6c>
10000e8e:	bf20      	wfe
10000e90:	4b1e      	ldr	r3, [pc, #120]	@ (10000f0c <best_effort_wfe_or_timeout+0xc8>)
10000e92:	6a5a      	ldr	r2, [r3, #36]	@ 0x24
10000e94:	42aa      	cmp	r2, r5
10000e96:	d3e2      	bcc.n	10000e5e <best_effort_wfe_or_timeout+0x1a>
10000e98:	bf14      	ite	ne
10000e9a:	2401      	movne	r4, #1
10000e9c:	2400      	moveq	r4, #0
10000e9e:	6a9b      	ldr	r3, [r3, #40]	@ 0x28
10000ea0:	42b3      	cmp	r3, r6
10000ea2:	bf34      	ite	cc
10000ea4:	4620      	movcc	r0, r4
10000ea6:	f044 0001 	orrcs.w	r0, r4, #1
10000eaa:	b003      	add	sp, #12
10000eac:	e8bd 83f0 	ldmia.w	sp!, {r4, r5, r6, r7, r8, r9, pc}
10000eb0:	f000 f84c 	bl	10000f4c <time_us_64>
10000eb4:	4286      	cmp	r6, r0
10000eb6:	eb65 0101 	sbc.w	r1, r5, r1
10000eba:	2900      	cmp	r1, #0
10000ebc:	db14      	blt.n	10000ee8 <best_effort_wfe_or_timeout+0xa4>
10000ebe:	4b15      	ldr	r3, [pc, #84]	@ (10000f14 <best_effort_wfe_or_timeout+0xd0>)
10000ec0:	4638      	mov	r0, r7
10000ec2:	e9cd 3400 	strd	r3, r4, [sp]
10000ec6:	4632      	mov	r2, r6
10000ec8:	462b      	mov	r3, r5
10000eca:	f7ff fea9 	bl	10000c20 <alarm_pool_add_alarm_at_force_in_context>
10000ece:	1e01      	subs	r1, r0, #0
10000ed0:	dd0a      	ble.n	10000ee8 <best_effort_wfe_or_timeout+0xa4>
10000ed2:	4b0e      	ldr	r3, [pc, #56]	@ (10000f0c <best_effort_wfe_or_timeout+0xc8>)
10000ed4:	6a5a      	ldr	r2, [r3, #36]	@ 0x24
10000ed6:	42aa      	cmp	r2, r5
10000ed8:	d316      	bcc.n	10000f08 <best_effort_wfe_or_timeout+0xc4>
10000eda:	6a9b      	ldr	r3, [r3, #40]	@ 0x28
10000edc:	42b3      	cmp	r3, r6
10000ede:	d311      	bcc.n	10000f04 <best_effort_wfe_or_timeout+0xc0>
10000ee0:	480b      	ldr	r0, [pc, #44]	@ (10000f10 <best_effort_wfe_or_timeout+0xcc>)
10000ee2:	f7ff ff01 	bl	10000ce8 <alarm_pool_cancel_alarm>
10000ee6:	e7b6      	b.n	10000e56 <best_effort_wfe_or_timeout+0x12>
10000ee8:	4b08      	ldr	r3, [pc, #32]	@ (10000f0c <best_effort_wfe_or_timeout+0xc8>)
10000eea:	6a5c      	ldr	r4, [r3, #36]	@ 0x24
10000eec:	42ac      	cmp	r4, r5
10000eee:	d3b6      	bcc.n	10000e5e <best_effort_wfe_or_timeout+0x1a>
10000ef0:	1b64      	subs	r4, r4, r5
10000ef2:	bf18      	it	ne
10000ef4:	2401      	movne	r4, #1
10000ef6:	6a9b      	ldr	r3, [r3, #40]	@ 0x28
10000ef8:	42b3      	cmp	r3, r6
10000efa:	bf34      	ite	cc
10000efc:	4620      	movcc	r0, r4
10000efe:	f044 0001 	orrcs.w	r0, r4, #1
10000f02:	e7ad      	b.n	10000e60 <best_effort_wfe_or_timeout+0x1c>
10000f04:	42aa      	cmp	r2, r5
10000f06:	d1eb      	bne.n	10000ee0 <best_effort_wfe_or_timeout+0x9c>
10000f08:	bf20      	wfe
10000f0a:	e7e9      	b.n	10000ee0 <best_effort_wfe_or_timeout+0x9c>
10000f0c:	400b0000 	.word	0x400b0000
10000f10:	200005f4 	.word	0x200005f4
10000f14:	100007f1 	.word	0x100007f1

10000f18 <timer_hardware_alarm_claim>:
10000f18:	b410      	push	{r4}
10000f1a:	4b05      	ldr	r3, [pc, #20]	@ (10000f30 <timer_hardware_alarm_claim+0x18>)
10000f1c:	4c05      	ldr	r4, [pc, #20]	@ (10000f34 <timer_hardware_alarm_claim+0x1c>)
10000f1e:	4a06      	ldr	r2, [pc, #24]	@ (10000f38 <timer_hardware_alarm_claim+0x20>)
10000f20:	42a0      	cmp	r0, r4
10000f22:	bf14      	ite	ne
10000f24:	4618      	movne	r0, r3
10000f26:	1c58      	addeq	r0, r3, #1
10000f28:	f85d 4b04 	ldr.w	r4, [sp], #4
10000f2c:	f7ff ba2a 	b.w	10000384 <hw_claim_or_assert>
10000f30:	200007d8 	.word	0x200007d8
10000f34:	400b8000 	.word	0x400b8000
10000f38:	100036c0 	.word	0x100036c0

10000f3c <timer_time_us_64>:
10000f3c:	4603      	mov	r3, r0
10000f3e:	6a41      	ldr	r1, [r0, #36]	@ 0x24
10000f40:	460a      	mov	r2, r1
10000f42:	6a98      	ldr	r0, [r3, #40]	@ 0x28
10000f44:	6a59      	ldr	r1, [r3, #36]	@ 0x24
10000f46:	428a      	cmp	r2, r1
10000f48:	d1fa      	bne.n	10000f40 <timer_time_us_64+0x4>
10000f4a:	4770      	bx	lr

10000f4c <time_us_64>:
10000f4c:	4b03      	ldr	r3, [pc, #12]	@ (10000f5c <time_us_64+0x10>)
10000f4e:	6a59      	ldr	r1, [r3, #36]	@ 0x24
10000f50:	460a      	mov	r2, r1
10000f52:	6a98      	ldr	r0, [r3, #40]	@ 0x28
10000f54:	6a59      	ldr	r1, [r3, #36]	@ 0x24
10000f56:	4291      	cmp	r1, r2
10000f58:	d1fa      	bne.n	10000f50 <time_us_64+0x4>
10000f5a:	4770      	bx	lr
10000f5c:	400b0000 	.word	0x400b0000

10000f60 <busy_wait_us>:
10000f60:	b430      	push	{r4, r5}
10000f62:	4a15      	ldr	r2, [pc, #84]	@ (10000fb8 <busy_wait_us+0x58>)
10000f64:	6a53      	ldr	r3, [r2, #36]	@ 0x24
10000f66:	469c      	mov	ip, r3
10000f68:	6a94      	ldr	r4, [r2, #40]	@ 0x28
10000f6a:	6a53      	ldr	r3, [r2, #36]	@ 0x24
10000f6c:	4563      	cmp	r3, ip
10000f6e:	d1fa      	bne.n	10000f66 <busy_wait_us+0x6>
10000f70:	1902      	adds	r2, r0, r4
10000f72:	4159      	adcs	r1, r3
10000f74:	f04f 0500 	mov.w	r5, #0
10000f78:	bf28      	it	cs
10000f7a:	2501      	movcs	r5, #1
10000f7c:	4b0e      	ldr	r3, [pc, #56]	@ (10000fb8 <busy_wait_us+0x58>)
10000f7e:	6a5b      	ldr	r3, [r3, #36]	@ 0x24
10000f80:	b1b5      	cbz	r5, 10000fb0 <busy_wait_us+0x50>
10000f82:	1c5a      	adds	r2, r3, #1
10000f84:	bf08      	it	eq
10000f86:	461a      	moveq	r2, r3
10000f88:	d008      	beq.n	10000f9c <busy_wait_us+0x3c>
10000f8a:	f04f 31ff 	mov.w	r1, #4294967295
10000f8e:	460a      	mov	r2, r1
10000f90:	4809      	ldr	r0, [pc, #36]	@ (10000fb8 <busy_wait_us+0x58>)
10000f92:	6a43      	ldr	r3, [r0, #36]	@ 0x24
10000f94:	428b      	cmp	r3, r1
10000f96:	d3fc      	bcc.n	10000f92 <busy_wait_us+0x32>
10000f98:	428b      	cmp	r3, r1
10000f9a:	d107      	bne.n	10000fac <busy_wait_us+0x4c>
10000f9c:	4906      	ldr	r1, [pc, #24]	@ (10000fb8 <busy_wait_us+0x58>)
10000f9e:	e002      	b.n	10000fa6 <busy_wait_us+0x46>
10000fa0:	6a48      	ldr	r0, [r1, #36]	@ 0x24
10000fa2:	4298      	cmp	r0, r3
10000fa4:	d102      	bne.n	10000fac <busy_wait_us+0x4c>
10000fa6:	6a88      	ldr	r0, [r1, #40]	@ 0x28
10000fa8:	4290      	cmp	r0, r2
10000faa:	d3f9      	bcc.n	10000fa0 <busy_wait_us+0x40>
10000fac:	bc30      	pop	{r4, r5}
10000fae:	4770      	bx	lr
10000fb0:	4299      	cmp	r1, r3
10000fb2:	d8ed      	bhi.n	10000f90 <busy_wait_us+0x30>
10000fb4:	e7f0      	b.n	10000f98 <busy_wait_us+0x38>
10000fb6:	bf00      	nop
10000fb8:	400b0000 	.word	0x400b0000

10000fbc <busy_wait_until>:
10000fbc:	4a07      	ldr	r2, [pc, #28]	@ (10000fdc <busy_wait_until+0x20>)
10000fbe:	6a53      	ldr	r3, [r2, #36]	@ 0x24
10000fc0:	4299      	cmp	r1, r3
10000fc2:	d8fc      	bhi.n	10000fbe <busy_wait_until+0x2>
10000fc4:	4299      	cmp	r1, r3
10000fc6:	d107      	bne.n	10000fd8 <busy_wait_until+0x1c>
10000fc8:	4b04      	ldr	r3, [pc, #16]	@ (10000fdc <busy_wait_until+0x20>)
10000fca:	e002      	b.n	10000fd2 <busy_wait_until+0x16>
10000fcc:	6a5a      	ldr	r2, [r3, #36]	@ 0x24
10000fce:	4291      	cmp	r1, r2
10000fd0:	d102      	bne.n	10000fd8 <busy_wait_until+0x1c>
10000fd2:	6a9a      	ldr	r2, [r3, #40]	@ 0x28
10000fd4:	4290      	cmp	r0, r2
10000fd6:	d8f9      	bhi.n	10000fcc <busy_wait_until+0x10>
10000fd8:	4770      	bx	lr
10000fda:	bf00      	nop
10000fdc:	400b0000 	.word	0x400b0000

10000fe0 <uart_init>:
10000fe0:	b5f8      	push	{r3, r4, r5, r6, r7, lr}
10000fe2:	4605      	mov	r5, r0
10000fe4:	2006      	movs	r0, #6
10000fe6:	460e      	mov	r6, r1
10000fe8:	f000 f8e4 	bl	100011b4 <clock_get_hz>
10000fec:	2800      	cmp	r0, #0
10000fee:	d042      	beq.n	10001076 <uart_init+0x96>
10000ff0:	4a35      	ldr	r2, [pc, #212]	@ (100010c8 <uart_init+0xe8>)
10000ff2:	4836      	ldr	r0, [pc, #216]	@ (100010cc <uart_init+0xec>)
10000ff4:	4295      	cmp	r5, r2
10000ff6:	bf14      	ite	ne
10000ff8:	f04f 6280 	movne.w	r2, #67108864	@ 0x4000000
10000ffc:	f04f 6200 	moveq.w	r2, #134217728	@ 0x8000000
10001000:	4b33      	ldr	r3, [pc, #204]	@ (100010d0 <uart_init+0xf0>)
10001002:	4934      	ldr	r1, [pc, #208]	@ (100010d4 <uart_init+0xf4>)
10001004:	6002      	str	r2, [r0, #0]
10001006:	601a      	str	r2, [r3, #0]
10001008:	688c      	ldr	r4, [r1, #8]
1000100a:	ea32 0404 	bics.w	r4, r2, r4
1000100e:	d1fb      	bne.n	10001008 <uart_init+0x28>
10001010:	4b2d      	ldr	r3, [pc, #180]	@ (100010c8 <uart_init+0xe8>)
10001012:	f44f 7180 	mov.w	r1, #256	@ 0x100
10001016:	1aeb      	subs	r3, r5, r3
10001018:	fab3 f383 	clz	r3, r3
1000101c:	4a2e      	ldr	r2, [pc, #184]	@ (100010d8 <uart_init+0xf8>)
1000101e:	095b      	lsrs	r3, r3, #5
10001020:	2006      	movs	r0, #6
10001022:	f822 1013 	strh.w	r1, [r2, r3, lsl #1]
10001026:	f000 f8c5 	bl	100011b4 <clock_get_hz>
1000102a:	00c3      	lsls	r3, r0, #3
1000102c:	fbb3 f3f6 	udiv	r3, r3, r6
10001030:	3301      	adds	r3, #1
10001032:	09da      	lsrs	r2, r3, #7
10001034:	d120      	bne.n	10001078 <uart_init+0x98>
10001036:	2640      	movs	r6, #64	@ 0x40
10001038:	2101      	movs	r1, #1
1000103a:	6269      	str	r1, [r5, #36]	@ 0x24
1000103c:	62aa      	str	r2, [r5, #40]	@ 0x28
1000103e:	6b2f      	ldr	r7, [r5, #48]	@ 0x30
10001040:	07fb      	lsls	r3, r7, #31
10001042:	d422      	bmi.n	1000108a <uart_init+0xaa>
10001044:	462b      	mov	r3, r5
10001046:	2200      	movs	r2, #0
10001048:	f853 1f2c 	ldr.w	r1, [r3, #44]!
1000104c:	2006      	movs	r0, #6
1000104e:	f503 5480 	add.w	r4, r3, #4096	@ 0x1000
10001052:	6022      	str	r2, [r4, #0]
10001054:	632f      	str	r7, [r5, #48]	@ 0x30
10001056:	f000 f8ad 	bl	100011b4 <clock_get_hz>
1000105a:	f240 3101 	movw	r1, #769	@ 0x301
1000105e:	2203      	movs	r2, #3
10001060:	0080      	lsls	r0, r0, #2
10001062:	fbb0 f0f6 	udiv	r0, r0, r6
10001066:	6aeb      	ldr	r3, [r5, #44]	@ 0x2c
10001068:	f083 0370 	eor.w	r3, r3, #112	@ 0x70
1000106c:	f003 037e 	and.w	r3, r3, #126	@ 0x7e
10001070:	6023      	str	r3, [r4, #0]
10001072:	6329      	str	r1, [r5, #48]	@ 0x30
10001074:	64aa      	str	r2, [r5, #72]	@ 0x48
10001076:	bdf8      	pop	{r3, r4, r5, r6, r7, pc}
10001078:	f64f 71fe 	movw	r1, #65534	@ 0xfffe
1000107c:	428a      	cmp	r2, r1
1000107e:	d91b      	bls.n	100010b8 <uart_init+0xd8>
10001080:	4622      	mov	r2, r4
10001082:	f64f 71ff 	movw	r1, #65535	@ 0xffff
10001086:	4e15      	ldr	r6, [pc, #84]	@ (100010dc <uart_init+0xfc>)
10001088:	e7d7      	b.n	1000103a <uart_init+0x5a>
1000108a:	f240 3201 	movw	r2, #769	@ 0x301
1000108e:	f505 5340 	add.w	r3, r5, #12288	@ 0x3000
10001092:	631a      	str	r2, [r3, #48]	@ 0x30
10001094:	6a6b      	ldr	r3, [r5, #36]	@ 0x24
10001096:	6aac      	ldr	r4, [r5, #40]	@ 0x28
10001098:	2006      	movs	r0, #6
1000109a:	eb04 1483 	add.w	r4, r4, r3, lsl #6
1000109e:	f000 f889 	bl	100011b4 <clock_get_hz>
100010a2:	4b0f      	ldr	r3, [pc, #60]	@ (100010e0 <uart_init+0x100>)
100010a4:	02a4      	lsls	r4, r4, #10
100010a6:	fba3 2300 	umull	r2, r3, r3, r0
100010aa:	0adb      	lsrs	r3, r3, #11
100010ac:	2100      	movs	r1, #0
100010ae:	fbb4 f0f3 	udiv	r0, r4, r3
100010b2:	f7ff ff55 	bl	10000f60 <busy_wait_us>
100010b6:	e7c5      	b.n	10001044 <uart_init+0x64>
100010b8:	f3c3 0345 	ubfx	r3, r3, #1, #6
100010bc:	4611      	mov	r1, r2
100010be:	eb03 1682 	add.w	r6, r3, r2, lsl #6
100010c2:	461a      	mov	r2, r3
100010c4:	e7b9      	b.n	1000103a <uart_init+0x5a>
100010c6:	bf00      	nop
100010c8:	40078000 	.word	0x40078000
100010cc:	40022000 	.word	0x40022000
100010d0:	40023000 	.word	0x40023000
100010d4:	40020000 	.word	0x40020000
100010d8:	2000084c 	.word	0x2000084c
100010dc:	003fffc0 	.word	0x003fffc0
100010e0:	8f2b7b75 	.word	0x8f2b7b75

100010e4 <clock_configure_undivided>:
100010e4:	eb00 0c40 	add.w	ip, r0, r0, lsl #1
100010e8:	ea4f 0c8c 	mov.w	ip, ip, lsl #2
100010ec:	f10c 4c80 	add.w	ip, ip, #1073741824	@ 0x40000000
100010f0:	f50c 3c80 	add.w	ip, ip, #65536	@ 0x10000
100010f4:	b5f0      	push	{r4, r5, r6, r7, lr}
100010f6:	4616      	mov	r6, r2
100010f8:	f8dc 2004 	ldr.w	r2, [ip, #4]
100010fc:	1f05      	subs	r5, r0, #4
100010fe:	f5b2 3f80 	cmp.w	r2, #65536	@ 0x10000
10001102:	bf38      	it	cc
10001104:	f44f 3280 	movcc.w	r2, #65536	@ 0x10000
10001108:	b2ed      	uxtb	r5, r5
1000110a:	bf38      	it	cc
1000110c:	f8cc 2004 	strcc.w	r2, [ip, #4]
10001110:	2d01      	cmp	r5, #1
10001112:	d92a      	bls.n	1000116a <clock_configure_undivided+0x86>
10001114:	f44f 6700 	mov.w	r7, #2048	@ 0x800
10001118:	4c25      	ldr	r4, [pc, #148]	@ (100011b0 <clock_configure_undivided+0xcc>)
1000111a:	f50c 5240 	add.w	r2, ip, #12288	@ 0x3000
1000111e:	6017      	str	r7, [r2, #0]
10001120:	f854 2020 	ldr.w	r2, [r4, r0, lsl #2]
10001124:	b9b2      	cbnz	r2, 10001154 <clock_configure_undivided+0x70>
10001126:	f8dc 2000 	ldr.w	r2, [ip]
1000112a:	2d01      	cmp	r5, #1
1000112c:	ea82 1246 	eor.w	r2, r2, r6, lsl #5
10001130:	f002 02e0 	and.w	r2, r2, #224	@ 0xe0
10001134:	f50c 5680 	add.w	r6, ip, #4096	@ 0x1000
10001138:	6032      	str	r2, [r6, #0]
1000113a:	d92a      	bls.n	10001192 <clock_configure_undivided+0xae>
1000113c:	f44f 6100 	mov.w	r1, #2048	@ 0x800
10001140:	f844 3020 	str.w	r3, [r4, r0, lsl #2]
10001144:	f44f 3380 	mov.w	r3, #65536	@ 0x10000
10001148:	f50c 5200 	add.w	r2, ip, #8192	@ 0x2000
1000114c:	6011      	str	r1, [r2, #0]
1000114e:	f8cc 3004 	str.w	r3, [ip, #4]
10001152:	bdf0      	pop	{r4, r5, r6, r7, pc}
10001154:	6967      	ldr	r7, [r4, #20]
10001156:	fbb7 fef2 	udiv	lr, r7, r2
1000115a:	f10e 0e01 	add.w	lr, lr, #1
1000115e:	eb0e 0e4e 	add.w	lr, lr, lr, lsl #1
10001162:	f1be 0e03 	subs.w	lr, lr, #3
10001166:	d2fc      	bcs.n	10001162 <clock_configure_undivided+0x7e>
10001168:	e7dd      	b.n	10001126 <clock_configure_undivided+0x42>
1000116a:	2901      	cmp	r1, #1
1000116c:	d1d2      	bne.n	10001114 <clock_configure_undivided+0x30>
1000116e:	2403      	movs	r4, #3
10001170:	f50c 5240 	add.w	r2, ip, #12288	@ 0x3000
10001174:	6014      	str	r4, [r2, #0]
10001176:	f8dc 2008 	ldr.w	r2, [ip, #8]
1000117a:	07d2      	lsls	r2, r2, #31
1000117c:	d5fb      	bpl.n	10001176 <clock_configure_undivided+0x92>
1000117e:	f8dc 2000 	ldr.w	r2, [ip]
10001182:	4c0b      	ldr	r4, [pc, #44]	@ (100011b0 <clock_configure_undivided+0xcc>)
10001184:	ea82 1246 	eor.w	r2, r2, r6, lsl #5
10001188:	f002 02e0 	and.w	r2, r2, #224	@ 0xe0
1000118c:	f50c 5680 	add.w	r6, ip, #4096	@ 0x1000
10001190:	6032      	str	r2, [r6, #0]
10001192:	2201      	movs	r2, #1
10001194:	f8dc 5000 	ldr.w	r5, [ip]
10001198:	404d      	eors	r5, r1
1000119a:	f005 0503 	and.w	r5, r5, #3
1000119e:	6035      	str	r5, [r6, #0]
100011a0:	fa02 f101 	lsl.w	r1, r2, r1
100011a4:	f8dc 2008 	ldr.w	r2, [ip, #8]
100011a8:	420a      	tst	r2, r1
100011aa:	d0fb      	beq.n	100011a4 <clock_configure_undivided+0xc0>
100011ac:	e7c6      	b.n	1000113c <clock_configure_undivided+0x58>
100011ae:	bf00      	nop
100011b0:	200007dc 	.word	0x200007dc

100011b4 <clock_get_hz>:
100011b4:	4b01      	ldr	r3, [pc, #4]	@ (100011bc <clock_get_hz+0x8>)
100011b6:	f853 0020 	ldr.w	r0, [r3, r0, lsl #2]
100011ba:	4770      	bx	lr
100011bc:	200007dc 	.word	0x200007dc

100011c0 <pll_init>:
100011c0:	b470      	push	{r4, r5, r6}
100011c2:	9d03      	ldr	r5, [sp, #12]
100011c4:	6804      	ldr	r4, [r0, #0]
100011c6:	032d      	lsls	r5, r5, #12
100011c8:	ea45 4503 	orr.w	r5, r5, r3, lsl #16
100011cc:	4b1b      	ldr	r3, [pc, #108]	@ (1000123c <pll_init+0x7c>)
100011ce:	2c00      	cmp	r4, #0
100011d0:	fbb3 f3f1 	udiv	r3, r3, r1
100011d4:	fbb2 f6f3 	udiv	r6, r2, r3
100011d8:	db1f      	blt.n	1000121a <pll_init+0x5a>
100011da:	4a19      	ldr	r2, [pc, #100]	@ (10001240 <pll_init+0x80>)
100011dc:	4b19      	ldr	r3, [pc, #100]	@ (10001244 <pll_init+0x84>)
100011de:	4290      	cmp	r0, r2
100011e0:	bf14      	ite	ne
100011e2:	f44f 4280 	movne.w	r2, #16384	@ 0x4000
100011e6:	f44f 4200 	moveq.w	r2, #32768	@ 0x8000
100011ea:	4c17      	ldr	r4, [pc, #92]	@ (10001248 <pll_init+0x88>)
100011ec:	601a      	str	r2, [r3, #0]
100011ee:	f503 5380 	add.w	r3, r3, #4096	@ 0x1000
100011f2:	601a      	str	r2, [r3, #0]
100011f4:	68a3      	ldr	r3, [r4, #8]
100011f6:	ea32 0303 	bics.w	r3, r2, r3
100011fa:	d1fb      	bne.n	100011f4 <pll_init+0x34>
100011fc:	2221      	movs	r2, #33	@ 0x21
100011fe:	f500 5340 	add.w	r3, r0, #12288	@ 0x3000
10001202:	3304      	adds	r3, #4
10001204:	6001      	str	r1, [r0, #0]
10001206:	6086      	str	r6, [r0, #8]
10001208:	601a      	str	r2, [r3, #0]
1000120a:	6802      	ldr	r2, [r0, #0]
1000120c:	2a00      	cmp	r2, #0
1000120e:	dafc      	bge.n	1000120a <pll_init+0x4a>
10001210:	2208      	movs	r2, #8
10001212:	60c5      	str	r5, [r0, #12]
10001214:	601a      	str	r2, [r3, #0]
10001216:	bc70      	pop	{r4, r5, r6}
10001218:	4770      	bx	lr
1000121a:	6803      	ldr	r3, [r0, #0]
1000121c:	f003 033f 	and.w	r3, r3, #63	@ 0x3f
10001220:	428b      	cmp	r3, r1
10001222:	d1da      	bne.n	100011da <pll_init+0x1a>
10001224:	6883      	ldr	r3, [r0, #8]
10001226:	f3c3 030b 	ubfx	r3, r3, #0, #12
1000122a:	42b3      	cmp	r3, r6
1000122c:	d1d5      	bne.n	100011da <pll_init+0x1a>
1000122e:	68c3      	ldr	r3, [r0, #12]
10001230:	f403 23ee 	and.w	r3, r3, #487424	@ 0x77000
10001234:	42ab      	cmp	r3, r5
10001236:	d1d0      	bne.n	100011da <pll_init+0x1a>
10001238:	e7ed      	b.n	10001216 <pll_init+0x56>
1000123a:	bf00      	nop
1000123c:	00b71b00 	.word	0x00b71b00
10001240:	40058000 	.word	0x40058000
10001244:	40022000 	.word	0x40022000
10001248:	40020000 	.word	0x40020000

1000124c <tick_start>:
1000124c:	2301      	movs	r3, #1
1000124e:	eb00 0040 	add.w	r0, r0, r0, lsl #1
10001252:	0080      	lsls	r0, r0, #2
10001254:	f100 4080 	add.w	r0, r0, #1073741824	@ 0x40000000
10001258:	f500 1084 	add.w	r0, r0, #1081344	@ 0x108000
1000125c:	6041      	str	r1, [r0, #4]
1000125e:	6003      	str	r3, [r0, #0]
10001260:	4770      	bx	lr
10001262:	bf00      	nop

10001264 <rom_func_lookup>:
10001264:	2300      	movs	r3, #0
10001266:	8adb      	ldrh	r3, [r3, #22]
10001268:	2200      	movs	r2, #0
1000126a:	e842 f200 	tt	r2, r2
1000126e:	0252      	lsls	r2, r2, #9
10001270:	d401      	bmi.n	10001276 <rom_func_lookup+0x12>
10001272:	2110      	movs	r1, #16
10001274:	4718      	bx	r3
10001276:	2104      	movs	r1, #4
10001278:	4718      	bx	r3
1000127a:	bf00      	nop

1000127c <runtime_init_bootrom_locking_enable>:
1000127c:	4a03      	ldr	r2, [pc, #12]	@ (1000128c <runtime_init_bootrom_locking_enable+0x10>)
1000127e:	f8d2 3828 	ldr.w	r3, [r2, #2088]	@ 0x828
10001282:	2b00      	cmp	r3, #0
10001284:	d0fb      	beq.n	1000127e <runtime_init_bootrom_locking_enable+0x2>
10001286:	f3bf 8f5f 	dmb	sy
1000128a:	4770      	bx	lr
1000128c:	400e0000 	.word	0x400e0000

10001290 <runtime_init_boot_locks_reset>:
10001290:	2100      	movs	r1, #0
10001292:	4b04      	ldr	r3, [pc, #16]	@ (100012a4 <runtime_init_boot_locks_reset+0x14>)
10001294:	4a04      	ldr	r2, [pc, #16]	@ (100012a8 <runtime_init_boot_locks_reset+0x18>)
10001296:	f3bf 8f5f 	dmb	sy
1000129a:	f843 1b04 	str.w	r1, [r3], #4
1000129e:	4293      	cmp	r3, r2
100012a0:	d1f9      	bne.n	10001296 <runtime_init_boot_locks_reset+0x6>
100012a2:	4770      	bx	lr
100012a4:	400e080c 	.word	0x400e080c
100012a8:	400e082c 	.word	0x400e082c

100012ac <xosc_init>:
100012ac:	b410      	push	{r4}
100012ae:	f44f 708d 	mov.w	r0, #282	@ 0x11a
100012b2:	f44f 642a 	mov.w	r4, #2720	@ 0xaa0
100012b6:	4a06      	ldr	r2, [pc, #24]	@ (100012d0 <xosc_init+0x24>)
100012b8:	4b06      	ldr	r3, [pc, #24]	@ (100012d4 <xosc_init+0x28>)
100012ba:	4907      	ldr	r1, [pc, #28]	@ (100012d8 <xosc_init+0x2c>)
100012bc:	6014      	str	r4, [r2, #0]
100012be:	60d0      	str	r0, [r2, #12]
100012c0:	6019      	str	r1, [r3, #0]
100012c2:	6853      	ldr	r3, [r2, #4]
100012c4:	2b00      	cmp	r3, #0
100012c6:	dafc      	bge.n	100012c2 <xosc_init+0x16>
100012c8:	f85d 4b04 	ldr.w	r4, [sp], #4
100012cc:	4770      	bx	lr
100012ce:	bf00      	nop
100012d0:	40048000 	.word	0x40048000
100012d4:	4004a000 	.word	0x4004a000
100012d8:	00fab000 	.word	0x00fab000

100012dc <first_per_core_initializer>:
100012dc:	4770      	bx	lr
100012de:	bf00      	nop

100012e0 <hard_assertion_failure>:
100012e0:	b508      	push	{r3, lr}
100012e2:	4801      	ldr	r0, [pc, #4]	@ (100012e8 <hard_assertion_failure+0x8>)
100012e4:	f7ff f836 	bl	10000354 <panic>
100012e8:	100036e4 	.word	0x100036e4

100012ec <runtime_run_initializers>:
100012ec:	b538      	push	{r3, r4, r5, lr}
100012ee:	4c05      	ldr	r4, [pc, #20]	@ (10001304 <runtime_run_initializers+0x18>)
100012f0:	4d05      	ldr	r5, [pc, #20]	@ (10001308 <runtime_run_initializers+0x1c>)
100012f2:	42ac      	cmp	r4, r5
100012f4:	d204      	bcs.n	10001300 <runtime_run_initializers+0x14>
100012f6:	f854 3b04 	ldr.w	r3, [r4], #4
100012fa:	4798      	blx	r3
100012fc:	42ac      	cmp	r4, r5
100012fe:	d3fa      	bcc.n	100012f6 <runtime_run_initializers+0xa>
10001300:	bd38      	pop	{r3, r4, r5, pc}
10001302:	bf00      	nop
10001304:	10003628 	.word	0x10003628
10001308:	10003668 	.word	0x10003668

1000130c <runtime_init_early_resets>:
1000130c:	b410      	push	{r4}
1000130e:	4807      	ldr	r0, [pc, #28]	@ (1000132c <runtime_init_early_resets+0x20>)
10001310:	4c07      	ldr	r4, [pc, #28]	@ (10001330 <runtime_init_early_resets+0x24>)
10001312:	4b08      	ldr	r3, [pc, #32]	@ (10001334 <runtime_init_early_resets+0x28>)
10001314:	4a08      	ldr	r2, [pc, #32]	@ (10001338 <runtime_init_early_resets+0x2c>)
10001316:	4909      	ldr	r1, [pc, #36]	@ (1000133c <runtime_init_early_resets+0x30>)
10001318:	6004      	str	r4, [r0, #0]
1000131a:	601a      	str	r2, [r3, #0]
1000131c:	688b      	ldr	r3, [r1, #8]
1000131e:	ea32 0303 	bics.w	r3, r2, r3
10001322:	d1fb      	bne.n	1000131c <runtime_init_early_resets+0x10>
10001324:	f85d 4b04 	ldr.w	r4, [sp], #4
10001328:	4770      	bx	lr
1000132a:	bf00      	nop
1000132c:	40022000 	.word	0x40022000
10001330:	efef3b7f 	.word	0xefef3b7f
10001334:	40023000 	.word	0x40023000
10001338:	03f3fff6 	.word	0x03f3fff6
1000133c:	40020000 	.word	0x40020000

10001340 <runtime_init_usb_power_down>:
10001340:	4b04      	ldr	r3, [pc, #16]	@ (10001354 <runtime_init_usb_power_down+0x14>)
10001342:	6cdb      	ldr	r3, [r3, #76]	@ 0x4c
10001344:	f5b3 4f00 	cmp.w	r3, #32768	@ 0x8000
10001348:	d103      	bne.n	10001352 <runtime_init_usb_power_down+0x12>
1000134a:	f44f 2280 	mov.w	r2, #262144	@ 0x40000
1000134e:	4b02      	ldr	r3, [pc, #8]	@ (10001358 <runtime_init_usb_power_down+0x18>)
10001350:	64da      	str	r2, [r3, #76]	@ 0x4c
10001352:	4770      	bx	lr
10001354:	50110000 	.word	0x50110000
10001358:	50112000 	.word	0x50112000

1000135c <runtime_init_per_core_enable_coprocessors>:
1000135c:	f04f 22e0 	mov.w	r2, #3758153728	@ 0xe000e000
10001360:	4b04      	ldr	r3, [pc, #16]	@ (10001374 <runtime_init_per_core_enable_coprocessors+0x18>)
10001362:	f8d2 1d88 	ldr.w	r1, [r2, #3464]	@ 0xd88
10001366:	430b      	orrs	r3, r1
10001368:	f8c2 3d88 	str.w	r3, [r2, #3464]	@ 0xd88
1000136c:	ee10 0430 			dcp_rcmp r0
10001370:	4770      	bx	lr
10001372:	bf00      	nop
10001374:	00300303 	.word	0x00300303

10001378 <runtime_init_post_clock_resets>:
10001378:	f06f 4160 	mvn.w	r1, #3758096384	@ 0xe0000000
1000137c:	4b04      	ldr	r3, [pc, #16]	@ (10001390 <runtime_init_post_clock_resets+0x18>)
1000137e:	4a05      	ldr	r2, [pc, #20]	@ (10001394 <runtime_init_post_clock_resets+0x1c>)
10001380:	6019      	str	r1, [r3, #0]
10001382:	6893      	ldr	r3, [r2, #8]
10001384:	43db      	mvns	r3, r3
10001386:	f033 4360 	bics.w	r3, r3, #3758096384	@ 0xe0000000
1000138a:	d1fa      	bne.n	10001382 <runtime_init_post_clock_resets+0xa>
1000138c:	4770      	bx	lr
1000138e:	bf00      	nop
10001390:	40023000 	.word	0x40023000
10001394:	40020000 	.word	0x40020000

10001398 <runtime_init_bootrom_reset>:
10001398:	b510      	push	{r4, lr}
1000139a:	f245 2053 	movw	r0, #21075	@ 0x5253
1000139e:	f7ff ff61 	bl	10001264 <rom_func_lookup>
100013a2:	e8bd 4010 	ldmia.w	sp!, {r4, lr}
100013a6:	4603      	mov	r3, r0
100013a8:	2004      	movs	r0, #4
100013aa:	4718      	bx	r3

100013ac <runtime_init_per_core_bootrom_reset>:
100013ac:	b510      	push	{r4, lr}
100013ae:	f245 2053 	movw	r0, #21075	@ 0x5253
100013b2:	f7ff ff57 	bl	10001264 <rom_func_lookup>
100013b6:	e8bd 4010 	ldmia.w	sp!, {r4, lr}
100013ba:	4603      	mov	r3, r0
100013bc:	2001      	movs	r0, #1
100013be:	4718      	bx	r3

100013c0 <runtime_init_spin_locks_reset>:
100013c0:	f7ff b820 	b.w	10000404 <spin_locks_reset>

100013c4 <runtime_init_install_ram_vector_table>:
100013c4:	4914      	ldr	r1, [pc, #80]	@ (10001418 <runtime_init_install_ram_vector_table+0x54>)
100013c6:	4b15      	ldr	r3, [pc, #84]	@ (1000141c <runtime_init_install_ram_vector_table+0x58>)
100013c8:	b570      	push	{r4, r5, r6, lr}
100013ca:	1a5c      	subs	r4, r3, r1
100013cc:	10a6      	asrs	r6, r4, #2
100013ce:	2e44      	cmp	r6, #68	@ 0x44
100013d0:	4632      	mov	r2, r6
100013d2:	bf28      	it	cs
100013d4:	2244      	movcs	r2, #68	@ 0x44
100013d6:	4d12      	ldr	r5, [pc, #72]	@ (10001420 <runtime_init_install_ram_vector_table+0x5c>)
100013d8:	0092      	lsls	r2, r2, #2
100013da:	4628      	mov	r0, r5
100013dc:	f002 f872 	bl	100034c4 <memcpy>
100013e0:	f5b4 7f86 	cmp.w	r4, #268	@ 0x10c
100013e4:	d813      	bhi.n	1000140e <runtime_init_install_ram_vector_table+0x4a>
100013e6:	4a0f      	ldr	r2, [pc, #60]	@ (10001424 <runtime_init_install_ram_vector_table+0x60>)
100013e8:	f1c6 0044 	rsb	r0, r6, #68	@ 0x44
100013ec:	d012      	beq.n	10001414 <runtime_init_install_ram_vector_table+0x50>
100013ee:	192b      	adds	r3, r5, r4
100013f0:	0841      	lsrs	r1, r0, #1
100013f2:	eb03 01c1 	add.w	r1, r3, r1, lsl #3
100013f6:	e9c3 2200 	strd	r2, r2, [r3]
100013fa:	3308      	adds	r3, #8
100013fc:	428b      	cmp	r3, r1
100013fe:	d1fa      	bne.n	100013f6 <runtime_init_install_ram_vector_table+0x32>
10001400:	07c3      	lsls	r3, r0, #31
10001402:	d504      	bpl.n	1000140e <runtime_init_install_ram_vector_table+0x4a>
10001404:	f020 0001 	bic.w	r0, r0, #1
10001408:	4430      	add	r0, r6
1000140a:	f845 2020 	str.w	r2, [r5, r0, lsl #2]
1000140e:	4b06      	ldr	r3, [pc, #24]	@ (10001428 <runtime_init_install_ram_vector_table+0x64>)
10001410:	609d      	str	r5, [r3, #8]
10001412:	bd70      	pop	{r4, r5, r6, pc}
10001414:	2043      	movs	r0, #67	@ 0x43
10001416:	e7f8      	b.n	1000140a <runtime_init_install_ram_vector_table+0x46>
10001418:	10000000 	.word	0x10000000
1000141c:	10000110 	.word	0x10000110
10001420:	20000000 	.word	0x20000000
10001424:	10000111 	.word	0x10000111
10001428:	e000ed00 	.word	0xe000ed00

1000142c <runtime_init_clocks>:
1000142c:	2300      	movs	r3, #0
1000142e:	b570      	push	{r4, r5, r6, lr}
10001430:	4c2b      	ldr	r4, [pc, #172]	@ (100014e0 <runtime_init_clocks+0xb4>)
10001432:	b082      	sub	sp, #8
10001434:	f8c4 3084 	str.w	r3, [r4, #132]	@ 0x84
10001438:	f7ff ff38 	bl	100012ac <xosc_init>
1000143c:	2201      	movs	r2, #1
1000143e:	4b29      	ldr	r3, [pc, #164]	@ (100014e4 <runtime_init_clocks+0xb8>)
10001440:	63da      	str	r2, [r3, #60]	@ 0x3c
10001442:	6c63      	ldr	r3, [r4, #68]	@ 0x44
10001444:	2b01      	cmp	r3, #1
10001446:	d1fc      	bne.n	10001442 <runtime_init_clocks+0x16>
10001448:	2103      	movs	r1, #3
1000144a:	4a26      	ldr	r2, [pc, #152]	@ (100014e4 <runtime_init_clocks+0xb8>)
1000144c:	4b24      	ldr	r3, [pc, #144]	@ (100014e0 <runtime_init_clocks+0xb4>)
1000144e:	6311      	str	r1, [r2, #48]	@ 0x30
10001450:	6b9c      	ldr	r4, [r3, #56]	@ 0x38
10001452:	2c01      	cmp	r4, #1
10001454:	d1fc      	bne.n	10001450 <runtime_init_clocks+0x24>
10001456:	2602      	movs	r6, #2
10001458:	2505      	movs	r5, #5
1000145a:	4621      	mov	r1, r4
1000145c:	2305      	movs	r3, #5
1000145e:	4a22      	ldr	r2, [pc, #136]	@ (100014e8 <runtime_init_clocks+0xbc>)
10001460:	4822      	ldr	r0, [pc, #136]	@ (100014ec <runtime_init_clocks+0xc0>)
10001462:	9600      	str	r6, [sp, #0]
10001464:	f7ff feac 	bl	100011c0 <pll_init>
10001468:	4621      	mov	r1, r4
1000146a:	462b      	mov	r3, r5
1000146c:	4a20      	ldr	r2, [pc, #128]	@ (100014f0 <runtime_init_clocks+0xc4>)
1000146e:	4821      	ldr	r0, [pc, #132]	@ (100014f4 <runtime_init_clocks+0xc8>)
10001470:	9500      	str	r5, [sp, #0]
10001472:	f7ff fea5 	bl	100011c0 <pll_init>
10001476:	2200      	movs	r2, #0
10001478:	2004      	movs	r0, #4
1000147a:	4631      	mov	r1, r6
1000147c:	4b1e      	ldr	r3, [pc, #120]	@ (100014f8 <runtime_init_clocks+0xcc>)
1000147e:	f7ff fe31 	bl	100010e4 <clock_configure_undivided>
10001482:	4621      	mov	r1, r4
10001484:	4628      	mov	r0, r5
10001486:	2200      	movs	r2, #0
10001488:	4b1c      	ldr	r3, [pc, #112]	@ (100014fc <runtime_init_clocks+0xd0>)
1000148a:	f7ff fe2b 	bl	100010e4 <clock_configure_undivided>
1000148e:	2200      	movs	r2, #0
10001490:	2008      	movs	r0, #8
10001492:	4611      	mov	r1, r2
10001494:	4b1a      	ldr	r3, [pc, #104]	@ (10001500 <runtime_init_clocks+0xd4>)
10001496:	f7ff fe25 	bl	100010e4 <clock_configure_undivided>
1000149a:	2200      	movs	r2, #0
1000149c:	2009      	movs	r0, #9
1000149e:	4611      	mov	r1, r2
100014a0:	4b17      	ldr	r3, [pc, #92]	@ (10001500 <runtime_init_clocks+0xd4>)
100014a2:	f7ff fe1f 	bl	100010e4 <clock_configure_undivided>
100014a6:	2200      	movs	r2, #0
100014a8:	2006      	movs	r0, #6
100014aa:	4611      	mov	r1, r2
100014ac:	4b13      	ldr	r3, [pc, #76]	@ (100014fc <runtime_init_clocks+0xd0>)
100014ae:	f7ff fe19 	bl	100010e4 <clock_configure_undivided>
100014b2:	2200      	movs	r2, #0
100014b4:	4b11      	ldr	r3, [pc, #68]	@ (100014fc <runtime_init_clocks+0xd0>)
100014b6:	2007      	movs	r0, #7
100014b8:	4611      	mov	r1, r2
100014ba:	f7ff fe13 	bl	100010e4 <clock_configure_undivided>
100014be:	2004      	movs	r0, #4
100014c0:	f7ff fe78 	bl	100011b4 <clock_get_hz>
100014c4:	2400      	movs	r4, #0
100014c6:	4b0f      	ldr	r3, [pc, #60]	@ (10001504 <runtime_init_clocks+0xd8>)
100014c8:	fba3 3500 	umull	r3, r5, r3, r0
100014cc:	0cad      	lsrs	r5, r5, #18
100014ce:	b2e0      	uxtb	r0, r4
100014d0:	4629      	mov	r1, r5
100014d2:	3401      	adds	r4, #1
100014d4:	f7ff feba 	bl	1000124c <tick_start>
100014d8:	2c06      	cmp	r4, #6
100014da:	d1f8      	bne.n	100014ce <runtime_init_clocks+0xa2>
100014dc:	b002      	add	sp, #8
100014de:	bd70      	pop	{r4, r5, r6, pc}
100014e0:	40010000 	.word	0x40010000
100014e4:	40013000 	.word	0x40013000
100014e8:	59682f00 	.word	0x59682f00
100014ec:	40050000 	.word	0x40050000
100014f0:	47868c00 	.word	0x47868c00
100014f4:	40058000 	.word	0x40058000
100014f8:	00b71b00 	.word	0x00b71b00
100014fc:	08f0d180 	.word	0x08f0d180
10001500:	02dc6c00 	.word	0x02dc6c00
10001504:	431bde83 	.word	0x431bde83

10001508 <generic_save_state>:
10001508:	b086      	sub	sp, #24
1000150a:	b403      	push	{r0, r1}
1000150c:	fc51 0408 	dcp_pxmd r0, r1
10001510:	e9cd 0102 	strd	r0, r1, [sp, #8]
10001514:	fc51 0409 	dcp_pymd r0, r1
10001518:	e9cd 0104 	strd	r0, r1, [sp, #16]
1000151c:	ec51 040a 	dcp_refd r0, r1
10001520:	e9cd 0106 	strd	r0, r1, [sp, #24]
10001524:	bc03      	pop	{r0, r1}
10001526:	47f0      	blx	lr

10001528 <generic_restore_state>:
10001528:	e8bd 5000 	ldmia.w	sp!, {ip, lr}
1000152c:	ec4e c400 	dcp_wxmd ip, lr
10001530:	e8bd 5000 	ldmia.w	sp!, {ip, lr}
10001534:	ec4e c401 	dcp_wymd ip, lr
10001538:	e8bd 5000 	ldmia.w	sp!, {ip, lr}
1000153c:	ec4e c402 	dcp_wefd ip, lr
10001540:	bd00      	pop	{pc}
10001542:	0000      	movs	r0, r0
10001544:	b500      	push	{lr}
10001546:	f7ff ffdf 	bl	10001508 <generic_save_state>
1000154a:	e002      	b.n	10001552 <__wrap___aeabi_dadd+0x6>

1000154c <__wrap___aeabi_dadd>:
1000154c:	fe10 f430 	dcp_pcmp APSR_nzcv
10001550:	d4f8      	bmi.n	10001544 <generic_restore_state+0x1c>
10001552:	ec41 0410 	dcp_wxup r0, r1
10001556:	ec43 2411 	dcp_wyup r2, r3
1000155a:	ee00 0401 			dcp_add0
1000155e:	ee10 0401 			dcp_add1
10001562:	ee80 0420 			dcp_nrdd
10001566:	ec51 0410 	dcp_rdda r0, r1
1000156a:	4770      	bx	lr
1000156c:	b500      	push	{lr}
1000156e:	f7ff ffcb 	bl	10001508 <generic_save_state>
10001572:	e002      	b.n	1000157a <__wrap___aeabi_dsub+0x6>

10001574 <__wrap___aeabi_dsub>:
10001574:	fe10 f430 	dcp_pcmp APSR_nzcv
10001578:	d4f8      	bmi.n	1000156c <__wrap___aeabi_dadd+0x20>
1000157a:	ec41 0410 	dcp_wxup r0, r1
1000157e:	ec43 2411 	dcp_wyup r2, r3
10001582:	ee00 0401 			dcp_add0
10001586:	ee10 0421 			dcp_sub1
1000158a:	ee80 0420 			dcp_nrdd
1000158e:	ec51 0430 	dcp_rdds r0, r1
10001592:	4770      	bx	lr
10001594:	b500      	push	{lr}
10001596:	f7ff ffb7 	bl	10001508 <generic_save_state>
1000159a:	e002      	b.n	100015a2 <__wrap___aeabi_dmul+0x6>

1000159c <__wrap___aeabi_dmul>:
1000159c:	fe10 f430 	dcp_pcmp APSR_nzcv
100015a0:	d4f8      	bmi.n	10001594 <__wrap___aeabi_dsub+0x20>
100015a2:	b510      	push	{r4, lr}
100015a4:	ec41 0410 	dcp_wxup r0, r1
100015a8:	ec43 2411 	dcp_wyup r2, r3
100015ac:	ec51 0404 	dcp_rxms r0, r1, #0x0
100015b0:	ec53 2405 	dcp_ryms r2, r3, #0x0
100015b4:	fba0 4c02 	umull	r4, ip, r0, r2
100015b8:	f05f 0e00 	movs.w	lr, #0
100015bc:	fbe0 ce03 	umlal	ip, lr, r0, r3
100015c0:	fbe1 ce02 	umlal	ip, lr, r1, r2
100015c4:	ec4c 4420 	dcp_wxms r4, ip
100015c8:	2400      	movs	r4, #0
100015ca:	fbe1 e403 	umlal	lr, r4, r1, r3
100015ce:	ec44 e430 	dcp_wxmo lr, r4
100015d2:	ee80 0420 			dcp_nrdd
100015d6:	ec51 0450 	dcp_rddm r0, r1
100015da:	e8bd 4010 	ldmia.w	sp!, {r4, lr}
100015de:	4770      	bx	lr
100015e0:	b500      	push	{lr}
100015e2:	f7ff ff91 	bl	10001508 <generic_save_state>
100015e6:	e002      	b.n	100015ee <__wrap___aeabi_ddiv+0x6>

100015e8 <__wrap___aeabi_ddiv>:
100015e8:	fe10 f430 	dcp_pcmp APSR_nzcv
100015ec:	d4f8      	bmi.n	100015e0 <__wrap___aeabi_dmul+0x44>
100015ee:	ec41 0410 	dcp_wxup r0, r1
100015f2:	ec43 2411 	dcp_wyup r2, r3
100015f6:	ec51 0421 	dcp_rymr r0, r1
100015fa:	fba0 1201 	umull	r1, r2, r0, r1
100015fe:	ea6f 0282 	mvn.w	r2, r2, lsl #2
10001602:	fb52 0010 	smmlar	r0, r2, r0, r0
10001606:	fb52 f212 	smmulr	r2, r2, r2
1000160a:	fb52 0010 	smmlar	r0, r2, r0, r0
1000160e:	eba0 7cd0 	sub.w	ip, r0, r0, lsr #31
10001612:	ec53 2404 	dcp_rxms r2, r3, #0x0
10001616:	fb5c f113 	smmulr	r1, ip, r3
1000161a:	ec53 2415 	dcp_ryms r2, r3, #0x1
1000161e:	fba1 2002 	umull	r2, r0, r1, r2
10001622:	fb01 0003 	mla	r0, r1, r3, r0
10001626:	ec53 2444 	dcp_rxms r2, r3, #0x4
1000162a:	eba2 0000 	sub.w	r0, r2, r0
1000162e:	fb50 f21c 	smmulr	r2, r0, ip
10001632:	ea4f 1311 	mov.w	r3, r1, lsr #4
10001636:	eb12 7001 	adds.w	r0, r2, r1, lsl #28
1000163a:	eb43 71e2 	adc.w	r1, r3, r2, asr #31
1000163e:	ea40 5051 	orr.w	r0, r0, r1, lsr #21
10001642:	ea20 5091 	bic.w	r0, r0, r1, lsr #22
10001646:	f020 0007 	bic.w	r0, r0, #7
1000164a:	ec53 2475 	dcp_ryms r2, r3, #0x7
1000164e:	fba0 3c02 	umull	r3, ip, r0, r2
10001652:	ec53 2475 	dcp_ryms r2, r3, #0x7
10001656:	fb00 cc03 	mla	ip, r0, r3, ip
1000165a:	fb01 cc02 	mla	ip, r1, r2, ip
1000165e:	ec53 2404 	dcp_rxms r2, r3, #0x0
10001662:	ebac 4c82 	sub.w	ip, ip, r2, lsl #18
10001666:	ea40 705c 	orr.w	r0, r0, ip, lsr #29
1000166a:	f1a0 0001 	sub.w	r0, r0, #1
1000166e:	ec41 0440 	dcp_wxdd r0, r1
10001672:	ee80 0420 			dcp_nrdd
10001676:	ec51 0470 	dcp_rddd r0, r1
1000167a:	4770      	bx	lr
1000167c:	b500      	push	{lr}
1000167e:	f7ff ff43 	bl	10001508 <generic_save_state>
10001682:	e002      	b.n	1000168a <__wrap___aeabi_i2d+0x6>

10001684 <__wrap___aeabi_i2d>:
10001684:	fe10 f430 	dcp_pcmp APSR_nzcv
10001688:	d4f8      	bmi.n	1000167c <__wrap___aeabi_ddiv+0x94>
1000168a:	ec40 0470 	dcp_wxic r0, r0
1000168e:	ee00 0401 			dcp_add0
10001692:	ee10 0421 			dcp_sub1
10001696:	ee80 0420 			dcp_nrdd
1000169a:	ec51 0430 	dcp_rdds r0, r1
1000169e:	4770      	bx	lr
100016a0:	b500      	push	{lr}
100016a2:	f7ff ff31 	bl	10001508 <generic_save_state>
100016a6:	e002      	b.n	100016ae <__wrap___aeabi_ui2d+0x6>

100016a8 <__wrap___aeabi_ui2d>:
100016a8:	fe10 f430 	dcp_pcmp APSR_nzcv
100016ac:	d4f8      	bmi.n	100016a0 <__wrap___aeabi_i2d+0x1c>
100016ae:	ec40 0460 	dcp_wxuc r0, r0
100016b2:	ee00 0401 			dcp_add0
100016b6:	ee10 0421 			dcp_sub1
100016ba:	ee80 0420 			dcp_nrdd
100016be:	ec51 0430 	dcp_rdds r0, r1
100016c2:	4770      	bx	lr
100016c4:	b500      	push	{lr}
100016c6:	f7ff ff1f 	bl	10001508 <generic_save_state>
100016ca:	e002      	b.n	100016d2 <double2int_z_entry>

100016cc <__wrap___aeabi_d2iz>:
100016cc:	fe10 f430 	dcp_pcmp APSR_nzcv
100016d0:	d4f8      	bmi.n	100016c4 <__wrap___aeabi_ui2d+0x1c>

100016d2 <double2int_z_entry>:
100016d2:	ec41 0480 	dcp_wxdc r0, r1
100016d6:	ee00 0401 			dcp_add0
100016da:	ee10 0401 			dcp_add1
100016de:	ee80 0440 			dcp_ntdc
100016e2:	ee10 0413 			dcp_rdic r0
100016e6:	4770      	bx	lr
100016e8:	b500      	push	{lr}
100016ea:	f7ff ff0d 	bl	10001508 <generic_save_state>
100016ee:	e002      	b.n	100016f6 <double2uint_z_entry>

100016f0 <__wrap___aeabi_d2uiz>:
100016f0:	fe10 f430 	dcp_pcmp APSR_nzcv
100016f4:	d4f8      	bmi.n	100016e8 <double2int_z_entry+0x16>

100016f6 <double2uint_z_entry>:
100016f6:	ec41 0480 	dcp_wxdc r0, r1
100016fa:	ee00 0401 			dcp_add0
100016fe:	ee10 0401 			dcp_add1
10001702:	ee80 0440 			dcp_ntdc
10001706:	ee10 0433 			dcp_rduc r0
1000170a:	4770      	bx	lr
1000170c:	b500      	push	{lr}
1000170e:	f7ff fefb 	bl	10001508 <generic_save_state>
10001712:	e002      	b.n	1000171a <__wrap___aeabi_dcmpun+0x6>

10001714 <__wrap___aeabi_dcmpun>:
10001714:	fe10 f430 	dcp_pcmp APSR_nzcv
10001718:	d4f8      	bmi.n	1000170c <double2uint_z_entry+0x16>
1000171a:	ec41 0410 	dcp_wxup r0, r1
1000171e:	ec43 2411 	dcp_wyup r2, r3
10001722:	ee00 0401 			dcp_add0
10001726:	ee10 0430 			dcp_rcmp r0
1000172a:	f3c0 7000 	ubfx	r0, r0, #28, #1
1000172e:	4770      	bx	lr
10001730:	b500      	push	{lr}
10001732:	f7ff fee9 	bl	10001508 <generic_save_state>
10001736:	e002      	b.n	1000173e <__wrap___aeabi_dcmplt+0x6>

10001738 <__wrap___aeabi_dcmplt>:
10001738:	fe10 f430 	dcp_pcmp APSR_nzcv
1000173c:	d4f8      	bmi.n	10001730 <__wrap___aeabi_dcmpun+0x1c>
1000173e:	ec43 2410 	dcp_wxup r2, r3
10001742:	ec41 0411 	dcp_wyup r0, r1
10001746:	ee00 0401 			dcp_add0
1000174a:	ee10 f430 			dcp_rcmp APSR_nzcv
1000174e:	bf8c      	ite	hi
10001750:	2001      	movhi	r0, #1
10001752:	2000      	movls	r0, #0
10001754:	4770      	bx	lr
10001756:	bf00      	nop
10001758:	b500      	push	{lr}
1000175a:	f7ff fed5 	bl	10001508 <generic_save_state>
1000175e:	e002      	b.n	10001766 <__wrap___aeabi_dcmple+0x6>

10001760 <__wrap___aeabi_dcmple>:
10001760:	fe10 f430 	dcp_pcmp APSR_nzcv
10001764:	d4f8      	bmi.n	10001758 <__wrap___aeabi_dcmplt+0x20>
10001766:	ec43 2410 	dcp_wxup r2, r3
1000176a:	ec41 0411 	dcp_wyup r0, r1
1000176e:	ee00 0401 			dcp_add0
10001772:	ee10 f430 			dcp_rcmp APSR_nzcv
10001776:	bf2c      	ite	cs
10001778:	2001      	movcs	r0, #1
1000177a:	2000      	movcc	r0, #0
1000177c:	4770      	bx	lr
1000177e:	bf00      	nop
10001780:	b500      	push	{lr}
10001782:	f7ff fec1 	bl	10001508 <generic_save_state>
10001786:	e002      	b.n	1000178e <__wrap___aeabi_dcmpge+0x6>

10001788 <__wrap___aeabi_dcmpge>:
10001788:	fe10 f430 	dcp_pcmp APSR_nzcv
1000178c:	d4f8      	bmi.n	10001780 <__wrap___aeabi_dcmple+0x20>
1000178e:	ec41 0410 	dcp_wxup r0, r1
10001792:	ec43 2411 	dcp_wyup r2, r3
10001796:	ee00 0401 			dcp_add0
1000179a:	ee10 f430 			dcp_rcmp APSR_nzcv
1000179e:	bf2c      	ite	cs
100017a0:	2001      	movcs	r0, #1
100017a2:	2000      	movcc	r0, #0
100017a4:	4770      	bx	lr
100017a6:	bf00      	nop
100017a8:	b500      	push	{lr}
100017aa:	f7ff fead 	bl	10001508 <generic_save_state>
100017ae:	e002      	b.n	100017b6 <__wrap___aeabi_dcmpgt+0x6>

100017b0 <__wrap___aeabi_dcmpgt>:
100017b0:	fe10 f430 	dcp_pcmp APSR_nzcv
100017b4:	d4f8      	bmi.n	100017a8 <__wrap___aeabi_dcmpge+0x20>
100017b6:	ec41 0410 	dcp_wxup r0, r1
100017ba:	ec43 2411 	dcp_wyup r2, r3
100017be:	ee00 0401 			dcp_add0
100017c2:	ee10 f430 			dcp_rcmp APSR_nzcv
100017c6:	bf8c      	ite	hi
100017c8:	2001      	movhi	r0, #1
100017ca:	2000      	movls	r0, #0
100017cc:	4770      	bx	lr
100017ce:	bf00      	nop

100017d0 <_out_null>:
100017d0:	4770      	bx	lr
100017d2:	bf00      	nop

100017d4 <_out_rev>:
100017d4:	e92d 4ff0 	stmdb	sp!, {r4, r5, r6, r7, r8, r9, sl, fp, lr}
100017d8:	b083      	sub	sp, #12
100017da:	4699      	mov	r9, r3
100017dc:	e9dd ab0d 	ldrd	sl, fp, [sp, #52]	@ 0x34
100017e0:	9b0f      	ldr	r3, [sp, #60]	@ 0x3c
100017e2:	4688      	mov	r8, r1
100017e4:	4611      	mov	r1, r2
100017e6:	079a      	lsls	r2, r3, #30
100017e8:	4607      	mov	r7, r0
100017ea:	d116      	bne.n	1000181a <_out_rev+0x46>
100017ec:	45da      	cmp	sl, fp
100017ee:	d23a      	bcs.n	10001866 <_out_rev+0x92>
100017f0:	460c      	mov	r4, r1
100017f2:	460d      	mov	r5, r1
100017f4:	ebab 060a 	sub.w	r6, fp, sl
100017f8:	440e      	add	r6, r1
100017fa:	4622      	mov	r2, r4
100017fc:	464b      	mov	r3, r9
100017fe:	4641      	mov	r1, r8
10001800:	2020      	movs	r0, #32
10001802:	3401      	adds	r4, #1
10001804:	47b8      	blx	r7
10001806:	42b4      	cmp	r4, r6
10001808:	d1f7      	bne.n	100017fa <_out_rev+0x26>
1000180a:	4629      	mov	r1, r5
1000180c:	f1ba 0f00 	cmp.w	sl, #0
10001810:	d108      	bne.n	10001824 <_out_rev+0x50>
10001812:	4620      	mov	r0, r4
10001814:	b003      	add	sp, #12
10001816:	e8bd 8ff0 	ldmia.w	sp!, {r4, r5, r6, r7, r8, r9, sl, fp, pc}
1000181a:	460c      	mov	r4, r1
1000181c:	f1ba 0f00 	cmp.w	sl, #0
10001820:	d010      	beq.n	10001844 <_out_rev+0x70>
10001822:	460e      	mov	r6, r1
10001824:	4655      	mov	r5, sl
10001826:	9b0c      	ldr	r3, [sp, #48]	@ 0x30
10001828:	442e      	add	r6, r5
1000182a:	449a      	add	sl, r3
1000182c:	9101      	str	r1, [sp, #4]
1000182e:	1b72      	subs	r2, r6, r5
10001830:	464b      	mov	r3, r9
10001832:	3d01      	subs	r5, #1
10001834:	4641      	mov	r1, r8
10001836:	f81a 0d01 	ldrb.w	r0, [sl, #-1]!
1000183a:	4634      	mov	r4, r6
1000183c:	47b8      	blx	r7
1000183e:	2d00      	cmp	r5, #0
10001840:	d1f5      	bne.n	1000182e <_out_rev+0x5a>
10001842:	9901      	ldr	r1, [sp, #4]
10001844:	9b0f      	ldr	r3, [sp, #60]	@ 0x3c
10001846:	079b      	lsls	r3, r3, #30
10001848:	d5e3      	bpl.n	10001812 <_out_rev+0x3e>
1000184a:	1a65      	subs	r5, r4, r1
1000184c:	45ab      	cmp	fp, r5
1000184e:	d9e0      	bls.n	10001812 <_out_rev+0x3e>
10001850:	4622      	mov	r2, r4
10001852:	464b      	mov	r3, r9
10001854:	4641      	mov	r1, r8
10001856:	2020      	movs	r0, #32
10001858:	3501      	adds	r5, #1
1000185a:	47b8      	blx	r7
1000185c:	455d      	cmp	r5, fp
1000185e:	f104 0401 	add.w	r4, r4, #1
10001862:	d3f5      	bcc.n	10001850 <_out_rev+0x7c>
10001864:	e7d5      	b.n	10001812 <_out_rev+0x3e>
10001866:	460c      	mov	r4, r1
10001868:	f1ba 0f00 	cmp.w	sl, #0
1000186c:	d1d9      	bne.n	10001822 <_out_rev+0x4e>
1000186e:	e7d0      	b.n	10001812 <_out_rev+0x3e>

10001870 <_ntoa_format>:
10001870:	e92d 4ff0 	stmdb	sp!, {r4, r5, r6, r7, r8, r9, sl, fp, lr}
10001874:	9f0f      	ldr	r7, [sp, #60]	@ 0x3c
10001876:	f8dd 8024 	ldr.w	r8, [sp, #36]	@ 0x24
1000187a:	f017 0f02 	tst.w	r7, #2
1000187e:	9c0a      	ldr	r4, [sp, #40]	@ 0x28
10001880:	f89d a02c 	ldrb.w	sl, [sp, #44]	@ 0x2c
10001884:	9d0e      	ldr	r5, [sp, #56]	@ 0x38
10001886:	e9dd 960c 	ldrd	r9, r6, [sp, #48]	@ 0x30
1000188a:	d144      	bne.n	10001916 <_ntoa_format+0xa6>
1000188c:	bbf5      	cbnz	r5, 1000190c <_ntoa_format+0x9c>
1000188e:	42b4      	cmp	r4, r6
10001890:	d241      	bcs.n	10001916 <_ntoa_format+0xa6>
10001892:	f007 0b01 	and.w	fp, r7, #1
10001896:	f104 3cff 	add.w	ip, r4, #4294967295
1000189a:	f04f 0e30 	mov.w	lr, #48	@ 0x30
1000189e:	44c4      	add	ip, r8
100018a0:	e004      	b.n	100018ac <_ntoa_format+0x3c>
100018a2:	3401      	adds	r4, #1
100018a4:	42a6      	cmp	r6, r4
100018a6:	f80c ef01 	strb.w	lr, [ip, #1]!
100018aa:	d901      	bls.n	100018b0 <_ntoa_format+0x40>
100018ac:	2c20      	cmp	r4, #32
100018ae:	d1f8      	bne.n	100018a2 <_ntoa_format+0x32>
100018b0:	f1bb 0f00 	cmp.w	fp, #0
100018b4:	f000 8088 	beq.w	100019c8 <_ntoa_format+0x158>
100018b8:	42a5      	cmp	r5, r4
100018ba:	d92c      	bls.n	10001916 <_ntoa_format+0xa6>
100018bc:	f104 3cff 	add.w	ip, r4, #4294967295
100018c0:	f04f 0e30 	mov.w	lr, #48	@ 0x30
100018c4:	44c4      	add	ip, r8
100018c6:	e004      	b.n	100018d2 <_ntoa_format+0x62>
100018c8:	3401      	adds	r4, #1
100018ca:	42ac      	cmp	r4, r5
100018cc:	f80c ef01 	strb.w	lr, [ip, #1]!
100018d0:	d021      	beq.n	10001916 <_ntoa_format+0xa6>
100018d2:	2c20      	cmp	r4, #32
100018d4:	d1f8      	bne.n	100018c8 <_ntoa_format+0x58>
100018d6:	f017 0f10 	tst.w	r7, #16
100018da:	d00e      	beq.n	100018fa <_ntoa_format+0x8a>
100018dc:	f417 6f80 	tst.w	r7, #1024	@ 0x400
100018e0:	d154      	bne.n	1000198c <_ntoa_format+0x11c>
100018e2:	42a6      	cmp	r6, r4
100018e4:	d063      	beq.n	100019ae <_ntoa_format+0x13e>
100018e6:	42a5      	cmp	r5, r4
100018e8:	d061      	beq.n	100019ae <_ntoa_format+0x13e>
100018ea:	f1b9 0f10 	cmp.w	r9, #16
100018ee:	d050      	beq.n	10001992 <_ntoa_format+0x122>
100018f0:	f1b9 0f02 	cmp.w	r9, #2
100018f4:	d056      	beq.n	100019a4 <_ntoa_format+0x134>
100018f6:	2c20      	cmp	r4, #32
100018f8:	d129      	bne.n	1000194e <_ntoa_format+0xde>
100018fa:	2420      	movs	r4, #32
100018fc:	e9cd 570b 	strd	r5, r7, [sp, #44]	@ 0x2c
10001900:	e9cd 8409 	strd	r8, r4, [sp, #36]	@ 0x24
10001904:	e8bd 4ff0 	ldmia.w	sp!, {r4, r5, r6, r7, r8, r9, sl, fp, lr}
10001908:	f7ff bf64 	b.w	100017d4 <_out_rev>
1000190c:	f017 0b01 	ands.w	fp, r7, #1
10001910:	d134      	bne.n	1000197c <_ntoa_format+0x10c>
10001912:	42b4      	cmp	r4, r6
10001914:	d3bf      	bcc.n	10001896 <_ntoa_format+0x26>
10001916:	f017 0f10 	tst.w	r7, #16
1000191a:	d01e      	beq.n	1000195a <_ntoa_format+0xea>
1000191c:	f417 6f80 	tst.w	r7, #1024	@ 0x400
10001920:	d1e3      	bne.n	100018ea <_ntoa_format+0x7a>
10001922:	2c00      	cmp	r4, #0
10001924:	d1dd      	bne.n	100018e2 <_ntoa_format+0x72>
10001926:	f1b9 0f10 	cmp.w	r9, #16
1000192a:	d063      	beq.n	100019f4 <_ntoa_format+0x184>
1000192c:	f1b9 0f02 	cmp.w	r9, #2
10001930:	d077      	beq.n	10001a22 <_ntoa_format+0x1b2>
10001932:	2430      	movs	r4, #48	@ 0x30
10001934:	f888 4000 	strb.w	r4, [r8]
10001938:	2401      	movs	r4, #1
1000193a:	f1ba 0f00 	cmp.w	sl, #0
1000193e:	d111      	bne.n	10001964 <_ntoa_format+0xf4>
10001940:	077e      	lsls	r6, r7, #29
10001942:	d548      	bpl.n	100019d6 <_ntoa_format+0x166>
10001944:	262b      	movs	r6, #43	@ 0x2b
10001946:	f808 6004 	strb.w	r6, [r8, r4]
1000194a:	3401      	adds	r4, #1
1000194c:	e7d6      	b.n	100018fc <_ntoa_format+0x8c>
1000194e:	4626      	mov	r6, r4
10001950:	3401      	adds	r4, #1
10001952:	f04f 0c30 	mov.w	ip, #48	@ 0x30
10001956:	f808 c006 	strb.w	ip, [r8, r6]
1000195a:	2c20      	cmp	r4, #32
1000195c:	d0cd      	beq.n	100018fa <_ntoa_format+0x8a>
1000195e:	f1ba 0f00 	cmp.w	sl, #0
10001962:	d0ed      	beq.n	10001940 <_ntoa_format+0xd0>
10001964:	262d      	movs	r6, #45	@ 0x2d
10001966:	f808 6004 	strb.w	r6, [r8, r4]
1000196a:	3401      	adds	r4, #1
1000196c:	e9cd 570b 	strd	r5, r7, [sp, #44]	@ 0x2c
10001970:	e9cd 8409 	strd	r8, r4, [sp, #36]	@ 0x24
10001974:	e8bd 4ff0 	ldmia.w	sp!, {r4, r5, r6, r7, r8, r9, sl, fp, lr}
10001978:	f7ff bf2c 	b.w	100017d4 <_out_rev>
1000197c:	f1ba 0f00 	cmp.w	sl, #0
10001980:	d030      	beq.n	100019e4 <_ntoa_format+0x174>
10001982:	42b4      	cmp	r4, r6
10001984:	f105 35ff 	add.w	r5, r5, #4294967295
10001988:	d385      	bcc.n	10001896 <_ntoa_format+0x26>
1000198a:	e795      	b.n	100018b8 <_ntoa_format+0x48>
1000198c:	f1b9 0f10 	cmp.w	r9, #16
10001990:	d1b3      	bne.n	100018fa <_ntoa_format+0x8a>
10001992:	06be      	lsls	r6, r7, #26
10001994:	d53b      	bpl.n	10001a0e <_ntoa_format+0x19e>
10001996:	2c20      	cmp	r4, #32
10001998:	d0af      	beq.n	100018fa <_ntoa_format+0x8a>
1000199a:	2658      	movs	r6, #88	@ 0x58
1000199c:	f808 6004 	strb.w	r6, [r8, r4]
100019a0:	3401      	adds	r4, #1
100019a2:	e7a8      	b.n	100018f6 <_ntoa_format+0x86>
100019a4:	2c20      	cmp	r4, #32
100019a6:	d0a8      	beq.n	100018fa <_ntoa_format+0x8a>
100019a8:	4626      	mov	r6, r4
100019aa:	3401      	adds	r4, #1
100019ac:	e007      	b.n	100019be <_ntoa_format+0x14e>
100019ae:	1e66      	subs	r6, r4, #1
100019b0:	d0b9      	beq.n	10001926 <_ntoa_format+0xb6>
100019b2:	f1b9 0f10 	cmp.w	r9, #16
100019b6:	d036      	beq.n	10001a26 <_ntoa_format+0x1b6>
100019b8:	f1b9 0f02 	cmp.w	r9, #2
100019bc:	d1c9      	bne.n	10001952 <_ntoa_format+0xe2>
100019be:	f04f 0c62 	mov.w	ip, #98	@ 0x62
100019c2:	f808 c006 	strb.w	ip, [r8, r6]
100019c6:	e796      	b.n	100018f6 <_ntoa_format+0x86>
100019c8:	f017 0f10 	tst.w	r7, #16
100019cc:	d0c5      	beq.n	1000195a <_ntoa_format+0xea>
100019ce:	f417 6f80 	tst.w	r7, #1024	@ 0x400
100019d2:	d086      	beq.n	100018e2 <_ntoa_format+0x72>
100019d4:	e789      	b.n	100018ea <_ntoa_format+0x7a>
100019d6:	073e      	lsls	r6, r7, #28
100019d8:	d590      	bpl.n	100018fc <_ntoa_format+0x8c>
100019da:	2620      	movs	r6, #32
100019dc:	f808 6004 	strb.w	r6, [r8, r4]
100019e0:	3401      	adds	r4, #1
100019e2:	e78b      	b.n	100018fc <_ntoa_format+0x8c>
100019e4:	f017 0f0c 	tst.w	r7, #12
100019e8:	d000      	beq.n	100019ec <_ntoa_format+0x17c>
100019ea:	3d01      	subs	r5, #1
100019ec:	42b4      	cmp	r4, r6
100019ee:	f4ff af52 	bcc.w	10001896 <_ntoa_format+0x26>
100019f2:	e761      	b.n	100018b8 <_ntoa_format+0x48>
100019f4:	06bc      	lsls	r4, r7, #26
100019f6:	d412      	bmi.n	10001a1e <_ntoa_format+0x1ae>
100019f8:	2478      	movs	r4, #120	@ 0x78
100019fa:	f888 4000 	strb.w	r4, [r8]
100019fe:	2430      	movs	r4, #48	@ 0x30
10001a00:	f888 4001 	strb.w	r4, [r8, #1]
10001a04:	2402      	movs	r4, #2
10001a06:	f1ba 0f00 	cmp.w	sl, #0
10001a0a:	d099      	beq.n	10001940 <_ntoa_format+0xd0>
10001a0c:	e7aa      	b.n	10001964 <_ntoa_format+0xf4>
10001a0e:	2c20      	cmp	r4, #32
10001a10:	f43f af73 	beq.w	100018fa <_ntoa_format+0x8a>
10001a14:	2678      	movs	r6, #120	@ 0x78
10001a16:	f808 6004 	strb.w	r6, [r8, r4]
10001a1a:	3401      	adds	r4, #1
10001a1c:	e76b      	b.n	100018f6 <_ntoa_format+0x86>
10001a1e:	2458      	movs	r4, #88	@ 0x58
10001a20:	e7eb      	b.n	100019fa <_ntoa_format+0x18a>
10001a22:	2462      	movs	r4, #98	@ 0x62
10001a24:	e7e9      	b.n	100019fa <_ntoa_format+0x18a>
10001a26:	f017 0f20 	tst.w	r7, #32
10001a2a:	f1a4 0c02 	sub.w	ip, r4, #2
10001a2e:	d004      	beq.n	10001a3a <_ntoa_format+0x1ca>
10001a30:	f04f 0e58 	mov.w	lr, #88	@ 0x58
10001a34:	f808 e00c 	strb.w	lr, [r8, ip]
10001a38:	e78b      	b.n	10001952 <_ntoa_format+0xe2>
10001a3a:	f04f 0e78 	mov.w	lr, #120	@ 0x78
10001a3e:	f808 e00c 	strb.w	lr, [r8, ip]
10001a42:	e786      	b.n	10001952 <_ntoa_format+0xe2>

10001a44 <_out_char>:
10001a44:	b900      	cbnz	r0, 10001a48 <_out_char+0x4>
10001a46:	4770      	bx	lr
10001a48:	f001 bb72 	b.w	10003130 <__wrap_putchar>

10001a4c <_out_fct>:
10001a4c:	b110      	cbz	r0, 10001a54 <_out_fct+0x8>
10001a4e:	e9d1 3100 	ldrd	r3, r1, [r1]
10001a52:	4718      	bx	r3
10001a54:	4770      	bx	lr
10001a56:	bf00      	nop

10001a58 <_ftoa>:
10001a58:	e92d 4ff0 	stmdb	sp!, {r4, r5, r6, r7, r8, r9, sl, fp, lr}
10001a5c:	b097      	sub	sp, #92	@ 0x5c
10001a5e:	ed9d 7b20 	vldr	d7, [sp, #128]	@ 0x80
10001a62:	e9dd 5b22 	ldrd	r5, fp, [sp, #136]	@ 0x88
10001a66:	4607      	mov	r7, r0
10001a68:	4688      	mov	r8, r1
10001a6a:	ec51 0b17 	vmov	r0, r1, d7
10001a6e:	9c24      	ldr	r4, [sp, #144]	@ 0x90
10001a70:	4699      	mov	r9, r3
10001a72:	920c      	str	r2, [sp, #48]	@ 0x30
10001a74:	460b      	mov	r3, r1
10001a76:	4602      	mov	r2, r0
10001a78:	ed8d 7b04 	vstr	d7, [sp, #16]
10001a7c:	9407      	str	r4, [sp, #28]
10001a7e:	f7ff fe49 	bl	10001714 <__wrap___aeabi_dcmpun>
10001a82:	2800      	cmp	r0, #0
10001a84:	f040 81f4 	bne.w	10001e70 <_ftoa+0x418>
10001a88:	e9dd 0104 	ldrd	r0, r1, [sp, #16]
10001a8c:	f04f 32ff 	mov.w	r2, #4294967295
10001a90:	f46f 1380 	mvn.w	r3, #1048576	@ 0x100000
10001a94:	f7ff fe50 	bl	10001738 <__wrap___aeabi_dcmplt>
10001a98:	2800      	cmp	r0, #0
10001a9a:	f040 811b 	bne.w	10001cd4 <_ftoa+0x27c>
10001a9e:	e9dd 0104 	ldrd	r0, r1, [sp, #16]
10001aa2:	f04f 32ff 	mov.w	r2, #4294967295
10001aa6:	4bac      	ldr	r3, [pc, #688]	@ (10001d58 <_ftoa+0x300>)
10001aa8:	f7ff fe82 	bl	100017b0 <__wrap___aeabi_dcmpgt>
10001aac:	2800      	cmp	r0, #0
10001aae:	f040 80ee 	bne.w	10001c8e <_ftoa+0x236>
10001ab2:	e9dd 0104 	ldrd	r0, r1, [sp, #16]
10001ab6:	a3a4      	add	r3, pc, #656	@ (adr r3, 10001d48 <_ftoa+0x2f0>)
10001ab8:	e9d3 2300 	ldrd	r2, r3, [r3]
10001abc:	f7ff fe78 	bl	100017b0 <__wrap___aeabi_dcmpgt>
10001ac0:	2800      	cmp	r0, #0
10001ac2:	f040 80d3 	bne.w	10001c6c <_ftoa+0x214>
10001ac6:	e9dd 0104 	ldrd	r0, r1, [sp, #16]
10001aca:	a3a1      	add	r3, pc, #644	@ (adr r3, 10001d50 <_ftoa+0x2f8>)
10001acc:	e9d3 2300 	ldrd	r2, r3, [r3]
10001ad0:	f7ff fe32 	bl	10001738 <__wrap___aeabi_dcmplt>
10001ad4:	2800      	cmp	r0, #0
10001ad6:	f040 80c9 	bne.w	10001c6c <_ftoa+0x214>
10001ada:	e9dd 0104 	ldrd	r0, r1, [sp, #16]
10001ade:	2200      	movs	r2, #0
10001ae0:	2300      	movs	r3, #0
10001ae2:	f7ff fe29 	bl	10001738 <__wrap___aeabi_dcmplt>
10001ae6:	2800      	cmp	r0, #0
10001ae8:	f040 80e8 	bne.w	10001cbc <_ftoa+0x264>
10001aec:	4623      	mov	r3, r4
10001aee:	900d      	str	r0, [sp, #52]	@ 0x34
10001af0:	f413 6f80 	tst.w	r3, #1024	@ 0x400
10001af4:	bf08      	it	eq
10001af6:	2506      	moveq	r5, #6
10001af8:	2130      	movs	r1, #48	@ 0x30
10001afa:	462b      	mov	r3, r5
10001afc:	aa0e      	add	r2, sp, #56	@ 0x38
10001afe:	f1a5 0620 	sub.w	r6, r5, #32
10001b02:	e005      	b.n	10001b10 <_ftoa+0xb8>
10001b04:	3b01      	subs	r3, #1
10001b06:	42b3      	cmp	r3, r6
10001b08:	f802 1b01 	strb.w	r1, [r2], #1
10001b0c:	f000 8193 	beq.w	10001e36 <_ftoa+0x3de>
10001b10:	2b09      	cmp	r3, #9
10001b12:	d8f7      	bhi.n	10001b04 <_ftoa+0xac>
10001b14:	461e      	mov	r6, r3
10001b16:	1aed      	subs	r5, r5, r3
10001b18:	e9dd 0104 	ldrd	r0, r1, [sp, #16]
10001b1c:	f7ff fdd6 	bl	100016cc <__wrap___aeabi_d2iz>
10001b20:	4b8e      	ldr	r3, [pc, #568]	@ (10001d5c <_ftoa+0x304>)
10001b22:	4604      	mov	r4, r0
10001b24:	eb03 03c6 	add.w	r3, r3, r6, lsl #3
10001b28:	ed93 7b00 	vldr	d7, [r3]
10001b2c:	ed8d 7b08 	vstr	d7, [sp, #32]
10001b30:	f7ff fda8 	bl	10001684 <__wrap___aeabi_i2d>
10001b34:	4602      	mov	r2, r0
10001b36:	460b      	mov	r3, r1
10001b38:	e9dd 0104 	ldrd	r0, r1, [sp, #16]
10001b3c:	f7ff fd1a 	bl	10001574 <__wrap___aeabi_dsub>
10001b40:	e9dd 2308 	ldrd	r2, r3, [sp, #32]
10001b44:	f7ff fd2a 	bl	1000159c <__wrap___aeabi_dmul>
10001b48:	4602      	mov	r2, r0
10001b4a:	460b      	mov	r3, r1
10001b4c:	e9cd 230a 	strd	r2, r3, [sp, #40]	@ 0x28
10001b50:	f7ff fdce 	bl	100016f0 <__wrap___aeabi_d2uiz>
10001b54:	4682      	mov	sl, r0
10001b56:	f7ff fda7 	bl	100016a8 <__wrap___aeabi_ui2d>
10001b5a:	4602      	mov	r2, r0
10001b5c:	460b      	mov	r3, r1
10001b5e:	e9dd 010a 	ldrd	r0, r1, [sp, #40]	@ 0x28
10001b62:	f7ff fd07 	bl	10001574 <__wrap___aeabi_dsub>
10001b66:	4602      	mov	r2, r0
10001b68:	460b      	mov	r3, r1
10001b6a:	e9cd 230a 	strd	r2, r3, [sp, #40]	@ 0x28
10001b6e:	2200      	movs	r2, #0
10001b70:	4b7b      	ldr	r3, [pc, #492]	@ (10001d60 <_ftoa+0x308>)
10001b72:	f7ff fe1d 	bl	100017b0 <__wrap___aeabi_dcmpgt>
10001b76:	2800      	cmp	r0, #0
10001b78:	f000 80fe 	beq.w	10001d78 <_ftoa+0x320>
10001b7c:	f10a 0a01 	add.w	sl, sl, #1
10001b80:	4650      	mov	r0, sl
10001b82:	f7ff fd91 	bl	100016a8 <__wrap___aeabi_ui2d>
10001b86:	4602      	mov	r2, r0
10001b88:	460b      	mov	r3, r1
10001b8a:	e9dd 0108 	ldrd	r0, r1, [sp, #32]
10001b8e:	f7ff fde7 	bl	10001760 <__wrap___aeabi_dcmple>
10001b92:	b110      	cbz	r0, 10001b9a <_ftoa+0x142>
10001b94:	f04f 0a00 	mov.w	sl, #0
10001b98:	3401      	adds	r4, #1
10001b9a:	2e00      	cmp	r6, #0
10001b9c:	f000 80fd 	beq.w	10001d9a <_ftoa+0x342>
10001ba0:	1e68      	subs	r0, r5, #1
10001ba2:	ab0e      	add	r3, sp, #56	@ 0x38
10001ba4:	f8df c1cc 	ldr.w	ip, [pc, #460]	@ 10001d74 <_ftoa+0x31c>
10001ba8:	4418      	add	r0, r3
10001baa:	e00f      	b.n	10001bcc <_ftoa+0x174>
10001bac:	fbac 210a 	umull	r2, r1, ip, sl
10001bb0:	08c9      	lsrs	r1, r1, #3
10001bb2:	eb01 0281 	add.w	r2, r1, r1, lsl #2
10001bb6:	ebaa 0242 	sub.w	r2, sl, r2, lsl #1
10001bba:	3230      	adds	r2, #48	@ 0x30
10001bbc:	f1ba 0f09 	cmp.w	sl, #9
10001bc0:	f800 2f01 	strb.w	r2, [r0, #1]!
10001bc4:	f240 811c 	bls.w	10001e00 <_ftoa+0x3a8>
10001bc8:	468a      	mov	sl, r1
10001bca:	461d      	mov	r5, r3
10001bcc:	2d20      	cmp	r5, #32
10001bce:	f105 0301 	add.w	r3, r5, #1
10001bd2:	f106 36ff 	add.w	r6, r6, #4294967295
10001bd6:	d1e9      	bne.n	10001bac <_ftoa+0x154>
10001bd8:	2520      	movs	r5, #32
10001bda:	1e69      	subs	r1, r5, #1
10001bdc:	ab0e      	add	r3, sp, #56	@ 0x38
10001bde:	4861      	ldr	r0, [pc, #388]	@ (10001d64 <_ftoa+0x30c>)
10001be0:	4419      	add	r1, r3
10001be2:	e010      	b.n	10001c06 <_ftoa+0x1ae>
10001be4:	fb80 6204 	smull	r6, r2, r0, r4
10001be8:	ebc3 03a2 	rsb	r3, r3, r2, asr #2
10001bec:	eb03 0283 	add.w	r2, r3, r3, lsl #2
10001bf0:	eba4 0442 	sub.w	r4, r4, r2, lsl #1
10001bf4:	f104 0230 	add.w	r2, r4, #48	@ 0x30
10001bf8:	3501      	adds	r5, #1
10001bfa:	461c      	mov	r4, r3
10001bfc:	f801 2f01 	strb.w	r2, [r1, #1]!
10001c00:	2b00      	cmp	r3, #0
10001c02:	f000 80eb 	beq.w	10001ddc <_ftoa+0x384>
10001c06:	2d20      	cmp	r5, #32
10001c08:	ea4f 73e4 	mov.w	r3, r4, asr #31
10001c0c:	d1ea      	bne.n	10001be4 <_ftoa+0x18c>
10001c0e:	9b07      	ldr	r3, [sp, #28]
10001c10:	f003 0303 	and.w	r3, r3, #3
10001c14:	2b01      	cmp	r3, #1
10001c16:	d118      	bne.n	10001c4a <_ftoa+0x1f2>
10001c18:	f1bb 0f00 	cmp.w	fp, #0
10001c1c:	d015      	beq.n	10001c4a <_ftoa+0x1f2>
10001c1e:	9b0d      	ldr	r3, [sp, #52]	@ 0x34
10001c20:	2b00      	cmp	r3, #0
10001c22:	f000 810a 	beq.w	10001e3a <_ftoa+0x3e2>
10001c26:	f10b 3bff 	add.w	fp, fp, #4294967295
10001c2a:	f1bb 0f20 	cmp.w	fp, #32
10001c2e:	d90c      	bls.n	10001c4a <_ftoa+0x1f2>
10001c30:	1e6b      	subs	r3, r5, #1
10001c32:	a90e      	add	r1, sp, #56	@ 0x38
10001c34:	2230      	movs	r2, #48	@ 0x30
10001c36:	440b      	add	r3, r1
10001c38:	e005      	b.n	10001c46 <_ftoa+0x1ee>
10001c3a:	3501      	adds	r5, #1
10001c3c:	455d      	cmp	r5, fp
10001c3e:	f803 2f01 	strb.w	r2, [r3, #1]!
10001c42:	f080 80d1 	bcs.w	10001de8 <_ftoa+0x390>
10001c46:	2d20      	cmp	r5, #32
10001c48:	d1f7      	bne.n	10001c3a <_ftoa+0x1e2>
10001c4a:	9b07      	ldr	r3, [sp, #28]
10001c4c:	ac0e      	add	r4, sp, #56	@ 0x38
10001c4e:	e9cd b302 	strd	fp, r3, [sp, #8]
10001c52:	4641      	mov	r1, r8
10001c54:	464b      	mov	r3, r9
10001c56:	4638      	mov	r0, r7
10001c58:	9a0c      	ldr	r2, [sp, #48]	@ 0x30
10001c5a:	9501      	str	r5, [sp, #4]
10001c5c:	9400      	str	r4, [sp, #0]
10001c5e:	f7ff fdb9 	bl	100017d4 <_out_rev>
10001c62:	4682      	mov	sl, r0
10001c64:	4650      	mov	r0, sl
10001c66:	b017      	add	sp, #92	@ 0x5c
10001c68:	e8bd 8ff0 	ldmia.w	sp!, {r4, r5, r6, r7, r8, r9, sl, fp, pc}
10001c6c:	9b07      	ldr	r3, [sp, #28]
10001c6e:	ed9d 7b04 	vldr	d7, [sp, #16]
10001c72:	e9cd b323 	strd	fp, r3, [sp, #140]	@ 0x8c
10001c76:	4641      	mov	r1, r8
10001c78:	464b      	mov	r3, r9
10001c7a:	4638      	mov	r0, r7
10001c7c:	9a0c      	ldr	r2, [sp, #48]	@ 0x30
10001c7e:	ed8d 7b20 	vstr	d7, [sp, #128]	@ 0x80
10001c82:	9522      	str	r5, [sp, #136]	@ 0x88
10001c84:	b017      	add	sp, #92	@ 0x5c
10001c86:	e8bd 4ff0 	ldmia.w	sp!, {r4, r5, r6, r7, r8, r9, sl, fp, lr}
10001c8a:	f000 b945 	b.w	10001f18 <_etoa>
10001c8e:	0761      	lsls	r1, r4, #29
10001c90:	4623      	mov	r3, r4
10001c92:	bf4c      	ite	mi
10001c94:	2304      	movmi	r3, #4
10001c96:	2303      	movpl	r3, #3
10001c98:	4641      	mov	r1, r8
10001c9a:	9321      	str	r3, [sp, #132]	@ 0x84
10001c9c:	4638      	mov	r0, r7
10001c9e:	464b      	mov	r3, r9
10001ca0:	9a07      	ldr	r2, [sp, #28]
10001ca2:	bf48      	it	mi
10001ca4:	4c30      	ldrmi	r4, [pc, #192]	@ (10001d68 <_ftoa+0x310>)
10001ca6:	e9cd b222 	strd	fp, r2, [sp, #136]	@ 0x88
10001caa:	bf58      	it	pl
10001cac:	4c2f      	ldrpl	r4, [pc, #188]	@ (10001d6c <_ftoa+0x314>)
10001cae:	9a0c      	ldr	r2, [sp, #48]	@ 0x30
10001cb0:	9420      	str	r4, [sp, #128]	@ 0x80
10001cb2:	b017      	add	sp, #92	@ 0x5c
10001cb4:	e8bd 4ff0 	ldmia.w	sp!, {r4, r5, r6, r7, r8, r9, sl, fp, lr}
10001cb8:	f7ff bd8c 	b.w	100017d4 <_out_rev>
10001cbc:	e9dd 2304 	ldrd	r2, r3, [sp, #16]
10001cc0:	2000      	movs	r0, #0
10001cc2:	2100      	movs	r1, #0
10001cc4:	f7ff fc56 	bl	10001574 <__wrap___aeabi_dsub>
10001cc8:	2301      	movs	r3, #1
10001cca:	e9cd 0104 	strd	r0, r1, [sp, #16]
10001cce:	930d      	str	r3, [sp, #52]	@ 0x34
10001cd0:	4623      	mov	r3, r4
10001cd2:	e70d      	b.n	10001af0 <_ftoa+0x98>
10001cd4:	4623      	mov	r3, r4
10001cd6:	079c      	lsls	r4, r3, #30
10001cd8:	f040 80aa 	bne.w	10001e30 <_ftoa+0x3d8>
10001cdc:	f1bb 0f04 	cmp.w	fp, #4
10001ce0:	f240 80a6 	bls.w	10001e30 <_ftoa+0x3d8>
10001ce4:	9b0c      	ldr	r3, [sp, #48]	@ 0x30
10001ce6:	461d      	mov	r5, r3
10001ce8:	1f1c      	subs	r4, r3, #4
10001cea:	eb04 0a0b 	add.w	sl, r4, fp
10001cee:	462a      	mov	r2, r5
10001cf0:	464b      	mov	r3, r9
10001cf2:	4641      	mov	r1, r8
10001cf4:	2020      	movs	r0, #32
10001cf6:	3501      	adds	r5, #1
10001cf8:	47b8      	blx	r7
10001cfa:	45aa      	cmp	sl, r5
10001cfc:	d1f7      	bne.n	10001cee <_ftoa+0x296>
10001cfe:	4655      	mov	r5, sl
10001d00:	4c1b      	ldr	r4, [pc, #108]	@ (10001d70 <_ftoa+0x318>)
10001d02:	1f26      	subs	r6, r4, #4
10001d04:	f814 0d01 	ldrb.w	r0, [r4, #-1]!
10001d08:	462a      	mov	r2, r5
10001d0a:	464b      	mov	r3, r9
10001d0c:	4641      	mov	r1, r8
10001d0e:	47b8      	blx	r7
10001d10:	42b4      	cmp	r4, r6
10001d12:	f105 0501 	add.w	r5, r5, #1
10001d16:	d1f5      	bne.n	10001d04 <_ftoa+0x2ac>
10001d18:	9b07      	ldr	r3, [sp, #28]
10001d1a:	f10a 0a04 	add.w	sl, sl, #4
10001d1e:	0798      	lsls	r0, r3, #30
10001d20:	d5a0      	bpl.n	10001c64 <_ftoa+0x20c>
10001d22:	9c0c      	ldr	r4, [sp, #48]	@ 0x30
10001d24:	ebaa 0304 	sub.w	r3, sl, r4
10001d28:	459b      	cmp	fp, r3
10001d2a:	d99b      	bls.n	10001c64 <_ftoa+0x20c>
10001d2c:	4652      	mov	r2, sl
10001d2e:	464b      	mov	r3, r9
10001d30:	4641      	mov	r1, r8
10001d32:	2020      	movs	r0, #32
10001d34:	f10a 0a01 	add.w	sl, sl, #1
10001d38:	47b8      	blx	r7
10001d3a:	ebaa 0304 	sub.w	r3, sl, r4
10001d3e:	455b      	cmp	r3, fp
10001d40:	d3f4      	bcc.n	10001d2c <_ftoa+0x2d4>
10001d42:	e78f      	b.n	10001c64 <_ftoa+0x20c>
10001d44:	f3af 8000 	nop.w
10001d48:	00000000 	.word	0x00000000
10001d4c:	41cdcd65 	.word	0x41cdcd65
10001d50:	00000000 	.word	0x00000000
10001d54:	c1cdcd65 	.word	0xc1cdcd65
10001d58:	7fefffff 	.word	0x7fefffff
10001d5c:	100037d8 	.word	0x100037d8
10001d60:	3fe00000 	.word	0x3fe00000
10001d64:	66666667 	.word	0x66666667
10001d68:	10003734 	.word	0x10003734
10001d6c:	1000373c 	.word	0x1000373c
10001d70:	10003748 	.word	0x10003748
10001d74:	cccccccd 	.word	0xcccccccd
10001d78:	2200      	movs	r2, #0
10001d7a:	e9dd 010a 	ldrd	r0, r1, [sp, #40]	@ 0x28
10001d7e:	4b63      	ldr	r3, [pc, #396]	@ (10001f0c <_ftoa+0x4b4>)
10001d80:	f7ff fcda 	bl	10001738 <__wrap___aeabi_dcmplt>
10001d84:	2800      	cmp	r0, #0
10001d86:	f47f af08 	bne.w	10001b9a <_ftoa+0x142>
10001d8a:	f1ba 0f00 	cmp.w	sl, #0
10001d8e:	d16a      	bne.n	10001e66 <_ftoa+0x40e>
10001d90:	f10a 0a01 	add.w	sl, sl, #1
10001d94:	2e00      	cmp	r6, #0
10001d96:	f47f af03 	bne.w	10001ba0 <_ftoa+0x148>
10001d9a:	4620      	mov	r0, r4
10001d9c:	f7ff fc72 	bl	10001684 <__wrap___aeabi_i2d>
10001da0:	4602      	mov	r2, r0
10001da2:	460b      	mov	r3, r1
10001da4:	e9dd 0104 	ldrd	r0, r1, [sp, #16]
10001da8:	f7ff fbe4 	bl	10001574 <__wrap___aeabi_dsub>
10001dac:	4602      	mov	r2, r0
10001dae:	460b      	mov	r3, r1
10001db0:	e9cd 2304 	strd	r2, r3, [sp, #16]
10001db4:	2200      	movs	r2, #0
10001db6:	4b55      	ldr	r3, [pc, #340]	@ (10001f0c <_ftoa+0x4b4>)
10001db8:	f7ff fcbe 	bl	10001738 <__wrap___aeabi_dcmplt>
10001dbc:	2800      	cmp	r0, #0
10001dbe:	f47f af0c 	bne.w	10001bda <_ftoa+0x182>
10001dc2:	e9dd 0104 	ldrd	r0, r1, [sp, #16]
10001dc6:	2200      	movs	r2, #0
10001dc8:	4b50      	ldr	r3, [pc, #320]	@ (10001f0c <_ftoa+0x4b4>)
10001dca:	f7ff fcf1 	bl	100017b0 <__wrap___aeabi_dcmpgt>
10001dce:	2800      	cmp	r0, #0
10001dd0:	f47f af03 	bne.w	10001bda <_ftoa+0x182>
10001dd4:	3401      	adds	r4, #1
10001dd6:	f024 0401 	bic.w	r4, r4, #1
10001dda:	e6fe      	b.n	10001bda <_ftoa+0x182>
10001ddc:	9b07      	ldr	r3, [sp, #28]
10001dde:	f003 0303 	and.w	r3, r3, #3
10001de2:	2b01      	cmp	r3, #1
10001de4:	f000 8082 	beq.w	10001eec <_ftoa+0x494>
10001de8:	2d20      	cmp	r5, #32
10001dea:	f43f af2e 	beq.w	10001c4a <_ftoa+0x1f2>
10001dee:	9b0d      	ldr	r3, [sp, #52]	@ 0x34
10001df0:	b37b      	cbz	r3, 10001e52 <_ftoa+0x3fa>
10001df2:	222d      	movs	r2, #45	@ 0x2d
10001df4:	eb0d 0305 	add.w	r3, sp, r5
10001df8:	f883 2038 	strb.w	r2, [r3, #56]	@ 0x38
10001dfc:	3501      	adds	r5, #1
10001dfe:	e724      	b.n	10001c4a <_ftoa+0x1f2>
10001e00:	2b20      	cmp	r3, #32
10001e02:	f43f aee9 	beq.w	10001bd8 <_ftoa+0x180>
10001e06:	aa0e      	add	r2, sp, #56	@ 0x38
10001e08:	4415      	add	r5, r2
10001e0a:	441e      	add	r6, r3
10001e0c:	2230      	movs	r2, #48	@ 0x30
10001e0e:	e004      	b.n	10001e1a <_ftoa+0x3c2>
10001e10:	2b20      	cmp	r3, #32
10001e12:	f805 2f01 	strb.w	r2, [r5, #1]!
10001e16:	f43f aedf 	beq.w	10001bd8 <_ftoa+0x180>
10001e1a:	429e      	cmp	r6, r3
10001e1c:	f103 0301 	add.w	r3, r3, #1
10001e20:	d1f6      	bne.n	10001e10 <_ftoa+0x3b8>
10001e22:	222e      	movs	r2, #46	@ 0x2e
10001e24:	eb0d 0306 	add.w	r3, sp, r6
10001e28:	f883 2038 	strb.w	r2, [r3, #56]	@ 0x38
10001e2c:	1c75      	adds	r5, r6, #1
10001e2e:	e6d4      	b.n	10001bda <_ftoa+0x182>
10001e30:	f8dd a030 	ldr.w	sl, [sp, #48]	@ 0x30
10001e34:	e763      	b.n	10001cfe <_ftoa+0x2a6>
10001e36:	2520      	movs	r5, #32
10001e38:	e66e      	b.n	10001b18 <_ftoa+0xc0>
10001e3a:	9b07      	ldr	r3, [sp, #28]
10001e3c:	f013 0f0c 	tst.w	r3, #12
10001e40:	d050      	beq.n	10001ee4 <_ftoa+0x48c>
10001e42:	f10b 3bff 	add.w	fp, fp, #4294967295
10001e46:	45ab      	cmp	fp, r5
10001e48:	f63f aef2 	bhi.w	10001c30 <_ftoa+0x1d8>
10001e4c:	2d20      	cmp	r5, #32
10001e4e:	f43f aefc 	beq.w	10001c4a <_ftoa+0x1f2>
10001e52:	9b07      	ldr	r3, [sp, #28]
10001e54:	075a      	lsls	r2, r3, #29
10001e56:	d501      	bpl.n	10001e5c <_ftoa+0x404>
10001e58:	222b      	movs	r2, #43	@ 0x2b
10001e5a:	e7cb      	b.n	10001df4 <_ftoa+0x39c>
10001e5c:	071b      	lsls	r3, r3, #28
10001e5e:	f57f aef4 	bpl.w	10001c4a <_ftoa+0x1f2>
10001e62:	2220      	movs	r2, #32
10001e64:	e7c6      	b.n	10001df4 <_ftoa+0x39c>
10001e66:	f01a 0f01 	tst.w	sl, #1
10001e6a:	f43f ae96 	beq.w	10001b9a <_ftoa+0x142>
10001e6e:	e78f      	b.n	10001d90 <_ftoa+0x338>
10001e70:	07a6      	lsls	r6, r4, #30
10001e72:	d134      	bne.n	10001ede <_ftoa+0x486>
10001e74:	f1bb 0f03 	cmp.w	fp, #3
10001e78:	d931      	bls.n	10001ede <_ftoa+0x486>
10001e7a:	9b0c      	ldr	r3, [sp, #48]	@ 0x30
10001e7c:	461d      	mov	r5, r3
10001e7e:	1edc      	subs	r4, r3, #3
10001e80:	eb04 0a0b 	add.w	sl, r4, fp
10001e84:	462a      	mov	r2, r5
10001e86:	464b      	mov	r3, r9
10001e88:	4641      	mov	r1, r8
10001e8a:	2020      	movs	r0, #32
10001e8c:	3501      	adds	r5, #1
10001e8e:	47b8      	blx	r7
10001e90:	4555      	cmp	r5, sl
10001e92:	d1f7      	bne.n	10001e84 <_ftoa+0x42c>
10001e94:	4655      	mov	r5, sl
10001e96:	4c1e      	ldr	r4, [pc, #120]	@ (10001f10 <_ftoa+0x4b8>)
10001e98:	1ee6      	subs	r6, r4, #3
10001e9a:	f814 0d01 	ldrb.w	r0, [r4, #-1]!
10001e9e:	462a      	mov	r2, r5
10001ea0:	464b      	mov	r3, r9
10001ea2:	4641      	mov	r1, r8
10001ea4:	47b8      	blx	r7
10001ea6:	42a6      	cmp	r6, r4
10001ea8:	f105 0501 	add.w	r5, r5, #1
10001eac:	d1f5      	bne.n	10001e9a <_ftoa+0x442>
10001eae:	9b07      	ldr	r3, [sp, #28]
10001eb0:	f10a 0a03 	add.w	sl, sl, #3
10001eb4:	079d      	lsls	r5, r3, #30
10001eb6:	f57f aed5 	bpl.w	10001c64 <_ftoa+0x20c>
10001eba:	9c0c      	ldr	r4, [sp, #48]	@ 0x30
10001ebc:	ebaa 0304 	sub.w	r3, sl, r4
10001ec0:	459b      	cmp	fp, r3
10001ec2:	f67f aecf 	bls.w	10001c64 <_ftoa+0x20c>
10001ec6:	4652      	mov	r2, sl
10001ec8:	464b      	mov	r3, r9
10001eca:	4641      	mov	r1, r8
10001ecc:	2020      	movs	r0, #32
10001ece:	f10a 0a01 	add.w	sl, sl, #1
10001ed2:	47b8      	blx	r7
10001ed4:	ebaa 0304 	sub.w	r3, sl, r4
10001ed8:	459b      	cmp	fp, r3
10001eda:	d8f4      	bhi.n	10001ec6 <_ftoa+0x46e>
10001edc:	e6c2      	b.n	10001c64 <_ftoa+0x20c>
10001ede:	f8dd a030 	ldr.w	sl, [sp, #48]	@ 0x30
10001ee2:	e7d7      	b.n	10001e94 <_ftoa+0x43c>
10001ee4:	45ab      	cmp	fp, r5
10001ee6:	f63f aea3 	bhi.w	10001c30 <_ftoa+0x1d8>
10001eea:	e6ae      	b.n	10001c4a <_ftoa+0x1f2>
10001eec:	f1bb 0f00 	cmp.w	fp, #0
10001ef0:	f43f af7a 	beq.w	10001de8 <_ftoa+0x390>
10001ef4:	9b0d      	ldr	r3, [sp, #52]	@ 0x34
10001ef6:	2b00      	cmp	r3, #0
10001ef8:	d09f      	beq.n	10001e3a <_ftoa+0x3e2>
10001efa:	f10b 3bff 	add.w	fp, fp, #4294967295
10001efe:	455d      	cmp	r5, fp
10001f00:	f4ff ae96 	bcc.w	10001c30 <_ftoa+0x1d8>
10001f04:	2d20      	cmp	r5, #32
10001f06:	f47f af74 	bne.w	10001df2 <_ftoa+0x39a>
10001f0a:	e69e      	b.n	10001c4a <_ftoa+0x1f2>
10001f0c:	3fe00000 	.word	0x3fe00000
10001f10:	10003743 	.word	0x10003743
10001f14:	00000000 	.word	0x00000000

10001f18 <_etoa>:
10001f18:	e92d 4ff0 	stmdb	sp!, {r4, r5, r6, r7, r8, r9, sl, fp, lr}
10001f1c:	b09f      	sub	sp, #124	@ 0x7c
10001f1e:	9e2a      	ldr	r6, [sp, #168]	@ 0xa8
10001f20:	e9dd 4528 	ldrd	r4, r5, [sp, #160]	@ 0xa0
10001f24:	4607      	mov	r7, r0
10001f26:	4693      	mov	fp, r2
10001f28:	9108      	str	r1, [sp, #32]
10001f2a:	9309      	str	r3, [sp, #36]	@ 0x24
10001f2c:	4622      	mov	r2, r4
10001f2e:	462b      	mov	r3, r5
10001f30:	4620      	mov	r0, r4
10001f32:	4629      	mov	r1, r5
10001f34:	960e      	str	r6, [sp, #56]	@ 0x38
10001f36:	e9dd a62b 	ldrd	sl, r6, [sp, #172]	@ 0xac
10001f3a:	f7ff fbeb 	bl	10001714 <__wrap___aeabi_dcmpun>
10001f3e:	2800      	cmp	r0, #0
10001f40:	f040 80be 	bne.w	100020c0 <_etoa+0x1a8>
10001f44:	4620      	mov	r0, r4
10001f46:	4629      	mov	r1, r5
10001f48:	f04f 32ff 	mov.w	r2, #4294967295
10001f4c:	4b78      	ldr	r3, [pc, #480]	@ (10002130 <_etoa+0x218>)
10001f4e:	f7ff fc2f 	bl	100017b0 <__wrap___aeabi_dcmpgt>
10001f52:	2800      	cmp	r0, #0
10001f54:	f040 80b4 	bne.w	100020c0 <_etoa+0x1a8>
10001f58:	4620      	mov	r0, r4
10001f5a:	4629      	mov	r1, r5
10001f5c:	f04f 32ff 	mov.w	r2, #4294967295
10001f60:	f46f 1380 	mvn.w	r3, #1048576	@ 0x100000
10001f64:	f7ff fbe8 	bl	10001738 <__wrap___aeabi_dcmplt>
10001f68:	2800      	cmp	r0, #0
10001f6a:	f040 80a9 	bne.w	100020c0 <_etoa+0x1a8>
10001f6e:	4620      	mov	r0, r4
10001f70:	4629      	mov	r1, r5
10001f72:	2200      	movs	r2, #0
10001f74:	2300      	movs	r3, #0
10001f76:	f7ff fbdf 	bl	10001738 <__wrap___aeabi_dcmplt>
10001f7a:	2800      	cmp	r0, #0
10001f7c:	f040 81d5 	bne.w	1000232a <_etoa+0x412>
10001f80:	e9cd 450a 	strd	r4, r5, [sp, #40]	@ 0x28
10001f84:	e9dd 230a 	ldrd	r2, r3, [sp, #40]	@ 0x28
10001f88:	4690      	mov	r8, r2
10001f8a:	4699      	mov	r9, r3
10001f8c:	f406 6200 	and.w	r2, r6, #2048	@ 0x800
10001f90:	f416 6380 	ands.w	r3, r6, #1024	@ 0x400
10001f94:	920f      	str	r2, [sp, #60]	@ 0x3c
10001f96:	9313      	str	r3, [sp, #76]	@ 0x4c
10001f98:	f040 80a1 	bne.w	100020de <_etoa+0x1c6>
10001f9c:	ea58 0309 	orrs.w	r3, r8, r9
10001fa0:	f040 80ca 	bne.w	10002138 <_etoa+0x220>
10001fa4:	2a00      	cmp	r2, #0
10001fa6:	f040 81e3 	bne.w	10002370 <_etoa+0x458>
10001faa:	2306      	movs	r3, #6
10001fac:	930e      	str	r3, [sp, #56]	@ 0x38
10001fae:	f016 0202 	ands.w	r2, r6, #2
10001fb2:	9210      	str	r2, [sp, #64]	@ 0x40
10001fb4:	f040 81d4 	bne.w	10002360 <_etoa+0x448>
10001fb8:	4653      	mov	r3, sl
10001fba:	2b04      	cmp	r3, #4
10001fbc:	bf38      	it	cc
10001fbe:	2304      	movcc	r3, #4
10001fc0:	920c      	str	r2, [sp, #48]	@ 0x30
10001fc2:	2204      	movs	r2, #4
10001fc4:	3b04      	subs	r3, #4
10001fc6:	9212      	str	r2, [sp, #72]	@ 0x48
10001fc8:	930f      	str	r3, [sp, #60]	@ 0x3c
10001fca:	4620      	mov	r0, r4
10001fcc:	4629      	mov	r1, r5
10001fce:	2200      	movs	r2, #0
10001fd0:	2300      	movs	r3, #0
10001fd2:	f7ff fbb1 	bl	10001738 <__wrap___aeabi_dcmplt>
10001fd6:	2800      	cmp	r0, #0
10001fd8:	f040 81f3 	bne.w	100023c2 <_etoa+0x4aa>
10001fdc:	ed9d 7b0a 	vldr	d7, [sp, #40]	@ 0x28
10001fe0:	9b0f      	ldr	r3, [sp, #60]	@ 0x3c
10001fe2:	465a      	mov	r2, fp
10001fe4:	9303      	str	r3, [sp, #12]
10001fe6:	9b0e      	ldr	r3, [sp, #56]	@ 0x38
10001fe8:	ed8d 7b00 	vstr	d7, [sp]
10001fec:	9302      	str	r3, [sp, #8]
10001fee:	f426 6300 	bic.w	r3, r6, #2048	@ 0x800
10001ff2:	9304      	str	r3, [sp, #16]
10001ff4:	4638      	mov	r0, r7
10001ff6:	9b09      	ldr	r3, [sp, #36]	@ 0x24
10001ff8:	9908      	ldr	r1, [sp, #32]
10001ffa:	f7ff fd2d 	bl	10001a58 <_ftoa>
10001ffe:	4602      	mov	r2, r0
10002000:	f016 0f20 	tst.w	r6, #32
10002004:	9b09      	ldr	r3, [sp, #36]	@ 0x24
10002006:	9908      	ldr	r1, [sp, #32]
10002008:	bf0c      	ite	eq
1000200a:	2065      	moveq	r0, #101	@ 0x65
1000200c:	2045      	movne	r0, #69	@ 0x45
1000200e:	f102 0801 	add.w	r8, r2, #1
10002012:	47b8      	blx	r7
10002014:	9a0c      	ldr	r2, [sp, #48]	@ 0x30
10002016:	9b12      	ldr	r3, [sp, #72]	@ 0x48
10002018:	ac16      	add	r4, sp, #88	@ 0x58
1000201a:	1e5d      	subs	r5, r3, #1
1000201c:	ea82 73e2 	eor.w	r3, r2, r2, asr #31
10002020:	eba3 73e2 	sub.w	r3, r3, r2, asr #31
10002024:	0fd1      	lsrs	r1, r2, #31
10002026:	2600      	movs	r6, #0
10002028:	4622      	mov	r2, r4
1000202a:	4699      	mov	r9, r3
1000202c:	f8df c104 	ldr.w	ip, [pc, #260]	@ 10002134 <_etoa+0x21c>
10002030:	e001      	b.n	10002036 <_etoa+0x11e>
10002032:	2e20      	cmp	r6, #32
10002034:	d010      	beq.n	10002058 <_etoa+0x140>
10002036:	46ce      	mov	lr, r9
10002038:	fbac 3009 	umull	r3, r0, ip, r9
1000203c:	08c0      	lsrs	r0, r0, #3
1000203e:	eb00 0380 	add.w	r3, r0, r0, lsl #2
10002042:	eba9 0343 	sub.w	r3, r9, r3, lsl #1
10002046:	3330      	adds	r3, #48	@ 0x30
10002048:	f1be 0f09 	cmp.w	lr, #9
1000204c:	4681      	mov	r9, r0
1000204e:	f106 0601 	add.w	r6, r6, #1
10002052:	f802 3b01 	strb.w	r3, [r2], #1
10002056:	d8ec      	bhi.n	10002032 <_etoa+0x11a>
10002058:	2305      	movs	r3, #5
1000205a:	2000      	movs	r0, #0
1000205c:	9306      	str	r3, [sp, #24]
1000205e:	230a      	movs	r3, #10
10002060:	9505      	str	r5, [sp, #20]
10002062:	9400      	str	r4, [sp, #0]
10002064:	9d09      	ldr	r5, [sp, #36]	@ 0x24
10002066:	9c08      	ldr	r4, [sp, #32]
10002068:	4642      	mov	r2, r8
1000206a:	e9cd 3003 	strd	r3, r0, [sp, #12]
1000206e:	e9cd 6101 	strd	r6, r1, [sp, #4]
10002072:	462b      	mov	r3, r5
10002074:	4621      	mov	r1, r4
10002076:	4638      	mov	r0, r7
10002078:	f7ff fbfa 	bl	10001870 <_ntoa_format>
1000207c:	9a10      	ldr	r2, [sp, #64]	@ 0x40
1000207e:	4680      	mov	r8, r0
10002080:	b1d2      	cbz	r2, 100020b8 <_etoa+0x1a0>
10002082:	eba0 060b 	sub.w	r6, r0, fp
10002086:	45b2      	cmp	sl, r6
10002088:	d916      	bls.n	100020b8 <_etoa+0x1a0>
1000208a:	eb0b 0206 	add.w	r2, fp, r6
1000208e:	462b      	mov	r3, r5
10002090:	4621      	mov	r1, r4
10002092:	2020      	movs	r0, #32
10002094:	3601      	adds	r6, #1
10002096:	47b8      	blx	r7
10002098:	45b2      	cmp	sl, r6
1000209a:	d8f6      	bhi.n	1000208a <_etoa+0x172>
1000209c:	f10b 33ff 	add.w	r3, fp, #4294967295
100020a0:	4453      	add	r3, sl
100020a2:	f1cb 0201 	rsb	r2, fp, #1
100020a6:	eba3 0308 	sub.w	r3, r3, r8
100020aa:	4442      	add	r2, r8
100020ac:	4592      	cmp	sl, r2
100020ae:	bf38      	it	cc
100020b0:	2300      	movcc	r3, #0
100020b2:	f108 0801 	add.w	r8, r8, #1
100020b6:	4498      	add	r8, r3
100020b8:	4640      	mov	r0, r8
100020ba:	b01f      	add	sp, #124	@ 0x7c
100020bc:	e8bd 8ff0 	ldmia.w	sp!, {r4, r5, r6, r7, r8, r9, sl, fp, pc}
100020c0:	465a      	mov	r2, fp
100020c2:	4638      	mov	r0, r7
100020c4:	e9cd 4528 	strd	r4, r5, [sp, #160]	@ 0xa0
100020c8:	e9cd a62b 	strd	sl, r6, [sp, #172]	@ 0xac
100020cc:	9c0e      	ldr	r4, [sp, #56]	@ 0x38
100020ce:	9b09      	ldr	r3, [sp, #36]	@ 0x24
100020d0:	9908      	ldr	r1, [sp, #32]
100020d2:	942a      	str	r4, [sp, #168]	@ 0xa8
100020d4:	b01f      	add	sp, #124	@ 0x7c
100020d6:	e8bd 4ff0 	ldmia.w	sp!, {r4, r5, r6, r7, r8, r9, sl, fp, lr}
100020da:	f7ff bcbd 	b.w	10001a58 <_ftoa>
100020de:	ea58 0309 	orrs.w	r3, r8, r9
100020e2:	d12b      	bne.n	1000213c <_etoa+0x224>
100020e4:	2a00      	cmp	r2, #0
100020e6:	f43f af62 	beq.w	10001fae <_etoa+0x96>
100020ea:	2300      	movs	r3, #0
100020ec:	930c      	str	r3, [sp, #48]	@ 0x30
100020ee:	9b0e      	ldr	r3, [sp, #56]	@ 0x38
100020f0:	9a0c      	ldr	r2, [sp, #48]	@ 0x30
100020f2:	4293      	cmp	r3, r2
100020f4:	f300 81b9 	bgt.w	1000246a <_etoa+0x552>
100020f8:	f04f 0800 	mov.w	r8, #0
100020fc:	4620      	mov	r0, r4
100020fe:	4629      	mov	r1, r5
10002100:	2200      	movs	r2, #0
10002102:	2300      	movs	r3, #0
10002104:	f7ff fb18 	bl	10001738 <__wrap___aeabi_dcmplt>
10002108:	2800      	cmp	r0, #0
1000210a:	f040 8113 	bne.w	10002334 <_etoa+0x41c>
1000210e:	ed9d 7b0a 	vldr	d7, [sp, #40]	@ 0x28
10002112:	f426 6600 	bic.w	r6, r6, #2048	@ 0x800
10002116:	f446 6680 	orr.w	r6, r6, #1024	@ 0x400
1000211a:	ed8d 7b28 	vstr	d7, [sp, #160]	@ 0xa0
1000211e:	465a      	mov	r2, fp
10002120:	4638      	mov	r0, r7
10002122:	e9cd 8a2a 	strd	r8, sl, [sp, #168]	@ 0xa8
10002126:	9b09      	ldr	r3, [sp, #36]	@ 0x24
10002128:	9908      	ldr	r1, [sp, #32]
1000212a:	962c      	str	r6, [sp, #176]	@ 0xb0
1000212c:	e7d2      	b.n	100020d4 <_etoa+0x1bc>
1000212e:	bf00      	nop
10002130:	7fefffff 	.word	0x7fefffff
10002134:	cccccccd 	.word	0xcccccccd
10002138:	2306      	movs	r3, #6
1000213a:	930e      	str	r3, [sp, #56]	@ 0x38
1000213c:	f3c9 500a 	ubfx	r0, r9, #20, #11
10002140:	f2a0 30ff 	subw	r0, r0, #1023	@ 0x3ff
10002144:	f7ff fa9e 	bl	10001684 <__wrap___aeabi_i2d>
10002148:	a3c1      	add	r3, pc, #772	@ (adr r3, 10002450 <_etoa+0x538>)
1000214a:	e9d3 2300 	ldrd	r2, r3, [r3]
1000214e:	f7ff fa25 	bl	1000159c <__wrap___aeabi_dmul>
10002152:	a3c1      	add	r3, pc, #772	@ (adr r3, 10002458 <_etoa+0x540>)
10002154:	e9d3 2300 	ldrd	r2, r3, [r3]
10002158:	f7ff f9f8 	bl	1000154c <__wrap___aeabi_dadd>
1000215c:	f3c9 0913 	ubfx	r9, r9, #0, #20
10002160:	e9cd 010c 	strd	r0, r1, [sp, #48]	@ 0x30
10002164:	f049 517f 	orr.w	r1, r9, #1069547520	@ 0x3fc00000
10002168:	4640      	mov	r0, r8
1000216a:	2200      	movs	r2, #0
1000216c:	4bb2      	ldr	r3, [pc, #712]	@ (10002438 <_etoa+0x520>)
1000216e:	f441 1140 	orr.w	r1, r1, #3145728	@ 0x300000
10002172:	f7ff f9ff 	bl	10001574 <__wrap___aeabi_dsub>
10002176:	a3a4      	add	r3, pc, #656	@ (adr r3, 10002408 <_etoa+0x4f0>)
10002178:	e9d3 2300 	ldrd	r2, r3, [r3]
1000217c:	f7ff fa0e 	bl	1000159c <__wrap___aeabi_dmul>
10002180:	4602      	mov	r2, r0
10002182:	460b      	mov	r3, r1
10002184:	e9dd 010c 	ldrd	r0, r1, [sp, #48]	@ 0x30
10002188:	f7ff f9e0 	bl	1000154c <__wrap___aeabi_dadd>
1000218c:	f7ff fa9e 	bl	100016cc <__wrap___aeabi_d2iz>
10002190:	900c      	str	r0, [sp, #48]	@ 0x30
10002192:	f7ff fa77 	bl	10001684 <__wrap___aeabi_i2d>
10002196:	a39e      	add	r3, pc, #632	@ (adr r3, 10002410 <_etoa+0x4f8>)
10002198:	e9d3 2300 	ldrd	r2, r3, [r3]
1000219c:	4680      	mov	r8, r0
1000219e:	4689      	mov	r9, r1
100021a0:	f7ff f9fc 	bl	1000159c <__wrap___aeabi_dmul>
100021a4:	2200      	movs	r2, #0
100021a6:	4ba5      	ldr	r3, [pc, #660]	@ (1000243c <_etoa+0x524>)
100021a8:	f7ff f9d0 	bl	1000154c <__wrap___aeabi_dadd>
100021ac:	f7ff fa8e 	bl	100016cc <__wrap___aeabi_d2iz>
100021b0:	4603      	mov	r3, r0
100021b2:	4649      	mov	r1, r9
100021b4:	4640      	mov	r0, r8
100021b6:	9312      	str	r3, [sp, #72]	@ 0x48
100021b8:	a397      	add	r3, pc, #604	@ (adr r3, 10002418 <_etoa+0x500>)
100021ba:	e9d3 2300 	ldrd	r2, r3, [r3]
100021be:	f7ff f9ed 	bl	1000159c <__wrap___aeabi_dmul>
100021c2:	4680      	mov	r8, r0
100021c4:	9812      	ldr	r0, [sp, #72]	@ 0x48
100021c6:	4689      	mov	r9, r1
100021c8:	f7ff fa5c 	bl	10001684 <__wrap___aeabi_i2d>
100021cc:	a394      	add	r3, pc, #592	@ (adr r3, 10002420 <_etoa+0x508>)
100021ce:	e9d3 2300 	ldrd	r2, r3, [r3]
100021d2:	f7ff f9e3 	bl	1000159c <__wrap___aeabi_dmul>
100021d6:	4602      	mov	r2, r0
100021d8:	460b      	mov	r3, r1
100021da:	4640      	mov	r0, r8
100021dc:	4649      	mov	r1, r9
100021de:	f7ff f9c9 	bl	10001574 <__wrap___aeabi_dsub>
100021e2:	4602      	mov	r2, r0
100021e4:	460b      	mov	r3, r1
100021e6:	4680      	mov	r8, r0
100021e8:	4689      	mov	r9, r1
100021ea:	f7ff f9d7 	bl	1000159c <__wrap___aeabi_dmul>
100021ee:	4642      	mov	r2, r8
100021f0:	464b      	mov	r3, r9
100021f2:	e9cd 0110 	strd	r0, r1, [sp, #64]	@ 0x40
100021f6:	4640      	mov	r0, r8
100021f8:	4649      	mov	r1, r9
100021fa:	f7ff f9a7 	bl	1000154c <__wrap___aeabi_dadd>
100021fe:	2200      	movs	r2, #0
10002200:	e9cd 0114 	strd	r0, r1, [sp, #80]	@ 0x50
10002204:	e9dd 0110 	ldrd	r0, r1, [sp, #64]	@ 0x40
10002208:	4b8d      	ldr	r3, [pc, #564]	@ (10002440 <_etoa+0x528>)
1000220a:	f7ff f9ed 	bl	100015e8 <__wrap___aeabi_ddiv>
1000220e:	2200      	movs	r2, #0
10002210:	4b8c      	ldr	r3, [pc, #560]	@ (10002444 <_etoa+0x52c>)
10002212:	f7ff f99b 	bl	1000154c <__wrap___aeabi_dadd>
10002216:	4602      	mov	r2, r0
10002218:	460b      	mov	r3, r1
1000221a:	e9dd 0110 	ldrd	r0, r1, [sp, #64]	@ 0x40
1000221e:	f7ff f9e3 	bl	100015e8 <__wrap___aeabi_ddiv>
10002222:	2200      	movs	r2, #0
10002224:	4b88      	ldr	r3, [pc, #544]	@ (10002448 <_etoa+0x530>)
10002226:	f7ff f991 	bl	1000154c <__wrap___aeabi_dadd>
1000222a:	4602      	mov	r2, r0
1000222c:	460b      	mov	r3, r1
1000222e:	e9dd 0110 	ldrd	r0, r1, [sp, #64]	@ 0x40
10002232:	f7ff f9d9 	bl	100015e8 <__wrap___aeabi_ddiv>
10002236:	4642      	mov	r2, r8
10002238:	464b      	mov	r3, r9
1000223a:	4680      	mov	r8, r0
1000223c:	4689      	mov	r9, r1
1000223e:	2000      	movs	r0, #0
10002240:	f04f 4180 	mov.w	r1, #1073741824	@ 0x40000000
10002244:	f7ff f996 	bl	10001574 <__wrap___aeabi_dsub>
10002248:	4602      	mov	r2, r0
1000224a:	460b      	mov	r3, r1
1000224c:	4640      	mov	r0, r8
1000224e:	4649      	mov	r1, r9
10002250:	f7ff f97c 	bl	1000154c <__wrap___aeabi_dadd>
10002254:	4602      	mov	r2, r0
10002256:	460b      	mov	r3, r1
10002258:	e9dd 0114 	ldrd	r0, r1, [sp, #80]	@ 0x50
1000225c:	f7ff f9c4 	bl	100015e8 <__wrap___aeabi_ddiv>
10002260:	2200      	movs	r2, #0
10002262:	4b7a      	ldr	r3, [pc, #488]	@ (1000244c <_etoa+0x534>)
10002264:	f7ff f972 	bl	1000154c <__wrap___aeabi_dadd>
10002268:	9b12      	ldr	r3, [sp, #72]	@ 0x48
1000226a:	2200      	movs	r2, #0
1000226c:	f203 3cff 	addw	ip, r3, #1023	@ 0x3ff
10002270:	ea4f 530c 	mov.w	r3, ip, lsl #20
10002274:	f7ff f992 	bl	1000159c <__wrap___aeabi_dmul>
10002278:	4680      	mov	r8, r0
1000227a:	4689      	mov	r9, r1
1000227c:	e9dd 010a 	ldrd	r0, r1, [sp, #40]	@ 0x28
10002280:	4642      	mov	r2, r8
10002282:	464b      	mov	r3, r9
10002284:	f7ff fa58 	bl	10001738 <__wrap___aeabi_dcmplt>
10002288:	b150      	cbz	r0, 100022a0 <_etoa+0x388>
1000228a:	9b0c      	ldr	r3, [sp, #48]	@ 0x30
1000228c:	4640      	mov	r0, r8
1000228e:	3b01      	subs	r3, #1
10002290:	4649      	mov	r1, r9
10002292:	930c      	str	r3, [sp, #48]	@ 0x30
10002294:	2200      	movs	r2, #0
10002296:	4b6b      	ldr	r3, [pc, #428]	@ (10002444 <_etoa+0x52c>)
10002298:	f7ff f9a6 	bl	100015e8 <__wrap___aeabi_ddiv>
1000229c:	4680      	mov	r8, r0
1000229e:	4689      	mov	r9, r1
100022a0:	9a0c      	ldr	r2, [sp, #48]	@ 0x30
100022a2:	4643      	mov	r3, r8
100022a4:	3263      	adds	r2, #99	@ 0x63
100022a6:	2ac6      	cmp	r2, #198	@ 0xc6
100022a8:	f006 0202 	and.w	r2, r6, #2
100022ac:	9210      	str	r2, [sp, #64]	@ 0x40
100022ae:	4649      	mov	r1, r9
100022b0:	9a0f      	ldr	r2, [sp, #60]	@ 0x3c
100022b2:	d82c      	bhi.n	1000230e <_etoa+0x3f6>
100022b4:	2a00      	cmp	r2, #0
100022b6:	d05e      	beq.n	10002376 <_etoa+0x45e>
100022b8:	2204      	movs	r2, #4
100022ba:	9212      	str	r2, [sp, #72]	@ 0x48
100022bc:	430b      	orrs	r3, r1
100022be:	f43f af16 	beq.w	100020ee <_etoa+0x1d6>
100022c2:	e9dd 010a 	ldrd	r0, r1, [sp, #40]	@ 0x28
100022c6:	a358      	add	r3, pc, #352	@ (adr r3, 10002428 <_etoa+0x510>)
100022c8:	e9d3 2300 	ldrd	r2, r3, [r3]
100022cc:	f7ff fa5c 	bl	10001788 <__wrap___aeabi_dcmpge>
100022d0:	b148      	cbz	r0, 100022e6 <_etoa+0x3ce>
100022d2:	e9dd 010a 	ldrd	r0, r1, [sp, #40]	@ 0x28
100022d6:	a356      	add	r3, pc, #344	@ (adr r3, 10002430 <_etoa+0x518>)
100022d8:	e9d3 2300 	ldrd	r2, r3, [r3]
100022dc:	f7ff fa2c 	bl	10001738 <__wrap___aeabi_dcmplt>
100022e0:	2800      	cmp	r0, #0
100022e2:	f47f af04 	bne.w	100020ee <_etoa+0x1d6>
100022e6:	9b0e      	ldr	r3, [sp, #56]	@ 0x38
100022e8:	2b00      	cmp	r3, #0
100022ea:	d050      	beq.n	1000238e <_etoa+0x476>
100022ec:	9a13      	ldr	r2, [sp, #76]	@ 0x4c
100022ee:	2a00      	cmp	r2, #0
100022f0:	d07d      	beq.n	100023ee <_etoa+0x4d6>
100022f2:	3b01      	subs	r3, #1
100022f4:	930e      	str	r3, [sp, #56]	@ 0x38
100022f6:	9b12      	ldr	r3, [sp, #72]	@ 0x48
100022f8:	459a      	cmp	sl, r3
100022fa:	d905      	bls.n	10002308 <_etoa+0x3f0>
100022fc:	9b10      	ldr	r3, [sp, #64]	@ 0x40
100022fe:	2b00      	cmp	r3, #0
10002300:	f000 80ae 	beq.w	10002460 <_etoa+0x548>
10002304:	2302      	movs	r3, #2
10002306:	9310      	str	r3, [sp, #64]	@ 0x40
10002308:	2300      	movs	r3, #0
1000230a:	930f      	str	r3, [sp, #60]	@ 0x3c
1000230c:	e044      	b.n	10002398 <_etoa+0x480>
1000230e:	bb22      	cbnz	r2, 1000235a <_etoa+0x442>
10002310:	f1ba 0f05 	cmp.w	sl, #5
10002314:	d94f      	bls.n	100023b6 <_etoa+0x49e>
10002316:	f006 0302 	and.w	r3, r6, #2
1000231a:	2b00      	cmp	r3, #0
1000231c:	d149      	bne.n	100023b2 <_etoa+0x49a>
1000231e:	2305      	movs	r3, #5
10002320:	9312      	str	r3, [sp, #72]	@ 0x48
10002322:	f1aa 0305 	sub.w	r3, sl, #5
10002326:	930f      	str	r3, [sp, #60]	@ 0x3c
10002328:	e03a      	b.n	100023a0 <_etoa+0x488>
1000232a:	f105 4300 	add.w	r3, r5, #2147483648	@ 0x80000000
1000232e:	940a      	str	r4, [sp, #40]	@ 0x28
10002330:	930b      	str	r3, [sp, #44]	@ 0x2c
10002332:	e627      	b.n	10001f84 <_etoa+0x6c>
10002334:	f426 6600 	bic.w	r6, r6, #2048	@ 0x800
10002338:	f446 6680 	orr.w	r6, r6, #1024	@ 0x400
1000233c:	4638      	mov	r0, r7
1000233e:	962c      	str	r6, [sp, #176]	@ 0xb0
10002340:	e9dd 670a 	ldrd	r6, r7, [sp, #40]	@ 0x28
10002344:	4634      	mov	r4, r6
10002346:	f107 4500 	add.w	r5, r7, #2147483648	@ 0x80000000
1000234a:	465a      	mov	r2, fp
1000234c:	e9cd 8a2a 	strd	r8, sl, [sp, #168]	@ 0xa8
10002350:	e9cd 4528 	strd	r4, r5, [sp, #160]	@ 0xa0
10002354:	9b09      	ldr	r3, [sp, #36]	@ 0x24
10002356:	9908      	ldr	r1, [sp, #32]
10002358:	e6bc      	b.n	100020d4 <_etoa+0x1bc>
1000235a:	2205      	movs	r2, #5
1000235c:	9212      	str	r2, [sp, #72]	@ 0x48
1000235e:	e7ad      	b.n	100022bc <_etoa+0x3a4>
10002360:	2300      	movs	r3, #0
10002362:	2202      	movs	r2, #2
10002364:	e9cd 320f 	strd	r3, r2, [sp, #60]	@ 0x3c
10002368:	2204      	movs	r2, #4
1000236a:	930c      	str	r3, [sp, #48]	@ 0x30
1000236c:	9212      	str	r2, [sp, #72]	@ 0x48
1000236e:	e62c      	b.n	10001fca <_etoa+0xb2>
10002370:	f04f 0805 	mov.w	r8, #5
10002374:	e6c2      	b.n	100020fc <_etoa+0x1e4>
10002376:	f1ba 0f04 	cmp.w	sl, #4
1000237a:	d91f      	bls.n	100023bc <_etoa+0x4a4>
1000237c:	9b10      	ldr	r3, [sp, #64]	@ 0x40
1000237e:	2b00      	cmp	r3, #0
10002380:	d178      	bne.n	10002474 <_etoa+0x55c>
10002382:	2304      	movs	r3, #4
10002384:	9312      	str	r3, [sp, #72]	@ 0x48
10002386:	f1aa 0304 	sub.w	r3, sl, #4
1000238a:	930f      	str	r3, [sp, #60]	@ 0x3c
1000238c:	e004      	b.n	10002398 <_etoa+0x480>
1000238e:	9b12      	ldr	r3, [sp, #72]	@ 0x48
10002390:	459a      	cmp	sl, r3
10002392:	d831      	bhi.n	100023f8 <_etoa+0x4e0>
10002394:	9b0e      	ldr	r3, [sp, #56]	@ 0x38
10002396:	930f      	str	r3, [sp, #60]	@ 0x3c
10002398:	9b0c      	ldr	r3, [sp, #48]	@ 0x30
1000239a:	2b00      	cmp	r3, #0
1000239c:	f43f ae15 	beq.w	10001fca <_etoa+0xb2>
100023a0:	e9dd 010a 	ldrd	r0, r1, [sp, #40]	@ 0x28
100023a4:	4642      	mov	r2, r8
100023a6:	464b      	mov	r3, r9
100023a8:	f7ff f91e 	bl	100015e8 <__wrap___aeabi_ddiv>
100023ac:	e9cd 010a 	strd	r0, r1, [sp, #40]	@ 0x28
100023b0:	e60b      	b.n	10001fca <_etoa+0xb2>
100023b2:	2302      	movs	r3, #2
100023b4:	9310      	str	r3, [sp, #64]	@ 0x40
100023b6:	2305      	movs	r3, #5
100023b8:	9312      	str	r3, [sp, #72]	@ 0x48
100023ba:	e7f1      	b.n	100023a0 <_etoa+0x488>
100023bc:	2304      	movs	r3, #4
100023be:	9312      	str	r3, [sp, #72]	@ 0x48
100023c0:	e7ea      	b.n	10002398 <_etoa+0x480>
100023c2:	e9dd 450a 	ldrd	r4, r5, [sp, #40]	@ 0x28
100023c6:	46a0      	mov	r8, r4
100023c8:	9b0f      	ldr	r3, [sp, #60]	@ 0x3c
100023ca:	f105 4900 	add.w	r9, r5, #2147483648	@ 0x80000000
100023ce:	9303      	str	r3, [sp, #12]
100023d0:	9b0e      	ldr	r3, [sp, #56]	@ 0x38
100023d2:	465a      	mov	r2, fp
100023d4:	9302      	str	r3, [sp, #8]
100023d6:	f426 6300 	bic.w	r3, r6, #2048	@ 0x800
100023da:	9304      	str	r3, [sp, #16]
100023dc:	4638      	mov	r0, r7
100023de:	e9cd 8900 	strd	r8, r9, [sp]
100023e2:	9b09      	ldr	r3, [sp, #36]	@ 0x24
100023e4:	9908      	ldr	r1, [sp, #32]
100023e6:	f7ff fb37 	bl	10001a58 <_ftoa>
100023ea:	4602      	mov	r2, r0
100023ec:	e608      	b.n	10002000 <_etoa+0xe8>
100023ee:	9b12      	ldr	r3, [sp, #72]	@ 0x48
100023f0:	459a      	cmp	sl, r3
100023f2:	d844      	bhi.n	1000247e <_etoa+0x566>
100023f4:	920f      	str	r2, [sp, #60]	@ 0x3c
100023f6:	e7cf      	b.n	10002398 <_etoa+0x480>
100023f8:	9b10      	ldr	r3, [sp, #64]	@ 0x40
100023fa:	b38b      	cbz	r3, 10002460 <_etoa+0x548>
100023fc:	9b0e      	ldr	r3, [sp, #56]	@ 0x38
100023fe:	930f      	str	r3, [sp, #60]	@ 0x3c
10002400:	2302      	movs	r3, #2
10002402:	9310      	str	r3, [sp, #64]	@ 0x40
10002404:	e7c8      	b.n	10002398 <_etoa+0x480>
10002406:	bf00      	nop
10002408:	636f4361 	.word	0x636f4361
1000240c:	3fd287a7 	.word	0x3fd287a7
10002410:	0979a371 	.word	0x0979a371
10002414:	400a934f 	.word	0x400a934f
10002418:	bbb55516 	.word	0xbbb55516
1000241c:	40026bb1 	.word	0x40026bb1
10002420:	fefa39ef 	.word	0xfefa39ef
10002424:	3fe62e42 	.word	0x3fe62e42
10002428:	eb1c432d 	.word	0xeb1c432d
1000242c:	3f1a36e2 	.word	0x3f1a36e2
10002430:	00000000 	.word	0x00000000
10002434:	412e8480 	.word	0x412e8480
10002438:	3ff80000 	.word	0x3ff80000
1000243c:	3fe00000 	.word	0x3fe00000
10002440:	402c0000 	.word	0x402c0000
10002444:	40240000 	.word	0x40240000
10002448:	40180000 	.word	0x40180000
1000244c:	3ff00000 	.word	0x3ff00000
10002450:	509f79fb 	.word	0x509f79fb
10002454:	3fd34413 	.word	0x3fd34413
10002458:	8b60c8b3 	.word	0x8b60c8b3
1000245c:	3fc68a28 	.word	0x3fc68a28
10002460:	9b12      	ldr	r3, [sp, #72]	@ 0x48
10002462:	ebaa 0303 	sub.w	r3, sl, r3
10002466:	930f      	str	r3, [sp, #60]	@ 0x3c
10002468:	e796      	b.n	10002398 <_etoa+0x480>
1000246a:	eba3 0802 	sub.w	r8, r3, r2
1000246e:	f108 38ff 	add.w	r8, r8, #4294967295
10002472:	e643      	b.n	100020fc <_etoa+0x1e4>
10002474:	2304      	movs	r3, #4
10002476:	9312      	str	r3, [sp, #72]	@ 0x48
10002478:	2302      	movs	r3, #2
1000247a:	9310      	str	r3, [sp, #64]	@ 0x40
1000247c:	e78c      	b.n	10002398 <_etoa+0x480>
1000247e:	9b10      	ldr	r3, [sp, #64]	@ 0x40
10002480:	2b00      	cmp	r3, #0
10002482:	d0ed      	beq.n	10002460 <_etoa+0x548>
10002484:	2302      	movs	r3, #2
10002486:	920f      	str	r2, [sp, #60]	@ 0x3c
10002488:	9310      	str	r3, [sp, #64]	@ 0x40
1000248a:	e785      	b.n	10002398 <_etoa+0x480>

1000248c <_vsnprintf>:
1000248c:	e92d 4ff0 	stmdb	sp!, {r4, r5, r6, r7, r8, r9, sl, fp, lr}
10002490:	b09b      	sub	sp, #108	@ 0x6c
10002492:	9c24      	ldr	r4, [sp, #144]	@ 0x90
10002494:	4d95      	ldr	r5, [pc, #596]	@ (100026ec <_vsnprintf+0x260>)
10002496:	940a      	str	r4, [sp, #40]	@ 0x28
10002498:	4c95      	ldr	r4, [pc, #596]	@ (100026f0 <_vsnprintf+0x264>)
1000249a:	f1b1 0a00 	subs.w	sl, r1, #0
1000249e:	bf18      	it	ne
100024a0:	4683      	movne	fp, r0
100024a2:	6025      	str	r5, [r4, #0]
100024a4:	7818      	ldrb	r0, [r3, #0]
100024a6:	4c93      	ldr	r4, [pc, #588]	@ (100026f4 <_vsnprintf+0x268>)
100024a8:	4691      	mov	r9, r2
100024aa:	bf08      	it	eq
100024ac:	46a3      	moveq	fp, r4
100024ae:	9309      	str	r3, [sp, #36]	@ 0x24
100024b0:	2800      	cmp	r0, #0
100024b2:	f000 8293 	beq.w	100029dc <_vsnprintf+0x550>
100024b6:	f04f 0800 	mov.w	r8, #0
100024ba:	e00a      	b.n	100024d2 <_vsnprintf+0x46>
100024bc:	4642      	mov	r2, r8
100024be:	464b      	mov	r3, r9
100024c0:	4651      	mov	r1, sl
100024c2:	f108 0801 	add.w	r8, r8, #1
100024c6:	47d8      	blx	fp
100024c8:	9b09      	ldr	r3, [sp, #36]	@ 0x24
100024ca:	7818      	ldrb	r0, [r3, #0]
100024cc:	2800      	cmp	r0, #0
100024ce:	f000 80ce 	beq.w	1000266e <_vsnprintf+0x1e2>
100024d2:	9b09      	ldr	r3, [sp, #36]	@ 0x24
100024d4:	2825      	cmp	r0, #37	@ 0x25
100024d6:	f103 0301 	add.w	r3, r3, #1
100024da:	9309      	str	r3, [sp, #36]	@ 0x24
100024dc:	d1ee      	bne.n	100024bc <_vsnprintf+0x30>
100024de:	461c      	mov	r4, r3
100024e0:	2300      	movs	r3, #0
100024e2:	4622      	mov	r2, r4
100024e4:	f812 0b01 	ldrb.w	r0, [r2], #1
100024e8:	f1a0 0120 	sub.w	r1, r0, #32
100024ec:	2910      	cmp	r1, #16
100024ee:	d80a      	bhi.n	10002506 <_vsnprintf+0x7a>
100024f0:	e8df f001 	tbb	[pc, r1]
100024f4:	3c090940 	.word	0x3c090940
100024f8:	09090909 	.word	0x09090909
100024fc:	38090909 	.word	0x38090909
10002500:	09093409 	.word	0x09093409
10002504:	30          	.byte	0x30
10002505:	00          	.byte	0x00
10002506:	f1a0 0130 	sub.w	r1, r0, #48	@ 0x30
1000250a:	2909      	cmp	r1, #9
1000250c:	9409      	str	r4, [sp, #36]	@ 0x24
1000250e:	f240 808a 	bls.w	10002626 <_vsnprintf+0x19a>
10002512:	282a      	cmp	r0, #42	@ 0x2a
10002514:	f000 80f0 	beq.w	100026f8 <_vsnprintf+0x26c>
10002518:	2500      	movs	r5, #0
1000251a:	282e      	cmp	r0, #46	@ 0x2e
1000251c:	f000 8096 	beq.w	1000264c <_vsnprintf+0x1c0>
10002520:	2600      	movs	r6, #0
10002522:	f1a0 0168 	sub.w	r1, r0, #104	@ 0x68
10002526:	2912      	cmp	r1, #18
10002528:	d82d      	bhi.n	10002586 <_vsnprintf+0xfa>
1000252a:	e8df f011 	tbh	[pc, r1, lsl #1]
1000252e:	0149      	.short	0x0149
10002530:	0143002c 	.word	0x0143002c
10002534:	0138002c 	.word	0x0138002c
10002538:	002c002c 	.word	0x002c002c
1000253c:	002c002c 	.word	0x002c002c
10002540:	002c002c 	.word	0x002c002c
10002544:	0027002c 	.word	0x0027002c
10002548:	002c002c 	.word	0x002c002c
1000254c:	002c002c 	.word	0x002c002c
10002550:	0027002c 	.word	0x0027002c
10002554:	4614      	mov	r4, r2
10002556:	f043 0301 	orr.w	r3, r3, #1
1000255a:	e7c2      	b.n	100024e2 <_vsnprintf+0x56>
1000255c:	4614      	mov	r4, r2
1000255e:	f043 0302 	orr.w	r3, r3, #2
10002562:	e7be      	b.n	100024e2 <_vsnprintf+0x56>
10002564:	4614      	mov	r4, r2
10002566:	f043 0304 	orr.w	r3, r3, #4
1000256a:	e7ba      	b.n	100024e2 <_vsnprintf+0x56>
1000256c:	4614      	mov	r4, r2
1000256e:	f043 0310 	orr.w	r3, r3, #16
10002572:	e7b6      	b.n	100024e2 <_vsnprintf+0x56>
10002574:	4614      	mov	r4, r2
10002576:	f043 0308 	orr.w	r3, r3, #8
1000257a:	e7b2      	b.n	100024e2 <_vsnprintf+0x56>
1000257c:	9909      	ldr	r1, [sp, #36]	@ 0x24
1000257e:	7848      	ldrb	r0, [r1, #1]
10002580:	f443 7380 	orr.w	r3, r3, #256	@ 0x100
10002584:	3201      	adds	r2, #1
10002586:	2867      	cmp	r0, #103	@ 0x67
10002588:	9209      	str	r2, [sp, #36]	@ 0x24
1000258a:	d87e      	bhi.n	1000268a <_vsnprintf+0x1fe>
1000258c:	2824      	cmp	r0, #36	@ 0x24
1000258e:	f240 80c1 	bls.w	10002714 <_vsnprintf+0x288>
10002592:	f1a0 0225 	sub.w	r2, r0, #37	@ 0x25
10002596:	2a42      	cmp	r2, #66	@ 0x42
10002598:	f200 80bc 	bhi.w	10002714 <_vsnprintf+0x288>
1000259c:	e8df f012 	tbh	[pc, r2, lsl #1]
100025a0:	00ba0150 	.word	0x00ba0150
100025a4:	00ba00ba 	.word	0x00ba00ba
100025a8:	00ba00ba 	.word	0x00ba00ba
100025ac:	00ba00ba 	.word	0x00ba00ba
100025b0:	00ba00ba 	.word	0x00ba00ba
100025b4:	00ba00ba 	.word	0x00ba00ba
100025b8:	00ba00ba 	.word	0x00ba00ba
100025bc:	00ba00ba 	.word	0x00ba00ba
100025c0:	00ba00ba 	.word	0x00ba00ba
100025c4:	00ba00ba 	.word	0x00ba00ba
100025c8:	00ba00ba 	.word	0x00ba00ba
100025cc:	00ba00ba 	.word	0x00ba00ba
100025d0:	00ba00ba 	.word	0x00ba00ba
100025d4:	00ba00ba 	.word	0x00ba00ba
100025d8:	00ba00ba 	.word	0x00ba00ba
100025dc:	00ba00ba 	.word	0x00ba00ba
100025e0:	01370119 	.word	0x01370119
100025e4:	00ba0119 	.word	0x00ba0119
100025e8:	00ba00ba 	.word	0x00ba00ba
100025ec:	00ba00ba 	.word	0x00ba00ba
100025f0:	00ba00ba 	.word	0x00ba00ba
100025f4:	00ba00ba 	.word	0x00ba00ba
100025f8:	00ba00ba 	.word	0x00ba00ba
100025fc:	00ba00ba 	.word	0x00ba00ba
10002600:	00ba00ba 	.word	0x00ba00ba
10002604:	01bc00ba 	.word	0x01bc00ba
10002608:	00ba00ba 	.word	0x00ba00ba
1000260c:	00ba00ba 	.word	0x00ba00ba
10002610:	00ba00ba 	.word	0x00ba00ba
10002614:	00ba00ba 	.word	0x00ba00ba
10002618:	01bc00ba 	.word	0x01bc00ba
1000261c:	01bc0158 	.word	0x01bc0158
10002620:	01370119 	.word	0x01370119
10002624:	0119      	.short	0x0119
10002626:	2500      	movs	r5, #0
10002628:	e000      	b.n	1000262c <_vsnprintf+0x1a0>
1000262a:	3201      	adds	r2, #1
1000262c:	eb05 0585 	add.w	r5, r5, r5, lsl #2
10002630:	eb00 0545 	add.w	r5, r0, r5, lsl #1
10002634:	7810      	ldrb	r0, [r2, #0]
10002636:	3d30      	subs	r5, #48	@ 0x30
10002638:	f1a0 0130 	sub.w	r1, r0, #48	@ 0x30
1000263c:	2909      	cmp	r1, #9
1000263e:	d9f4      	bls.n	1000262a <_vsnprintf+0x19e>
10002640:	282e      	cmp	r0, #46	@ 0x2e
10002642:	9209      	str	r2, [sp, #36]	@ 0x24
10002644:	f102 0201 	add.w	r2, r2, #1
10002648:	f47f af6a 	bne.w	10002520 <_vsnprintf+0x94>
1000264c:	9909      	ldr	r1, [sp, #36]	@ 0x24
1000264e:	f443 6380 	orr.w	r3, r3, #1024	@ 0x400
10002652:	7848      	ldrb	r0, [r1, #1]
10002654:	4611      	mov	r1, r2
10002656:	f1a0 0630 	sub.w	r6, r0, #48	@ 0x30
1000265a:	2e09      	cmp	r6, #9
1000265c:	f240 8121 	bls.w	100028a2 <_vsnprintf+0x416>
10002660:	282a      	cmp	r0, #42	@ 0x2a
10002662:	f000 812f 	beq.w	100028c4 <_vsnprintf+0x438>
10002666:	9209      	str	r2, [sp, #36]	@ 0x24
10002668:	2600      	movs	r6, #0
1000266a:	3201      	adds	r2, #1
1000266c:	e759      	b.n	10002522 <_vsnprintf+0x96>
1000266e:	4644      	mov	r4, r8
10002670:	45c1      	cmp	r9, r8
10002672:	d801      	bhi.n	10002678 <_vsnprintf+0x1ec>
10002674:	f109 38ff 	add.w	r8, r9, #4294967295
10002678:	464b      	mov	r3, r9
1000267a:	4642      	mov	r2, r8
1000267c:	4651      	mov	r1, sl
1000267e:	2000      	movs	r0, #0
10002680:	47d8      	blx	fp
10002682:	4620      	mov	r0, r4
10002684:	b01b      	add	sp, #108	@ 0x6c
10002686:	e8bd 8ff0 	ldmia.w	sp!, {r4, r5, r6, r7, r8, r9, sl, fp, pc}
1000268a:	f1a0 0269 	sub.w	r2, r0, #105	@ 0x69
1000268e:	b2d2      	uxtb	r2, r2
10002690:	2a0f      	cmp	r2, #15
10002692:	d83f      	bhi.n	10002714 <_vsnprintf+0x288>
10002694:	2101      	movs	r1, #1
10002696:	f249 0741 	movw	r7, #36929	@ 0x9041
1000269a:	4091      	lsls	r1, r2
1000269c:	4039      	ands	r1, r7
1000269e:	f040 80f3 	bne.w	10002888 <_vsnprintf+0x3fc>
100026a2:	2a0a      	cmp	r2, #10
100026a4:	d03d      	beq.n	10002722 <_vsnprintf+0x296>
100026a6:	2a07      	cmp	r2, #7
100026a8:	d134      	bne.n	10002714 <_vsnprintf+0x288>
100026aa:	9d0a      	ldr	r5, [sp, #40]	@ 0x28
100026ac:	f855 2b04 	ldr.w	r2, [r5], #4
100026b0:	2a00      	cmp	r2, #0
100026b2:	f000 8113 	beq.w	100028dc <_vsnprintf+0x450>
100026b6:	f043 0021 	orr.w	r0, r3, #33	@ 0x21
100026ba:	ab12      	add	r3, sp, #72	@ 0x48
100026bc:	461f      	mov	r7, r3
100026be:	930b      	str	r3, [sp, #44]	@ 0x2c
100026c0:	e003      	b.n	100026ca <_vsnprintf+0x23e>
100026c2:	2920      	cmp	r1, #32
100026c4:	f000 8114 	beq.w	100028f0 <_vsnprintf+0x464>
100026c8:	461a      	mov	r2, r3
100026ca:	f002 040f 	and.w	r4, r2, #15
100026ce:	4623      	mov	r3, r4
100026d0:	2c09      	cmp	r4, #9
100026d2:	bf94      	ite	ls
100026d4:	3330      	addls	r3, #48	@ 0x30
100026d6:	3337      	addhi	r3, #55	@ 0x37
100026d8:	2a0f      	cmp	r2, #15
100026da:	f807 3b01 	strb.w	r3, [r7], #1
100026de:	f101 0101 	add.w	r1, r1, #1
100026e2:	ea4f 1312 	mov.w	r3, r2, lsr #4
100026e6:	d8ec      	bhi.n	100026c2 <_vsnprintf+0x236>
100026e8:	e102      	b.n	100028f0 <_vsnprintf+0x464>
100026ea:	bf00      	nop
100026ec:	1000248d 	.word	0x1000248d
100026f0:	2000080c 	.word	0x2000080c
100026f4:	100017d1 	.word	0x100017d1
100026f8:	990a      	ldr	r1, [sp, #40]	@ 0x28
100026fa:	9809      	ldr	r0, [sp, #36]	@ 0x24
100026fc:	f851 5b04 	ldr.w	r5, [r1], #4
10002700:	7840      	ldrb	r0, [r0, #1]
10002702:	2d00      	cmp	r5, #0
10002704:	e9cd 2109 	strd	r2, r1, [sp, #36]	@ 0x24
10002708:	bfbc      	itt	lt
1000270a:	f043 0302 	orrlt.w	r3, r3, #2
1000270e:	426d      	neglt	r5, r5
10002710:	3201      	adds	r2, #1
10002712:	e702      	b.n	1000251a <_vsnprintf+0x8e>
10002714:	4642      	mov	r2, r8
10002716:	464b      	mov	r3, r9
10002718:	4651      	mov	r1, sl
1000271a:	f108 0801 	add.w	r8, r8, #1
1000271e:	47d8      	blx	fp
10002720:	e6d2      	b.n	100024c8 <_vsnprintf+0x3c>
10002722:	990a      	ldr	r1, [sp, #40]	@ 0x28
10002724:	2e00      	cmp	r6, #0
10002726:	f851 7b04 	ldr.w	r7, [r1], #4
1000272a:	bf18      	it	ne
1000272c:	4632      	movne	r2, r6
1000272e:	7838      	ldrb	r0, [r7, #0]
10002730:	bf08      	it	eq
10002732:	f04f 32ff 	moveq.w	r2, #4294967295
10002736:	2800      	cmp	r0, #0
10002738:	f000 837b 	beq.w	10002e32 <_vsnprintf+0x9a6>
1000273c:	18bc      	adds	r4, r7, r2
1000273e:	46a4      	mov	ip, r4
10002740:	463a      	mov	r2, r7
10002742:	e004      	b.n	1000274e <_vsnprintf+0x2c2>
10002744:	f812 4f01 	ldrb.w	r4, [r2, #1]!
10002748:	2c00      	cmp	r4, #0
1000274a:	f000 813f 	beq.w	100029cc <_vsnprintf+0x540>
1000274e:	4594      	cmp	ip, r2
10002750:	d1f8      	bne.n	10002744 <_vsnprintf+0x2b8>
10002752:	4664      	mov	r4, ip
10002754:	1be4      	subs	r4, r4, r7
10002756:	055a      	lsls	r2, r3, #21
10002758:	f140 8122 	bpl.w	100029a0 <_vsnprintf+0x514>
1000275c:	42b4      	cmp	r4, r6
1000275e:	bf28      	it	cs
10002760:	4634      	movcs	r4, r6
10002762:	f013 0302 	ands.w	r3, r3, #2
10002766:	f000 8288 	beq.w	10002c7a <_vsnprintf+0x7ee>
1000276a:	2302      	movs	r3, #2
1000276c:	e9cd 510a 	strd	r5, r1, [sp, #40]	@ 0x28
10002770:	4642      	mov	r2, r8
10002772:	461d      	mov	r5, r3
10002774:	4446      	add	r6, r8
10002776:	e008      	b.n	1000278a <_vsnprintf+0x2fe>
10002778:	464b      	mov	r3, r9
1000277a:	4651      	mov	r1, sl
1000277c:	47d8      	blx	fp
1000277e:	f817 0f01 	ldrb.w	r0, [r7, #1]!
10002782:	f108 0801 	add.w	r8, r8, #1
10002786:	b110      	cbz	r0, 1000278e <_vsnprintf+0x302>
10002788:	4642      	mov	r2, r8
1000278a:	4546      	cmp	r6, r8
1000278c:	d1f4      	bne.n	10002778 <_vsnprintf+0x2ec>
1000278e:	462b      	mov	r3, r5
10002790:	990b      	ldr	r1, [sp, #44]	@ 0x2c
10002792:	9d0a      	ldr	r5, [sp, #40]	@ 0x28
10002794:	2b00      	cmp	r3, #0
10002796:	f040 8141 	bne.w	10002a1c <_vsnprintf+0x590>
1000279a:	910a      	str	r1, [sp, #40]	@ 0x28
1000279c:	e694      	b.n	100024c8 <_vsnprintf+0x3c>
1000279e:	9909      	ldr	r1, [sp, #36]	@ 0x24
100027a0:	7848      	ldrb	r0, [r1, #1]
100027a2:	286c      	cmp	r0, #108	@ 0x6c
100027a4:	f47f aeec 	bne.w	10002580 <_vsnprintf+0xf4>
100027a8:	460a      	mov	r2, r1
100027aa:	7888      	ldrb	r0, [r1, #2]
100027ac:	f443 7340 	orr.w	r3, r3, #768	@ 0x300
100027b0:	3203      	adds	r2, #3
100027b2:	e6e8      	b.n	10002586 <_vsnprintf+0xfa>
100027b4:	9909      	ldr	r1, [sp, #36]	@ 0x24
100027b6:	f443 7300 	orr.w	r3, r3, #512	@ 0x200
100027ba:	7848      	ldrb	r0, [r1, #1]
100027bc:	3201      	adds	r2, #1
100027be:	e6e2      	b.n	10002586 <_vsnprintf+0xfa>
100027c0:	9909      	ldr	r1, [sp, #36]	@ 0x24
100027c2:	7848      	ldrb	r0, [r1, #1]
100027c4:	2868      	cmp	r0, #104	@ 0x68
100027c6:	f000 8103 	beq.w	100029d0 <_vsnprintf+0x544>
100027ca:	f043 0380 	orr.w	r3, r3, #128	@ 0x80
100027ce:	3201      	adds	r2, #1
100027d0:	e6d9      	b.n	10002586 <_vsnprintf+0xfa>
100027d2:	2867      	cmp	r0, #103	@ 0x67
100027d4:	f000 80d9 	beq.w	1000298a <_vsnprintf+0x4fe>
100027d8:	2847      	cmp	r0, #71	@ 0x47
100027da:	f000 80dc 	beq.w	10002996 <_vsnprintf+0x50a>
100027de:	2845      	cmp	r0, #69	@ 0x45
100027e0:	f000 80db 	beq.w	1000299a <_vsnprintf+0x50e>
100027e4:	e9cd 5303 	strd	r5, r3, [sp, #12]
100027e8:	9b0a      	ldr	r3, [sp, #40]	@ 0x28
100027ea:	9602      	str	r6, [sp, #8]
100027ec:	3307      	adds	r3, #7
100027ee:	f023 0307 	bic.w	r3, r3, #7
100027f2:	461c      	mov	r4, r3
100027f4:	4642      	mov	r2, r8
100027f6:	e8f4 6702 	ldrd	r6, r7, [r4], #8
100027fa:	464b      	mov	r3, r9
100027fc:	4651      	mov	r1, sl
100027fe:	4658      	mov	r0, fp
10002800:	e9cd 6700 	strd	r6, r7, [sp]
10002804:	940a      	str	r4, [sp, #40]	@ 0x28
10002806:	f7ff fb87 	bl	10001f18 <_etoa>
1000280a:	4680      	mov	r8, r0
1000280c:	e65c      	b.n	100024c8 <_vsnprintf+0x3c>
1000280e:	2846      	cmp	r0, #70	@ 0x46
10002810:	bf08      	it	eq
10002812:	f043 0320 	orreq.w	r3, r3, #32
10002816:	e9cd 5303 	strd	r5, r3, [sp, #12]
1000281a:	9b0a      	ldr	r3, [sp, #40]	@ 0x28
1000281c:	9602      	str	r6, [sp, #8]
1000281e:	3307      	adds	r3, #7
10002820:	f023 0307 	bic.w	r3, r3, #7
10002824:	461c      	mov	r4, r3
10002826:	4642      	mov	r2, r8
10002828:	e8f4 6702 	ldrd	r6, r7, [r4], #8
1000282c:	464b      	mov	r3, r9
1000282e:	4651      	mov	r1, sl
10002830:	4658      	mov	r0, fp
10002832:	e9cd 6700 	strd	r6, r7, [sp]
10002836:	940a      	str	r4, [sp, #40]	@ 0x28
10002838:	f7ff f90e 	bl	10001a58 <_ftoa>
1000283c:	4680      	mov	r8, r0
1000283e:	e643      	b.n	100024c8 <_vsnprintf+0x3c>
10002840:	4642      	mov	r2, r8
10002842:	464b      	mov	r3, r9
10002844:	4651      	mov	r1, sl
10002846:	2025      	movs	r0, #37	@ 0x25
10002848:	f108 0801 	add.w	r8, r8, #1
1000284c:	47d8      	blx	fp
1000284e:	e63b      	b.n	100024c8 <_vsnprintf+0x3c>
10002850:	9a0a      	ldr	r2, [sp, #40]	@ 0x28
10002852:	0799      	lsls	r1, r3, #30
10002854:	f102 0404 	add.w	r4, r2, #4
10002858:	f108 0601 	add.w	r6, r8, #1
1000285c:	f140 80c6 	bpl.w	100029ec <_vsnprintf+0x560>
10002860:	7810      	ldrb	r0, [r2, #0]
10002862:	464b      	mov	r3, r9
10002864:	4642      	mov	r2, r8
10002866:	4651      	mov	r1, sl
10002868:	47d8      	blx	fp
1000286a:	2d01      	cmp	r5, #1
1000286c:	bf88      	it	hi
1000286e:	44a8      	addhi	r8, r5
10002870:	f240 81bd 	bls.w	10002bee <_vsnprintf+0x762>
10002874:	4632      	mov	r2, r6
10002876:	464b      	mov	r3, r9
10002878:	4651      	mov	r1, sl
1000287a:	2020      	movs	r0, #32
1000287c:	3601      	adds	r6, #1
1000287e:	47d8      	blx	fp
10002880:	4546      	cmp	r6, r8
10002882:	d1f7      	bne.n	10002874 <_vsnprintf+0x3e8>
10002884:	940a      	str	r4, [sp, #40]	@ 0x28
10002886:	e61f      	b.n	100024c8 <_vsnprintf+0x3c>
10002888:	286f      	cmp	r0, #111	@ 0x6f
1000288a:	f000 8081 	beq.w	10002990 <_vsnprintf+0x504>
1000288e:	f240 8248 	bls.w	10002d22 <_vsnprintf+0x896>
10002892:	2878      	cmp	r0, #120	@ 0x78
10002894:	f000 8190 	beq.w	10002bb8 <_vsnprintf+0x72c>
10002898:	270a      	movs	r7, #10
1000289a:	f023 0310 	bic.w	r3, r3, #16
1000289e:	46bc      	mov	ip, r7
100028a0:	e041      	b.n	10002926 <_vsnprintf+0x49a>
100028a2:	2600      	movs	r6, #0
100028a4:	eb06 0686 	add.w	r6, r6, r6, lsl #2
100028a8:	eb00 0046 	add.w	r0, r0, r6, lsl #1
100028ac:	f1a0 0630 	sub.w	r6, r0, #48	@ 0x30
100028b0:	f811 0f01 	ldrb.w	r0, [r1, #1]!
100028b4:	f1a0 0230 	sub.w	r2, r0, #48	@ 0x30
100028b8:	2a09      	cmp	r2, #9
100028ba:	d9f3      	bls.n	100028a4 <_vsnprintf+0x418>
100028bc:	460a      	mov	r2, r1
100028be:	9109      	str	r1, [sp, #36]	@ 0x24
100028c0:	3201      	adds	r2, #1
100028c2:	e62e      	b.n	10002522 <_vsnprintf+0x96>
100028c4:	e9dd 2109 	ldrd	r2, r1, [sp, #36]	@ 0x24
100028c8:	f851 6b04 	ldr.w	r6, [r1], #4
100028cc:	7890      	ldrb	r0, [r2, #2]
100028ce:	3202      	adds	r2, #2
100028d0:	9209      	str	r2, [sp, #36]	@ 0x24
100028d2:	910a      	str	r1, [sp, #40]	@ 0x28
100028d4:	3201      	adds	r2, #1
100028d6:	ea26 76e6 	bic.w	r6, r6, r6, asr #31
100028da:	e622      	b.n	10002522 <_vsnprintf+0x96>
100028dc:	f023 0010 	bic.w	r0, r3, #16
100028e0:	f413 6280 	ands.w	r2, r3, #1024	@ 0x400
100028e4:	f040 0021 	orr.w	r0, r0, #33	@ 0x21
100028e8:	f43f aee7 	beq.w	100026ba <_vsnprintf+0x22e>
100028ec:	ab12      	add	r3, sp, #72	@ 0x48
100028ee:	930b      	str	r3, [sp, #44]	@ 0x2c
100028f0:	9b0b      	ldr	r3, [sp, #44]	@ 0x2c
100028f2:	9006      	str	r0, [sp, #24]
100028f4:	9300      	str	r3, [sp, #0]
100028f6:	2308      	movs	r3, #8
100028f8:	2010      	movs	r0, #16
100028fa:	9305      	str	r3, [sp, #20]
100028fc:	2300      	movs	r3, #0
100028fe:	4642      	mov	r2, r8
10002900:	e9cd 3002 	strd	r3, r0, [sp, #8]
10002904:	9101      	str	r1, [sp, #4]
10002906:	464b      	mov	r3, r9
10002908:	4651      	mov	r1, sl
1000290a:	4658      	mov	r0, fp
1000290c:	9604      	str	r6, [sp, #16]
1000290e:	f7fe ffaf 	bl	10001870 <_ntoa_format>
10002912:	950a      	str	r5, [sp, #40]	@ 0x28
10002914:	4680      	mov	r8, r0
10002916:	e5d7      	b.n	100024c8 <_vsnprintf+0x3c>
10002918:	2858      	cmp	r0, #88	@ 0x58
1000291a:	d062      	beq.n	100029e2 <_vsnprintf+0x556>
1000291c:	2862      	cmp	r0, #98	@ 0x62
1000291e:	f040 808f 	bne.w	10002a40 <_vsnprintf+0x5b4>
10002922:	2702      	movs	r7, #2
10002924:	46bc      	mov	ip, r7
10002926:	f413 6080 	ands.w	r0, r3, #1024	@ 0x400
1000292a:	f000 80dd 	beq.w	10002ae8 <_vsnprintf+0x65c>
1000292e:	f023 030d 	bic.w	r3, r3, #13
10002932:	f413 7200 	ands.w	r2, r3, #512	@ 0x200
10002936:	f040 8181 	bne.w	10002c3c <_vsnprintf+0x7b0>
1000293a:	990a      	ldr	r1, [sp, #40]	@ 0x28
1000293c:	1d0f      	adds	r7, r1, #4
1000293e:	f413 7180 	ands.w	r1, r3, #256	@ 0x100
10002942:	f040 8237 	bne.w	10002db4 <_vsnprintf+0x928>
10002946:	065c      	lsls	r4, r3, #25
10002948:	9a0a      	ldr	r2, [sp, #40]	@ 0x28
1000294a:	f140 813b 	bpl.w	10002bc4 <_vsnprintf+0x738>
1000294e:	7812      	ldrb	r2, [r2, #0]
10002950:	2a00      	cmp	r2, #0
10002952:	f040 814e 	bne.w	10002bf2 <_vsnprintf+0x766>
10002956:	f023 0310 	bic.w	r3, r3, #16
1000295a:	2800      	cmp	r0, #0
1000295c:	f000 8149 	beq.w	10002bf2 <_vsnprintf+0x766>
10002960:	4611      	mov	r1, r2
10002962:	aa12      	add	r2, sp, #72	@ 0x48
10002964:	920b      	str	r2, [sp, #44]	@ 0x2c
10002966:	e9cd 5305 	strd	r5, r3, [sp, #20]
1000296a:	e9cd c603 	strd	ip, r6, [sp, #12]
1000296e:	9101      	str	r1, [sp, #4]
10002970:	9b0b      	ldr	r3, [sp, #44]	@ 0x2c
10002972:	4642      	mov	r2, r8
10002974:	9300      	str	r3, [sp, #0]
10002976:	2300      	movs	r3, #0
10002978:	4651      	mov	r1, sl
1000297a:	9302      	str	r3, [sp, #8]
1000297c:	4658      	mov	r0, fp
1000297e:	464b      	mov	r3, r9
10002980:	f7fe ff76 	bl	10001870 <_ntoa_format>
10002984:	970a      	str	r7, [sp, #40]	@ 0x28
10002986:	4680      	mov	r8, r0
10002988:	e59e      	b.n	100024c8 <_vsnprintf+0x3c>
1000298a:	f443 6300 	orr.w	r3, r3, #2048	@ 0x800
1000298e:	e729      	b.n	100027e4 <_vsnprintf+0x358>
10002990:	2708      	movs	r7, #8
10002992:	46bc      	mov	ip, r7
10002994:	e7c7      	b.n	10002926 <_vsnprintf+0x49a>
10002996:	f443 6300 	orr.w	r3, r3, #2048	@ 0x800
1000299a:	f043 0320 	orr.w	r3, r3, #32
1000299e:	e721      	b.n	100027e4 <_vsnprintf+0x358>
100029a0:	f013 0302 	ands.w	r3, r3, #2
100029a4:	f000 818e 	beq.w	10002cc4 <_vsnprintf+0x838>
100029a8:	2302      	movs	r3, #2
100029aa:	950a      	str	r5, [sp, #40]	@ 0x28
100029ac:	461e      	mov	r6, r3
100029ae:	460d      	mov	r5, r1
100029b0:	4642      	mov	r2, r8
100029b2:	464b      	mov	r3, r9
100029b4:	4651      	mov	r1, sl
100029b6:	47d8      	blx	fp
100029b8:	f817 0f01 	ldrb.w	r0, [r7, #1]!
100029bc:	f108 0801 	add.w	r8, r8, #1
100029c0:	2800      	cmp	r0, #0
100029c2:	d1f5      	bne.n	100029b0 <_vsnprintf+0x524>
100029c4:	4629      	mov	r1, r5
100029c6:	4633      	mov	r3, r6
100029c8:	9d0a      	ldr	r5, [sp, #40]	@ 0x28
100029ca:	e6e3      	b.n	10002794 <_vsnprintf+0x308>
100029cc:	1bd4      	subs	r4, r2, r7
100029ce:	e6c2      	b.n	10002756 <_vsnprintf+0x2ca>
100029d0:	460a      	mov	r2, r1
100029d2:	7888      	ldrb	r0, [r1, #2]
100029d4:	f043 03c0 	orr.w	r3, r3, #192	@ 0xc0
100029d8:	3203      	adds	r2, #3
100029da:	e5d4      	b.n	10002586 <_vsnprintf+0xfa>
100029dc:	4604      	mov	r4, r0
100029de:	4680      	mov	r8, r0
100029e0:	e646      	b.n	10002670 <_vsnprintf+0x1e4>
100029e2:	2710      	movs	r7, #16
100029e4:	f043 0320 	orr.w	r3, r3, #32
100029e8:	46bc      	mov	ip, r7
100029ea:	e79c      	b.n	10002926 <_vsnprintf+0x49a>
100029ec:	2d01      	cmp	r5, #1
100029ee:	f240 80f8 	bls.w	10002be2 <_vsnprintf+0x756>
100029f2:	4646      	mov	r6, r8
100029f4:	f108 37ff 	add.w	r7, r8, #4294967295
100029f8:	442f      	add	r7, r5
100029fa:	4632      	mov	r2, r6
100029fc:	464b      	mov	r3, r9
100029fe:	4651      	mov	r1, sl
10002a00:	2020      	movs	r0, #32
10002a02:	3601      	adds	r6, #1
10002a04:	47d8      	blx	fp
10002a06:	42be      	cmp	r6, r7
10002a08:	d1f7      	bne.n	100029fa <_vsnprintf+0x56e>
10002a0a:	9b0a      	ldr	r3, [sp, #40]	@ 0x28
10002a0c:	4632      	mov	r2, r6
10002a0e:	7818      	ldrb	r0, [r3, #0]
10002a10:	4651      	mov	r1, sl
10002a12:	464b      	mov	r3, r9
10002a14:	47d8      	blx	fp
10002a16:	44a8      	add	r8, r5
10002a18:	940a      	str	r4, [sp, #40]	@ 0x28
10002a1a:	e555      	b.n	100024c8 <_vsnprintf+0x3c>
10002a1c:	4646      	mov	r6, r8
10002a1e:	42a5      	cmp	r5, r4
10002a20:	f67f aebb 	bls.w	1000279a <_vsnprintf+0x30e>
10002a24:	44a8      	add	r8, r5
10002a26:	eba8 0804 	sub.w	r8, r8, r4
10002a2a:	460c      	mov	r4, r1
10002a2c:	4632      	mov	r2, r6
10002a2e:	464b      	mov	r3, r9
10002a30:	4651      	mov	r1, sl
10002a32:	2020      	movs	r0, #32
10002a34:	3601      	adds	r6, #1
10002a36:	47d8      	blx	fp
10002a38:	4546      	cmp	r6, r8
10002a3a:	d1f7      	bne.n	10002a2c <_vsnprintf+0x5a0>
10002a3c:	4621      	mov	r1, r4
10002a3e:	e6ac      	b.n	1000279a <_vsnprintf+0x30e>
10002a40:	f413 6280 	ands.w	r2, r3, #1024	@ 0x400
10002a44:	f000 80bb 	beq.w	10002bbe <_vsnprintf+0x732>
10002a48:	f44f 6280 	mov.w	r2, #1024	@ 0x400
10002a4c:	f023 0c11 	bic.w	ip, r3, #17
10002a50:	f41c 7700 	ands.w	r7, ip, #512	@ 0x200
10002a54:	9b0a      	ldr	r3, [sp, #40]	@ 0x28
10002a56:	d14a      	bne.n	10002aee <_vsnprintf+0x662>
10002a58:	f41c 7080 	ands.w	r0, ip, #256	@ 0x100
10002a5c:	f103 0404 	add.w	r4, r3, #4
10002a60:	f040 8134 	bne.w	10002ccc <_vsnprintf+0x840>
10002a64:	f01c 0f40 	tst.w	ip, #64	@ 0x40
10002a68:	f040 80a3 	bne.w	10002bb2 <_vsnprintf+0x726>
10002a6c:	f01c 0f80 	tst.w	ip, #128	@ 0x80
10002a70:	f000 81d3 	beq.w	10002e1a <_vsnprintf+0x98e>
10002a74:	f9b3 1000 	ldrsh.w	r1, [r3]
10002a78:	ea81 77e1 	eor.w	r7, r1, r1, asr #31
10002a7c:	eba7 77e1 	sub.w	r7, r7, r1, asr #31
10002a80:	b2bf      	uxth	r7, r7
10002a82:	0fcb      	lsrs	r3, r1, #31
10002a84:	2900      	cmp	r1, #0
10002a86:	f000 8156 	beq.w	10002d36 <_vsnprintf+0x8aa>
10002a8a:	463a      	mov	r2, r7
10002a8c:	a912      	add	r1, sp, #72	@ 0x48
10002a8e:	460f      	mov	r7, r1
10002a90:	f8df e3d8 	ldr.w	lr, [pc, #984]	@ 10002e6c <_vsnprintf+0x9e0>
10002a94:	910b      	str	r1, [sp, #44]	@ 0x2c
10002a96:	930a      	str	r3, [sp, #40]	@ 0x28
10002a98:	950c      	str	r5, [sp, #48]	@ 0x30
10002a9a:	e001      	b.n	10002aa0 <_vsnprintf+0x614>
10002a9c:	2820      	cmp	r0, #32
10002a9e:	d00f      	beq.n	10002ac0 <_vsnprintf+0x634>
10002aa0:	4615      	mov	r5, r2
10002aa2:	fbae 1302 	umull	r1, r3, lr, r2
10002aa6:	08db      	lsrs	r3, r3, #3
10002aa8:	eb03 0183 	add.w	r1, r3, r3, lsl #2
10002aac:	eba2 0141 	sub.w	r1, r2, r1, lsl #1
10002ab0:	3130      	adds	r1, #48	@ 0x30
10002ab2:	2d09      	cmp	r5, #9
10002ab4:	461a      	mov	r2, r3
10002ab6:	f100 0001 	add.w	r0, r0, #1
10002aba:	f807 1b01 	strb.w	r1, [r7], #1
10002abe:	d8ed      	bhi.n	10002a9c <_vsnprintf+0x610>
10002ac0:	9b0a      	ldr	r3, [sp, #40]	@ 0x28
10002ac2:	9d0c      	ldr	r5, [sp, #48]	@ 0x30
10002ac4:	e9cd 5c05 	strd	r5, ip, [sp, #20]
10002ac8:	e9cd 0301 	strd	r0, r3, [sp, #4]
10002acc:	9604      	str	r6, [sp, #16]
10002ace:	9b0b      	ldr	r3, [sp, #44]	@ 0x2c
10002ad0:	4642      	mov	r2, r8
10002ad2:	9300      	str	r3, [sp, #0]
10002ad4:	230a      	movs	r3, #10
10002ad6:	4651      	mov	r1, sl
10002ad8:	9303      	str	r3, [sp, #12]
10002ada:	4658      	mov	r0, fp
10002adc:	464b      	mov	r3, r9
10002ade:	f7fe fec7 	bl	10001870 <_ntoa_format>
10002ae2:	940a      	str	r4, [sp, #40]	@ 0x28
10002ae4:	4680      	mov	r8, r0
10002ae6:	e4ef      	b.n	100024c8 <_vsnprintf+0x3c>
10002ae8:	f023 030c 	bic.w	r3, r3, #12
10002aec:	e721      	b.n	10002932 <_vsnprintf+0x4a6>
10002aee:	3307      	adds	r3, #7
10002af0:	f023 0307 	bic.w	r3, r3, #7
10002af4:	4619      	mov	r1, r3
10002af6:	4608      	mov	r0, r1
10002af8:	685b      	ldr	r3, [r3, #4]
10002afa:	f850 1b08 	ldr.w	r1, [r0], #8
10002afe:	0fdf      	lsrs	r7, r3, #31
10002b00:	900a      	str	r0, [sp, #40]	@ 0x28
10002b02:	ea51 0003 	orrs.w	r0, r1, r3
10002b06:	d162      	bne.n	10002bce <_vsnprintf+0x742>
10002b08:	2a00      	cmp	r2, #0
10002b0a:	f040 819f 	bne.w	10002e4c <_vsnprintf+0x9c0>
10002b0e:	4613      	mov	r3, r2
10002b10:	4611      	mov	r1, r2
10002b12:	aa12      	add	r2, sp, #72	@ 0x48
10002b14:	e9cd 750c 	strd	r7, r5, [sp, #48]	@ 0x30
10002b18:	2000      	movs	r0, #0
10002b1a:	4615      	mov	r5, r2
10002b1c:	e9cd 680e 	strd	r6, r8, [sp, #56]	@ 0x38
10002b20:	f8df e348 	ldr.w	lr, [pc, #840]	@ 10002e6c <_vsnprintf+0x9e0>
10002b24:	920b      	str	r2, [sp, #44]	@ 0x2c
10002b26:	e001      	b.n	10002b2c <_vsnprintf+0x6a0>
10002b28:	2820      	cmp	r0, #32
10002b2a:	d02d      	beq.n	10002b88 <_vsnprintf+0x6fc>
10002b2c:	185a      	adds	r2, r3, r1
10002b2e:	f142 0200 	adc.w	r2, r2, #0
10002b32:	fbae 7802 	umull	r7, r8, lr, r2
10002b36:	f028 0703 	bic.w	r7, r8, #3
10002b3a:	eb07 0798 	add.w	r7, r7, r8, lsr #2
10002b3e:	1bd2      	subs	r2, r2, r7
10002b40:	461e      	mov	r6, r3
10002b42:	1a9b      	subs	r3, r3, r2
10002b44:	f161 0700 	sbc.w	r7, r1, #0
10002b48:	460c      	mov	r4, r1
10002b4a:	f04f 31cc 	mov.w	r1, #3435973836	@ 0xcccccccc
10002b4e:	fb01 f103 	mul.w	r1, r1, r3
10002b52:	fb0e 1107 	mla	r1, lr, r7, r1
10002b56:	fba3 730e 	umull	r7, r3, r3, lr
10002b5a:	4419      	add	r1, r3
10002b5c:	2305      	movs	r3, #5
10002b5e:	f007 0801 	and.w	r8, r7, #1
10002b62:	fba8 3803 	umull	r3, r8, r8, r3
10002b66:	189b      	adds	r3, r3, r2
10002b68:	2e0a      	cmp	r6, #10
10002b6a:	f103 0330 	add.w	r3, r3, #48	@ 0x30
10002b6e:	ea4f 0757 	mov.w	r7, r7, lsr #1
10002b72:	f174 0400 	sbcs.w	r4, r4, #0
10002b76:	f805 3b01 	strb.w	r3, [r5], #1
10002b7a:	f100 0001 	add.w	r0, r0, #1
10002b7e:	ea47 73c1 	orr.w	r3, r7, r1, lsl #31
10002b82:	ea4f 0151 	mov.w	r1, r1, lsr #1
10002b86:	d2cf      	bcs.n	10002b28 <_vsnprintf+0x69c>
10002b88:	e9dd 750c 	ldrd	r7, r5, [sp, #48]	@ 0x30
10002b8c:	e9dd 680e 	ldrd	r6, r8, [sp, #56]	@ 0x38
10002b90:	9b0b      	ldr	r3, [sp, #44]	@ 0x2c
10002b92:	4642      	mov	r2, r8
10002b94:	9300      	str	r3, [sp, #0]
10002b96:	230a      	movs	r3, #10
10002b98:	e9cd 5c05 	strd	r5, ip, [sp, #20]
10002b9c:	e9cd 0701 	strd	r0, r7, [sp, #4]
10002ba0:	9604      	str	r6, [sp, #16]
10002ba2:	9303      	str	r3, [sp, #12]
10002ba4:	464b      	mov	r3, r9
10002ba6:	4651      	mov	r1, sl
10002ba8:	4658      	mov	r0, fp
10002baa:	f7fe fe61 	bl	10001870 <_ntoa_format>
10002bae:	4680      	mov	r8, r0
10002bb0:	e48a      	b.n	100024c8 <_vsnprintf+0x3c>
10002bb2:	7819      	ldrb	r1, [r3, #0]
10002bb4:	460f      	mov	r7, r1
10002bb6:	e764      	b.n	10002a82 <_vsnprintf+0x5f6>
10002bb8:	2710      	movs	r7, #16
10002bba:	46bc      	mov	ip, r7
10002bbc:	e6b3      	b.n	10002926 <_vsnprintf+0x49a>
10002bbe:	f023 0c10 	bic.w	ip, r3, #16
10002bc2:	e745      	b.n	10002a50 <_vsnprintf+0x5c4>
10002bc4:	061c      	lsls	r4, r3, #24
10002bc6:	bf4c      	ite	mi
10002bc8:	8812      	ldrhmi	r2, [r2, #0]
10002bca:	6812      	ldrpl	r2, [r2, #0]
10002bcc:	e6c0      	b.n	10002950 <_vsnprintf+0x4c4>
10002bce:	460a      	mov	r2, r1
10002bd0:	1e19      	subs	r1, r3, #0
10002bd2:	db01      	blt.n	10002bd8 <_vsnprintf+0x74c>
10002bd4:	4613      	mov	r3, r2
10002bd6:	e79c      	b.n	10002b12 <_vsnprintf+0x686>
10002bd8:	4252      	negs	r2, r2
10002bda:	4613      	mov	r3, r2
10002bdc:	eb61 0141 	sbc.w	r1, r1, r1, lsl #1
10002be0:	e797      	b.n	10002b12 <_vsnprintf+0x686>
10002be2:	4613      	mov	r3, r2
10002be4:	4651      	mov	r1, sl
10002be6:	7818      	ldrb	r0, [r3, #0]
10002be8:	4642      	mov	r2, r8
10002bea:	464b      	mov	r3, r9
10002bec:	47d8      	blx	fp
10002bee:	46b0      	mov	r8, r6
10002bf0:	e648      	b.n	10002884 <_vsnprintf+0x3f8>
10002bf2:	f013 0f20 	tst.w	r3, #32
10002bf6:	bf14      	ite	ne
10002bf8:	2041      	movne	r0, #65	@ 0x41
10002bfa:	2061      	moveq	r0, #97	@ 0x61
10002bfc:	ac12      	add	r4, sp, #72	@ 0x48
10002bfe:	46a6      	mov	lr, r4
10002c00:	940b      	str	r4, [sp, #44]	@ 0x2c
10002c02:	930a      	str	r3, [sp, #40]	@ 0x28
10002c04:	f1a0 040a 	sub.w	r4, r0, #10
10002c08:	950c      	str	r5, [sp, #48]	@ 0x30
10002c0a:	e002      	b.n	10002c12 <_vsnprintf+0x786>
10002c0c:	2920      	cmp	r1, #32
10002c0e:	d012      	beq.n	10002c36 <_vsnprintf+0x7aa>
10002c10:	462a      	mov	r2, r5
10002c12:	fbb2 f5fc 	udiv	r5, r2, ip
10002c16:	fb0c 2015 	mls	r0, ip, r5, r2
10002c1a:	b2c3      	uxtb	r3, r0
10002c1c:	2809      	cmp	r0, #9
10002c1e:	f103 0030 	add.w	r0, r3, #48	@ 0x30
10002c22:	bf8a      	itet	hi
10002c24:	191b      	addhi	r3, r3, r4
10002c26:	b2c3      	uxtbls	r3, r0
10002c28:	b2db      	uxtbhi	r3, r3
10002c2a:	4562      	cmp	r2, ip
10002c2c:	f80e 3b01 	strb.w	r3, [lr], #1
10002c30:	f101 0101 	add.w	r1, r1, #1
10002c34:	d2ea      	bcs.n	10002c0c <_vsnprintf+0x780>
10002c36:	9b0a      	ldr	r3, [sp, #40]	@ 0x28
10002c38:	9d0c      	ldr	r5, [sp, #48]	@ 0x30
10002c3a:	e694      	b.n	10002966 <_vsnprintf+0x4da>
10002c3c:	9a0a      	ldr	r2, [sp, #40]	@ 0x28
10002c3e:	3207      	adds	r2, #7
10002c40:	f022 0207 	bic.w	r2, r2, #7
10002c44:	6851      	ldr	r1, [r2, #4]
10002c46:	f852 4b08 	ldr.w	r4, [r2], #8
10002c4a:	468e      	mov	lr, r1
10002c4c:	920a      	str	r2, [sp, #40]	@ 0x28
10002c4e:	ea54 0201 	orrs.w	r2, r4, r1
10002c52:	d176      	bne.n	10002d42 <_vsnprintf+0x8b6>
10002c54:	f023 0310 	bic.w	r3, r3, #16
10002c58:	2800      	cmp	r0, #0
10002c5a:	d072      	beq.n	10002d42 <_vsnprintf+0x8b6>
10002c5c:	2200      	movs	r2, #0
10002c5e:	4611      	mov	r1, r2
10002c60:	aa12      	add	r2, sp, #72	@ 0x48
10002c62:	920b      	str	r2, [sp, #44]	@ 0x2c
10002c64:	e9cd 5305 	strd	r5, r3, [sp, #20]
10002c68:	9b0b      	ldr	r3, [sp, #44]	@ 0x2c
10002c6a:	4642      	mov	r2, r8
10002c6c:	9300      	str	r3, [sp, #0]
10002c6e:	2300      	movs	r3, #0
10002c70:	e9cd c603 	strd	ip, r6, [sp, #12]
10002c74:	9101      	str	r1, [sp, #4]
10002c76:	9302      	str	r3, [sp, #8]
10002c78:	e794      	b.n	10002ba4 <_vsnprintf+0x718>
10002c7a:	42a5      	cmp	r5, r4
10002c7c:	bf98      	it	ls
10002c7e:	3401      	addls	r4, #1
10002c80:	f67f ad74 	bls.w	1000276c <_vsnprintf+0x2e0>
10002c84:	f44f 6380 	mov.w	r3, #1024	@ 0x400
10002c88:	e9cd 750a 	strd	r7, r5, [sp, #40]	@ 0x28
10002c8c:	eb05 0208 	add.w	r2, r5, r8
10002c90:	461f      	mov	r7, r3
10002c92:	460d      	mov	r5, r1
10002c94:	1b14      	subs	r4, r2, r4
10002c96:	4642      	mov	r2, r8
10002c98:	464b      	mov	r3, r9
10002c9a:	4651      	mov	r1, sl
10002c9c:	2020      	movs	r0, #32
10002c9e:	f108 0801 	add.w	r8, r8, #1
10002ca2:	47d8      	blx	fp
10002ca4:	45a0      	cmp	r8, r4
10002ca6:	d1f6      	bne.n	10002c96 <_vsnprintf+0x80a>
10002ca8:	463b      	mov	r3, r7
10002caa:	9f0a      	ldr	r7, [sp, #40]	@ 0x28
10002cac:	4629      	mov	r1, r5
10002cae:	7838      	ldrb	r0, [r7, #0]
10002cb0:	9d0b      	ldr	r5, [sp, #44]	@ 0x2c
10002cb2:	1c6c      	adds	r4, r5, #1
10002cb4:	2800      	cmp	r0, #0
10002cb6:	f43f ad70 	beq.w	1000279a <_vsnprintf+0x30e>
10002cba:	2b00      	cmp	r3, #0
10002cbc:	f43f ae75 	beq.w	100029aa <_vsnprintf+0x51e>
10002cc0:	2300      	movs	r3, #0
10002cc2:	e553      	b.n	1000276c <_vsnprintf+0x2e0>
10002cc4:	42a5      	cmp	r5, r4
10002cc6:	d8df      	bhi.n	10002c88 <_vsnprintf+0x7fc>
10002cc8:	3401      	adds	r4, #1
10002cca:	e66e      	b.n	100029aa <_vsnprintf+0x51e>
10002ccc:	6819      	ldr	r1, [r3, #0]
10002cce:	0fcb      	lsrs	r3, r1, #31
10002cd0:	2900      	cmp	r1, #0
10002cd2:	f000 80a8 	beq.w	10002e26 <_vsnprintf+0x99a>
10002cd6:	ea81 72e1 	eor.w	r2, r1, r1, asr #31
10002cda:	eba2 72e1 	sub.w	r2, r2, r1, asr #31
10002cde:	a912      	add	r1, sp, #72	@ 0x48
10002ce0:	4608      	mov	r0, r1
10002ce2:	f8df e188 	ldr.w	lr, [pc, #392]	@ 10002e6c <_vsnprintf+0x9e0>
10002ce6:	910b      	str	r1, [sp, #44]	@ 0x2c
10002ce8:	930a      	str	r3, [sp, #40]	@ 0x28
10002cea:	950c      	str	r5, [sp, #48]	@ 0x30
10002cec:	e001      	b.n	10002cf2 <_vsnprintf+0x866>
10002cee:	2f20      	cmp	r7, #32
10002cf0:	d00f      	beq.n	10002d12 <_vsnprintf+0x886>
10002cf2:	4615      	mov	r5, r2
10002cf4:	fbae 1302 	umull	r1, r3, lr, r2
10002cf8:	08db      	lsrs	r3, r3, #3
10002cfa:	eb03 0183 	add.w	r1, r3, r3, lsl #2
10002cfe:	eba2 0141 	sub.w	r1, r2, r1, lsl #1
10002d02:	3130      	adds	r1, #48	@ 0x30
10002d04:	2d09      	cmp	r5, #9
10002d06:	461a      	mov	r2, r3
10002d08:	f107 0701 	add.w	r7, r7, #1
10002d0c:	f800 1b01 	strb.w	r1, [r0], #1
10002d10:	d8ed      	bhi.n	10002cee <_vsnprintf+0x862>
10002d12:	9b0a      	ldr	r3, [sp, #40]	@ 0x28
10002d14:	9d0c      	ldr	r5, [sp, #48]	@ 0x30
10002d16:	e9cd 5c05 	strd	r5, ip, [sp, #20]
10002d1a:	e9cd 7301 	strd	r7, r3, [sp, #4]
10002d1e:	9604      	str	r6, [sp, #16]
10002d20:	e6d5      	b.n	10002ace <_vsnprintf+0x642>
10002d22:	2869      	cmp	r0, #105	@ 0x69
10002d24:	f023 0c10 	bic.w	ip, r3, #16
10002d28:	f040 808c 	bne.w	10002e44 <_vsnprintf+0x9b8>
10002d2c:	f413 6280 	ands.w	r2, r3, #1024	@ 0x400
10002d30:	f43f ae8e 	beq.w	10002a50 <_vsnprintf+0x5c4>
10002d34:	e688      	b.n	10002a48 <_vsnprintf+0x5bc>
10002d36:	2a00      	cmp	r2, #0
10002d38:	f43f aea8 	beq.w	10002a8c <_vsnprintf+0x600>
10002d3c:	aa12      	add	r2, sp, #72	@ 0x48
10002d3e:	920b      	str	r2, [sp, #44]	@ 0x2c
10002d40:	e6c0      	b.n	10002ac4 <_vsnprintf+0x638>
10002d42:	f013 0f20 	tst.w	r3, #32
10002d46:	bf14      	ite	ne
10002d48:	2241      	movne	r2, #65	@ 0x41
10002d4a:	2261      	moveq	r2, #97	@ 0x61
10002d4c:	2000      	movs	r0, #0
10002d4e:	a912      	add	r1, sp, #72	@ 0x48
10002d50:	3a0a      	subs	r2, #10
10002d52:	e9cd 680e 	strd	r6, r8, [sp, #56]	@ 0x38
10002d56:	e9cd 350c 	strd	r3, r5, [sp, #48]	@ 0x30
10002d5a:	f8cd b044 	str.w	fp, [sp, #68]	@ 0x44
10002d5e:	4606      	mov	r6, r0
10002d60:	4688      	mov	r8, r1
10002d62:	4675      	mov	r5, lr
10002d64:	4693      	mov	fp, r2
10002d66:	910b      	str	r1, [sp, #44]	@ 0x2c
10002d68:	f8cd c040 	str.w	ip, [sp, #64]	@ 0x40
10002d6c:	e003      	b.n	10002d76 <_vsnprintf+0x8ea>
10002d6e:	2e20      	cmp	r6, #32
10002d70:	d017      	beq.n	10002da2 <_vsnprintf+0x916>
10002d72:	4604      	mov	r4, r0
10002d74:	460d      	mov	r5, r1
10002d76:	4629      	mov	r1, r5
10002d78:	463a      	mov	r2, r7
10002d7a:	2300      	movs	r3, #0
10002d7c:	4620      	mov	r0, r4
10002d7e:	f000 fc47 	bl	10003610 <____aeabi_uldivmod_veneer>
10002d82:	b2d2      	uxtb	r2, r2
10002d84:	2a09      	cmp	r2, #9
10002d86:	f102 0330 	add.w	r3, r2, #48	@ 0x30
10002d8a:	bf88      	it	hi
10002d8c:	eb02 030b 	addhi.w	r3, r2, fp
10002d90:	42bc      	cmp	r4, r7
10002d92:	b2db      	uxtb	r3, r3
10002d94:	f175 0500 	sbcs.w	r5, r5, #0
10002d98:	f808 3b01 	strb.w	r3, [r8], #1
10002d9c:	f106 0601 	add.w	r6, r6, #1
10002da0:	d2e5      	bcs.n	10002d6e <_vsnprintf+0x8e2>
10002da2:	4631      	mov	r1, r6
10002da4:	e9dd 350c 	ldrd	r3, r5, [sp, #48]	@ 0x30
10002da8:	e9dd cb10 	ldrd	ip, fp, [sp, #64]	@ 0x40
10002dac:	f8dd 803c 	ldr.w	r8, [sp, #60]	@ 0x3c
10002db0:	9e0e      	ldr	r6, [sp, #56]	@ 0x38
10002db2:	e757      	b.n	10002c64 <_vsnprintf+0x7d8>
10002db4:	990a      	ldr	r1, [sp, #40]	@ 0x28
10002db6:	6809      	ldr	r1, [r1, #0]
10002db8:	b951      	cbnz	r1, 10002dd0 <_vsnprintf+0x944>
10002dba:	f023 0310 	bic.w	r3, r3, #16
10002dbe:	b138      	cbz	r0, 10002dd0 <_vsnprintf+0x944>
10002dc0:	a912      	add	r1, sp, #72	@ 0x48
10002dc2:	910b      	str	r1, [sp, #44]	@ 0x2c
10002dc4:	e9cd 5305 	strd	r5, r3, [sp, #20]
10002dc8:	e9cd c603 	strd	ip, r6, [sp, #12]
10002dcc:	9201      	str	r2, [sp, #4]
10002dce:	e5cf      	b.n	10002970 <_vsnprintf+0x4e4>
10002dd0:	f013 0f20 	tst.w	r3, #32
10002dd4:	bf14      	ite	ne
10002dd6:	2041      	movne	r0, #65	@ 0x41
10002dd8:	2061      	moveq	r0, #97	@ 0x61
10002dda:	ac12      	add	r4, sp, #72	@ 0x48
10002ddc:	46a6      	mov	lr, r4
10002dde:	940b      	str	r4, [sp, #44]	@ 0x2c
10002de0:	930a      	str	r3, [sp, #40]	@ 0x28
10002de2:	f1a0 040a 	sub.w	r4, r0, #10
10002de6:	950c      	str	r5, [sp, #48]	@ 0x30
10002de8:	e002      	b.n	10002df0 <_vsnprintf+0x964>
10002dea:	2a20      	cmp	r2, #32
10002dec:	d012      	beq.n	10002e14 <_vsnprintf+0x988>
10002dee:	4629      	mov	r1, r5
10002df0:	fbb1 f5fc 	udiv	r5, r1, ip
10002df4:	fb0c 1015 	mls	r0, ip, r5, r1
10002df8:	b2c3      	uxtb	r3, r0
10002dfa:	2809      	cmp	r0, #9
10002dfc:	f103 0030 	add.w	r0, r3, #48	@ 0x30
10002e00:	bf8a      	itet	hi
10002e02:	191b      	addhi	r3, r3, r4
10002e04:	b2c3      	uxtbls	r3, r0
10002e06:	b2db      	uxtbhi	r3, r3
10002e08:	4561      	cmp	r1, ip
10002e0a:	f80e 3b01 	strb.w	r3, [lr], #1
10002e0e:	f102 0201 	add.w	r2, r2, #1
10002e12:	d2ea      	bcs.n	10002dea <_vsnprintf+0x95e>
10002e14:	9b0a      	ldr	r3, [sp, #40]	@ 0x28
10002e16:	9d0c      	ldr	r5, [sp, #48]	@ 0x30
10002e18:	e7d4      	b.n	10002dc4 <_vsnprintf+0x938>
10002e1a:	6819      	ldr	r1, [r3, #0]
10002e1c:	ea81 77e1 	eor.w	r7, r1, r1, asr #31
10002e20:	eba7 77e1 	sub.w	r7, r7, r1, asr #31
10002e24:	e62d      	b.n	10002a82 <_vsnprintf+0x5f6>
10002e26:	2a00      	cmp	r2, #0
10002e28:	f43f af59 	beq.w	10002cde <_vsnprintf+0x852>
10002e2c:	aa12      	add	r2, sp, #72	@ 0x48
10002e2e:	920b      	str	r2, [sp, #44]	@ 0x2c
10002e30:	e771      	b.n	10002d16 <_vsnprintf+0x88a>
10002e32:	f413 6480 	ands.w	r4, r3, #1024	@ 0x400
10002e36:	d00d      	beq.n	10002e54 <_vsnprintf+0x9c8>
10002e38:	f013 0402 	ands.w	r4, r3, #2
10002e3c:	d012      	beq.n	10002e64 <_vsnprintf+0x9d8>
10002e3e:	4604      	mov	r4, r0
10002e40:	4646      	mov	r6, r8
10002e42:	e5ec      	b.n	10002a1e <_vsnprintf+0x592>
10002e44:	270a      	movs	r7, #10
10002e46:	4663      	mov	r3, ip
10002e48:	46bc      	mov	ip, r7
10002e4a:	e56c      	b.n	10002926 <_vsnprintf+0x49a>
10002e4c:	ab12      	add	r3, sp, #72	@ 0x48
10002e4e:	2000      	movs	r0, #0
10002e50:	930b      	str	r3, [sp, #44]	@ 0x2c
10002e52:	e69d      	b.n	10002b90 <_vsnprintf+0x704>
10002e54:	f013 0302 	ands.w	r3, r3, #2
10002e58:	f47f ade0 	bne.w	10002a1c <_vsnprintf+0x590>
10002e5c:	2d00      	cmp	r5, #0
10002e5e:	f47f af13 	bne.w	10002c88 <_vsnprintf+0x7fc>
10002e62:	e49a      	b.n	1000279a <_vsnprintf+0x30e>
10002e64:	2d00      	cmp	r5, #0
10002e66:	f47f af0d 	bne.w	10002c84 <_vsnprintf+0x7f8>
10002e6a:	e496      	b.n	1000279a <_vsnprintf+0x30e>
10002e6c:	cccccccd 	.word	0xcccccccd

10002e70 <vfctprintf>:
10002e70:	b570      	push	{r4, r5, r6, lr}
10002e72:	4694      	mov	ip, r2
10002e74:	461e      	mov	r6, r3
10002e76:	4605      	mov	r5, r0
10002e78:	460c      	mov	r4, r1
10002e7a:	b084      	sub	sp, #16
10002e7c:	f04f 32ff 	mov.w	r2, #4294967295
10002e80:	4663      	mov	r3, ip
10002e82:	a902      	add	r1, sp, #8
10002e84:	9600      	str	r6, [sp, #0]
10002e86:	4803      	ldr	r0, [pc, #12]	@ (10002e94 <vfctprintf+0x24>)
10002e88:	e9cd 5402 	strd	r5, r4, [sp, #8]
10002e8c:	f7ff fafe 	bl	1000248c <_vsnprintf>
10002e90:	b004      	add	sp, #16
10002e92:	bd70      	pop	{r4, r5, r6, pc}
10002e94:	10001a4d 	.word	0x10001a4d

10002e98 <weak_raw_vprintf>:
10002e98:	b510      	push	{r4, lr}
10002e9a:	4b09      	ldr	r3, [pc, #36]	@ (10002ec0 <weak_raw_vprintf+0x28>)
10002e9c:	b084      	sub	sp, #16
10002e9e:	681c      	ldr	r4, [r3, #0]
10002ea0:	b14c      	cbz	r4, 10002eb6 <weak_raw_vprintf+0x1e>
10002ea2:	4603      	mov	r3, r0
10002ea4:	9100      	str	r1, [sp, #0]
10002ea6:	f04f 32ff 	mov.w	r2, #4294967295
10002eaa:	a903      	add	r1, sp, #12
10002eac:	4805      	ldr	r0, [pc, #20]	@ (10002ec4 <weak_raw_vprintf+0x2c>)
10002eae:	47a0      	blx	r4
10002eb0:	2001      	movs	r0, #1
10002eb2:	b004      	add	sp, #16
10002eb4:	bd10      	pop	{r4, pc}
10002eb6:	f000 f97d 	bl	100031b4 <__wrap_puts>
10002eba:	4620      	mov	r0, r4
10002ebc:	b004      	add	sp, #16
10002ebe:	bd10      	pop	{r4, pc}
10002ec0:	2000080c 	.word	0x2000080c
10002ec4:	10001a45 	.word	0x10001a45

10002ec8 <_exit>:
10002ec8:	be00      	bkpt	0x0000
10002eca:	e7fd      	b.n	10002ec8 <_exit>

10002ecc <exit>:
10002ecc:	b508      	push	{r3, lr}
10002ece:	f7ff fffb 	bl	10002ec8 <_exit>
10002ed2:	bf00      	nop

10002ed4 <runtime_init>:
10002ed4:	b538      	push	{r3, r4, r5, lr}
10002ed6:	4c06      	ldr	r4, [pc, #24]	@ (10002ef0 <runtime_init+0x1c>)
10002ed8:	4d06      	ldr	r5, [pc, #24]	@ (10002ef4 <runtime_init+0x20>)
10002eda:	f7fe fa07 	bl	100012ec <runtime_run_initializers>
10002ede:	42ac      	cmp	r4, r5
10002ee0:	d204      	bcs.n	10002eec <runtime_init+0x18>
10002ee2:	f854 3b04 	ldr.w	r3, [r4], #4
10002ee6:	4798      	blx	r3
10002ee8:	42ac      	cmp	r4, r5
10002eea:	d3fa      	bcc.n	10002ee2 <runtime_init+0xe>
10002eec:	bd38      	pop	{r3, r4, r5, pc}
10002eee:	bf00      	nop
10002ef0:	10003668 	.word	0x10003668
10002ef4:	1000366c 	.word	0x1000366c

10002ef8 <stdio_out_chars_no_crlf>:
10002ef8:	6803      	ldr	r3, [r0, #0]
10002efa:	4608      	mov	r0, r1
10002efc:	4611      	mov	r1, r2
10002efe:	4718      	bx	r3

10002f00 <stdio_out_chars_crlf>:
10002f00:	e92d 41f0 	stmdb	sp!, {r4, r5, r6, r7, r8, lr}
10002f04:	4615      	mov	r5, r2
10002f06:	7d42      	ldrb	r2, [r0, #21]
10002f08:	4607      	mov	r7, r0
10002f0a:	4688      	mov	r8, r1
10002f0c:	2a00      	cmp	r2, #0
10002f0e:	d046      	beq.n	10002f9e <stdio_out_chars_crlf+0x9e>
10002f10:	2d00      	cmp	r5, #0
10002f12:	dd1d      	ble.n	10002f50 <stdio_out_chars_crlf+0x50>
10002f14:	780b      	ldrb	r3, [r1, #0]
10002f16:	2b0a      	cmp	r3, #10
10002f18:	d023      	beq.n	10002f62 <stdio_out_chars_crlf+0x62>
10002f1a:	2d01      	cmp	r5, #1
10002f1c:	f04f 0c00 	mov.w	ip, #0
10002f20:	d018      	beq.n	10002f54 <stdio_out_chars_crlf+0x54>
10002f22:	4646      	mov	r6, r8
10002f24:	2401      	movs	r4, #1
10002f26:	f816 2f01 	ldrb.w	r2, [r6, #1]!
10002f2a:	4621      	mov	r1, r4
10002f2c:	2a0a      	cmp	r2, #10
10002f2e:	f104 0401 	add.w	r4, r4, #1
10002f32:	d022      	beq.n	10002f7a <stdio_out_chars_crlf+0x7a>
10002f34:	42a5      	cmp	r5, r4
10002f36:	d1f6      	bne.n	10002f26 <stdio_out_chars_crlf+0x26>
10002f38:	4565      	cmp	r5, ip
10002f3a:	dc0b      	bgt.n	10002f54 <stdio_out_chars_crlf+0x54>
10002f3c:	eb08 0305 	add.w	r3, r8, r5
10002f40:	f813 3c01 	ldrb.w	r3, [r3, #-1]
10002f44:	f1a3 030d 	sub.w	r3, r3, #13
10002f48:	fab3 f383 	clz	r3, r3
10002f4c:	095b      	lsrs	r3, r3, #5
10002f4e:	753b      	strb	r3, [r7, #20]
10002f50:	e8bd 81f0 	ldmia.w	sp!, {r4, r5, r6, r7, r8, pc}
10002f54:	683b      	ldr	r3, [r7, #0]
10002f56:	eba5 010c 	sub.w	r1, r5, ip
10002f5a:	eb08 000c 	add.w	r0, r8, ip
10002f5e:	4798      	blx	r3
10002f60:	e7ec      	b.n	10002f3c <stdio_out_chars_crlf+0x3c>
10002f62:	7d03      	ldrb	r3, [r0, #20]
10002f64:	2b00      	cmp	r3, #0
10002f66:	d1d8      	bne.n	10002f1a <stdio_out_chars_crlf+0x1a>
10002f68:	6803      	ldr	r3, [r0, #0]
10002f6a:	2102      	movs	r1, #2
10002f6c:	480f      	ldr	r0, [pc, #60]	@ (10002fac <stdio_out_chars_crlf+0xac>)
10002f6e:	4798      	blx	r3
10002f70:	2d01      	cmp	r5, #1
10002f72:	d0e3      	beq.n	10002f3c <stdio_out_chars_crlf+0x3c>
10002f74:	f04f 0c01 	mov.w	ip, #1
10002f78:	e7d3      	b.n	10002f22 <stdio_out_chars_crlf+0x22>
10002f7a:	f816 3c01 	ldrb.w	r3, [r6, #-1]
10002f7e:	2b0d      	cmp	r3, #13
10002f80:	d0d8      	beq.n	10002f34 <stdio_out_chars_crlf+0x34>
10002f82:	458c      	cmp	ip, r1
10002f84:	eb08 000c 	add.w	r0, r8, ip
10002f88:	eba1 010c 	sub.w	r1, r1, ip
10002f8c:	da01      	bge.n	10002f92 <stdio_out_chars_crlf+0x92>
10002f8e:	683b      	ldr	r3, [r7, #0]
10002f90:	4798      	blx	r3
10002f92:	2102      	movs	r1, #2
10002f94:	4805      	ldr	r0, [pc, #20]	@ (10002fac <stdio_out_chars_crlf+0xac>)
10002f96:	683b      	ldr	r3, [r7, #0]
10002f98:	4798      	blx	r3
10002f9a:	46a4      	mov	ip, r4
10002f9c:	e7ca      	b.n	10002f34 <stdio_out_chars_crlf+0x34>
10002f9e:	4629      	mov	r1, r5
10002fa0:	4640      	mov	r0, r8
10002fa2:	683b      	ldr	r3, [r7, #0]
10002fa4:	e8bd 41f0 	ldmia.w	sp!, {r4, r5, r6, r7, r8, lr}
10002fa8:	4718      	bx	r3
10002faa:	bf00      	nop
10002fac:	10003828 	.word	0x10003828

10002fb0 <stdio_buffered_printer>:
10002fb0:	680b      	ldr	r3, [r1, #0]
10002fb2:	e92d 41f0 	stmdb	sp!, {r4, r5, r6, r7, r8, lr}
10002fb6:	2b80      	cmp	r3, #128	@ 0x80
10002fb8:	460d      	mov	r5, r1
10002fba:	4606      	mov	r6, r0
10002fbc:	d005      	beq.n	10002fca <stdio_buffered_printer+0x1a>
10002fbe:	1c5a      	adds	r2, r3, #1
10002fc0:	442b      	add	r3, r5
10002fc2:	602a      	str	r2, [r5, #0]
10002fc4:	711e      	strb	r6, [r3, #4]
10002fc6:	e8bd 81f0 	ldmia.w	sp!, {r4, r5, r6, r7, r8, pc}
10002fca:	4b0f      	ldr	r3, [pc, #60]	@ (10003008 <stdio_buffered_printer+0x58>)
10002fcc:	681c      	ldr	r4, [r3, #0]
10002fce:	b1a4      	cbz	r4, 10002ffa <stdio_buffered_printer+0x4a>
10002fd0:	4f0e      	ldr	r7, [pc, #56]	@ (1000300c <stdio_buffered_printer+0x5c>)
10002fd2:	f101 0804 	add.w	r8, r1, #4
10002fd6:	e001      	b.n	10002fdc <stdio_buffered_printer+0x2c>
10002fd8:	6924      	ldr	r4, [r4, #16]
10002fda:	b174      	cbz	r4, 10002ffa <stdio_buffered_printer+0x4a>
10002fdc:	6823      	ldr	r3, [r4, #0]
10002fde:	2b00      	cmp	r3, #0
10002fe0:	d0fa      	beq.n	10002fd8 <stdio_buffered_printer+0x28>
10002fe2:	683b      	ldr	r3, [r7, #0]
10002fe4:	b10b      	cbz	r3, 10002fea <stdio_buffered_printer+0x3a>
10002fe6:	42a3      	cmp	r3, r4
10002fe8:	d1f6      	bne.n	10002fd8 <stdio_buffered_printer+0x28>
10002fea:	4620      	mov	r0, r4
10002fec:	4641      	mov	r1, r8
10002fee:	682a      	ldr	r2, [r5, #0]
10002ff0:	f7ff ff86 	bl	10002f00 <stdio_out_chars_crlf>
10002ff4:	6924      	ldr	r4, [r4, #16]
10002ff6:	2c00      	cmp	r4, #0
10002ff8:	d1f0      	bne.n	10002fdc <stdio_buffered_printer+0x2c>
10002ffa:	2300      	movs	r3, #0
10002ffc:	2201      	movs	r2, #1
10002ffe:	442b      	add	r3, r5
10003000:	602a      	str	r2, [r5, #0]
10003002:	711e      	strb	r6, [r3, #4]
10003004:	e8bd 81f0 	ldmia.w	sp!, {r4, r5, r6, r7, r8, pc}
10003008:	20000804 	.word	0x20000804
1000300c:	20000808 	.word	0x20000808

10003010 <stdio_put_string>:
10003010:	e92d 47f0 	stmdb	sp!, {r4, r5, r6, r7, r8, r9, sl, lr}
10003014:	b082      	sub	sp, #8
10003016:	460d      	mov	r5, r1
10003018:	4691      	mov	r9, r2
1000301a:	461c      	mov	r4, r3
1000301c:	4606      	mov	r6, r0
1000301e:	f7fd ff95 	bl	10000f4c <time_us_64>
10003022:	f04f 3cff 	mov.w	ip, #4294967295
10003026:	f06f 4700 	mvn.w	r7, #2147483648	@ 0x80000000
1000302a:	4a2e      	ldr	r2, [pc, #184]	@ (100030e4 <stdio_put_string+0xd4>)
1000302c:	1882      	adds	r2, r0, r2
1000302e:	f141 0300 	adc.w	r3, r1, #0
10003032:	4594      	cmp	ip, r2
10003034:	eb77 0103 	sbcs.w	r1, r7, r3
10003038:	bf3c      	itt	cc
1000303a:	4662      	movcc	r2, ip
1000303c:	463b      	movcc	r3, r7
1000303e:	482a      	ldr	r0, [pc, #168]	@ (100030e8 <stdio_put_string+0xd8>)
10003040:	f000 faee 	bl	10003620 <__mutex_try_enter_block_until_veneer>
10003044:	1c6b      	adds	r3, r5, #1
10003046:	4680      	mov	r8, r0
10003048:	d040      	beq.n	100030cc <stdio_put_string+0xbc>
1000304a:	b30c      	cbz	r4, 10003090 <stdio_put_string+0x80>
1000304c:	4f27      	ldr	r7, [pc, #156]	@ (100030ec <stdio_put_string+0xdc>)
1000304e:	4b28      	ldr	r3, [pc, #160]	@ (100030f0 <stdio_put_string+0xe0>)
10003050:	681c      	ldr	r4, [r3, #0]
10003052:	b1b4      	cbz	r4, 10003082 <stdio_put_string+0x72>
10003054:	f1b9 0f00 	cmp.w	r9, #0
10003058:	d11c      	bne.n	10003094 <stdio_put_string+0x84>
1000305a:	f8df 909c 	ldr.w	r9, [pc, #156]	@ 100030f8 <stdio_put_string+0xe8>
1000305e:	e001      	b.n	10003064 <stdio_put_string+0x54>
10003060:	6924      	ldr	r4, [r4, #16]
10003062:	b174      	cbz	r4, 10003082 <stdio_put_string+0x72>
10003064:	6823      	ldr	r3, [r4, #0]
10003066:	2b00      	cmp	r3, #0
10003068:	d0fa      	beq.n	10003060 <stdio_put_string+0x50>
1000306a:	f8d9 3000 	ldr.w	r3, [r9]
1000306e:	b10b      	cbz	r3, 10003074 <stdio_put_string+0x64>
10003070:	429c      	cmp	r4, r3
10003072:	d1f5      	bne.n	10003060 <stdio_put_string+0x50>
10003074:	4620      	mov	r0, r4
10003076:	462a      	mov	r2, r5
10003078:	4631      	mov	r1, r6
1000307a:	47b8      	blx	r7
1000307c:	6924      	ldr	r4, [r4, #16]
1000307e:	2c00      	cmp	r4, #0
10003080:	d1f0      	bne.n	10003064 <stdio_put_string+0x54>
10003082:	f1b8 0f00 	cmp.w	r8, #0
10003086:	d126      	bne.n	100030d6 <stdio_put_string+0xc6>
10003088:	4628      	mov	r0, r5
1000308a:	b002      	add	sp, #8
1000308c:	e8bd 87f0 	ldmia.w	sp!, {r4, r5, r6, r7, r8, r9, sl, pc}
10003090:	4f18      	ldr	r7, [pc, #96]	@ (100030f4 <stdio_put_string+0xe4>)
10003092:	e7dc      	b.n	1000304e <stdio_put_string+0x3e>
10003094:	f04f 0a0a 	mov.w	sl, #10
10003098:	f8df 905c 	ldr.w	r9, [pc, #92]	@ 100030f8 <stdio_put_string+0xe8>
1000309c:	e002      	b.n	100030a4 <stdio_put_string+0x94>
1000309e:	6924      	ldr	r4, [r4, #16]
100030a0:	2c00      	cmp	r4, #0
100030a2:	d0ee      	beq.n	10003082 <stdio_put_string+0x72>
100030a4:	6823      	ldr	r3, [r4, #0]
100030a6:	2b00      	cmp	r3, #0
100030a8:	d0f9      	beq.n	1000309e <stdio_put_string+0x8e>
100030aa:	f8d9 3000 	ldr.w	r3, [r9]
100030ae:	b10b      	cbz	r3, 100030b4 <stdio_put_string+0xa4>
100030b0:	42a3      	cmp	r3, r4
100030b2:	d1f4      	bne.n	1000309e <stdio_put_string+0x8e>
100030b4:	462a      	mov	r2, r5
100030b6:	4631      	mov	r1, r6
100030b8:	4620      	mov	r0, r4
100030ba:	47b8      	blx	r7
100030bc:	2201      	movs	r2, #1
100030be:	4620      	mov	r0, r4
100030c0:	f10d 0107 	add.w	r1, sp, #7
100030c4:	f88d a007 	strb.w	sl, [sp, #7]
100030c8:	47b8      	blx	r7
100030ca:	e7e8      	b.n	1000309e <stdio_put_string+0x8e>
100030cc:	4630      	mov	r0, r6
100030ce:	f000 fa6f 	bl	100035b0 <strlen>
100030d2:	4605      	mov	r5, r0
100030d4:	e7b9      	b.n	1000304a <stdio_put_string+0x3a>
100030d6:	4804      	ldr	r0, [pc, #16]	@ (100030e8 <stdio_put_string+0xd8>)
100030d8:	f000 fa9e 	bl	10003618 <__mutex_exit_veneer>
100030dc:	4628      	mov	r0, r5
100030de:	b002      	add	sp, #8
100030e0:	e8bd 87f0 	ldmia.w	sp!, {r4, r5, r6, r7, r8, r9, sl, pc}
100030e4:	000f4240 	.word	0x000f4240
100030e8:	20000624 	.word	0x20000624
100030ec:	10002f01 	.word	0x10002f01
100030f0:	20000804 	.word	0x20000804
100030f4:	10002ef9 	.word	0x10002ef9
100030f8:	20000808 	.word	0x20000808

100030fc <stdio_set_driver_enabled>:
100030fc:	4a08      	ldr	r2, [pc, #32]	@ (10003120 <stdio_set_driver_enabled+0x24>)
100030fe:	6813      	ldr	r3, [r2, #0]
10003100:	b923      	cbnz	r3, 1000310c <stdio_set_driver_enabled+0x10>
10003102:	e00a      	b.n	1000311a <stdio_set_driver_enabled+0x1e>
10003104:	f103 0210 	add.w	r2, r3, #16
10003108:	691b      	ldr	r3, [r3, #16]
1000310a:	b133      	cbz	r3, 1000311a <stdio_set_driver_enabled+0x1e>
1000310c:	4283      	cmp	r3, r0
1000310e:	d1f9      	bne.n	10003104 <stdio_set_driver_enabled+0x8>
10003110:	b929      	cbnz	r1, 1000311e <stdio_set_driver_enabled+0x22>
10003112:	6918      	ldr	r0, [r3, #16]
10003114:	6010      	str	r0, [r2, #0]
10003116:	6119      	str	r1, [r3, #16]
10003118:	4770      	bx	lr
1000311a:	b101      	cbz	r1, 1000311e <stdio_set_driver_enabled+0x22>
1000311c:	6010      	str	r0, [r2, #0]
1000311e:	4770      	bx	lr
10003120:	20000804 	.word	0x20000804

10003124 <stdio_init_all>:
10003124:	b508      	push	{r3, lr}
10003126:	f000 f9a3 	bl	10003470 <stdio_uart_init>
1000312a:	2001      	movs	r0, #1
1000312c:	bd08      	pop	{r3, pc}
1000312e:	bf00      	nop

10003130 <__wrap_putchar>:
10003130:	b5f0      	push	{r4, r5, r6, r7, lr}
10003132:	b083      	sub	sp, #12
10003134:	4606      	mov	r6, r0
10003136:	f88d 0007 	strb.w	r0, [sp, #7]
1000313a:	f7fd ff07 	bl	10000f4c <time_us_64>
1000313e:	f04f 35ff 	mov.w	r5, #4294967295
10003142:	f06f 4400 	mvn.w	r4, #2147483648	@ 0x80000000
10003146:	4a17      	ldr	r2, [pc, #92]	@ (100031a4 <__wrap_putchar+0x74>)
10003148:	1882      	adds	r2, r0, r2
1000314a:	f141 0300 	adc.w	r3, r1, #0
1000314e:	4295      	cmp	r5, r2
10003150:	eb74 0103 	sbcs.w	r1, r4, r3
10003154:	bf3c      	itt	cc
10003156:	4623      	movcc	r3, r4
10003158:	462a      	movcc	r2, r5
1000315a:	4813      	ldr	r0, [pc, #76]	@ (100031a8 <__wrap_putchar+0x78>)
1000315c:	f000 fa60 	bl	10003620 <__mutex_try_enter_block_until_veneer>
10003160:	4b12      	ldr	r3, [pc, #72]	@ (100031ac <__wrap_putchar+0x7c>)
10003162:	4607      	mov	r7, r0
10003164:	681c      	ldr	r4, [r3, #0]
10003166:	b19c      	cbz	r4, 10003190 <__wrap_putchar+0x60>
10003168:	4d11      	ldr	r5, [pc, #68]	@ (100031b0 <__wrap_putchar+0x80>)
1000316a:	e001      	b.n	10003170 <__wrap_putchar+0x40>
1000316c:	6924      	ldr	r4, [r4, #16]
1000316e:	b17c      	cbz	r4, 10003190 <__wrap_putchar+0x60>
10003170:	6823      	ldr	r3, [r4, #0]
10003172:	2b00      	cmp	r3, #0
10003174:	d0fa      	beq.n	1000316c <__wrap_putchar+0x3c>
10003176:	682b      	ldr	r3, [r5, #0]
10003178:	b10b      	cbz	r3, 1000317e <__wrap_putchar+0x4e>
1000317a:	429c      	cmp	r4, r3
1000317c:	d1f6      	bne.n	1000316c <__wrap_putchar+0x3c>
1000317e:	4620      	mov	r0, r4
10003180:	2201      	movs	r2, #1
10003182:	f10d 0107 	add.w	r1, sp, #7
10003186:	f7ff febb 	bl	10002f00 <stdio_out_chars_crlf>
1000318a:	6924      	ldr	r4, [r4, #16]
1000318c:	2c00      	cmp	r4, #0
1000318e:	d1ef      	bne.n	10003170 <__wrap_putchar+0x40>
10003190:	b917      	cbnz	r7, 10003198 <__wrap_putchar+0x68>
10003192:	4630      	mov	r0, r6
10003194:	b003      	add	sp, #12
10003196:	bdf0      	pop	{r4, r5, r6, r7, pc}
10003198:	4803      	ldr	r0, [pc, #12]	@ (100031a8 <__wrap_putchar+0x78>)
1000319a:	f000 fa3d 	bl	10003618 <__mutex_exit_veneer>
1000319e:	4630      	mov	r0, r6
100031a0:	b003      	add	sp, #12
100031a2:	bdf0      	pop	{r4, r5, r6, r7, pc}
100031a4:	000f4240 	.word	0x000f4240
100031a8:	20000624 	.word	0x20000624
100031ac:	20000804 	.word	0x20000804
100031b0:	20000808 	.word	0x20000808

100031b4 <__wrap_puts>:
100031b4:	b538      	push	{r3, r4, r5, lr}
100031b6:	4604      	mov	r4, r0
100031b8:	f000 f9fa 	bl	100035b0 <strlen>
100031bc:	2301      	movs	r3, #1
100031be:	4605      	mov	r5, r0
100031c0:	461a      	mov	r2, r3
100031c2:	4620      	mov	r0, r4
100031c4:	4629      	mov	r1, r5
100031c6:	f7ff ff23 	bl	10003010 <stdio_put_string>
100031ca:	4b08      	ldr	r3, [pc, #32]	@ (100031ec <__wrap_puts+0x38>)
100031cc:	681c      	ldr	r4, [r3, #0]
100031ce:	b12c      	cbz	r4, 100031dc <__wrap_puts+0x28>
100031d0:	6863      	ldr	r3, [r4, #4]
100031d2:	b12b      	cbz	r3, 100031e0 <__wrap_puts+0x2c>
100031d4:	4798      	blx	r3
100031d6:	6924      	ldr	r4, [r4, #16]
100031d8:	2c00      	cmp	r4, #0
100031da:	d1f9      	bne.n	100031d0 <__wrap_puts+0x1c>
100031dc:	4628      	mov	r0, r5
100031de:	bd38      	pop	{r3, r4, r5, pc}
100031e0:	6924      	ldr	r4, [r4, #16]
100031e2:	2c00      	cmp	r4, #0
100031e4:	d1f4      	bne.n	100031d0 <__wrap_puts+0x1c>
100031e6:	4628      	mov	r0, r5
100031e8:	bd38      	pop	{r3, r4, r5, pc}
100031ea:	bf00      	nop
100031ec:	20000804 	.word	0x20000804

100031f0 <__wrap_vprintf>:
100031f0:	e92d 41f0 	stmdb	sp!, {r4, r5, r6, r7, r8, lr}
100031f4:	b0a2      	sub	sp, #136	@ 0x88
100031f6:	4604      	mov	r4, r0
100031f8:	460d      	mov	r5, r1
100031fa:	f7fd fea7 	bl	10000f4c <time_us_64>
100031fe:	f04f 37ff 	mov.w	r7, #4294967295
10003202:	f06f 4600 	mvn.w	r6, #2147483648	@ 0x80000000
10003206:	4a26      	ldr	r2, [pc, #152]	@ (100032a0 <__wrap_vprintf+0xb0>)
10003208:	f8df 80a4 	ldr.w	r8, [pc, #164]	@ 100032b0 <__wrap_vprintf+0xc0>
1000320c:	1882      	adds	r2, r0, r2
1000320e:	f141 0300 	adc.w	r3, r1, #0
10003212:	4297      	cmp	r7, r2
10003214:	eb76 0103 	sbcs.w	r1, r6, r3
10003218:	bf3c      	itt	cc
1000321a:	463a      	movcc	r2, r7
1000321c:	4633      	movcc	r3, r6
1000321e:	4821      	ldr	r0, [pc, #132]	@ (100032a4 <__wrap_vprintf+0xb4>)
10003220:	f000 f9fe 	bl	10003620 <__mutex_try_enter_block_until_veneer>
10003224:	2700      	movs	r7, #0
10003226:	462b      	mov	r3, r5
10003228:	4622      	mov	r2, r4
1000322a:	4606      	mov	r6, r0
1000322c:	a901      	add	r1, sp, #4
1000322e:	481e      	ldr	r0, [pc, #120]	@ (100032a8 <__wrap_vprintf+0xb8>)
10003230:	9701      	str	r7, [sp, #4]
10003232:	f7ff fe1d 	bl	10002e70 <vfctprintf>
10003236:	9b01      	ldr	r3, [sp, #4]
10003238:	4605      	mov	r5, r0
1000323a:	f8d8 4000 	ldr.w	r4, [r8]
1000323e:	b1c3      	cbz	r3, 10003272 <__wrap_vprintf+0x82>
10003240:	2c00      	cmp	r4, #0
10003242:	d02b      	beq.n	1000329c <__wrap_vprintf+0xac>
10003244:	4f19      	ldr	r7, [pc, #100]	@ (100032ac <__wrap_vprintf+0xbc>)
10003246:	e001      	b.n	1000324c <__wrap_vprintf+0x5c>
10003248:	6924      	ldr	r4, [r4, #16]
1000324a:	b174      	cbz	r4, 1000326a <__wrap_vprintf+0x7a>
1000324c:	6823      	ldr	r3, [r4, #0]
1000324e:	2b00      	cmp	r3, #0
10003250:	d0fa      	beq.n	10003248 <__wrap_vprintf+0x58>
10003252:	683b      	ldr	r3, [r7, #0]
10003254:	b10b      	cbz	r3, 1000325a <__wrap_vprintf+0x6a>
10003256:	42a3      	cmp	r3, r4
10003258:	d1f6      	bne.n	10003248 <__wrap_vprintf+0x58>
1000325a:	4620      	mov	r0, r4
1000325c:	9a01      	ldr	r2, [sp, #4]
1000325e:	a902      	add	r1, sp, #8
10003260:	f7ff fe4e 	bl	10002f00 <stdio_out_chars_crlf>
10003264:	6924      	ldr	r4, [r4, #16]
10003266:	2c00      	cmp	r4, #0
10003268:	d1f0      	bne.n	1000324c <__wrap_vprintf+0x5c>
1000326a:	2300      	movs	r3, #0
1000326c:	f8d8 4000 	ldr.w	r4, [r8]
10003270:	9301      	str	r3, [sp, #4]
10003272:	b12c      	cbz	r4, 10003280 <__wrap_vprintf+0x90>
10003274:	6863      	ldr	r3, [r4, #4]
10003276:	b143      	cbz	r3, 1000328a <__wrap_vprintf+0x9a>
10003278:	4798      	blx	r3
1000327a:	6924      	ldr	r4, [r4, #16]
1000327c:	2c00      	cmp	r4, #0
1000327e:	d1f9      	bne.n	10003274 <__wrap_vprintf+0x84>
10003280:	b92e      	cbnz	r6, 1000328e <__wrap_vprintf+0x9e>
10003282:	4628      	mov	r0, r5
10003284:	b022      	add	sp, #136	@ 0x88
10003286:	e8bd 81f0 	ldmia.w	sp!, {r4, r5, r6, r7, r8, pc}
1000328a:	6924      	ldr	r4, [r4, #16]
1000328c:	e7f1      	b.n	10003272 <__wrap_vprintf+0x82>
1000328e:	4805      	ldr	r0, [pc, #20]	@ (100032a4 <__wrap_vprintf+0xb4>)
10003290:	f000 f9c2 	bl	10003618 <__mutex_exit_veneer>
10003294:	4628      	mov	r0, r5
10003296:	b022      	add	sp, #136	@ 0x88
10003298:	e8bd 81f0 	ldmia.w	sp!, {r4, r5, r6, r7, r8, pc}
1000329c:	9401      	str	r4, [sp, #4]
1000329e:	e7ef      	b.n	10003280 <__wrap_vprintf+0x90>
100032a0:	000f4240 	.word	0x000f4240
100032a4:	20000624 	.word	0x20000624
100032a8:	10002fb1 	.word	0x10002fb1
100032ac:	20000808 	.word	0x20000808
100032b0:	20000804 	.word	0x20000804

100032b4 <__wrap_printf>:
100032b4:	b40f      	push	{r0, r1, r2, r3}
100032b6:	b500      	push	{lr}
100032b8:	b083      	sub	sp, #12
100032ba:	a904      	add	r1, sp, #16
100032bc:	f851 0b04 	ldr.w	r0, [r1], #4
100032c0:	9101      	str	r1, [sp, #4]
100032c2:	f7ff ff95 	bl	100031f0 <__wrap_vprintf>
100032c6:	b003      	add	sp, #12
100032c8:	f85d eb04 	ldr.w	lr, [sp], #4
100032cc:	b004      	add	sp, #16
100032ce:	4770      	bx	lr

100032d0 <stdio_uart_out_chars>:
100032d0:	f1b1 0c00 	subs.w	ip, r1, #0
100032d4:	dd1d      	ble.n	10003312 <stdio_uart_out_chars+0x42>
100032d6:	4a0f      	ldr	r2, [pc, #60]	@ (10003314 <stdio_uart_out_chars+0x44>)
100032d8:	4b0f      	ldr	r3, [pc, #60]	@ (10003318 <stdio_uart_out_chars+0x48>)
100032da:	6812      	ldr	r2, [r2, #0]
100032dc:	b530      	push	{r4, r5, lr}
100032de:	1ad3      	subs	r3, r2, r3
100032e0:	fab3 f383 	clz	r3, r3
100032e4:	240d      	movs	r4, #13
100032e6:	4d0d      	ldr	r5, [pc, #52]	@ (1000331c <stdio_uart_out_chars+0x4c>)
100032e8:	095b      	lsrs	r3, r3, #5
100032ea:	1e41      	subs	r1, r0, #1
100032ec:	f935 e013 	ldrsh.w	lr, [r5, r3, lsl #1]
100032f0:	448c      	add	ip, r1
100032f2:	f811 0f01 	ldrb.w	r0, [r1, #1]!
100032f6:	4586      	cmp	lr, r0
100032f8:	d006      	beq.n	10003308 <stdio_uart_out_chars+0x38>
100032fa:	6993      	ldr	r3, [r2, #24]
100032fc:	069b      	lsls	r3, r3, #26
100032fe:	d4fc      	bmi.n	100032fa <stdio_uart_out_chars+0x2a>
10003300:	4561      	cmp	r1, ip
10003302:	6010      	str	r0, [r2, #0]
10003304:	d1f5      	bne.n	100032f2 <stdio_uart_out_chars+0x22>
10003306:	bd30      	pop	{r4, r5, pc}
10003308:	6993      	ldr	r3, [r2, #24]
1000330a:	069d      	lsls	r5, r3, #26
1000330c:	d4fc      	bmi.n	10003308 <stdio_uart_out_chars+0x38>
1000330e:	6014      	str	r4, [r2, #0]
10003310:	e7f3      	b.n	100032fa <stdio_uart_out_chars+0x2a>
10003312:	4770      	bx	lr
10003314:	20000850 	.word	0x20000850
10003318:	40078000 	.word	0x40078000
1000331c:	2000084c 	.word	0x2000084c

10003320 <stdio_uart_in_chars>:
10003320:	4b22      	ldr	r3, [pc, #136]	@ (100033ac <stdio_uart_in_chars+0x8c>)
10003322:	f1b1 0c00 	subs.w	ip, r1, #0
10003326:	b410      	push	{r4}
10003328:	681c      	ldr	r4, [r3, #0]
1000332a:	dd2e      	ble.n	1000338a <stdio_uart_in_chars+0x6a>
1000332c:	4603      	mov	r3, r0
1000332e:	2000      	movs	r0, #0
10003330:	4a1f      	ldr	r2, [pc, #124]	@ (100033b0 <stdio_uart_in_chars+0x90>)
10003332:	1e59      	subs	r1, r3, #1
10003334:	6812      	ldr	r2, [r2, #0]
10003336:	6993      	ldr	r3, [r2, #24]
10003338:	06db      	lsls	r3, r3, #27
1000333a:	d417      	bmi.n	1000336c <stdio_uart_in_chars+0x4c>
1000333c:	3001      	adds	r0, #1
1000333e:	6993      	ldr	r3, [r2, #24]
10003340:	06db      	lsls	r3, r3, #27
10003342:	d4fc      	bmi.n	1000333e <stdio_uart_in_chars+0x1e>
10003344:	6813      	ldr	r3, [r2, #0]
10003346:	4584      	cmp	ip, r0
10003348:	f801 3f01 	strb.w	r3, [r1, #1]!
1000334c:	d1f3      	bne.n	10003336 <stdio_uart_in_chars+0x16>
1000334e:	b14c      	cbz	r4, 10003364 <stdio_uart_in_chars+0x44>
10003350:	2150      	movs	r1, #80	@ 0x50
10003352:	4613      	mov	r3, r2
10003354:	6391      	str	r1, [r2, #56]	@ 0x38
10003356:	f853 2f34 	ldr.w	r2, [r3, #52]!
1000335a:	f002 0238 	and.w	r2, r2, #56	@ 0x38
1000335e:	f503 5380 	add.w	r3, r3, #4096	@ 0x1000
10003362:	601a      	str	r2, [r3, #0]
10003364:	4660      	mov	r0, ip
10003366:	f85d 4b04 	ldr.w	r4, [sp], #4
1000336a:	4770      	bx	lr
1000336c:	b14c      	cbz	r4, 10003382 <stdio_uart_in_chars+0x62>
1000336e:	2150      	movs	r1, #80	@ 0x50
10003370:	4613      	mov	r3, r2
10003372:	6391      	str	r1, [r2, #56]	@ 0x38
10003374:	f853 2f34 	ldr.w	r2, [r3, #52]!
10003378:	f002 0238 	and.w	r2, r2, #56	@ 0x38
1000337c:	f503 5380 	add.w	r3, r3, #4096	@ 0x1000
10003380:	601a      	str	r2, [r3, #0]
10003382:	b178      	cbz	r0, 100033a4 <stdio_uart_in_chars+0x84>
10003384:	f85d 4b04 	ldr.w	r4, [sp], #4
10003388:	4770      	bx	lr
1000338a:	b15c      	cbz	r4, 100033a4 <stdio_uart_in_chars+0x84>
1000338c:	4b08      	ldr	r3, [pc, #32]	@ (100033b0 <stdio_uart_in_chars+0x90>)
1000338e:	2150      	movs	r1, #80	@ 0x50
10003390:	681a      	ldr	r2, [r3, #0]
10003392:	4613      	mov	r3, r2
10003394:	6391      	str	r1, [r2, #56]	@ 0x38
10003396:	f853 2f34 	ldr.w	r2, [r3, #52]!
1000339a:	f002 0238 	and.w	r2, r2, #56	@ 0x38
1000339e:	f503 5380 	add.w	r3, r3, #4096	@ 0x1000
100033a2:	601a      	str	r2, [r3, #0]
100033a4:	f06f 0002 	mvn.w	r0, #2
100033a8:	e7dd      	b.n	10003366 <stdio_uart_in_chars+0x46>
100033aa:	bf00      	nop
100033ac:	200007d0 	.word	0x200007d0
100033b0:	20000850 	.word	0x20000850

100033b4 <on_uart_rx>:
100033b4:	4b05      	ldr	r3, [pc, #20]	@ (100033cc <on_uart_rx+0x18>)
100033b6:	681b      	ldr	r3, [r3, #0]
100033b8:	b133      	cbz	r3, 100033c8 <on_uart_rx+0x14>
100033ba:	2100      	movs	r1, #0
100033bc:	4a04      	ldr	r2, [pc, #16]	@ (100033d0 <on_uart_rx+0x1c>)
100033be:	4805      	ldr	r0, [pc, #20]	@ (100033d4 <on_uart_rx+0x20>)
100033c0:	6812      	ldr	r2, [r2, #0]
100033c2:	6800      	ldr	r0, [r0, #0]
100033c4:	6391      	str	r1, [r2, #56]	@ 0x38
100033c6:	4718      	bx	r3
100033c8:	4770      	bx	lr
100033ca:	bf00      	nop
100033cc:	200007d0 	.word	0x200007d0
100033d0:	20000850 	.word	0x20000850
100033d4:	200007d4 	.word	0x200007d4

100033d8 <stdio_uart_out_flush>:
100033d8:	4b02      	ldr	r3, [pc, #8]	@ (100033e4 <stdio_uart_out_flush+0xc>)
100033da:	681a      	ldr	r2, [r3, #0]
100033dc:	6993      	ldr	r3, [r2, #24]
100033de:	071b      	lsls	r3, r3, #28
100033e0:	d4fc      	bmi.n	100033dc <stdio_uart_out_flush+0x4>
100033e2:	4770      	bx	lr
100033e4:	20000850 	.word	0x20000850

100033e8 <stdio_uart_set_chars_available_callback>:
100033e8:	b5f8      	push	{r3, r4, r5, r6, r7, lr}
100033ea:	4f1c      	ldr	r7, [pc, #112]	@ (1000345c <stdio_uart_set_chars_available_callback+0x74>)
100033ec:	4d1c      	ldr	r5, [pc, #112]	@ (10003460 <stdio_uart_set_chars_available_callback+0x78>)
100033ee:	683a      	ldr	r2, [r7, #0]
100033f0:	4e1c      	ldr	r6, [pc, #112]	@ (10003464 <stdio_uart_set_chars_available_callback+0x7c>)
100033f2:	42aa      	cmp	r2, r5
100033f4:	bf14      	ite	ne
100033f6:	2521      	movne	r5, #33	@ 0x21
100033f8:	2522      	moveq	r5, #34	@ 0x22
100033fa:	4604      	mov	r4, r0
100033fc:	f8d6 c000 	ldr.w	ip, [r6]
10003400:	b118      	cbz	r0, 1000340a <stdio_uart_set_chars_available_callback+0x22>
10003402:	f1bc 0f00 	cmp.w	ip, #0
10003406:	d010      	beq.n	1000342a <stdio_uart_set_chars_available_callback+0x42>
10003408:	bdf8      	pop	{r3, r4, r5, r6, r7, pc}
1000340a:	f1bc 0f00 	cmp.w	ip, #0
1000340e:	d0fb      	beq.n	10003408 <stdio_uart_set_chars_available_callback+0x20>
10003410:	4601      	mov	r1, r0
10003412:	6390      	str	r0, [r2, #56]	@ 0x38
10003414:	4628      	mov	r0, r5
10003416:	f7fd f821 	bl	1000045c <irq_set_enabled>
1000341a:	4628      	mov	r0, r5
1000341c:	4912      	ldr	r1, [pc, #72]	@ (10003468 <stdio_uart_set_chars_available_callback+0x80>)
1000341e:	f7fd f863 	bl	100004e8 <irq_remove_handler>
10003422:	4b12      	ldr	r3, [pc, #72]	@ (1000346c <stdio_uart_set_chars_available_callback+0x84>)
10003424:	6034      	str	r4, [r6, #0]
10003426:	601c      	str	r4, [r3, #0]
10003428:	bdf8      	pop	{r3, r4, r5, r6, r7, pc}
1000342a:	460b      	mov	r3, r1
1000342c:	4a0f      	ldr	r2, [pc, #60]	@ (1000346c <stdio_uart_set_chars_available_callback+0x84>)
1000342e:	490e      	ldr	r1, [pc, #56]	@ (10003468 <stdio_uart_set_chars_available_callback+0x80>)
10003430:	6030      	str	r0, [r6, #0]
10003432:	4628      	mov	r0, r5
10003434:	6013      	str	r3, [r2, #0]
10003436:	f7fd f827 	bl	10000488 <irq_set_exclusive_handler>
1000343a:	2101      	movs	r1, #1
1000343c:	4628      	mov	r0, r5
1000343e:	f7fd f80d 	bl	1000045c <irq_set_enabled>
10003442:	683a      	ldr	r2, [r7, #0]
10003444:	2150      	movs	r1, #80	@ 0x50
10003446:	4613      	mov	r3, r2
10003448:	6391      	str	r1, [r2, #56]	@ 0x38
1000344a:	f853 2f34 	ldr.w	r2, [r3, #52]!
1000344e:	f002 0238 	and.w	r2, r2, #56	@ 0x38
10003452:	f503 5380 	add.w	r3, r3, #4096	@ 0x1000
10003456:	601a      	str	r2, [r3, #0]
10003458:	bdf8      	pop	{r3, r4, r5, r6, r7, pc}
1000345a:	bf00      	nop
1000345c:	20000850 	.word	0x20000850
10003460:	40078000 	.word	0x40078000
10003464:	200007d0 	.word	0x200007d0
10003468:	100033b5 	.word	0x100033b5
1000346c:	200007d4 	.word	0x200007d4

10003470 <stdio_uart_init>:
10003470:	b510      	push	{r4, lr}
10003472:	490e      	ldr	r1, [pc, #56]	@ (100034ac <stdio_uart_init+0x3c>)
10003474:	4c0e      	ldr	r4, [pc, #56]	@ (100034b0 <stdio_uart_init+0x40>)
10003476:	480f      	ldr	r0, [pc, #60]	@ (100034b4 <stdio_uart_init+0x44>)
10003478:	4a0f      	ldr	r2, [pc, #60]	@ (100034b8 <stdio_uart_init+0x48>)
1000347a:	4b10      	ldr	r3, [pc, #64]	@ (100034bc <stdio_uart_init+0x4c>)
1000347c:	7800      	ldrb	r0, [r0, #0]
1000347e:	6021      	str	r1, [r4, #0]
10003480:	2000      	movs	r0, #0
10003482:	2102      	movs	r1, #2
10003484:	7812      	ldrb	r2, [r2, #0]
10003486:	781b      	ldrb	r3, [r3, #0]
10003488:	f7fc ff22 	bl	100002d0 <gpio_set_function>
1000348c:	2102      	movs	r1, #2
1000348e:	2001      	movs	r0, #1
10003490:	f7fc ff1e 	bl	100002d0 <gpio_set_function>
10003494:	f44f 31e1 	mov.w	r1, #115200	@ 0x1c200
10003498:	6820      	ldr	r0, [r4, #0]
1000349a:	f7fd fda1 	bl	10000fe0 <uart_init>
1000349e:	e8bd 4010 	ldmia.w	sp!, {r4, lr}
100034a2:	2101      	movs	r1, #1
100034a4:	4806      	ldr	r0, [pc, #24]	@ (100034c0 <stdio_uart_init+0x50>)
100034a6:	f7ff be29 	b.w	100030fc <stdio_set_driver_enabled>
100034aa:	bf00      	nop
100034ac:	40070000 	.word	0x40070000
100034b0:	20000850 	.word	0x20000850
100034b4:	10003878 	.word	0x10003878
100034b8:	10003874 	.word	0x10003874
100034bc:	10003870 	.word	0x10003870
100034c0:	2000060c 	.word	0x2000060c

100034c4 <memcpy>:
100034c4:	4684      	mov	ip, r0
100034c6:	ea41 0300 	orr.w	r3, r1, r0
100034ca:	f013 0303 	ands.w	r3, r3, #3
100034ce:	d149      	bne.n	10003564 <memcpy+0xa0>
100034d0:	3a40      	subs	r2, #64	@ 0x40
100034d2:	d323      	bcc.n	1000351c <memcpy+0x58>
100034d4:	680b      	ldr	r3, [r1, #0]
100034d6:	6003      	str	r3, [r0, #0]
100034d8:	684b      	ldr	r3, [r1, #4]
100034da:	6043      	str	r3, [r0, #4]
100034dc:	688b      	ldr	r3, [r1, #8]
100034de:	6083      	str	r3, [r0, #8]
100034e0:	68cb      	ldr	r3, [r1, #12]
100034e2:	60c3      	str	r3, [r0, #12]
100034e4:	690b      	ldr	r3, [r1, #16]
100034e6:	6103      	str	r3, [r0, #16]
100034e8:	694b      	ldr	r3, [r1, #20]
100034ea:	6143      	str	r3, [r0, #20]
100034ec:	698b      	ldr	r3, [r1, #24]
100034ee:	6183      	str	r3, [r0, #24]
100034f0:	69cb      	ldr	r3, [r1, #28]
100034f2:	61c3      	str	r3, [r0, #28]
100034f4:	6a0b      	ldr	r3, [r1, #32]
100034f6:	6203      	str	r3, [r0, #32]
100034f8:	6a4b      	ldr	r3, [r1, #36]	@ 0x24
100034fa:	6243      	str	r3, [r0, #36]	@ 0x24
100034fc:	6a8b      	ldr	r3, [r1, #40]	@ 0x28
100034fe:	6283      	str	r3, [r0, #40]	@ 0x28
10003500:	6acb      	ldr	r3, [r1, #44]	@ 0x2c
10003502:	62c3      	str	r3, [r0, #44]	@ 0x2c
10003504:	6b0b      	ldr	r3, [r1, #48]	@ 0x30
10003506:	6303      	str	r3, [r0, #48]	@ 0x30
10003508:	6b4b      	ldr	r3, [r1, #52]	@ 0x34
1000350a:	6343      	str	r3, [r0, #52]	@ 0x34
1000350c:	6b8b      	ldr	r3, [r1, #56]	@ 0x38
1000350e:	6383      	str	r3, [r0, #56]	@ 0x38
10003510:	6bcb      	ldr	r3, [r1, #60]	@ 0x3c
10003512:	63c3      	str	r3, [r0, #60]	@ 0x3c
10003514:	3040      	adds	r0, #64	@ 0x40
10003516:	3140      	adds	r1, #64	@ 0x40
10003518:	3a40      	subs	r2, #64	@ 0x40
1000351a:	d2db      	bcs.n	100034d4 <memcpy+0x10>
1000351c:	3230      	adds	r2, #48	@ 0x30
1000351e:	d30b      	bcc.n	10003538 <memcpy+0x74>
10003520:	680b      	ldr	r3, [r1, #0]
10003522:	6003      	str	r3, [r0, #0]
10003524:	684b      	ldr	r3, [r1, #4]
10003526:	6043      	str	r3, [r0, #4]
10003528:	688b      	ldr	r3, [r1, #8]
1000352a:	6083      	str	r3, [r0, #8]
1000352c:	68cb      	ldr	r3, [r1, #12]
1000352e:	60c3      	str	r3, [r0, #12]
10003530:	3010      	adds	r0, #16
10003532:	3110      	adds	r1, #16
10003534:	3a10      	subs	r2, #16
10003536:	d2f3      	bcs.n	10003520 <memcpy+0x5c>
10003538:	320c      	adds	r2, #12
1000353a:	d305      	bcc.n	10003548 <memcpy+0x84>
1000353c:	f851 3b04 	ldr.w	r3, [r1], #4
10003540:	f840 3b04 	str.w	r3, [r0], #4
10003544:	3a04      	subs	r2, #4
10003546:	d2f9      	bcs.n	1000353c <memcpy+0x78>
10003548:	3204      	adds	r2, #4
1000354a:	d008      	beq.n	1000355e <memcpy+0x9a>
1000354c:	07d2      	lsls	r2, r2, #31
1000354e:	bf1c      	itt	ne
10003550:	f811 3b01 	ldrbne.w	r3, [r1], #1
10003554:	f800 3b01 	strbne.w	r3, [r0], #1
10003558:	d301      	bcc.n	1000355e <memcpy+0x9a>
1000355a:	880b      	ldrh	r3, [r1, #0]
1000355c:	8003      	strh	r3, [r0, #0]
1000355e:	4660      	mov	r0, ip
10003560:	4770      	bx	lr
10003562:	bf00      	nop
10003564:	2a08      	cmp	r2, #8
10003566:	d313      	bcc.n	10003590 <memcpy+0xcc>
10003568:	078b      	lsls	r3, r1, #30
1000356a:	d0b1      	beq.n	100034d0 <memcpy+0xc>
1000356c:	f010 0303 	ands.w	r3, r0, #3
10003570:	d0ae      	beq.n	100034d0 <memcpy+0xc>
10003572:	f1c3 0304 	rsb	r3, r3, #4
10003576:	1ad2      	subs	r2, r2, r3
10003578:	07db      	lsls	r3, r3, #31
1000357a:	bf1c      	itt	ne
1000357c:	f811 3b01 	ldrbne.w	r3, [r1], #1
10003580:	f800 3b01 	strbne.w	r3, [r0], #1
10003584:	d3a4      	bcc.n	100034d0 <memcpy+0xc>
10003586:	f831 3b02 	ldrh.w	r3, [r1], #2
1000358a:	f820 3b02 	strh.w	r3, [r0], #2
1000358e:	e79f      	b.n	100034d0 <memcpy+0xc>
10003590:	3a04      	subs	r2, #4
10003592:	d3d9      	bcc.n	10003548 <memcpy+0x84>
10003594:	3a01      	subs	r2, #1
10003596:	f811 3b01 	ldrb.w	r3, [r1], #1
1000359a:	f800 3b01 	strb.w	r3, [r0], #1
1000359e:	d2f9      	bcs.n	10003594 <memcpy+0xd0>
100035a0:	780b      	ldrb	r3, [r1, #0]
100035a2:	7003      	strb	r3, [r0, #0]
100035a4:	784b      	ldrb	r3, [r1, #1]
100035a6:	7043      	strb	r3, [r0, #1]
100035a8:	788b      	ldrb	r3, [r1, #2]
100035aa:	7083      	strb	r3, [r0, #2]
100035ac:	4660      	mov	r0, ip
100035ae:	4770      	bx	lr

100035b0 <strlen>:
100035b0:	f020 0103 	bic.w	r1, r0, #3
100035b4:	f010 0003 	ands.w	r0, r0, #3
100035b8:	f1c0 0000 	rsb	r0, r0, #0
100035bc:	f851 3b04 	ldr.w	r3, [r1], #4
100035c0:	f100 0c04 	add.w	ip, r0, #4
100035c4:	ea4f 0ccc 	mov.w	ip, ip, lsl #3
100035c8:	f06f 0200 	mvn.w	r2, #0
100035cc:	bf1c      	itt	ne
100035ce:	fa22 f20c 	lsrne.w	r2, r2, ip
100035d2:	4313      	orrne	r3, r2
100035d4:	f04f 0c01 	mov.w	ip, #1
100035d8:	ea4c 2c0c 	orr.w	ip, ip, ip, lsl #8
100035dc:	ea4c 4c0c 	orr.w	ip, ip, ip, lsl #16
100035e0:	eba3 020c 	sub.w	r2, r3, ip
100035e4:	ea22 0203 	bic.w	r2, r2, r3
100035e8:	ea12 12cc 	ands.w	r2, r2, ip, lsl #7
100035ec:	bf04      	itt	eq
100035ee:	f851 3b04 	ldreq.w	r3, [r1], #4
100035f2:	3004      	addeq	r0, #4
100035f4:	d0f4      	beq.n	100035e0 <strlen+0x30>
100035f6:	f1c2 0100 	rsb	r1, r2, #0
100035fa:	ea02 0201 	and.w	r2, r2, r1
100035fe:	fab2 f282 	clz	r2, r2
10003602:	f1c2 021f 	rsb	r2, r2, #31
10003606:	eb00 00d2 	add.w	r0, r0, r2, lsr #3
1000360a:	4770      	bx	lr

1000360c <_fini>:
1000360c:	b5f8      	push	{r3, r4, r5, r6, r7, lr}
1000360e:	bf00      	nop

10003610 <____aeabi_uldivmod_veneer>:
10003610:	f85f f000 	ldr.w	pc, [pc]	@ 10003614 <____aeabi_uldivmod_veneer+0x4>
10003614:	20000221 	.word	0x20000221

10003618 <__mutex_exit_veneer>:
10003618:	f85f f000 	ldr.w	pc, [pc]	@ 1000361c <__mutex_exit_veneer+0x4>
1000361c:	200001e5 	.word	0x200001e5

10003620 <__mutex_try_enter_block_until_veneer>:
10003620:	f85f f000 	ldr.w	pc, [pc]	@ 10003624 <__mutex_try_enter_block_until_veneer+0x4>
10003624:	2000017d 	.word	0x2000017d

10003628 <__pre_init_runtime_init_bootrom_reset>:
10003628:	10001399                                ....

1000362c <__pre_init_runtime_init_early_resets>:
1000362c:	1000130d                                ....

10003630 <__pre_init_runtime_init_usb_power_down>:
10003630:	10001341                                A...

10003634 <__pre_init_runtime_init_clocks>:
10003634:	1000142d                                -...

10003638 <__pre_init_runtime_init_post_clock_resets>:
10003638:	10001379                                y...

1000363c <__pre_init_runtime_init_boot_locks_reset>:
1000363c:	10001291                                ....

10003640 <__pre_init_runtime_init_spin_locks_reset>:
10003640:	100013c1                                ....

10003644 <__pre_init_runtime_init_bootrom_locking_enable>:
10003644:	1000127d                                }...

10003648 <__pre_init_runtime_init_mutex>:
10003648:	100007a5                                ....

1000364c <__pre_init_runtime_init_install_ram_vector_table>:
1000364c:	100013c5                                ....

10003650 <__pre_init_runtime_init_default_alarm_pool>:
10003650:	10000b21                                !...

10003654 <__pre_init_first_per_core_initializer>:
10003654:	100012dd                                ....

10003658 <__pre_init_runtime_init_per_core_bootrom_reset>:
10003658:	100013ad                                ....

1000365c <__pre_init_runtime_init_per_core_enable_coprocessors>:
1000365c:	1000135d                                ]...

10003660 <__pre_init_spinlock_set_extexclall>:
10003660:	100003f5                                ....

10003664 <__pre_init_runtime_init_per_core_irq_priorities>:
10003664:	1000041d                                ....

10003668 <__frame_dummy_init_array_entry>:
10003668:	10000211                                ....

Disassembly of section .data:

20000110 <mutex_enter_block_until>:
20000110:	f04f 4150 	mov.w	r1, #3489660928	@ 0xd0000000
20000114:	e92d 41f0 	stmdb	sp!, {r4, r5, r6, r7, r8, lr}
20000118:	2700      	movs	r7, #0
2000011a:	4604      	mov	r4, r0
2000011c:	4616      	mov	r6, r2
2000011e:	461d      	mov	r5, r3
20000120:	f8d1 8000 	ldr.w	r8, [r1]
20000124:	e008      	b.n	20000138 <mutex_enter_block_until+0x28>
20000126:	e8c1 7f8f 	stlb	r7, [r1]
2000012a:	f38c 8810 	msr	PRIMASK, ip
2000012e:	4630      	mov	r0, r6
20000130:	4629      	mov	r1, r5
20000132:	f000 fa35 	bl	200005a0 <__best_effort_wfe_or_timeout_veneer>
20000136:	b9e8      	cbnz	r0, 20000174 <mutex_enter_block_until+0x64>
20000138:	6821      	ldr	r1, [r4, #0]
2000013a:	f3ef 8c10 	mrs	ip, PRIMASK
2000013e:	b672      	cpsid	i
20000140:	e8d1 2fcf 	ldaexb	r2, [r1]
20000144:	2301      	movs	r3, #1
20000146:	2a00      	cmp	r2, #0
20000148:	d1fa      	bne.n	20000140 <mutex_enter_block_until+0x30>
2000014a:	e8c1 3f42 	strexb	r2, r3, [r1]
2000014e:	2a00      	cmp	r2, #0
20000150:	d1f6      	bne.n	20000140 <mutex_enter_block_until+0x30>
20000152:	f3bf 8f5f 	dmb	sy
20000156:	f994 3004 	ldrsb.w	r3, [r4, #4]
2000015a:	6821      	ldr	r1, [r4, #0]
2000015c:	2b00      	cmp	r3, #0
2000015e:	dae2      	bge.n	20000126 <mutex_enter_block_until+0x16>
20000160:	2300      	movs	r3, #0
20000162:	f884 8004 	strb.w	r8, [r4, #4]
20000166:	e8c1 3f8f 	stlb	r3, [r1]
2000016a:	f38c 8810 	msr	PRIMASK, ip
2000016e:	2001      	movs	r0, #1
20000170:	e8bd 81f0 	ldmia.w	sp!, {r4, r5, r6, r7, r8, pc}
20000174:	2000      	movs	r0, #0
20000176:	e8bd 81f0 	ldmia.w	sp!, {r4, r5, r6, r7, r8, pc}
2000017a:	bf00      	nop

2000017c <mutex_try_enter_block_until>:
2000017c:	b530      	push	{r4, r5, lr}
2000017e:	6804      	ldr	r4, [r0, #0]
20000180:	f3ef 8c10 	mrs	ip, PRIMASK
20000184:	b672      	cpsid	i
20000186:	e8d4 efcf 	ldaexb	lr, [r4]
2000018a:	2501      	movs	r5, #1
2000018c:	f1be 0f00 	cmp.w	lr, #0
20000190:	d1f9      	bne.n	20000186 <mutex_try_enter_block_until+0xa>
20000192:	e8c4 5f4e 	strexb	lr, r5, [r4]
20000196:	f1be 0f00 	cmp.w	lr, #0
2000019a:	d1f4      	bne.n	20000186 <mutex_try_enter_block_until+0xa>
2000019c:	f3bf 8f5f 	dmb	sy
200001a0:	f990 4004 	ldrsb.w	r4, [r0, #4]
200001a4:	6805      	ldr	r5, [r0, #0]
200001a6:	2c00      	cmp	r4, #0
200001a8:	db10      	blt.n	200001cc <mutex_try_enter_block_until+0x50>
200001aa:	2100      	movs	r1, #0
200001ac:	e8c5 1f8f 	stlb	r1, [r5]
200001b0:	f38c 8810 	msr	PRIMASK, ip
200001b4:	f04f 4550 	mov.w	r5, #3489660928	@ 0xd0000000
200001b8:	f995 5000 	ldrsb.w	r5, [r5]
200001bc:	42a5      	cmp	r5, r4
200001be:	d101      	bne.n	200001c4 <mutex_try_enter_block_until+0x48>
200001c0:	4608      	mov	r0, r1
200001c2:	bd30      	pop	{r4, r5, pc}
200001c4:	e8bd 4030 	ldmia.w	sp!, {r4, r5, lr}
200001c8:	f7ff bfa2 	b.w	20000110 <mutex_enter_block_until>
200001cc:	f04f 4250 	mov.w	r2, #3489660928	@ 0xd0000000
200001d0:	6812      	ldr	r2, [r2, #0]
200001d2:	2300      	movs	r3, #0
200001d4:	7102      	strb	r2, [r0, #4]
200001d6:	e8c5 3f8f 	stlb	r3, [r5]
200001da:	f38c 8810 	msr	PRIMASK, ip
200001de:	2001      	movs	r0, #1
200001e0:	bd30      	pop	{r4, r5, pc}
200001e2:	bf00      	nop

200001e4 <mutex_exit>:
200001e4:	6803      	ldr	r3, [r0, #0]
200001e6:	f3ef 8210 	mrs	r2, PRIMASK
200001ea:	b672      	cpsid	i
200001ec:	e8d3 cfcf 	ldaexb	ip, [r3]
200001f0:	2101      	movs	r1, #1
200001f2:	f1bc 0f00 	cmp.w	ip, #0
200001f6:	d1f9      	bne.n	200001ec <mutex_exit+0x8>
200001f8:	e8c3 1f4c 	strexb	ip, r1, [r3]
200001fc:	f1bc 0f00 	cmp.w	ip, #0
20000200:	d1f4      	bne.n	200001ec <mutex_exit+0x8>
20000202:	f3bf 8f5f 	dmb	sy
20000206:	f04f 0cff 	mov.w	ip, #255	@ 0xff
2000020a:	2300      	movs	r3, #0
2000020c:	6801      	ldr	r1, [r0, #0]
2000020e:	f880 c004 	strb.w	ip, [r0, #4]
20000212:	e8c1 3f8f 	stlb	r3, [r1]
20000216:	f382 8810 	msr	PRIMASK, r2
2000021a:	bf40      	sev
2000021c:	4770      	bx	lr
2000021e:	bf00      	nop

20000220 <__aeabi_uldivmod>:
20000220:	b953      	cbnz	r3, 20000238 <__aeabi_uldivmod+0x18>
20000222:	b94a      	cbnz	r2, 20000238 <__aeabi_uldivmod+0x18>
20000224:	2900      	cmp	r1, #0
20000226:	bf08      	it	eq
20000228:	2800      	cmpeq	r0, #0
2000022a:	bf1c      	itt	ne
2000022c:	f04f 31ff 	movne.w	r1, #4294967295
20000230:	f04f 30ff 	movne.w	r0, #4294967295
20000234:	f000 b9b2 	b.w	2000059c <__aeabi_idiv0>
20000238:	f1ad 0c08 	sub.w	ip, sp, #8
2000023c:	e96d ce04 	strd	ip, lr, [sp, #-16]!
20000240:	f000 f806 	bl	20000250 <__udivmoddi4>
20000244:	f8dd e004 	ldr.w	lr, [sp, #4]
20000248:	e9dd 2302 	ldrd	r2, r3, [sp, #8]
2000024c:	b004      	add	sp, #16
2000024e:	4770      	bx	lr

20000250 <__udivmoddi4>:
20000250:	e92d 4ff0 	stmdb	sp!, {r4, r5, r6, r7, r8, r9, sl, fp, lr}
20000254:	468c      	mov	ip, r1
20000256:	9e09      	ldr	r6, [sp, #36]	@ 0x24
20000258:	4604      	mov	r4, r0
2000025a:	460f      	mov	r7, r1
2000025c:	2b00      	cmp	r3, #0
2000025e:	d148      	bne.n	200002f2 <__udivmoddi4+0xa2>
20000260:	428a      	cmp	r2, r1
20000262:	4615      	mov	r5, r2
20000264:	d95e      	bls.n	20000324 <__udivmoddi4+0xd4>
20000266:	fab2 f382 	clz	r3, r2
2000026a:	b13b      	cbz	r3, 2000027c <__udivmoddi4+0x2c>
2000026c:	f1c3 0220 	rsb	r2, r3, #32
20000270:	409f      	lsls	r7, r3
20000272:	409d      	lsls	r5, r3
20000274:	409c      	lsls	r4, r3
20000276:	fa20 f202 	lsr.w	r2, r0, r2
2000027a:	4317      	orrs	r7, r2
2000027c:	ea4f 4e15 	mov.w	lr, r5, lsr #16
20000280:	fa1f fc85 	uxth.w	ip, r5
20000284:	0c22      	lsrs	r2, r4, #16
20000286:	fbb7 f1fe 	udiv	r1, r7, lr
2000028a:	fb0e 7711 	mls	r7, lr, r1, r7
2000028e:	fb01 f00c 	mul.w	r0, r1, ip
20000292:	ea42 4207 	orr.w	r2, r2, r7, lsl #16
20000296:	4290      	cmp	r0, r2
20000298:	d907      	bls.n	200002aa <__udivmoddi4+0x5a>
2000029a:	18aa      	adds	r2, r5, r2
2000029c:	f101 37ff 	add.w	r7, r1, #4294967295
200002a0:	d202      	bcs.n	200002a8 <__udivmoddi4+0x58>
200002a2:	4290      	cmp	r0, r2
200002a4:	f200 8158 	bhi.w	20000558 <__udivmoddi4+0x308>
200002a8:	4639      	mov	r1, r7
200002aa:	1a12      	subs	r2, r2, r0
200002ac:	b2a4      	uxth	r4, r4
200002ae:	fbb2 f0fe 	udiv	r0, r2, lr
200002b2:	fb0e 2210 	mls	r2, lr, r0, r2
200002b6:	fb00 fc0c 	mul.w	ip, r0, ip
200002ba:	ea44 4402 	orr.w	r4, r4, r2, lsl #16
200002be:	45a4      	cmp	ip, r4
200002c0:	d90b      	bls.n	200002da <__udivmoddi4+0x8a>
200002c2:	192c      	adds	r4, r5, r4
200002c4:	f100 32ff 	add.w	r2, r0, #4294967295
200002c8:	bf2c      	ite	cs
200002ca:	2701      	movcs	r7, #1
200002cc:	2700      	movcc	r7, #0
200002ce:	45a4      	cmp	ip, r4
200002d0:	d902      	bls.n	200002d8 <__udivmoddi4+0x88>
200002d2:	2f00      	cmp	r7, #0
200002d4:	f000 8143 	beq.w	2000055e <__udivmoddi4+0x30e>
200002d8:	4610      	mov	r0, r2
200002da:	ea40 4001 	orr.w	r0, r0, r1, lsl #16
200002de:	eba4 040c 	sub.w	r4, r4, ip
200002e2:	2100      	movs	r1, #0
200002e4:	b11e      	cbz	r6, 200002ee <__udivmoddi4+0x9e>
200002e6:	40dc      	lsrs	r4, r3
200002e8:	2300      	movs	r3, #0
200002ea:	e9c6 4300 	strd	r4, r3, [r6]
200002ee:	e8bd 8ff0 	ldmia.w	sp!, {r4, r5, r6, r7, r8, r9, sl, fp, pc}
200002f2:	428b      	cmp	r3, r1
200002f4:	d906      	bls.n	20000304 <__udivmoddi4+0xb4>
200002f6:	b10e      	cbz	r6, 200002fc <__udivmoddi4+0xac>
200002f8:	e9c6 0100 	strd	r0, r1, [r6]
200002fc:	2100      	movs	r1, #0
200002fe:	4608      	mov	r0, r1
20000300:	e8bd 8ff0 	ldmia.w	sp!, {r4, r5, r6, r7, r8, r9, sl, fp, pc}
20000304:	fab3 f183 	clz	r1, r3
20000308:	2900      	cmp	r1, #0
2000030a:	d151      	bne.n	200003b0 <__udivmoddi4+0x160>
2000030c:	4563      	cmp	r3, ip
2000030e:	f0c0 8116 	bcc.w	2000053e <__udivmoddi4+0x2ee>
20000312:	4282      	cmp	r2, r0
20000314:	f240 8113 	bls.w	2000053e <__udivmoddi4+0x2ee>
20000318:	4608      	mov	r0, r1
2000031a:	2e00      	cmp	r6, #0
2000031c:	d0e7      	beq.n	200002ee <__udivmoddi4+0x9e>
2000031e:	e9c6 4700 	strd	r4, r7, [r6]
20000322:	e7e4      	b.n	200002ee <__udivmoddi4+0x9e>
20000324:	2a00      	cmp	r2, #0
20000326:	f000 80af 	beq.w	20000488 <__udivmoddi4+0x238>
2000032a:	fab2 f382 	clz	r3, r2
2000032e:	2b00      	cmp	r3, #0
20000330:	f040 80c2 	bne.w	200004b8 <__udivmoddi4+0x268>
20000334:	1a8a      	subs	r2, r1, r2
20000336:	ea4f 4e15 	mov.w	lr, r5, lsr #16
2000033a:	b2af      	uxth	r7, r5
2000033c:	2101      	movs	r1, #1
2000033e:	0c20      	lsrs	r0, r4, #16
20000340:	fbb2 fcfe 	udiv	ip, r2, lr
20000344:	fb0e 221c 	mls	r2, lr, ip, r2
20000348:	ea40 4202 	orr.w	r2, r0, r2, lsl #16
2000034c:	fb07 f00c 	mul.w	r0, r7, ip
20000350:	4290      	cmp	r0, r2
20000352:	d90e      	bls.n	20000372 <__udivmoddi4+0x122>
20000354:	18aa      	adds	r2, r5, r2
20000356:	f10c 38ff 	add.w	r8, ip, #4294967295
2000035a:	bf2c      	ite	cs
2000035c:	f04f 0901 	movcs.w	r9, #1
20000360:	f04f 0900 	movcc.w	r9, #0
20000364:	4290      	cmp	r0, r2
20000366:	d903      	bls.n	20000370 <__udivmoddi4+0x120>
20000368:	f1b9 0f00 	cmp.w	r9, #0
2000036c:	f000 80f0 	beq.w	20000550 <__udivmoddi4+0x300>
20000370:	46c4      	mov	ip, r8
20000372:	1a12      	subs	r2, r2, r0
20000374:	b2a4      	uxth	r4, r4
20000376:	fbb2 f0fe 	udiv	r0, r2, lr
2000037a:	fb0e 2210 	mls	r2, lr, r0, r2
2000037e:	fb00 f707 	mul.w	r7, r0, r7
20000382:	ea44 4402 	orr.w	r4, r4, r2, lsl #16
20000386:	42a7      	cmp	r7, r4
20000388:	d90e      	bls.n	200003a8 <__udivmoddi4+0x158>
2000038a:	192c      	adds	r4, r5, r4
2000038c:	f100 32ff 	add.w	r2, r0, #4294967295
20000390:	bf2c      	ite	cs
20000392:	f04f 0e01 	movcs.w	lr, #1
20000396:	f04f 0e00 	movcc.w	lr, #0
2000039a:	42a7      	cmp	r7, r4
2000039c:	d903      	bls.n	200003a6 <__udivmoddi4+0x156>
2000039e:	f1be 0f00 	cmp.w	lr, #0
200003a2:	f000 80d2 	beq.w	2000054a <__udivmoddi4+0x2fa>
200003a6:	4610      	mov	r0, r2
200003a8:	1be4      	subs	r4, r4, r7
200003aa:	ea40 400c 	orr.w	r0, r0, ip, lsl #16
200003ae:	e799      	b.n	200002e4 <__udivmoddi4+0x94>
200003b0:	f1c1 0520 	rsb	r5, r1, #32
200003b4:	408b      	lsls	r3, r1
200003b6:	fa0c f401 	lsl.w	r4, ip, r1
200003ba:	fa00 f901 	lsl.w	r9, r0, r1
200003be:	fa22 f705 	lsr.w	r7, r2, r5
200003c2:	fa2c fc05 	lsr.w	ip, ip, r5
200003c6:	408a      	lsls	r2, r1
200003c8:	431f      	orrs	r7, r3
200003ca:	fa20 f305 	lsr.w	r3, r0, r5
200003ce:	0c38      	lsrs	r0, r7, #16
200003d0:	4323      	orrs	r3, r4
200003d2:	fa1f fe87 	uxth.w	lr, r7
200003d6:	0c1c      	lsrs	r4, r3, #16
200003d8:	fbbc f8f0 	udiv	r8, ip, r0
200003dc:	fb00 cc18 	mls	ip, r0, r8, ip
200003e0:	ea44 440c 	orr.w	r4, r4, ip, lsl #16
200003e4:	fb08 fc0e 	mul.w	ip, r8, lr
200003e8:	45a4      	cmp	ip, r4
200003ea:	d90e      	bls.n	2000040a <__udivmoddi4+0x1ba>
200003ec:	193c      	adds	r4, r7, r4
200003ee:	f108 3aff 	add.w	sl, r8, #4294967295
200003f2:	bf2c      	ite	cs
200003f4:	f04f 0b01 	movcs.w	fp, #1
200003f8:	f04f 0b00 	movcc.w	fp, #0
200003fc:	45a4      	cmp	ip, r4
200003fe:	d903      	bls.n	20000408 <__udivmoddi4+0x1b8>
20000400:	f1bb 0f00 	cmp.w	fp, #0
20000404:	f000 80b8 	beq.w	20000578 <__udivmoddi4+0x328>
20000408:	46d0      	mov	r8, sl
2000040a:	eba4 040c 	sub.w	r4, r4, ip
2000040e:	fa1f fc83 	uxth.w	ip, r3
20000412:	fbb4 f3f0 	udiv	r3, r4, r0
20000416:	fb00 4413 	mls	r4, r0, r3, r4
2000041a:	fb03 fe0e 	mul.w	lr, r3, lr
2000041e:	ea4c 4404 	orr.w	r4, ip, r4, lsl #16
20000422:	45a6      	cmp	lr, r4
20000424:	d90e      	bls.n	20000444 <__udivmoddi4+0x1f4>
20000426:	193c      	adds	r4, r7, r4
20000428:	f103 30ff 	add.w	r0, r3, #4294967295
2000042c:	bf2c      	ite	cs
2000042e:	f04f 0c01 	movcs.w	ip, #1
20000432:	f04f 0c00 	movcc.w	ip, #0
20000436:	45a6      	cmp	lr, r4
20000438:	d903      	bls.n	20000442 <__udivmoddi4+0x1f2>
2000043a:	f1bc 0f00 	cmp.w	ip, #0
2000043e:	f000 809f 	beq.w	20000580 <__udivmoddi4+0x330>
20000442:	4603      	mov	r3, r0
20000444:	ea43 4008 	orr.w	r0, r3, r8, lsl #16
20000448:	eba4 040e 	sub.w	r4, r4, lr
2000044c:	fba0 ec02 	umull	lr, ip, r0, r2
20000450:	4564      	cmp	r4, ip
20000452:	4673      	mov	r3, lr
20000454:	46e0      	mov	r8, ip
20000456:	d302      	bcc.n	2000045e <__udivmoddi4+0x20e>
20000458:	d107      	bne.n	2000046a <__udivmoddi4+0x21a>
2000045a:	45f1      	cmp	r9, lr
2000045c:	d205      	bcs.n	2000046a <__udivmoddi4+0x21a>
2000045e:	ebbe 0302 	subs.w	r3, lr, r2
20000462:	eb6c 0c07 	sbc.w	ip, ip, r7
20000466:	3801      	subs	r0, #1
20000468:	46e0      	mov	r8, ip
2000046a:	b15e      	cbz	r6, 20000484 <__udivmoddi4+0x234>
2000046c:	ebb9 0203 	subs.w	r2, r9, r3
20000470:	eb64 0408 	sbc.w	r4, r4, r8
20000474:	fa04 f505 	lsl.w	r5, r4, r5
20000478:	fa22 f301 	lsr.w	r3, r2, r1
2000047c:	40cc      	lsrs	r4, r1
2000047e:	431d      	orrs	r5, r3
20000480:	e9c6 5400 	strd	r5, r4, [r6]
20000484:	2100      	movs	r1, #0
20000486:	e732      	b.n	200002ee <__udivmoddi4+0x9e>
20000488:	0842      	lsrs	r2, r0, #1
2000048a:	462f      	mov	r7, r5
2000048c:	084b      	lsrs	r3, r1, #1
2000048e:	46ac      	mov	ip, r5
20000490:	ea42 72c1 	orr.w	r2, r2, r1, lsl #31
20000494:	46ae      	mov	lr, r5
20000496:	07c4      	lsls	r4, r0, #31
20000498:	0c11      	lsrs	r1, r2, #16
2000049a:	b292      	uxth	r2, r2
2000049c:	ea41 4103 	orr.w	r1, r1, r3, lsl #16
200004a0:	ea42 4201 	orr.w	r2, r2, r1, lsl #16
200004a4:	fbb1 f1f5 	udiv	r1, r1, r5
200004a8:	fbb3 f0f5 	udiv	r0, r3, r5
200004ac:	231f      	movs	r3, #31
200004ae:	eba2 020c 	sub.w	r2, r2, ip
200004b2:	ea41 4100 	orr.w	r1, r1, r0, lsl #16
200004b6:	e742      	b.n	2000033e <__udivmoddi4+0xee>
200004b8:	409d      	lsls	r5, r3
200004ba:	f1c3 0220 	rsb	r2, r3, #32
200004be:	4099      	lsls	r1, r3
200004c0:	409c      	lsls	r4, r3
200004c2:	fa2c fc02 	lsr.w	ip, ip, r2
200004c6:	ea4f 4e15 	mov.w	lr, r5, lsr #16
200004ca:	fa20 f202 	lsr.w	r2, r0, r2
200004ce:	b2af      	uxth	r7, r5
200004d0:	fbbc f8fe 	udiv	r8, ip, lr
200004d4:	430a      	orrs	r2, r1
200004d6:	fb0e cc18 	mls	ip, lr, r8, ip
200004da:	0c11      	lsrs	r1, r2, #16
200004dc:	ea41 410c 	orr.w	r1, r1, ip, lsl #16
200004e0:	fb08 fc07 	mul.w	ip, r8, r7
200004e4:	458c      	cmp	ip, r1
200004e6:	d950      	bls.n	2000058a <__udivmoddi4+0x33a>
200004e8:	1869      	adds	r1, r5, r1
200004ea:	f108 30ff 	add.w	r0, r8, #4294967295
200004ee:	bf2c      	ite	cs
200004f0:	f04f 0901 	movcs.w	r9, #1
200004f4:	f04f 0900 	movcc.w	r9, #0
200004f8:	458c      	cmp	ip, r1
200004fa:	d902      	bls.n	20000502 <__udivmoddi4+0x2b2>
200004fc:	f1b9 0f00 	cmp.w	r9, #0
20000500:	d030      	beq.n	20000564 <__udivmoddi4+0x314>
20000502:	eba1 010c 	sub.w	r1, r1, ip
20000506:	fbb1 f8fe 	udiv	r8, r1, lr
2000050a:	fb08 fc07 	mul.w	ip, r8, r7
2000050e:	fb0e 1118 	mls	r1, lr, r8, r1
20000512:	b292      	uxth	r2, r2
20000514:	ea42 4201 	orr.w	r2, r2, r1, lsl #16
20000518:	4562      	cmp	r2, ip
2000051a:	d234      	bcs.n	20000586 <__udivmoddi4+0x336>
2000051c:	18aa      	adds	r2, r5, r2
2000051e:	f108 31ff 	add.w	r1, r8, #4294967295
20000522:	bf2c      	ite	cs
20000524:	f04f 0901 	movcs.w	r9, #1
20000528:	f04f 0900 	movcc.w	r9, #0
2000052c:	4562      	cmp	r2, ip
2000052e:	d2be      	bcs.n	200004ae <__udivmoddi4+0x25e>
20000530:	f1b9 0f00 	cmp.w	r9, #0
20000534:	d1bb      	bne.n	200004ae <__udivmoddi4+0x25e>
20000536:	f1a8 0102 	sub.w	r1, r8, #2
2000053a:	442a      	add	r2, r5
2000053c:	e7b7      	b.n	200004ae <__udivmoddi4+0x25e>
2000053e:	1a84      	subs	r4, r0, r2
20000540:	eb6c 0203 	sbc.w	r2, ip, r3
20000544:	2001      	movs	r0, #1
20000546:	4617      	mov	r7, r2
20000548:	e6e7      	b.n	2000031a <__udivmoddi4+0xca>
2000054a:	442c      	add	r4, r5
2000054c:	3802      	subs	r0, #2
2000054e:	e72b      	b.n	200003a8 <__udivmoddi4+0x158>
20000550:	f1ac 0c02 	sub.w	ip, ip, #2
20000554:	442a      	add	r2, r5
20000556:	e70c      	b.n	20000372 <__udivmoddi4+0x122>
20000558:	3902      	subs	r1, #2
2000055a:	442a      	add	r2, r5
2000055c:	e6a5      	b.n	200002aa <__udivmoddi4+0x5a>
2000055e:	442c      	add	r4, r5
20000560:	3802      	subs	r0, #2
20000562:	e6ba      	b.n	200002da <__udivmoddi4+0x8a>
20000564:	eba5 0c0c 	sub.w	ip, r5, ip
20000568:	f1a8 0002 	sub.w	r0, r8, #2
2000056c:	4461      	add	r1, ip
2000056e:	fbb1 f8fe 	udiv	r8, r1, lr
20000572:	fb08 fc07 	mul.w	ip, r8, r7
20000576:	e7ca      	b.n	2000050e <__udivmoddi4+0x2be>
20000578:	f1a8 0802 	sub.w	r8, r8, #2
2000057c:	443c      	add	r4, r7
2000057e:	e744      	b.n	2000040a <__udivmoddi4+0x1ba>
20000580:	3b02      	subs	r3, #2
20000582:	443c      	add	r4, r7
20000584:	e75e      	b.n	20000444 <__udivmoddi4+0x1f4>
20000586:	4641      	mov	r1, r8
20000588:	e791      	b.n	200004ae <__udivmoddi4+0x25e>
2000058a:	eba1 010c 	sub.w	r1, r1, ip
2000058e:	4640      	mov	r0, r8
20000590:	fbb1 f8fe 	udiv	r8, r1, lr
20000594:	fb08 fc07 	mul.w	ip, r8, r7
20000598:	e7b9      	b.n	2000050e <__udivmoddi4+0x2be>
2000059a:	bf00      	nop

2000059c <__aeabi_idiv0>:
2000059c:	4770      	bx	lr
2000059e:	bf00      	nop

200005a0 <__best_effort_wfe_or_timeout_veneer>:
200005a0:	f85f f000 	ldr.w	pc, [pc]	@ 200005a4 <__best_effort_wfe_or_timeout_veneer+0x4>
200005a4:	10000e45 	.word	0x10000e45

200005a8 <striped_spin_lock_num>:
200005a8:	00000010                                ....

200005ac <irq_handler_chain_slots>:
200005ac:	00000000 	.word	0x00000000
200005b0:	00010000 	.word	0x00010000
	...
200005bc:	00020000 	.word	0x00020000
	...
200005c8:	00030000 	.word	0x00030000
	...
200005d4:	00ff0000 	.word	0x00ff0000
200005d8:	00000000 	.word	0x00000000

200005dc <irq_handler_chain_first_slot>:
200005dc:	b501      	push	{r0, lr}
200005de:	6848      	ldr	r0, [r1, #4]
200005e0:	3101      	adds	r1, #1
200005e2:	468e      	mov	lr, r1
200005e4:	4700      	bx	r0

200005e6 <irq_handler_chain_remove_tail>:
200005e6:	4670      	mov	r0, lr
200005e8:	3809      	subs	r0, #9
200005ea:	4901      	ldr	r1, [pc, #4]	@ (200005f0 <irq_handler_chain_remove_tail+0xa>)
200005ec:	4788      	blx	r1
200005ee:	bd01      	pop	{r0, pc}
200005f0:	100006dd 	.word	0x100006dd

200005f4 <default_alarm_pool>:
	...
20000608:	20000630                                0.. 

2000060c <stdio_uart>:
2000060c:	100032d1 100033d9 10003321 100033e9     .2...3..!3...3..
2000061c:	00000000 00000100                       ........

20000624 <print_mutex>:
	...
