
C:/Users/assem.KEVINTHOMAS/OneDrive/Documents/Embedded-Hacking/drivers/0x08_lcd1602/build/0x08_lcd1602.elf:     file format elf32-littlearm

Sections:
Idx Name          Size      VMA       LMA       File off  Algn
  0 .text         00003f94  10000000  10000000  00001000  2**3
                  CONTENTS, ALLOC, LOAD, READONLY, CODE
  1 .rodata       000001f8  10003f98  10003f98  00004f98  2**3
                  CONTENTS, ALLOC, LOAD, READONLY, DATA
  2 .ARM.exidx    00000008  10004190  10004190  00005190  2**2
                  CONTENTS, ALLOC, LOAD, READONLY, DATA
  3 .binary_info  0000002c  10004198  10004198  00005198  2**2
                  CONTENTS, ALLOC, LOAD, READONLY, DATA
  4 .ram_vector_table 00000110  20000000  20000000  00007000  2**2
                  ALLOC
  5 .uninitialized_data 00000000  20000110  20000110  0000670c  2**0
                  CONTENTS
  6 .data         00000534  20000110  100041c4  00006110  2**3
                  CONTENTS, ALLOC, LOAD, READONLY, CODE
  7 .tdata        00000000  20000644  20000644  0000670c  2**0
                  CONTENTS, ALLOC, LOAD, DATA, THREAD_LOCAL
  8 .tbss         00000000  20000644  20000644  00000000  2**0
                  ALLOC, THREAD_LOCAL
  9 .bss          0000022c  20000648  100046f8  00007648  2**3
                  ALLOC
 10 .heap         00000800  20000874  100046f8  00006874  2**2
                  ALLOC, READONLY
 11 .scratch_x    00000000  20080000  20080000  0000670c  2**0
                  CONTENTS
 12 .scratch_y    00000000  20081000  20081000  0000670c  2**0
                  CONTENTS
 13 .stack_dummy  00000800  20081000  20081000  00007000  2**5
                  ALLOC, READONLY
 14 .flash_end    00000014  100046f8  100046f8  000066f8  2**2
                  CONTENTS, ALLOC, LOAD, READONLY, DATA
 15 .ARM.attributes 00000034  00000000  00000000  0000670c  2**0
                  CONTENTS, READONLY
 16 .comment      00000045  00000000  00000000  00006740  2**0
                  CONTENTS, READONLY
 17 .debug_info   00024dca  00000000  00000000  00006785  2**0
                  CONTENTS, READONLY, DEBUGGING, OCTETS
 18 .debug_abbrev 00005e14  00000000  00000000  0002b54f  2**0
                  CONTENTS, READONLY, DEBUGGING, OCTETS
 19 .debug_loclists 00011f9f  00000000  00000000  00031363  2**0
                  CONTENTS, READONLY, DEBUGGING, OCTETS
 20 .debug_aranges 00000cc8  00000000  00000000  00043308  2**3
                  CONTENTS, READONLY, DEBUGGING, OCTETS
 21 .debug_rnglists 000037d4  00000000  00000000  00043fd0  2**0
                  CONTENTS, READONLY, DEBUGGING, OCTETS
 22 .debug_line   00018957  00000000  00000000  000477a4  2**0
                  CONTENTS, READONLY, DEBUGGING, OCTETS
 23 .debug_str    00005e56  00000000  00000000  000600fb  2**0
                  CONTENTS, READONLY, DEBUGGING, OCTETS
 24 .debug_frame  00002298  00000000  00000000  00065f54  2**2
                  CONTENTS, READONLY, DEBUGGING, OCTETS
 25 .debug_line_str 000002ca  00000000  00000000  000681ec  2**0
                  CONTENTS, READONLY, DEBUGGING, OCTETS

C:/Users/assem.KEVINTHOMAS/OneDrive/Documents/Embedded-Hacking/drivers/0x08_lcd1602/build/0x08_lcd1602.elf:     file format elf32-littlearm


Disassembly of section .text:

10000000 <__VECTOR_TABLE>:
10000000:	20082000 	.word	0x20082000
10000004:	1000015d 	.word	0x1000015d
10000008:	1000011b 	.word	0x1000011b
1000000c:	1000011d 	.word	0x1000011d
10000010:	10000111 	.word	0x10000111
10000014:	10000111 	.word	0x10000111
10000018:	10000111 	.word	0x10000111
1000001c:	10000111 	.word	0x10000111
10000020:	10000119 	.word	0x10000119
10000024:	10000119 	.word	0x10000119
10000028:	10000119 	.word	0x10000119
1000002c:	1000011f 	.word	0x1000011f
10000030:	10000111 	.word	0x10000111
10000034:	10000119 	.word	0x10000119
10000038:	10000121 	.word	0x10000121
1000003c:	10000123 	.word	0x10000123
10000040:	10000111 	.word	0x10000111
10000044:	10000111 	.word	0x10000111
10000048:	10000111 	.word	0x10000111
1000004c:	10000111 	.word	0x10000111
10000050:	10000111 	.word	0x10000111
10000054:	10000111 	.word	0x10000111
10000058:	10000111 	.word	0x10000111
1000005c:	10000111 	.word	0x10000111
10000060:	10000111 	.word	0x10000111
10000064:	10000111 	.word	0x10000111
10000068:	10000111 	.word	0x10000111
1000006c:	10000111 	.word	0x10000111
10000070:	10000111 	.word	0x10000111
10000074:	10000111 	.word	0x10000111
10000078:	10000111 	.word	0x10000111
1000007c:	10000111 	.word	0x10000111
10000080:	10000111 	.word	0x10000111
10000084:	10000111 	.word	0x10000111
10000088:	10000111 	.word	0x10000111
1000008c:	10000111 	.word	0x10000111
10000090:	10000111 	.word	0x10000111
10000094:	10000111 	.word	0x10000111
10000098:	10000111 	.word	0x10000111
1000009c:	10000111 	.word	0x10000111
100000a0:	10000111 	.word	0x10000111
100000a4:	10000111 	.word	0x10000111
100000a8:	10000111 	.word	0x10000111
100000ac:	10000111 	.word	0x10000111
100000b0:	10000111 	.word	0x10000111
100000b4:	10000111 	.word	0x10000111
100000b8:	10000111 	.word	0x10000111
100000bc:	10000111 	.word	0x10000111
100000c0:	10000111 	.word	0x10000111
100000c4:	10000111 	.word	0x10000111
100000c8:	10000111 	.word	0x10000111
100000cc:	10000111 	.word	0x10000111
100000d0:	10000111 	.word	0x10000111
100000d4:	10000111 	.word	0x10000111
100000d8:	10000111 	.word	0x10000111
100000dc:	10000111 	.word	0x10000111
100000e0:	10000111 	.word	0x10000111
100000e4:	10000111 	.word	0x10000111
100000e8:	10000111 	.word	0x10000111
100000ec:	10000111 	.word	0x10000111
100000f0:	10000111 	.word	0x10000111
100000f4:	10000111 	.word	0x10000111
100000f8:	10000111 	.word	0x10000111
100000fc:	10000111 	.word	0x10000111
10000100:	10000111 	.word	0x10000111
10000104:	10000111 	.word	0x10000111
10000108:	10000111 	.word	0x10000111
1000010c:	10000111 	.word	0x10000111

10000110 <__unhandled_user_irq>:
10000110:	f3ef 8005 	mrs	r0, IPSR
10000114:	3810      	subs	r0, #16

10000116 <unhandled_user_irq_num_in_r0>:
10000116:	be00      	bkpt	0x0000

10000118 <isr_invalid>:
10000118:	be00      	bkpt	0x0000

1000011a <isr_nmi>:
1000011a:	be00      	bkpt	0x0000

1000011c <isr_hardfault>:
1000011c:	be00      	bkpt	0x0000

1000011e <isr_svcall>:
1000011e:	be00      	bkpt	0x0000

10000120 <isr_pendsv>:
10000120:	be00      	bkpt	0x0000

10000122 <isr_systick>:
10000122:	be00      	bkpt	0x0000

10000124 <__default_isrs_end>:
10000124:	7188ebf2 	.word	0x7188ebf2
10000128:	10004198 	.word	0x10004198
1000012c:	100041c4 	.word	0x100041c4
10000130:	100001a0 	.word	0x100001a0
10000134:	e71aa390 	.word	0xe71aa390

10000138 <__binary_info_header_end>:
10000138:	ffffded3 	.word	0xffffded3
1000013c:	10210142 	.word	0x10210142
10000140:	000001ff 	.word	0x000001ff
10000144:	000045c0 	.word	0x000045c0
10000148:	ab123579 	.word	0xab123579

1000014c <_entry_point>:
1000014c:	f04f 0000 	mov.w	r0, #0

10000150 <_enter_vtable_in_r0>:
10000150:	491e      	ldr	r1, [pc, #120]	@ (100001cc <data_cpy_table+0x2c>)
10000152:	6008      	str	r0, [r1, #0]
10000154:	c806      	ldmia	r0!, {r1, r2}
10000156:	f381 8808 	msr	MSP, r1
1000015a:	4710      	bx	r2

1000015c <_reset_handler>:
1000015c:	f04f 4050 	mov.w	r0, #3489660928	@ 0xd0000000
10000160:	6800      	ldr	r0, [r0, #0]
10000162:	b110      	cbz	r0, 1000016a <hold_non_core0_in_bootrom+0x6>

10000164 <hold_non_core0_in_bootrom>:
10000164:	f04f 0000 	mov.w	r0, #0
10000168:	e7f2      	b.n	10000150 <_enter_vtable_in_r0>
1000016a:	a40d      	add	r4, pc, #52	@ (adr r4, 100001a0 <data_cpy_table>)
1000016c:	cc0e      	ldmia	r4!, {r1, r2, r3}
1000016e:	2900      	cmp	r1, #0
10000170:	d002      	beq.n	10000178 <hold_non_core0_in_bootrom+0x14>
10000172:	f000 f812 	bl	1000019a <data_cpy>
10000176:	e7f9      	b.n	1000016c <hold_non_core0_in_bootrom+0x8>
10000178:	4915      	ldr	r1, [pc, #84]	@ (100001d0 <data_cpy_table+0x30>)
1000017a:	4a16      	ldr	r2, [pc, #88]	@ (100001d4 <data_cpy_table+0x34>)
1000017c:	2000      	movs	r0, #0
1000017e:	e000      	b.n	10000182 <bss_fill_test>

10000180 <bss_fill_loop>:
10000180:	c101      	stmia	r1!, {r0}

10000182 <bss_fill_test>:
10000182:	4291      	cmp	r1, r2
10000184:	d1fc      	bne.n	10000180 <bss_fill_loop>

10000186 <platform_entry>:
10000186:	4914      	ldr	r1, [pc, #80]	@ (100001d8 <data_cpy_table+0x38>)
10000188:	4788      	blx	r1
1000018a:	4914      	ldr	r1, [pc, #80]	@ (100001dc <data_cpy_table+0x3c>)
1000018c:	4788      	blx	r1
1000018e:	4914      	ldr	r1, [pc, #80]	@ (100001e0 <data_cpy_table+0x40>)
10000190:	4788      	blx	r1
10000192:	be00      	bkpt	0x0000
10000194:	e7fd      	b.n	10000192 <platform_entry+0xc>

10000196 <data_cpy_loop>:
10000196:	c901      	ldmia	r1!, {r0}
10000198:	c201      	stmia	r2!, {r0}

1000019a <data_cpy>:
1000019a:	429a      	cmp	r2, r3
1000019c:	d3fb      	bcc.n	10000196 <data_cpy_loop>
1000019e:	4770      	bx	lr

100001a0 <data_cpy_table>:
100001a0:	100041c4 	.word	0x100041c4
100001a4:	20000110 	.word	0x20000110
100001a8:	20000644 	.word	0x20000644
100001ac:	100046f8 	.word	0x100046f8
100001b0:	20080000 	.word	0x20080000
100001b4:	20080000 	.word	0x20080000
100001b8:	100046f8 	.word	0x100046f8
100001bc:	20081000 	.word	0x20081000
100001c0:	20081000 	.word	0x20081000
100001c4:	00000000 	.word	0x00000000
100001c8:	4770      	bx	lr
100001ca:	0000      	.short	0x0000
100001cc:	e000ed08 	.word	0xe000ed08
100001d0:	20000644 	.word	0x20000644
100001d4:	20000874 	.word	0x20000874
100001d8:	10003661 	.word	0x10003661
100001dc:	10000235 	.word	0x10000235
100001e0:	10003659 	.word	0x10003659

100001e4 <_init>:
100001e4:	b5f8      	push	{r3, r4, r5, r6, r7, lr}
100001e6:	bf00      	nop

100001e8 <register_tm_clones>:
100001e8:	4b06      	ldr	r3, [pc, #24]	@ (10000204 <register_tm_clones+0x1c>)
100001ea:	4907      	ldr	r1, [pc, #28]	@ (10000208 <register_tm_clones+0x20>)
100001ec:	1ac9      	subs	r1, r1, r3
100001ee:	1089      	asrs	r1, r1, #2
100001f0:	bf48      	it	mi
100001f2:	3101      	addmi	r1, #1
100001f4:	1049      	asrs	r1, r1, #1
100001f6:	d003      	beq.n	10000200 <register_tm_clones+0x18>
100001f8:	4b04      	ldr	r3, [pc, #16]	@ (1000020c <register_tm_clones+0x24>)
100001fa:	b10b      	cbz	r3, 10000200 <register_tm_clones+0x18>
100001fc:	4801      	ldr	r0, [pc, #4]	@ (10000204 <register_tm_clones+0x1c>)
100001fe:	4718      	bx	r3
10000200:	4770      	bx	lr
10000202:	bf00      	nop
10000204:	20000644 	.word	0x20000644
10000208:	20000644 	.word	0x20000644
1000020c:	00000000 	.word	0x00000000

10000210 <frame_dummy>:
10000210:	b508      	push	{r3, lr}
10000212:	4b05      	ldr	r3, [pc, #20]	@ (10000228 <frame_dummy+0x18>)
10000214:	b11b      	cbz	r3, 1000021e <frame_dummy+0xe>
10000216:	4905      	ldr	r1, [pc, #20]	@ (1000022c <frame_dummy+0x1c>)
10000218:	4805      	ldr	r0, [pc, #20]	@ (10000230 <frame_dummy+0x20>)
1000021a:	f3af 8000 	nop.w
1000021e:	e8bd 4008 	ldmia.w	sp!, {r3, lr}
10000222:	f7ff bfe1 	b.w	100001e8 <register_tm_clones>
10000226:	bf00      	nop
10000228:	00000000 	.word	0x00000000
1000022c:	2000082c 	.word	0x2000082c
10000230:	10003f94 	.word	0x10003f94

10000234 <main>:
10000234:	b500      	push	{lr}
10000236:	b08b      	sub	sp, #44	@ 0x2c
10000238:	f003 fb3a 	bl	100038b0 <stdio_init_all>
1000023c:	2427      	movs	r4, #39	@ 0x27
1000023e:	f04f 0e08 	mov.w	lr, #8
10000242:	f04f 0c04 	mov.w	ip, #4
10000246:	2203      	movs	r2, #3
10000248:	e9cd ce01 	strd	ip, lr, [sp, #4]
1000024c:	4b14      	ldr	r3, [pc, #80]	@ (100002a0 <main+0x6c>)
1000024e:	2102      	movs	r1, #2
10000250:	2001      	movs	r0, #1
10000252:	9400      	str	r4, [sp, #0]
10000254:	f000 f8fe 	bl	10000454 <lcd_init>
10000258:	2100      	movs	r1, #0
1000025a:	4608      	mov	r0, r1
1000025c:	f000 fa8a 	bl	10000774 <lcd_set_cursor>
10000260:	4810      	ldr	r0, [pc, #64]	@ (100002a4 <main+0x70>)
10000262:	f000 fb05 	bl	10000870 <lcd_puts>
10000266:	4621      	mov	r1, r4
10000268:	480f      	ldr	r0, [pc, #60]	@ (100002a8 <main+0x74>)
1000026a:	f003 fbe9 	bl	10003a40 <__wrap_printf>
1000026e:	2400      	movs	r4, #0
10000270:	4623      	mov	r3, r4
10000272:	4a0e      	ldr	r2, [pc, #56]	@ (100002ac <main+0x78>)
10000274:	2111      	movs	r1, #17
10000276:	a805      	add	r0, sp, #20
10000278:	f003 f9aa 	bl	100035d0 <__wrap_snprintf>
1000027c:	2100      	movs	r1, #0
1000027e:	2001      	movs	r0, #1
10000280:	f000 fa78 	bl	10000774 <lcd_set_cursor>
10000284:	a805      	add	r0, sp, #20
10000286:	f000 faf3 	bl	10000870 <lcd_puts>
1000028a:	a905      	add	r1, sp, #20
1000028c:	4808      	ldr	r0, [pc, #32]	@ (100002b0 <main+0x7c>)
1000028e:	f003 fbd7 	bl	10003a40 <__wrap_printf>
10000292:	f44f 707a 	mov.w	r0, #1000	@ 0x3e8
10000296:	3401      	adds	r4, #1
10000298:	f001 f912 	bl	100014c0 <sleep_ms>
1000029c:	e7e8      	b.n	10000270 <main+0x3c>
1000029e:	bf00      	nop
100002a0:	000186a0 	.word	0x000186a0
100002a4:	10003f98 	.word	0x10003f98
100002a8:	10003fa8 	.word	0x10003fa8
100002ac:	10003fdc 	.word	0x10003fdc
100002b0:	10003fe8 	.word	0x10003fe8

100002b4 <_lcd_hd44780_reset>:
100002b4:	b5f0      	push	{r4, r5, r6, r7, lr}
100002b6:	2403      	movs	r4, #3
100002b8:	4f62      	ldr	r7, [pc, #392]	@ (10000444 <_lcd_hd44780_reset+0x190>)
100002ba:	4e63      	ldr	r6, [pc, #396]	@ (10000448 <_lcd_hd44780_reset+0x194>)
100002bc:	683a      	ldr	r2, [r7, #0]
100002be:	7833      	ldrb	r3, [r6, #0]
100002c0:	4d62      	ldr	r5, [pc, #392]	@ (1000044c <_lcd_hd44780_reset+0x198>)
100002c2:	4094      	lsls	r4, r2
100002c4:	b2e4      	uxtb	r4, r4
100002c6:	431c      	orrs	r4, r3
100002c8:	6828      	ldr	r0, [r5, #0]
100002ca:	b085      	sub	sp, #20
100002cc:	f044 0304 	orr.w	r3, r4, #4
100002d0:	f88d 300f 	strb.w	r3, [sp, #15]
100002d4:	b140      	cbz	r0, 100002e8 <_lcd_hd44780_reset+0x34>
100002d6:	2300      	movs	r3, #0
100002d8:	9300      	str	r3, [sp, #0]
100002da:	4b5d      	ldr	r3, [pc, #372]	@ (10000450 <_lcd_hd44780_reset+0x19c>)
100002dc:	f10d 020f 	add.w	r2, sp, #15
100002e0:	7819      	ldrb	r1, [r3, #0]
100002e2:	2301      	movs	r3, #1
100002e4:	f003 fd7a 	bl	10003ddc <i2c_write_blocking>
100002e8:	2001      	movs	r0, #1
100002ea:	2100      	movs	r1, #0
100002ec:	f001 f87c 	bl	100013e8 <sleep_us>
100002f0:	6828      	ldr	r0, [r5, #0]
100002f2:	f024 0404 	bic.w	r4, r4, #4
100002f6:	f88d 400f 	strb.w	r4, [sp, #15]
100002fa:	b140      	cbz	r0, 1000030e <_lcd_hd44780_reset+0x5a>
100002fc:	4b54      	ldr	r3, [pc, #336]	@ (10000450 <_lcd_hd44780_reset+0x19c>)
100002fe:	f10d 020f 	add.w	r2, sp, #15
10000302:	7819      	ldrb	r1, [r3, #0]
10000304:	2300      	movs	r3, #0
10000306:	9300      	str	r3, [sp, #0]
10000308:	2301      	movs	r3, #1
1000030a:	f003 fd67 	bl	10003ddc <i2c_write_blocking>
1000030e:	2403      	movs	r4, #3
10000310:	2032      	movs	r0, #50	@ 0x32
10000312:	2100      	movs	r1, #0
10000314:	f001 f868 	bl	100013e8 <sleep_us>
10000318:	2005      	movs	r0, #5
1000031a:	f001 f8d1 	bl	100014c0 <sleep_ms>
1000031e:	683b      	ldr	r3, [r7, #0]
10000320:	6828      	ldr	r0, [r5, #0]
10000322:	409c      	lsls	r4, r3
10000324:	7833      	ldrb	r3, [r6, #0]
10000326:	b2e4      	uxtb	r4, r4
10000328:	431c      	orrs	r4, r3
1000032a:	f044 0304 	orr.w	r3, r4, #4
1000032e:	f88d 300f 	strb.w	r3, [sp, #15]
10000332:	b140      	cbz	r0, 10000346 <_lcd_hd44780_reset+0x92>
10000334:	2300      	movs	r3, #0
10000336:	9300      	str	r3, [sp, #0]
10000338:	4b45      	ldr	r3, [pc, #276]	@ (10000450 <_lcd_hd44780_reset+0x19c>)
1000033a:	f10d 020f 	add.w	r2, sp, #15
1000033e:	7819      	ldrb	r1, [r3, #0]
10000340:	2301      	movs	r3, #1
10000342:	f003 fd4b 	bl	10003ddc <i2c_write_blocking>
10000346:	2001      	movs	r0, #1
10000348:	2100      	movs	r1, #0
1000034a:	f001 f84d 	bl	100013e8 <sleep_us>
1000034e:	6828      	ldr	r0, [r5, #0]
10000350:	f024 0404 	bic.w	r4, r4, #4
10000354:	f88d 400f 	strb.w	r4, [sp, #15]
10000358:	b140      	cbz	r0, 1000036c <_lcd_hd44780_reset+0xb8>
1000035a:	4b3d      	ldr	r3, [pc, #244]	@ (10000450 <_lcd_hd44780_reset+0x19c>)
1000035c:	f10d 020f 	add.w	r2, sp, #15
10000360:	7819      	ldrb	r1, [r3, #0]
10000362:	2300      	movs	r3, #0
10000364:	9300      	str	r3, [sp, #0]
10000366:	2301      	movs	r3, #1
10000368:	f003 fd38 	bl	10003ddc <i2c_write_blocking>
1000036c:	2403      	movs	r4, #3
1000036e:	2032      	movs	r0, #50	@ 0x32
10000370:	2100      	movs	r1, #0
10000372:	f001 f839 	bl	100013e8 <sleep_us>
10000376:	2096      	movs	r0, #150	@ 0x96
10000378:	2100      	movs	r1, #0
1000037a:	f001 f835 	bl	100013e8 <sleep_us>
1000037e:	683b      	ldr	r3, [r7, #0]
10000380:	6828      	ldr	r0, [r5, #0]
10000382:	409c      	lsls	r4, r3
10000384:	7833      	ldrb	r3, [r6, #0]
10000386:	b2e4      	uxtb	r4, r4
10000388:	431c      	orrs	r4, r3
1000038a:	f044 0304 	orr.w	r3, r4, #4
1000038e:	f88d 300f 	strb.w	r3, [sp, #15]
10000392:	b140      	cbz	r0, 100003a6 <_lcd_hd44780_reset+0xf2>
10000394:	2300      	movs	r3, #0
10000396:	9300      	str	r3, [sp, #0]
10000398:	4b2d      	ldr	r3, [pc, #180]	@ (10000450 <_lcd_hd44780_reset+0x19c>)
1000039a:	f10d 020f 	add.w	r2, sp, #15
1000039e:	7819      	ldrb	r1, [r3, #0]
100003a0:	2301      	movs	r3, #1
100003a2:	f003 fd1b 	bl	10003ddc <i2c_write_blocking>
100003a6:	2001      	movs	r0, #1
100003a8:	2100      	movs	r1, #0
100003aa:	f001 f81d 	bl	100013e8 <sleep_us>
100003ae:	6828      	ldr	r0, [r5, #0]
100003b0:	f024 0404 	bic.w	r4, r4, #4
100003b4:	f88d 400f 	strb.w	r4, [sp, #15]
100003b8:	b140      	cbz	r0, 100003cc <_lcd_hd44780_reset+0x118>
100003ba:	4b25      	ldr	r3, [pc, #148]	@ (10000450 <_lcd_hd44780_reset+0x19c>)
100003bc:	f10d 020f 	add.w	r2, sp, #15
100003c0:	7819      	ldrb	r1, [r3, #0]
100003c2:	2300      	movs	r3, #0
100003c4:	9300      	str	r3, [sp, #0]
100003c6:	2301      	movs	r3, #1
100003c8:	f003 fd08 	bl	10003ddc <i2c_write_blocking>
100003cc:	2402      	movs	r4, #2
100003ce:	2032      	movs	r0, #50	@ 0x32
100003d0:	2100      	movs	r1, #0
100003d2:	f001 f809 	bl	100013e8 <sleep_us>
100003d6:	2096      	movs	r0, #150	@ 0x96
100003d8:	2100      	movs	r1, #0
100003da:	f001 f805 	bl	100013e8 <sleep_us>
100003de:	683a      	ldr	r2, [r7, #0]
100003e0:	7833      	ldrb	r3, [r6, #0]
100003e2:	4094      	lsls	r4, r2
100003e4:	b2e4      	uxtb	r4, r4
100003e6:	431c      	orrs	r4, r3
100003e8:	6828      	ldr	r0, [r5, #0]
100003ea:	f044 0304 	orr.w	r3, r4, #4
100003ee:	f88d 300f 	strb.w	r3, [sp, #15]
100003f2:	b140      	cbz	r0, 10000406 <_lcd_hd44780_reset+0x152>
100003f4:	2600      	movs	r6, #0
100003f6:	4b16      	ldr	r3, [pc, #88]	@ (10000450 <_lcd_hd44780_reset+0x19c>)
100003f8:	f10d 020f 	add.w	r2, sp, #15
100003fc:	7819      	ldrb	r1, [r3, #0]
100003fe:	2301      	movs	r3, #1
10000400:	9600      	str	r6, [sp, #0]
10000402:	f003 fceb 	bl	10003ddc <i2c_write_blocking>
10000406:	2001      	movs	r0, #1
10000408:	2100      	movs	r1, #0
1000040a:	f000 ffed 	bl	100013e8 <sleep_us>
1000040e:	6828      	ldr	r0, [r5, #0]
10000410:	f024 0404 	bic.w	r4, r4, #4
10000414:	f88d 400f 	strb.w	r4, [sp, #15]
10000418:	b140      	cbz	r0, 1000042c <_lcd_hd44780_reset+0x178>
1000041a:	2400      	movs	r4, #0
1000041c:	4a0c      	ldr	r2, [pc, #48]	@ (10000450 <_lcd_hd44780_reset+0x19c>)
1000041e:	2301      	movs	r3, #1
10000420:	7811      	ldrb	r1, [r2, #0]
10000422:	f10d 020f 	add.w	r2, sp, #15
10000426:	9400      	str	r4, [sp, #0]
10000428:	f003 fcd8 	bl	10003ddc <i2c_write_blocking>
1000042c:	2032      	movs	r0, #50	@ 0x32
1000042e:	2100      	movs	r1, #0
10000430:	f000 ffda 	bl	100013e8 <sleep_us>
10000434:	2096      	movs	r0, #150	@ 0x96
10000436:	2100      	movs	r1, #0
10000438:	b005      	add	sp, #20
1000043a:	e8bd 40f0 	ldmia.w	sp!, {r4, r5, r6, r7, lr}
1000043e:	f000 bfd3 	b.w	100013e8 <sleep_us>
10000442:	bf00      	nop
10000444:	200005ac 	.word	0x200005ac
10000448:	200005a8 	.word	0x200005a8
1000044c:	20000828 	.word	0x20000828
10000450:	200005b0 	.word	0x200005b0

10000454 <lcd_init>:
10000454:	e92d 43f0 	stmdb	sp!, {r4, r5, r6, r7, r8, r9, lr}
10000458:	b085      	sub	sp, #20
1000045a:	460d      	mov	r5, r1
1000045c:	4614      	mov	r4, r2
1000045e:	4619      	mov	r1, r3
10000460:	f89d 8030 	ldrb.w	r8, [sp, #48]	@ 0x30
10000464:	9f0d      	ldr	r7, [sp, #52]	@ 0x34
10000466:	f89d 6038 	ldrb.w	r6, [sp, #56]	@ 0x38
1000046a:	2800      	cmp	r0, #0
1000046c:	f040 8172 	bne.w	10000754 <lcd_init+0x300>
10000470:	f8df 92f4 	ldr.w	r9, [pc, #756]	@ 10000768 <lcd_init+0x314>
10000474:	4648      	mov	r0, r9
10000476:	f003 fc8b 	bl	10003d90 <i2c_init>
1000047a:	4628      	mov	r0, r5
1000047c:	2103      	movs	r1, #3
1000047e:	f000 fa77 	bl	10000970 <gpio_set_function>
10000482:	4620      	mov	r0, r4
10000484:	2103      	movs	r1, #3
10000486:	f000 fa73 	bl	10000970 <gpio_set_function>
1000048a:	4628      	mov	r0, r5
1000048c:	2200      	movs	r2, #0
1000048e:	2101      	movs	r1, #1
10000490:	4db2      	ldr	r5, [pc, #712]	@ (1000075c <lcd_init+0x308>)
10000492:	f000 fa8b 	bl	100009ac <gpio_set_pulls>
10000496:	4620      	mov	r0, r4
10000498:	2200      	movs	r2, #0
1000049a:	2101      	movs	r1, #1
1000049c:	f000 fa86 	bl	100009ac <gpio_set_pulls>
100004a0:	f885 8000 	strb.w	r8, [r5]
100004a4:	f8df 82c4 	ldr.w	r8, [pc, #708]	@ 1000076c <lcd_init+0x318>
100004a8:	4cad      	ldr	r4, [pc, #692]	@ (10000760 <lcd_init+0x30c>)
100004aa:	f8c8 7000 	str.w	r7, [r8]
100004ae:	4fad      	ldr	r7, [pc, #692]	@ (10000764 <lcd_init+0x310>)
100004b0:	f8c4 9000 	str.w	r9, [r4]
100004b4:	703e      	strb	r6, [r7, #0]
100004b6:	2602      	movs	r6, #2
100004b8:	f7ff fefc 	bl	100002b4 <_lcd_hd44780_reset>
100004bc:	f8d8 3000 	ldr.w	r3, [r8]
100004c0:	6820      	ldr	r0, [r4, #0]
100004c2:	409e      	lsls	r6, r3
100004c4:	783b      	ldrb	r3, [r7, #0]
100004c6:	b2f6      	uxtb	r6, r6
100004c8:	431e      	orrs	r6, r3
100004ca:	f046 0304 	orr.w	r3, r6, #4
100004ce:	f88d 300f 	strb.w	r3, [sp, #15]
100004d2:	b138      	cbz	r0, 100004e4 <lcd_init+0x90>
100004d4:	2300      	movs	r3, #0
100004d6:	9300      	str	r3, [sp, #0]
100004d8:	7829      	ldrb	r1, [r5, #0]
100004da:	2301      	movs	r3, #1
100004dc:	f10d 020f 	add.w	r2, sp, #15
100004e0:	f003 fc7c 	bl	10003ddc <i2c_write_blocking>
100004e4:	2001      	movs	r0, #1
100004e6:	2100      	movs	r1, #0
100004e8:	f000 ff7e 	bl	100013e8 <sleep_us>
100004ec:	6820      	ldr	r0, [r4, #0]
100004ee:	f026 0604 	bic.w	r6, r6, #4
100004f2:	f88d 600f 	strb.w	r6, [sp, #15]
100004f6:	b138      	cbz	r0, 10000508 <lcd_init+0xb4>
100004f8:	2300      	movs	r3, #0
100004fa:	9300      	str	r3, [sp, #0]
100004fc:	7829      	ldrb	r1, [r5, #0]
100004fe:	2301      	movs	r3, #1
10000500:	f10d 020f 	add.w	r2, sp, #15
10000504:	f003 fc6a 	bl	10003ddc <i2c_write_blocking>
10000508:	2608      	movs	r6, #8
1000050a:	2032      	movs	r0, #50	@ 0x32
1000050c:	2100      	movs	r1, #0
1000050e:	f000 ff6b 	bl	100013e8 <sleep_us>
10000512:	f8d8 3000 	ldr.w	r3, [r8]
10000516:	6820      	ldr	r0, [r4, #0]
10000518:	409e      	lsls	r6, r3
1000051a:	783b      	ldrb	r3, [r7, #0]
1000051c:	b2f6      	uxtb	r6, r6
1000051e:	431e      	orrs	r6, r3
10000520:	f046 0304 	orr.w	r3, r6, #4
10000524:	f88d 300f 	strb.w	r3, [sp, #15]
10000528:	b138      	cbz	r0, 1000053a <lcd_init+0xe6>
1000052a:	2300      	movs	r3, #0
1000052c:	9300      	str	r3, [sp, #0]
1000052e:	7829      	ldrb	r1, [r5, #0]
10000530:	2301      	movs	r3, #1
10000532:	f10d 020f 	add.w	r2, sp, #15
10000536:	f003 fc51 	bl	10003ddc <i2c_write_blocking>
1000053a:	2001      	movs	r0, #1
1000053c:	2100      	movs	r1, #0
1000053e:	f000 ff53 	bl	100013e8 <sleep_us>
10000542:	6820      	ldr	r0, [r4, #0]
10000544:	f026 0604 	bic.w	r6, r6, #4
10000548:	f88d 600f 	strb.w	r6, [sp, #15]
1000054c:	b138      	cbz	r0, 1000055e <lcd_init+0x10a>
1000054e:	2300      	movs	r3, #0
10000550:	9300      	str	r3, [sp, #0]
10000552:	7829      	ldrb	r1, [r5, #0]
10000554:	2301      	movs	r3, #1
10000556:	f10d 020f 	add.w	r2, sp, #15
1000055a:	f003 fc3f 	bl	10003ddc <i2c_write_blocking>
1000055e:	2032      	movs	r0, #50	@ 0x32
10000560:	2100      	movs	r1, #0
10000562:	f000 ff41 	bl	100013e8 <sleep_us>
10000566:	783e      	ldrb	r6, [r7, #0]
10000568:	6820      	ldr	r0, [r4, #0]
1000056a:	f046 0304 	orr.w	r3, r6, #4
1000056e:	f88d 300f 	strb.w	r3, [sp, #15]
10000572:	b138      	cbz	r0, 10000584 <lcd_init+0x130>
10000574:	2300      	movs	r3, #0
10000576:	9300      	str	r3, [sp, #0]
10000578:	7829      	ldrb	r1, [r5, #0]
1000057a:	2301      	movs	r3, #1
1000057c:	f10d 020f 	add.w	r2, sp, #15
10000580:	f003 fc2c 	bl	10003ddc <i2c_write_blocking>
10000584:	2001      	movs	r0, #1
10000586:	2100      	movs	r1, #0
10000588:	f000 ff2e 	bl	100013e8 <sleep_us>
1000058c:	6820      	ldr	r0, [r4, #0]
1000058e:	f026 0604 	bic.w	r6, r6, #4
10000592:	f88d 600f 	strb.w	r6, [sp, #15]
10000596:	b138      	cbz	r0, 100005a8 <lcd_init+0x154>
10000598:	2300      	movs	r3, #0
1000059a:	9300      	str	r3, [sp, #0]
1000059c:	7829      	ldrb	r1, [r5, #0]
1000059e:	2301      	movs	r3, #1
100005a0:	f10d 020f 	add.w	r2, sp, #15
100005a4:	f003 fc1a 	bl	10003ddc <i2c_write_blocking>
100005a8:	260c      	movs	r6, #12
100005aa:	2032      	movs	r0, #50	@ 0x32
100005ac:	2100      	movs	r1, #0
100005ae:	f000 ff1b 	bl	100013e8 <sleep_us>
100005b2:	f8d8 3000 	ldr.w	r3, [r8]
100005b6:	6820      	ldr	r0, [r4, #0]
100005b8:	409e      	lsls	r6, r3
100005ba:	783b      	ldrb	r3, [r7, #0]
100005bc:	b2f6      	uxtb	r6, r6
100005be:	431e      	orrs	r6, r3
100005c0:	f046 0304 	orr.w	r3, r6, #4
100005c4:	f88d 300f 	strb.w	r3, [sp, #15]
100005c8:	b138      	cbz	r0, 100005da <lcd_init+0x186>
100005ca:	2300      	movs	r3, #0
100005cc:	9300      	str	r3, [sp, #0]
100005ce:	7829      	ldrb	r1, [r5, #0]
100005d0:	2301      	movs	r3, #1
100005d2:	f10d 020f 	add.w	r2, sp, #15
100005d6:	f003 fc01 	bl	10003ddc <i2c_write_blocking>
100005da:	2001      	movs	r0, #1
100005dc:	2100      	movs	r1, #0
100005de:	f000 ff03 	bl	100013e8 <sleep_us>
100005e2:	6820      	ldr	r0, [r4, #0]
100005e4:	f026 0604 	bic.w	r6, r6, #4
100005e8:	f88d 600f 	strb.w	r6, [sp, #15]
100005ec:	b138      	cbz	r0, 100005fe <lcd_init+0x1aa>
100005ee:	2300      	movs	r3, #0
100005f0:	9300      	str	r3, [sp, #0]
100005f2:	7829      	ldrb	r1, [r5, #0]
100005f4:	2301      	movs	r3, #1
100005f6:	f10d 020f 	add.w	r2, sp, #15
100005fa:	f003 fbef 	bl	10003ddc <i2c_write_blocking>
100005fe:	2032      	movs	r0, #50	@ 0x32
10000600:	2100      	movs	r1, #0
10000602:	f000 fef1 	bl	100013e8 <sleep_us>
10000606:	783e      	ldrb	r6, [r7, #0]
10000608:	6820      	ldr	r0, [r4, #0]
1000060a:	f046 0304 	orr.w	r3, r6, #4
1000060e:	f88d 300f 	strb.w	r3, [sp, #15]
10000612:	b138      	cbz	r0, 10000624 <lcd_init+0x1d0>
10000614:	2300      	movs	r3, #0
10000616:	9300      	str	r3, [sp, #0]
10000618:	7829      	ldrb	r1, [r5, #0]
1000061a:	2301      	movs	r3, #1
1000061c:	f10d 020f 	add.w	r2, sp, #15
10000620:	f003 fbdc 	bl	10003ddc <i2c_write_blocking>
10000624:	2001      	movs	r0, #1
10000626:	2100      	movs	r1, #0
10000628:	f000 fede 	bl	100013e8 <sleep_us>
1000062c:	6820      	ldr	r0, [r4, #0]
1000062e:	f026 0604 	bic.w	r6, r6, #4
10000632:	f88d 600f 	strb.w	r6, [sp, #15]
10000636:	b138      	cbz	r0, 10000648 <lcd_init+0x1f4>
10000638:	2300      	movs	r3, #0
1000063a:	9300      	str	r3, [sp, #0]
1000063c:	7829      	ldrb	r1, [r5, #0]
1000063e:	2301      	movs	r3, #1
10000640:	f10d 020f 	add.w	r2, sp, #15
10000644:	f003 fbca 	bl	10003ddc <i2c_write_blocking>
10000648:	2032      	movs	r0, #50	@ 0x32
1000064a:	2100      	movs	r1, #0
1000064c:	f000 fecc 	bl	100013e8 <sleep_us>
10000650:	2301      	movs	r3, #1
10000652:	f8d8 6000 	ldr.w	r6, [r8]
10000656:	6820      	ldr	r0, [r4, #0]
10000658:	fa03 f606 	lsl.w	r6, r3, r6
1000065c:	783b      	ldrb	r3, [r7, #0]
1000065e:	b2f6      	uxtb	r6, r6
10000660:	431e      	orrs	r6, r3
10000662:	f046 0304 	orr.w	r3, r6, #4
10000666:	f88d 300f 	strb.w	r3, [sp, #15]
1000066a:	b138      	cbz	r0, 1000067c <lcd_init+0x228>
1000066c:	2200      	movs	r2, #0
1000066e:	9200      	str	r2, [sp, #0]
10000670:	2301      	movs	r3, #1
10000672:	7829      	ldrb	r1, [r5, #0]
10000674:	f10d 020f 	add.w	r2, sp, #15
10000678:	f003 fbb0 	bl	10003ddc <i2c_write_blocking>
1000067c:	2001      	movs	r0, #1
1000067e:	2100      	movs	r1, #0
10000680:	f000 feb2 	bl	100013e8 <sleep_us>
10000684:	6820      	ldr	r0, [r4, #0]
10000686:	f026 0604 	bic.w	r6, r6, #4
1000068a:	f88d 600f 	strb.w	r6, [sp, #15]
1000068e:	b138      	cbz	r0, 100006a0 <lcd_init+0x24c>
10000690:	2300      	movs	r3, #0
10000692:	9300      	str	r3, [sp, #0]
10000694:	7829      	ldrb	r1, [r5, #0]
10000696:	2301      	movs	r3, #1
10000698:	f10d 020f 	add.w	r2, sp, #15
1000069c:	f003 fb9e 	bl	10003ddc <i2c_write_blocking>
100006a0:	2032      	movs	r0, #50	@ 0x32
100006a2:	2100      	movs	r1, #0
100006a4:	f000 fea0 	bl	100013e8 <sleep_us>
100006a8:	2002      	movs	r0, #2
100006aa:	f000 ff09 	bl	100014c0 <sleep_ms>
100006ae:	783e      	ldrb	r6, [r7, #0]
100006b0:	6820      	ldr	r0, [r4, #0]
100006b2:	f046 0304 	orr.w	r3, r6, #4
100006b6:	f88d 300f 	strb.w	r3, [sp, #15]
100006ba:	b138      	cbz	r0, 100006cc <lcd_init+0x278>
100006bc:	2300      	movs	r3, #0
100006be:	9300      	str	r3, [sp, #0]
100006c0:	7829      	ldrb	r1, [r5, #0]
100006c2:	2301      	movs	r3, #1
100006c4:	f10d 020f 	add.w	r2, sp, #15
100006c8:	f003 fb88 	bl	10003ddc <i2c_write_blocking>
100006cc:	2001      	movs	r0, #1
100006ce:	2100      	movs	r1, #0
100006d0:	f000 fe8a 	bl	100013e8 <sleep_us>
100006d4:	6820      	ldr	r0, [r4, #0]
100006d6:	f026 0604 	bic.w	r6, r6, #4
100006da:	f88d 600f 	strb.w	r6, [sp, #15]
100006de:	b138      	cbz	r0, 100006f0 <lcd_init+0x29c>
100006e0:	2300      	movs	r3, #0
100006e2:	9300      	str	r3, [sp, #0]
100006e4:	7829      	ldrb	r1, [r5, #0]
100006e6:	2301      	movs	r3, #1
100006e8:	f10d 020f 	add.w	r2, sp, #15
100006ec:	f003 fb76 	bl	10003ddc <i2c_write_blocking>
100006f0:	2606      	movs	r6, #6
100006f2:	2032      	movs	r0, #50	@ 0x32
100006f4:	2100      	movs	r1, #0
100006f6:	f000 fe77 	bl	100013e8 <sleep_us>
100006fa:	f8d8 2000 	ldr.w	r2, [r8]
100006fe:	783b      	ldrb	r3, [r7, #0]
10000700:	4096      	lsls	r6, r2
10000702:	b2f6      	uxtb	r6, r6
10000704:	431e      	orrs	r6, r3
10000706:	6820      	ldr	r0, [r4, #0]
10000708:	f046 0304 	orr.w	r3, r6, #4
1000070c:	f88d 300f 	strb.w	r3, [sp, #15]
10000710:	b138      	cbz	r0, 10000722 <lcd_init+0x2ce>
10000712:	2700      	movs	r7, #0
10000714:	7829      	ldrb	r1, [r5, #0]
10000716:	2301      	movs	r3, #1
10000718:	f10d 020f 	add.w	r2, sp, #15
1000071c:	9700      	str	r7, [sp, #0]
1000071e:	f003 fb5d 	bl	10003ddc <i2c_write_blocking>
10000722:	2001      	movs	r0, #1
10000724:	2100      	movs	r1, #0
10000726:	f000 fe5f 	bl	100013e8 <sleep_us>
1000072a:	6820      	ldr	r0, [r4, #0]
1000072c:	f026 0604 	bic.w	r6, r6, #4
10000730:	f88d 600f 	strb.w	r6, [sp, #15]
10000734:	b138      	cbz	r0, 10000746 <lcd_init+0x2f2>
10000736:	2400      	movs	r4, #0
10000738:	7829      	ldrb	r1, [r5, #0]
1000073a:	2301      	movs	r3, #1
1000073c:	f10d 020f 	add.w	r2, sp, #15
10000740:	9400      	str	r4, [sp, #0]
10000742:	f003 fb4b 	bl	10003ddc <i2c_write_blocking>
10000746:	2032      	movs	r0, #50	@ 0x32
10000748:	2100      	movs	r1, #0
1000074a:	b005      	add	sp, #20
1000074c:	e8bd 43f0 	ldmia.w	sp!, {r4, r5, r6, r7, r8, r9, lr}
10000750:	f000 be4a 	b.w	100013e8 <sleep_us>
10000754:	f8df 9018 	ldr.w	r9, [pc, #24]	@ 10000770 <lcd_init+0x31c>
10000758:	e68c      	b.n	10000474 <lcd_init+0x20>
1000075a:	bf00      	nop
1000075c:	200005b0 	.word	0x200005b0
10000760:	20000828 	.word	0x20000828
10000764:	200005a8 	.word	0x200005a8
10000768:	20000634 	.word	0x20000634
1000076c:	200005ac 	.word	0x200005ac
10000770:	2000062c 	.word	0x2000062c

10000774 <lcd_set_cursor>:
10000774:	2801      	cmp	r0, #1
10000776:	e92d 41f0 	stmdb	sp!, {r4, r5, r6, r7, r8, lr}
1000077a:	4603      	mov	r3, r0
1000077c:	f44f 4580 	mov.w	r5, #16384	@ 0x4000
10000780:	bfa8      	it	ge
10000782:	2301      	movge	r3, #1
10000784:	b084      	sub	sp, #16
10000786:	f8ad 500c 	strh.w	r5, [sp, #12]
1000078a:	446b      	add	r3, sp
1000078c:	7b1b      	ldrb	r3, [r3, #12]
1000078e:	4c34      	ldr	r4, [pc, #208]	@ (10000860 <lcd_set_cursor+0xec>)
10000790:	4419      	add	r1, r3
10000792:	4f34      	ldr	r7, [pc, #208]	@ (10000864 <lcd_set_cursor+0xf0>)
10000794:	6823      	ldr	r3, [r4, #0]
10000796:	f3c1 1503 	ubfx	r5, r1, #4, #4
1000079a:	f045 0508 	orr.w	r5, r5, #8
1000079e:	409d      	lsls	r5, r3
100007a0:	4e31      	ldr	r6, [pc, #196]	@ (10000868 <lcd_set_cursor+0xf4>)
100007a2:	f897 e000 	ldrb.w	lr, [r7]
100007a6:	b2ed      	uxtb	r5, r5
100007a8:	ea45 050e 	orr.w	r5, r5, lr
100007ac:	6832      	ldr	r2, [r6, #0]
100007ae:	f045 0304 	orr.w	r3, r5, #4
100007b2:	fa5f f881 	uxtb.w	r8, r1
100007b6:	f88d 300b 	strb.w	r3, [sp, #11]
100007ba:	b14a      	cbz	r2, 100007d0 <lcd_set_cursor+0x5c>
100007bc:	2300      	movs	r3, #0
100007be:	9300      	str	r3, [sp, #0]
100007c0:	4b2a      	ldr	r3, [pc, #168]	@ (1000086c <lcd_set_cursor+0xf8>)
100007c2:	4610      	mov	r0, r2
100007c4:	7819      	ldrb	r1, [r3, #0]
100007c6:	f10d 020b 	add.w	r2, sp, #11
100007ca:	2301      	movs	r3, #1
100007cc:	f003 fb06 	bl	10003ddc <i2c_write_blocking>
100007d0:	2001      	movs	r0, #1
100007d2:	2100      	movs	r1, #0
100007d4:	f000 fe08 	bl	100013e8 <sleep_us>
100007d8:	6830      	ldr	r0, [r6, #0]
100007da:	f025 0504 	bic.w	r5, r5, #4
100007de:	f88d 500b 	strb.w	r5, [sp, #11]
100007e2:	b140      	cbz	r0, 100007f6 <lcd_set_cursor+0x82>
100007e4:	2300      	movs	r3, #0
100007e6:	9300      	str	r3, [sp, #0]
100007e8:	4b20      	ldr	r3, [pc, #128]	@ (1000086c <lcd_set_cursor+0xf8>)
100007ea:	f10d 020b 	add.w	r2, sp, #11
100007ee:	7819      	ldrb	r1, [r3, #0]
100007f0:	2301      	movs	r3, #1
100007f2:	f003 faf3 	bl	10003ddc <i2c_write_blocking>
100007f6:	2032      	movs	r0, #50	@ 0x32
100007f8:	2100      	movs	r1, #0
100007fa:	f000 fdf5 	bl	100013e8 <sleep_us>
100007fe:	6822      	ldr	r2, [r4, #0]
10000800:	f008 040f 	and.w	r4, r8, #15
10000804:	783b      	ldrb	r3, [r7, #0]
10000806:	4094      	lsls	r4, r2
10000808:	b2e4      	uxtb	r4, r4
1000080a:	431c      	orrs	r4, r3
1000080c:	6830      	ldr	r0, [r6, #0]
1000080e:	f044 0304 	orr.w	r3, r4, #4
10000812:	f88d 300b 	strb.w	r3, [sp, #11]
10000816:	b140      	cbz	r0, 1000082a <lcd_set_cursor+0xb6>
10000818:	2500      	movs	r5, #0
1000081a:	4b14      	ldr	r3, [pc, #80]	@ (1000086c <lcd_set_cursor+0xf8>)
1000081c:	f10d 020b 	add.w	r2, sp, #11
10000820:	7819      	ldrb	r1, [r3, #0]
10000822:	2301      	movs	r3, #1
10000824:	9500      	str	r5, [sp, #0]
10000826:	f003 fad9 	bl	10003ddc <i2c_write_blocking>
1000082a:	2001      	movs	r0, #1
1000082c:	2100      	movs	r1, #0
1000082e:	f000 fddb 	bl	100013e8 <sleep_us>
10000832:	6830      	ldr	r0, [r6, #0]
10000834:	f024 0404 	bic.w	r4, r4, #4
10000838:	f88d 400b 	strb.w	r4, [sp, #11]
1000083c:	b140      	cbz	r0, 10000850 <lcd_set_cursor+0xdc>
1000083e:	2400      	movs	r4, #0
10000840:	4a0a      	ldr	r2, [pc, #40]	@ (1000086c <lcd_set_cursor+0xf8>)
10000842:	2301      	movs	r3, #1
10000844:	7811      	ldrb	r1, [r2, #0]
10000846:	f10d 020b 	add.w	r2, sp, #11
1000084a:	9400      	str	r4, [sp, #0]
1000084c:	f003 fac6 	bl	10003ddc <i2c_write_blocking>
10000850:	2032      	movs	r0, #50	@ 0x32
10000852:	2100      	movs	r1, #0
10000854:	b004      	add	sp, #16
10000856:	e8bd 41f0 	ldmia.w	sp!, {r4, r5, r6, r7, r8, lr}
1000085a:	f000 bdc5 	b.w	100013e8 <sleep_us>
1000085e:	bf00      	nop
10000860:	200005ac 	.word	0x200005ac
10000864:	200005a8 	.word	0x200005a8
10000868:	20000828 	.word	0x20000828
1000086c:	200005b0 	.word	0x200005b0

10000870 <lcd_puts>:
10000870:	e92d 47f0 	stmdb	sp!, {r4, r5, r6, r7, r8, r9, sl, lr}
10000874:	7804      	ldrb	r4, [r0, #0]
10000876:	b084      	sub	sp, #16
10000878:	2c00      	cmp	r4, #0
1000087a:	d06e      	beq.n	1000095a <lcd_puts+0xea>
1000087c:	4607      	mov	r7, r0
1000087e:	f8df 90e8 	ldr.w	r9, [pc, #232]	@ 10000968 <lcd_puts+0xf8>
10000882:	f8df 80e8 	ldr.w	r8, [pc, #232]	@ 1000096c <lcd_puts+0xfc>
10000886:	4d36      	ldr	r5, [pc, #216]	@ (10000960 <lcd_puts+0xf0>)
10000888:	4e36      	ldr	r6, [pc, #216]	@ (10000964 <lcd_puts+0xf4>)
1000088a:	f8d9 2000 	ldr.w	r2, [r9]
1000088e:	0923      	lsrs	r3, r4, #4
10000890:	4093      	lsls	r3, r2
10000892:	f043 0301 	orr.w	r3, r3, #1
10000896:	f898 2000 	ldrb.w	r2, [r8]
1000089a:	b2db      	uxtb	r3, r3
1000089c:	ea43 0a02 	orr.w	sl, r3, r2
100008a0:	6828      	ldr	r0, [r5, #0]
100008a2:	f04a 0304 	orr.w	r3, sl, #4
100008a6:	f88d 300f 	strb.w	r3, [sp, #15]
100008aa:	b148      	cbz	r0, 100008c0 <lcd_puts+0x50>
100008ac:	f04f 0c00 	mov.w	ip, #0
100008b0:	7831      	ldrb	r1, [r6, #0]
100008b2:	2301      	movs	r3, #1
100008b4:	f10d 020f 	add.w	r2, sp, #15
100008b8:	f8cd c000 	str.w	ip, [sp]
100008bc:	f003 fa8e 	bl	10003ddc <i2c_write_blocking>
100008c0:	2001      	movs	r0, #1
100008c2:	2100      	movs	r1, #0
100008c4:	f000 fd90 	bl	100013e8 <sleep_us>
100008c8:	6828      	ldr	r0, [r5, #0]
100008ca:	f02a 0304 	bic.w	r3, sl, #4
100008ce:	f88d 300f 	strb.w	r3, [sp, #15]
100008d2:	b148      	cbz	r0, 100008e8 <lcd_puts+0x78>
100008d4:	f04f 0c00 	mov.w	ip, #0
100008d8:	7831      	ldrb	r1, [r6, #0]
100008da:	2301      	movs	r3, #1
100008dc:	f10d 020f 	add.w	r2, sp, #15
100008e0:	f8cd c000 	str.w	ip, [sp]
100008e4:	f003 fa7a 	bl	10003ddc <i2c_write_blocking>
100008e8:	2032      	movs	r0, #50	@ 0x32
100008ea:	2100      	movs	r1, #0
100008ec:	f000 fd7c 	bl	100013e8 <sleep_us>
100008f0:	f8d9 3000 	ldr.w	r3, [r9]
100008f4:	f004 040f 	and.w	r4, r4, #15
100008f8:	409c      	lsls	r4, r3
100008fa:	f044 0401 	orr.w	r4, r4, #1
100008fe:	f898 3000 	ldrb.w	r3, [r8]
10000902:	b2e4      	uxtb	r4, r4
10000904:	431c      	orrs	r4, r3
10000906:	6828      	ldr	r0, [r5, #0]
10000908:	f044 0304 	orr.w	r3, r4, #4
1000090c:	f88d 300f 	strb.w	r3, [sp, #15]
10000910:	b148      	cbz	r0, 10000926 <lcd_puts+0xb6>
10000912:	f04f 0c00 	mov.w	ip, #0
10000916:	7831      	ldrb	r1, [r6, #0]
10000918:	2301      	movs	r3, #1
1000091a:	f10d 020f 	add.w	r2, sp, #15
1000091e:	f8cd c000 	str.w	ip, [sp]
10000922:	f003 fa5b 	bl	10003ddc <i2c_write_blocking>
10000926:	2001      	movs	r0, #1
10000928:	2100      	movs	r1, #0
1000092a:	f000 fd5d 	bl	100013e8 <sleep_us>
1000092e:	6828      	ldr	r0, [r5, #0]
10000930:	f024 0404 	bic.w	r4, r4, #4
10000934:	f88d 400f 	strb.w	r4, [sp, #15]
10000938:	b138      	cbz	r0, 1000094a <lcd_puts+0xda>
1000093a:	2400      	movs	r4, #0
1000093c:	7831      	ldrb	r1, [r6, #0]
1000093e:	2301      	movs	r3, #1
10000940:	f10d 020f 	add.w	r2, sp, #15
10000944:	9400      	str	r4, [sp, #0]
10000946:	f003 fa49 	bl	10003ddc <i2c_write_blocking>
1000094a:	2032      	movs	r0, #50	@ 0x32
1000094c:	2100      	movs	r1, #0
1000094e:	f000 fd4b 	bl	100013e8 <sleep_us>
10000952:	f817 4f01 	ldrb.w	r4, [r7, #1]!
10000956:	2c00      	cmp	r4, #0
10000958:	d197      	bne.n	1000088a <lcd_puts+0x1a>
1000095a:	b004      	add	sp, #16
1000095c:	e8bd 87f0 	ldmia.w	sp!, {r4, r5, r6, r7, r8, r9, sl, pc}
10000960:	20000828 	.word	0x20000828
10000964:	200005b0 	.word	0x200005b0
10000968:	200005ac 	.word	0x200005ac
1000096c:	200005a8 	.word	0x200005a8

10000970 <gpio_set_function>:
10000970:	b410      	push	{r4}
10000972:	f44f 7480 	mov.w	r4, #256	@ 0x100
10000976:	4b0c      	ldr	r3, [pc, #48]	@ (100009a8 <gpio_set_function+0x38>)
10000978:	f853 2020 	ldr.w	r2, [r3, r0, lsl #2]
1000097c:	eb03 0380 	add.w	r3, r3, r0, lsl #2
10000980:	00c0      	lsls	r0, r0, #3
10000982:	f082 0240 	eor.w	r2, r2, #64	@ 0x40
10000986:	f100 4080 	add.w	r0, r0, #1073741824	@ 0x40000000
1000098a:	f503 5c80 	add.w	ip, r3, #4096	@ 0x1000
1000098e:	f002 02c0 	and.w	r2, r2, #192	@ 0xc0
10000992:	f500 3020 	add.w	r0, r0, #163840	@ 0x28000
10000996:	f503 5340 	add.w	r3, r3, #12288	@ 0x3000
1000099a:	f8cc 2000 	str.w	r2, [ip]
1000099e:	6041      	str	r1, [r0, #4]
100009a0:	601c      	str	r4, [r3, #0]
100009a2:	f85d 4b04 	ldr.w	r4, [sp], #4
100009a6:	4770      	bx	lr
100009a8:	40038004 	.word	0x40038004

100009ac <gpio_set_pulls>:
100009ac:	b410      	push	{r4}
100009ae:	4c08      	ldr	r4, [pc, #32]	@ (100009d0 <gpio_set_pulls+0x24>)
100009b0:	00c9      	lsls	r1, r1, #3
100009b2:	ea41 0182 	orr.w	r1, r1, r2, lsl #2
100009b6:	f854 2020 	ldr.w	r2, [r4, r0, lsl #2]
100009ba:	eb04 0380 	add.w	r3, r4, r0, lsl #2
100009be:	4051      	eors	r1, r2
100009c0:	f503 5380 	add.w	r3, r3, #4096	@ 0x1000
100009c4:	f001 010c 	and.w	r1, r1, #12
100009c8:	f85d 4b04 	ldr.w	r4, [sp], #4
100009cc:	6019      	str	r1, [r3, #0]
100009ce:	4770      	bx	lr
100009d0:	40038004 	.word	0x40038004

100009d4 <panic>:
100009d4:	b40f      	push	{r0, r1, r2, r3}
100009d6:	b500      	push	{lr}
100009d8:	b083      	sub	sp, #12
100009da:	9c04      	ldr	r4, [sp, #16]
100009dc:	4807      	ldr	r0, [pc, #28]	@ (100009fc <panic+0x28>)
100009de:	f002 ffaf 	bl	10003940 <__wrap_puts>
100009e2:	b13c      	cbz	r4, 100009f4 <panic+0x20>
100009e4:	a905      	add	r1, sp, #20
100009e6:	4620      	mov	r0, r4
100009e8:	9101      	str	r1, [sp, #4]
100009ea:	f002 fe1b 	bl	10003624 <weak_raw_vprintf>
100009ee:	4804      	ldr	r0, [pc, #16]	@ (10000a00 <panic+0x2c>)
100009f0:	f002 ffa6 	bl	10003940 <__wrap_puts>
100009f4:	2001      	movs	r0, #1
100009f6:	f002 fe2d 	bl	10003654 <_exit>
100009fa:	bf00      	nop
100009fc:	10003ff0 	.word	0x10003ff0
10000a00:	10004000 	.word	0x10004000

10000a04 <hw_claim_or_assert>:
10000a04:	b570      	push	{r4, r5, r6, lr}
10000a06:	4686      	mov	lr, r0
10000a08:	f3ef 8510 	mrs	r5, PRIMASK
10000a0c:	b672      	cpsid	i
10000a0e:	4c12      	ldr	r4, [pc, #72]	@ (10000a58 <hw_claim_or_assert+0x54>)
10000a10:	e8d4 6fcf 	ldaexb	r6, [r4]
10000a14:	2001      	movs	r0, #1
10000a16:	2e00      	cmp	r6, #0
10000a18:	d1fa      	bne.n	10000a10 <hw_claim_or_assert+0xc>
10000a1a:	e8c4 0f46 	strexb	r6, r0, [r4]
10000a1e:	2e00      	cmp	r6, #0
10000a20:	d1f6      	bne.n	10000a10 <hw_claim_or_assert+0xc>
10000a22:	f3bf 8f5f 	dmb	sy
10000a26:	f04f 0c01 	mov.w	ip, #1
10000a2a:	08c8      	lsrs	r0, r1, #3
10000a2c:	f001 0307 	and.w	r3, r1, #7
10000a30:	fa0c f303 	lsl.w	r3, ip, r3
10000a34:	f81e c000 	ldrb.w	ip, [lr, r0]
10000a38:	ea1c 0603 	ands.w	r6, ip, r3
10000a3c:	d108      	bne.n	10000a50 <hw_claim_or_assert+0x4c>
10000a3e:	ea4c 0c03 	orr.w	ip, ip, r3
10000a42:	f80e c000 	strb.w	ip, [lr, r0]
10000a46:	e8c4 6f8f 	stlb	r6, [r4]
10000a4a:	f385 8810 	msr	PRIMASK, r5
10000a4e:	bd70      	pop	{r4, r5, r6, pc}
10000a50:	4610      	mov	r0, r2
10000a52:	f7ff ffbf 	bl	100009d4 <panic>
10000a56:	bf00      	nop
10000a58:	200007d3 	.word	0x200007d3

10000a5c <next_striped_spin_lock_num>:
10000a5c:	4a04      	ldr	r2, [pc, #16]	@ (10000a70 <next_striped_spin_lock_num+0x14>)
10000a5e:	7810      	ldrb	r0, [r2, #0]
10000a60:	1c43      	adds	r3, r0, #1
10000a62:	b2db      	uxtb	r3, r3
10000a64:	2b18      	cmp	r3, #24
10000a66:	bf28      	it	cs
10000a68:	2310      	movcs	r3, #16
10000a6a:	7013      	strb	r3, [r2, #0]
10000a6c:	4770      	bx	lr
10000a6e:	bf00      	nop
10000a70:	200005b1 	.word	0x200005b1

10000a74 <spinlock_set_extexclall>:
10000a74:	f04f 22e0 	mov.w	r2, #3758153728	@ 0xe000e000
10000a78:	6893      	ldr	r3, [r2, #8]
10000a7a:	f043 5300 	orr.w	r3, r3, #536870912	@ 0x20000000
10000a7e:	6093      	str	r3, [r2, #8]
10000a80:	4770      	bx	lr
10000a82:	bf00      	nop

10000a84 <spin_locks_reset>:
10000a84:	2100      	movs	r1, #0
10000a86:	4b04      	ldr	r3, [pc, #16]	@ (10000a98 <spin_locks_reset+0x14>)
10000a88:	f103 0220 	add.w	r2, r3, #32
10000a8c:	e8c3 1f8f 	stlb	r1, [r3]
10000a90:	3301      	adds	r3, #1
10000a92:	4293      	cmp	r3, r2
10000a94:	d1fa      	bne.n	10000a8c <spin_locks_reset+0x8>
10000a96:	4770      	bx	lr
10000a98:	200007c8 	.word	0x200007c8

10000a9c <runtime_init_per_core_irq_priorities>:
10000a9c:	f04f 23e0 	mov.w	r3, #3758153728	@ 0xe000e000
10000aa0:	f04f 3280 	mov.w	r2, #2155905152	@ 0x80808080
10000aa4:	f8c3 2400 	str.w	r2, [r3, #1024]	@ 0x400
10000aa8:	f8c3 2404 	str.w	r2, [r3, #1028]	@ 0x404
10000aac:	f8c3 2408 	str.w	r2, [r3, #1032]	@ 0x408
10000ab0:	f8c3 240c 	str.w	r2, [r3, #1036]	@ 0x40c
10000ab4:	f8c3 2410 	str.w	r2, [r3, #1040]	@ 0x410
10000ab8:	f8c3 2414 	str.w	r2, [r3, #1044]	@ 0x414
10000abc:	f8c3 2418 	str.w	r2, [r3, #1048]	@ 0x418
10000ac0:	f8c3 241c 	str.w	r2, [r3, #1052]	@ 0x41c
10000ac4:	f8c3 2420 	str.w	r2, [r3, #1056]	@ 0x420
10000ac8:	f8c3 2424 	str.w	r2, [r3, #1060]	@ 0x424
10000acc:	f8c3 2428 	str.w	r2, [r3, #1064]	@ 0x428
10000ad0:	f8c3 242c 	str.w	r2, [r3, #1068]	@ 0x42c
10000ad4:	f8c3 2430 	str.w	r2, [r3, #1072]	@ 0x430
10000ad8:	b662      	cpsie	i
10000ada:	4770      	bx	lr

10000adc <irq_set_enabled>:
10000adc:	2301      	movs	r3, #1
10000ade:	f000 021f 	and.w	r2, r0, #31
10000ae2:	4093      	lsls	r3, r2
10000ae4:	0940      	lsrs	r0, r0, #5
10000ae6:	b141      	cbz	r1, 10000afa <irq_set_enabled+0x1e>
10000ae8:	0080      	lsls	r0, r0, #2
10000aea:	f100 4060 	add.w	r0, r0, #3758096384	@ 0xe0000000
10000aee:	f500 4061 	add.w	r0, r0, #57600	@ 0xe100
10000af2:	f8c0 3180 	str.w	r3, [r0, #384]	@ 0x180
10000af6:	6003      	str	r3, [r0, #0]
10000af8:	4770      	bx	lr
10000afa:	4a02      	ldr	r2, [pc, #8]	@ (10000b04 <irq_set_enabled+0x28>)
10000afc:	3020      	adds	r0, #32
10000afe:	f842 3020 	str.w	r3, [r2, r0, lsl #2]
10000b02:	4770      	bx	lr
10000b04:	e000e100 	.word	0xe000e100

10000b08 <irq_set_exclusive_handler>:
10000b08:	b5f8      	push	{r3, r4, r5, r6, r7, lr}
10000b0a:	460d      	mov	r5, r1
10000b0c:	f3ef 8710 	mrs	r7, PRIMASK
10000b10:	b672      	cpsid	i
10000b12:	4e12      	ldr	r6, [pc, #72]	@ (10000b5c <irq_set_exclusive_handler+0x54>)
10000b14:	e8d6 2fcf 	ldaexb	r2, [r6]
10000b18:	2301      	movs	r3, #1
10000b1a:	2a00      	cmp	r2, #0
10000b1c:	d1fa      	bne.n	10000b14 <irq_set_exclusive_handler+0xc>
10000b1e:	e8c6 3f42 	strexb	r2, r3, [r6]
10000b22:	2a00      	cmp	r2, #0
10000b24:	d1f6      	bne.n	10000b14 <irq_set_exclusive_handler+0xc>
10000b26:	f3bf 8f5f 	dmb	sy
10000b2a:	4b0d      	ldr	r3, [pc, #52]	@ (10000b60 <irq_set_exclusive_handler+0x58>)
10000b2c:	f100 0410 	add.w	r4, r0, #16
10000b30:	689b      	ldr	r3, [r3, #8]
10000b32:	4a0c      	ldr	r2, [pc, #48]	@ (10000b64 <irq_set_exclusive_handler+0x5c>)
10000b34:	f853 3024 	ldr.w	r3, [r3, r4, lsl #2]
10000b38:	4293      	cmp	r3, r2
10000b3a:	d003      	beq.n	10000b44 <irq_set_exclusive_handler+0x3c>
10000b3c:	4299      	cmp	r1, r3
10000b3e:	d001      	beq.n	10000b44 <irq_set_exclusive_handler+0x3c>
10000b40:	f000 ff7a 	bl	10001a38 <hard_assertion_failure>
10000b44:	4b06      	ldr	r3, [pc, #24]	@ (10000b60 <irq_set_exclusive_handler+0x58>)
10000b46:	689b      	ldr	r3, [r3, #8]
10000b48:	f843 5024 	str.w	r5, [r3, r4, lsl #2]
10000b4c:	f3bf 8f5f 	dmb	sy
10000b50:	2300      	movs	r3, #0
10000b52:	e8c6 3f8f 	stlb	r3, [r6]
10000b56:	f387 8810 	msr	PRIMASK, r7
10000b5a:	bdf8      	pop	{r3, r4, r5, r6, r7, pc}
10000b5c:	200007d1 	.word	0x200007d1
10000b60:	e000ed00 	.word	0xe000ed00
10000b64:	10000111 	.word	0x10000111

10000b68 <irq_remove_handler>:
10000b68:	e92d 4ff0 	stmdb	sp!, {r4, r5, r6, r7, r8, r9, sl, fp, lr}
10000b6c:	b083      	sub	sp, #12
10000b6e:	f3ef 8a10 	mrs	sl, PRIMASK
10000b72:	b672      	cpsid	i
10000b74:	4e71      	ldr	r6, [pc, #452]	@ (10000d3c <irq_remove_handler+0x1d4>)
10000b76:	e8d6 2fcf 	ldaexb	r2, [r6]
10000b7a:	2301      	movs	r3, #1
10000b7c:	2a00      	cmp	r2, #0
10000b7e:	d1fa      	bne.n	10000b76 <irq_remove_handler+0xe>
10000b80:	e8c6 3f42 	strexb	r2, r3, [r6]
10000b84:	2a00      	cmp	r2, #0
10000b86:	d1f6      	bne.n	10000b76 <irq_remove_handler+0xe>
10000b88:	f3bf 8f5f 	dmb	sy
10000b8c:	4b6c      	ldr	r3, [pc, #432]	@ (10000d40 <irq_remove_handler+0x1d8>)
10000b8e:	f100 0810 	add.w	r8, r0, #16
10000b92:	689b      	ldr	r3, [r3, #8]
10000b94:	4a6b      	ldr	r2, [pc, #428]	@ (10000d44 <irq_remove_handler+0x1dc>)
10000b96:	f853 5028 	ldr.w	r5, [r3, r8, lsl #2]
10000b9a:	4295      	cmp	r5, r2
10000b9c:	d045      	beq.n	10000c2a <irq_remove_handler+0xc2>
10000b9e:	428d      	cmp	r5, r1
10000ba0:	460c      	mov	r4, r1
10000ba2:	d050      	beq.n	10000c46 <irq_remove_handler+0xde>
10000ba4:	4f68      	ldr	r7, [pc, #416]	@ (10000d48 <irq_remove_handler+0x1e0>)
10000ba6:	1beb      	subs	r3, r5, r7
10000ba8:	2b2f      	cmp	r3, #47	@ 0x2f
10000baa:	d83e      	bhi.n	10000c2a <irq_remove_handler+0xc2>
10000bac:	2101      	movs	r1, #1
10000bae:	ea4f 1950 	mov.w	r9, r0, lsr #5
10000bb2:	ea4f 0989 	mov.w	r9, r9, lsl #2
10000bb6:	f109 4960 	add.w	r9, r9, #3758096384	@ 0xe0000000
10000bba:	f509 4961 	add.w	r9, r9, #57600	@ 0xe100
10000bbe:	f000 031f 	and.w	r3, r0, #31
10000bc2:	fa01 f003 	lsl.w	r0, r1, r3
10000bc6:	f8d9 3000 	ldr.w	r3, [r9]
10000bca:	f8c9 0080 	str.w	r0, [r9, #128]	@ 0x80
10000bce:	ea00 0b03 	and.w	fp, r0, r3
10000bd2:	f3bf 8f5f 	dmb	sy
10000bd6:	f3ef 8105 	mrs	r1, IPSR
10000bda:	b2c9      	uxtb	r1, r1
10000bdc:	2900      	cmp	r1, #0
10000bde:	d034      	beq.n	10000c4a <irq_remove_handler+0xe2>
10000be0:	4588      	cmp	r8, r1
10000be2:	d005      	beq.n	10000bf0 <irq_remove_handler+0x88>
10000be4:	e9cd 1000 	strd	r1, r0, [sp]
10000be8:	f000 ff26 	bl	10001a38 <hard_assertion_failure>
10000bec:	e9dd 1000 	ldrd	r1, r0, [sp]
10000bf0:	f025 0e01 	bic.w	lr, r5, #1
10000bf4:	f8de c008 	ldr.w	ip, [lr, #8]
10000bf8:	4564      	cmp	r4, ip
10000bfa:	d105      	bne.n	10000c08 <irq_remove_handler+0xa0>
10000bfc:	e089      	b.n	10000d12 <irq_remove_handler+0x1aa>
10000bfe:	f8d3 c008 	ldr.w	ip, [r3, #8]
10000c02:	4564      	cmp	r4, ip
10000c04:	d031      	beq.n	10000c6a <irq_remove_handler+0x102>
10000c06:	469e      	mov	lr, r3
10000c08:	f99e 2006 	ldrsb.w	r2, [lr, #6]
10000c0c:	eb02 0342 	add.w	r3, r2, r2, lsl #1
10000c10:	2a00      	cmp	r2, #0
10000c12:	eb07 0383 	add.w	r3, r7, r3, lsl #2
10000c16:	daf2      	bge.n	10000bfe <irq_remove_handler+0x96>
10000c18:	4564      	cmp	r4, ip
10000c1a:	d061      	beq.n	10000ce0 <irq_remove_handler+0x178>
10000c1c:	f1bb 0f00 	cmp.w	fp, #0
10000c20:	d020      	beq.n	10000c64 <irq_remove_handler+0xfc>
10000c22:	f8c9 0180 	str.w	r0, [r9, #384]	@ 0x180
10000c26:	f8c9 0000 	str.w	r0, [r9]
10000c2a:	4b45      	ldr	r3, [pc, #276]	@ (10000d40 <irq_remove_handler+0x1d8>)
10000c2c:	689b      	ldr	r3, [r3, #8]
10000c2e:	f843 5028 	str.w	r5, [r3, r8, lsl #2]
10000c32:	f3bf 8f5f 	dmb	sy
10000c36:	2300      	movs	r3, #0
10000c38:	e8c6 3f8f 	stlb	r3, [r6]
10000c3c:	f38a 8810 	msr	PRIMASK, sl
10000c40:	b003      	add	sp, #12
10000c42:	e8bd 8ff0 	ldmia.w	sp!, {r4, r5, r6, r7, r8, r9, sl, fp, pc}
10000c46:	4615      	mov	r5, r2
10000c48:	e7ef      	b.n	10000c2a <irq_remove_handler+0xc2>
10000c4a:	f025 0e01 	bic.w	lr, r5, #1
10000c4e:	f8de c008 	ldr.w	ip, [lr, #8]
10000c52:	4564      	cmp	r4, ip
10000c54:	d1d8      	bne.n	10000c08 <irq_remove_handler+0xa0>
10000c56:	f99e 4006 	ldrsb.w	r4, [lr, #6]
10000c5a:	4673      	mov	r3, lr
10000c5c:	2c00      	cmp	r4, #0
10000c5e:	da08      	bge.n	10000c72 <irq_remove_handler+0x10a>
10000c60:	4615      	mov	r5, r2
10000c62:	e046      	b.n	10000cf2 <irq_remove_handler+0x18a>
10000c64:	f8c9 0080 	str.w	r0, [r9, #128]	@ 0x80
10000c68:	e7df      	b.n	10000c2a <irq_remove_handler+0xc2>
10000c6a:	f993 4006 	ldrsb.w	r4, [r3, #6]
10000c6e:	2c00      	cmp	r4, #0
10000c70:	db37      	blt.n	10000ce2 <irq_remove_handler+0x17a>
10000c72:	eb04 0c44 	add.w	ip, r4, r4, lsl #1
10000c76:	eb07 0c8c 	add.w	ip, r7, ip, lsl #2
10000c7a:	f89c 1007 	ldrb.w	r1, [ip, #7]
10000c7e:	f8dc 2008 	ldr.w	r2, [ip, #8]
10000c82:	71d9      	strb	r1, [r3, #7]
10000c84:	609a      	str	r2, [r3, #8]
10000c86:	f99c 2006 	ldrsb.w	r2, [ip, #6]
10000c8a:	0061      	lsls	r1, r4, #1
10000c8c:	2a00      	cmp	r2, #0
10000c8e:	719a      	strb	r2, [r3, #6]
10000c90:	db3d      	blt.n	10000d0e <irq_remove_handler+0x1a6>
10000c92:	f8bc e004 	ldrh.w	lr, [ip, #4]
10000c96:	ea5f 5e4e 	movs.w	lr, lr, lsl #21
10000c9a:	d505      	bpl.n	10000ca8 <irq_remove_handler+0x140>
10000c9c:	f50e 1eff 	add.w	lr, lr, #2088960	@ 0x1fe000
10000ca0:	f50e 5eff 	add.w	lr, lr, #8160	@ 0x1fe0
10000ca4:	f10e 0e1f 	add.w	lr, lr, #31
10000ca8:	f06f 0c07 	mvn.w	ip, #7
10000cac:	190a      	adds	r2, r1, r4
10000cae:	ea4f 5e6e 	mov.w	lr, lr, asr #21
10000cb2:	0092      	lsls	r2, r2, #2
10000cb4:	eb02 024e 	add.w	r2, r2, lr, lsl #1
10000cb8:	3208      	adds	r2, #8
10000cba:	443a      	add	r2, r7
10000cbc:	ebac 0c03 	sub.w	ip, ip, r3
10000cc0:	4462      	add	r2, ip
10000cc2:	f3c2 024a 	ubfx	r2, r2, #1, #11
10000cc6:	ea6f 42c2 	mvn.w	r2, r2, lsl #19
10000cca:	ea6f 42d2 	mvn.w	r2, r2, lsr #19
10000cce:	809a      	strh	r2, [r3, #4]
10000cd0:	4b1e      	ldr	r3, [pc, #120]	@ (10000d4c <irq_remove_handler+0x1e4>)
10000cd2:	4421      	add	r1, r4
10000cd4:	781a      	ldrb	r2, [r3, #0]
10000cd6:	eb07 0181 	add.w	r1, r7, r1, lsl #2
10000cda:	701c      	strb	r4, [r3, #0]
10000cdc:	718a      	strb	r2, [r1, #6]
10000cde:	e79d      	b.n	10000c1c <irq_remove_handler+0xb4>
10000ce0:	4673      	mov	r3, lr
10000ce2:	b9d9      	cbnz	r1, 10000d1c <irq_remove_handler+0x1b4>
10000ce4:	22ff      	movs	r2, #255	@ 0xff
10000ce6:	f88e 2006 	strb.w	r2, [lr, #6]
10000cea:	f64b 5201 	movw	r2, #48385	@ 0xbd01
10000cee:	f8ae 2004 	strh.w	r2, [lr, #4]
10000cf2:	4c16      	ldr	r4, [pc, #88]	@ (10000d4c <irq_remove_handler+0x1e4>)
10000cf4:	f64a 22aa 	movw	r2, #43690	@ 0xaaaa
10000cf8:	f894 c000 	ldrb.w	ip, [r4]
10000cfc:	4619      	mov	r1, r3
10000cfe:	1bc9      	subs	r1, r1, r7
10000d00:	4149      	adcs	r1, r1
10000d02:	434a      	muls	r2, r1
10000d04:	0d12      	lsrs	r2, r2, #20
10000d06:	f883 c006 	strb.w	ip, [r3, #6]
10000d0a:	7022      	strb	r2, [r4, #0]
10000d0c:	e786      	b.n	10000c1c <irq_remove_handler+0xb4>
10000d0e:	4a10      	ldr	r2, [pc, #64]	@ (10000d50 <irq_remove_handler+0x1e8>)
10000d10:	e7dd      	b.n	10000cce <irq_remove_handler+0x166>
10000d12:	f99e 4006 	ldrsb.w	r4, [lr, #6]
10000d16:	4673      	mov	r3, lr
10000d18:	2c00      	cmp	r4, #0
10000d1a:	daaa      	bge.n	10000c72 <irq_remove_handler+0x10a>
10000d1c:	4a0d      	ldr	r2, [pc, #52]	@ (10000d54 <irq_remove_handler+0x1ec>)
10000d1e:	4c0e      	ldr	r4, [pc, #56]	@ (10000d58 <irq_remove_handler+0x1f0>)
10000d20:	1ad2      	subs	r2, r2, r3
10000d22:	3a08      	subs	r2, #8
10000d24:	f3c2 310a 	ubfx	r1, r2, #12, #11
10000d28:	ea6f 5101 	mvn.w	r1, r1, lsl #20
10000d2c:	ea6f 5111 	mvn.w	r1, r1, lsr #20
10000d30:	ea44 0252 	orr.w	r2, r4, r2, lsr #1
10000d34:	80da      	strh	r2, [r3, #6]
10000d36:	8099      	strh	r1, [r3, #4]
10000d38:	e770      	b.n	10000c1c <irq_remove_handler+0xb4>
10000d3a:	bf00      	nop
10000d3c:	200007d1 	.word	0x200007d1
10000d40:	e000ed00 	.word	0xe000ed00
10000d44:	10000111 	.word	0x10000111
10000d48:	200005b4 	.word	0x200005b4
10000d4c:	20000870 	.word	0x20000870
10000d50:	ffffbd01 	.word	0xffffbd01
10000d54:	200005ee 	.word	0x200005ee
10000d58:	fffff800 	.word	0xfffff800

10000d5c <irq_add_tail_to_free_list>:
10000d5c:	b5f0      	push	{r4, r5, r6, r7, lr}
10000d5e:	f3ef 8505 	mrs	r5, IPSR
10000d62:	b2ed      	uxtb	r5, r5
10000d64:	f3ef 8c10 	mrs	ip, PRIMASK
10000d68:	b672      	cpsid	i
10000d6a:	4926      	ldr	r1, [pc, #152]	@ (10000e04 <irq_add_tail_to_free_list+0xa8>)
10000d6c:	e8d1 2fcf 	ldaexb	r2, [r1]
10000d70:	2301      	movs	r3, #1
10000d72:	2a00      	cmp	r2, #0
10000d74:	d1fa      	bne.n	10000d6c <irq_add_tail_to_free_list+0x10>
10000d76:	e8c1 3f42 	strexb	r2, r3, [r1]
10000d7a:	2a00      	cmp	r2, #0
10000d7c:	d1f6      	bne.n	10000d6c <irq_add_tail_to_free_list+0x10>
10000d7e:	f3bf 8f5f 	dmb	sy
10000d82:	4e21      	ldr	r6, [pc, #132]	@ (10000e08 <irq_add_tail_to_free_list+0xac>)
10000d84:	f040 0e01 	orr.w	lr, r0, #1
10000d88:	68b4      	ldr	r4, [r6, #8]
10000d8a:	f64a 23aa 	movw	r3, #43690	@ 0xaaaa
10000d8e:	f854 7025 	ldr.w	r7, [r4, r5, lsl #2]
10000d92:	4a1e      	ldr	r2, [pc, #120]	@ (10000e0c <irq_add_tail_to_free_list+0xb0>)
10000d94:	4604      	mov	r4, r0
10000d96:	1aa4      	subs	r4, r4, r2
10000d98:	4164      	adcs	r4, r4
10000d9a:	4363      	muls	r3, r4
10000d9c:	0d1b      	lsrs	r3, r3, #20
10000d9e:	4577      	cmp	r7, lr
10000da0:	b25b      	sxtb	r3, r3
10000da2:	d01b      	beq.n	10000ddc <irq_add_tail_to_free_list+0x80>
10000da4:	f992 4006 	ldrsb.w	r4, [r2, #6]
10000da8:	429c      	cmp	r4, r3
10000daa:	d01c      	beq.n	10000de6 <irq_add_tail_to_free_list+0x8a>
10000dac:	f992 4012 	ldrsb.w	r4, [r2, #18]
10000db0:	429c      	cmp	r4, r3
10000db2:	d023      	beq.n	10000dfc <irq_add_tail_to_free_list+0xa0>
10000db4:	f992 401e 	ldrsb.w	r4, [r2, #30]
10000db8:	429c      	cmp	r4, r3
10000dba:	d021      	beq.n	10000e00 <irq_add_tail_to_free_list+0xa4>
10000dbc:	f992 402a 	ldrsb.w	r4, [r2, #42]	@ 0x2a
10000dc0:	429c      	cmp	r4, r3
10000dc2:	bf08      	it	eq
10000dc4:	2403      	moveq	r4, #3
10000dc6:	d00f      	beq.n	10000de8 <irq_add_tail_to_free_list+0x8c>
10000dc8:	4a11      	ldr	r2, [pc, #68]	@ (10000e10 <irq_add_tail_to_free_list+0xb4>)
10000dca:	2400      	movs	r4, #0
10000dcc:	7815      	ldrb	r5, [r2, #0]
10000dce:	7013      	strb	r3, [r2, #0]
10000dd0:	7185      	strb	r5, [r0, #6]
10000dd2:	e8c1 4f8f 	stlb	r4, [r1]
10000dd6:	f38c 8810 	msr	PRIMASK, ip
10000dda:	bdf0      	pop	{r4, r5, r6, r7, pc}
10000ddc:	68b2      	ldr	r2, [r6, #8]
10000dde:	4c0d      	ldr	r4, [pc, #52]	@ (10000e14 <irq_add_tail_to_free_list+0xb8>)
10000de0:	f842 4025 	str.w	r4, [r2, r5, lsl #2]
10000de4:	e7f0      	b.n	10000dc8 <irq_add_tail_to_free_list+0x6c>
10000de6:	2400      	movs	r4, #0
10000de8:	eb04 0444 	add.w	r4, r4, r4, lsl #1
10000dec:	eb02 0284 	add.w	r2, r2, r4, lsl #2
10000df0:	24ff      	movs	r4, #255	@ 0xff
10000df2:	7194      	strb	r4, [r2, #6]
10000df4:	f64b 5401 	movw	r4, #48385	@ 0xbd01
10000df8:	8094      	strh	r4, [r2, #4]
10000dfa:	e7e5      	b.n	10000dc8 <irq_add_tail_to_free_list+0x6c>
10000dfc:	2401      	movs	r4, #1
10000dfe:	e7f3      	b.n	10000de8 <irq_add_tail_to_free_list+0x8c>
10000e00:	2402      	movs	r4, #2
10000e02:	e7f1      	b.n	10000de8 <irq_add_tail_to_free_list+0x8c>
10000e04:	200007d1 	.word	0x200007d1
10000e08:	e000ed00 	.word	0xe000ed00
10000e0c:	200005b4 	.word	0x200005b4
10000e10:	20000870 	.word	0x20000870
10000e14:	10000111 	.word	0x10000111

10000e18 <lock_init>:
10000e18:	4b01      	ldr	r3, [pc, #4]	@ (10000e20 <lock_init+0x8>)
10000e1a:	440b      	add	r3, r1
10000e1c:	6003      	str	r3, [r0, #0]
10000e1e:	4770      	bx	lr
10000e20:	200007c8 	.word	0x200007c8

10000e24 <runtime_init_mutex>:
10000e24:	b570      	push	{r4, r5, r6, lr}
10000e26:	4c10      	ldr	r4, [pc, #64]	@ (10000e68 <runtime_init_mutex+0x44>)
10000e28:	4d10      	ldr	r5, [pc, #64]	@ (10000e6c <runtime_init_mutex+0x48>)
10000e2a:	42ac      	cmp	r4, r5
10000e2c:	d20e      	bcs.n	10000e4c <runtime_init_mutex+0x28>
10000e2e:	26ff      	movs	r6, #255	@ 0xff
10000e30:	6823      	ldr	r3, [r4, #0]
10000e32:	b163      	cbz	r3, 10000e4e <runtime_init_mutex+0x2a>
10000e34:	f7ff fe12 	bl	10000a5c <next_striped_spin_lock_num>
10000e38:	4601      	mov	r1, r0
10000e3a:	4620      	mov	r0, r4
10000e3c:	f7ff ffec 	bl	10000e18 <lock_init>
10000e40:	80a6      	strh	r6, [r4, #4]
10000e42:	f3bf 8f5f 	dmb	sy
10000e46:	3408      	adds	r4, #8
10000e48:	42ac      	cmp	r4, r5
10000e4a:	d3f1      	bcc.n	10000e30 <runtime_init_mutex+0xc>
10000e4c:	bd70      	pop	{r4, r5, r6, pc}
10000e4e:	f7ff fe05 	bl	10000a5c <next_striped_spin_lock_num>
10000e52:	4601      	mov	r1, r0
10000e54:	4620      	mov	r0, r4
10000e56:	f7ff ffdf 	bl	10000e18 <lock_init>
10000e5a:	7126      	strb	r6, [r4, #4]
10000e5c:	f3bf 8f5f 	dmb	sy
10000e60:	3408      	adds	r4, #8
10000e62:	42ac      	cmp	r4, r5
10000e64:	d3e4      	bcc.n	10000e30 <runtime_init_mutex+0xc>
10000e66:	bd70      	pop	{r4, r5, r6, pc}
10000e68:	2000063c 	.word	0x2000063c
10000e6c:	20000644 	.word	0x20000644

10000e70 <sleep_until_callback>:
10000e70:	4b0d      	ldr	r3, [pc, #52]	@ (10000ea8 <sleep_until_callback+0x38>)
10000e72:	681a      	ldr	r2, [r3, #0]
10000e74:	f3ef 8110 	mrs	r1, PRIMASK
10000e78:	b672      	cpsid	i
10000e7a:	e8d2 cfcf 	ldaexb	ip, [r2]
10000e7e:	2001      	movs	r0, #1
10000e80:	f1bc 0f00 	cmp.w	ip, #0
10000e84:	d1f9      	bne.n	10000e7a <sleep_until_callback+0xa>
10000e86:	e8c2 0f4c 	strexb	ip, r0, [r2]
10000e8a:	f1bc 0f00 	cmp.w	ip, #0
10000e8e:	d1f4      	bne.n	10000e7a <sleep_until_callback+0xa>
10000e90:	f3bf 8f5f 	dmb	sy
10000e94:	2200      	movs	r2, #0
10000e96:	681b      	ldr	r3, [r3, #0]
10000e98:	e8c3 2f8f 	stlb	r2, [r3]
10000e9c:	f381 8810 	msr	PRIMASK, r1
10000ea0:	bf40      	sev
10000ea2:	2000      	movs	r0, #0
10000ea4:	2100      	movs	r1, #0
10000ea6:	4770      	bx	lr
10000ea8:	20000864 	.word	0x20000864
10000eac:	00000000 	.word	0x00000000

10000eb0 <alarm_pool_irq_handler>:
10000eb0:	e92d 4ff0 	stmdb	sp!, {r4, r5, r6, r7, r8, r9, sl, fp, lr}
10000eb4:	ed2d 8b02 	vpush	{d8}
10000eb8:	b085      	sub	sp, #20
10000eba:	f3ef 8305 	mrs	r3, IPSR
10000ebe:	b2db      	uxtb	r3, r3
10000ec0:	3b10      	subs	r3, #16
10000ec2:	089a      	lsrs	r2, r3, #2
10000ec4:	bf18      	it	ne
10000ec6:	2201      	movne	r2, #1
10000ec8:	f04f 0101 	mov.w	r1, #1
10000ecc:	f003 0b03 	and.w	fp, r3, #3
10000ed0:	bf18      	it	ne
10000ed2:	4daf      	ldrne	r5, [pc, #700]	@ (10001190 <alarm_pool_irq_handler+0x2e0>)
10000ed4:	4baf      	ldr	r3, [pc, #700]	@ (10001194 <alarm_pool_irq_handler+0x2e4>)
10000ed6:	bf08      	it	eq
10000ed8:	4daf      	ldreq	r5, [pc, #700]	@ (10001198 <alarm_pool_irq_handler+0x2e8>)
10000eda:	eb0b 0282 	add.w	r2, fp, r2, lsl #2
10000ede:	f853 6022 	ldr.w	r6, [r3, r2, lsl #2]
10000ee2:	fa01 f20b 	lsl.w	r2, r1, fp
10000ee6:	f505 5341 	add.w	r3, r5, #12352	@ 0x3040
10000eea:	ed9f 8ba7 	vldr	d8, [pc, #668]	@ 10001188 <alarm_pool_irq_handler+0x2d8>
10000eee:	9201      	str	r2, [sp, #4]
10000ef0:	605a      	str	r2, [r3, #4]
10000ef2:	e02f      	b.n	10000f54 <alarm_pool_irq_handler+0xa4>
10000ef4:	88b3      	ldrh	r3, [r6, #4]
10000ef6:	041c      	lsls	r4, r3, #16
10000ef8:	f140 8093 	bpl.w	10001022 <alarm_pool_irq_handler+0x172>
10000efc:	79b3      	ldrb	r3, [r6, #6]
10000efe:	2b00      	cmp	r3, #0
10000f00:	f040 80dd 	bne.w	100010be <alarm_pool_irq_handler+0x20e>
10000f04:	f9b6 2008 	ldrsh.w	r2, [r6, #8]
10000f08:	2a00      	cmp	r2, #0
10000f0a:	f2c0 811e 	blt.w	1000114a <alarm_pool_irq_handler+0x29a>
10000f0e:	6973      	ldr	r3, [r6, #20]
10000f10:	eb02 0242 	add.w	r2, r2, r2, lsl #1
10000f14:	eb03 03c2 	add.w	r3, r3, r2, lsl #3
10000f18:	e9d3 4702 	ldrd	r4, r7, [r3, #8]
10000f1c:	f1b7 3fff 	cmp.w	r7, #4294967295
10000f20:	bf08      	it	eq
10000f22:	f1b4 3fff 	cmpeq.w	r4, #4294967295
10000f26:	d00e      	beq.n	10000f46 <alarm_pool_irq_handler+0x96>
10000f28:	eb05 018b 	add.w	r1, r5, fp, lsl #2
10000f2c:	6aab      	ldr	r3, [r5, #40]	@ 0x28
10000f2e:	690a      	ldr	r2, [r1, #16]
10000f30:	1ad2      	subs	r2, r2, r3
10000f32:	1ae3      	subs	r3, r4, r3
10000f34:	4293      	cmp	r3, r2
10000f36:	d305      	bcc.n	10000f44 <alarm_pool_irq_handler+0x94>
10000f38:	2301      	movs	r3, #1
10000f3a:	6a2a      	ldr	r2, [r5, #32]
10000f3c:	fa03 f30b 	lsl.w	r3, r3, fp
10000f40:	4213      	tst	r3, r2
10000f42:	d100      	bne.n	10000f46 <alarm_pool_irq_handler+0x96>
10000f44:	610c      	str	r4, [r1, #16]
10000f46:	4628      	mov	r0, r5
10000f48:	f000 fba4 	bl	10001694 <timer_time_us_64>
10000f4c:	42a0      	cmp	r0, r4
10000f4e:	41b9      	sbcs	r1, r7
10000f50:	f2c0 80fb 	blt.w	1000114a <alarm_pool_irq_handler+0x29a>
10000f54:	f9b6 3008 	ldrsh.w	r3, [r6, #8]
10000f58:	9a01      	ldr	r2, [sp, #4]
10000f5a:	2b00      	cmp	r3, #0
10000f5c:	9300      	str	r3, [sp, #0]
10000f5e:	63ea      	str	r2, [r5, #60]	@ 0x3c
10000f60:	dbc8      	blt.n	10000ef4 <alarm_pool_irq_handler+0x44>
10000f62:	f8d6 8014 	ldr.w	r8, [r6, #20]
10000f66:	eb03 0943 	add.w	r9, r3, r3, lsl #1
10000f6a:	4628      	mov	r0, r5
10000f6c:	eb08 07c9 	add.w	r7, r8, r9, lsl #3
10000f70:	e9d7 4a02 	ldrd	r4, sl, [r7, #8]
10000f74:	f000 fb8e 	bl	10001694 <timer_time_us_64>
10000f78:	42a0      	cmp	r0, r4
10000f7a:	eb71 010a 	sbcs.w	r1, r1, sl
10000f7e:	dbb9      	blt.n	10000ef4 <alarm_pool_irq_handler+0x44>
10000f80:	f1ba 0f00 	cmp.w	sl, #0
10000f84:	f2c0 80c3 	blt.w	1000110e <alarm_pool_irq_handler+0x25e>
10000f88:	e9d7 3104 	ldrd	r3, r1, [r7, #16]
10000f8c:	4a83      	ldr	r2, [pc, #524]	@ (1000119c <alarm_pool_irq_handler+0x2ec>)
10000f8e:	4293      	cmp	r3, r2
10000f90:	f000 80ed 	beq.w	1000116e <alarm_pool_irq_handler+0x2be>
10000f94:	887a      	ldrh	r2, [r7, #2]
10000f96:	f9b6 0008 	ldrsh.w	r0, [r6, #8]
10000f9a:	b292      	uxth	r2, r2
10000f9c:	ea42 4000 	orr.w	r0, r2, r0, lsl #16
10000fa0:	4798      	blx	r3
10000fa2:	4602      	mov	r2, r0
10000fa4:	460b      	mov	r3, r1
10000fa6:	ea52 0103 	orrs.w	r1, r2, r3
10000faa:	f000 80b0 	beq.w	1000110e <alarm_pool_irq_handler+0x25e>
10000fae:	2b00      	cmp	r3, #0
10000fb0:	f280 80d1 	bge.w	10001156 <alarm_pool_irq_handler+0x2a6>
10000fb4:	ebb4 0e02 	subs.w	lr, r4, r2
10000fb8:	eb6a 0a03 	sbc.w	sl, sl, r3
10000fbc:	f938 3039 	ldrsh.w	r3, [r8, r9, lsl #3]
10000fc0:	e9c7 ea02 	strd	lr, sl, [r7, #8]
10000fc4:	2b00      	cmp	r3, #0
10000fc6:	db95      	blt.n	10000ef4 <alarm_pool_irq_handler+0x44>
10000fc8:	6971      	ldr	r1, [r6, #20]
10000fca:	eb03 0243 	add.w	r2, r3, r3, lsl #1
10000fce:	eb01 02c2 	add.w	r2, r1, r2, lsl #3
10000fd2:	e9d2 7002 	ldrd	r7, r0, [r2, #8]
10000fd6:	45be      	cmp	lr, r7
10000fd8:	eb7a 0c00 	sbcs.w	ip, sl, r0
10000fdc:	ea4f 0243 	mov.w	r2, r3, lsl #1
10000fe0:	db88      	blt.n	10000ef4 <alarm_pool_irq_handler+0x44>
10000fe2:	46b4      	mov	ip, r6
10000fe4:	f82c 3f08 	strh.w	r3, [ip, #8]!
10000fe8:	e006      	b.n	10000ff8 <alarm_pool_irq_handler+0x148>
10000fea:	eb03 0043 	add.w	r0, r3, r3, lsl #1
10000fee:	eb01 00c0 	add.w	r0, r1, r0, lsl #3
10000ff2:	005a      	lsls	r2, r3, #1
10000ff4:	e9d0 7002 	ldrd	r7, r0, [r0, #8]
10000ff8:	45be      	cmp	lr, r7
10000ffa:	441a      	add	r2, r3
10000ffc:	eb7a 0000 	sbcs.w	r0, sl, r0
10001000:	eb01 04c2 	add.w	r4, r1, r2, lsl #3
10001004:	db04      	blt.n	10001010 <alarm_pool_irq_handler+0x160>
10001006:	f931 3032 	ldrsh.w	r3, [r1, r2, lsl #3]
1000100a:	46a4      	mov	ip, r4
1000100c:	2b00      	cmp	r3, #0
1000100e:	daec      	bge.n	10000fea <alarm_pool_irq_handler+0x13a>
10001010:	f828 3039 	strh.w	r3, [r8, r9, lsl #3]
10001014:	9b00      	ldr	r3, [sp, #0]
10001016:	f8ac 3000 	strh.w	r3, [ip]
1000101a:	88b3      	ldrh	r3, [r6, #4]
1000101c:	041c      	lsls	r4, r3, #16
1000101e:	f53f af6d 	bmi.w	10000efc <alarm_pool_irq_handler+0x4c>
10001022:	6933      	ldr	r3, [r6, #16]
10001024:	f3ef 8210 	mrs	r2, PRIMASK
10001028:	b672      	cpsid	i
1000102a:	e8d3 0fcf 	ldaexb	r0, [r3]
1000102e:	2101      	movs	r1, #1
10001030:	2800      	cmp	r0, #0
10001032:	d1fa      	bne.n	1000102a <alarm_pool_irq_handler+0x17a>
10001034:	e8c3 1f40 	strexb	r0, r1, [r3]
10001038:	2800      	cmp	r0, #0
1000103a:	d1f6      	bne.n	1000102a <alarm_pool_irq_handler+0x17a>
1000103c:	f3bf 8f5f 	dmb	sy
10001040:	f64f 74ff 	movw	r4, #65535	@ 0xffff
10001044:	88b0      	ldrh	r0, [r6, #4]
10001046:	2300      	movs	r3, #0
10001048:	6931      	ldr	r1, [r6, #16]
1000104a:	b200      	sxth	r0, r0
1000104c:	80b4      	strh	r4, [r6, #4]
1000104e:	e8c1 3f8f 	stlb	r3, [r1]
10001052:	f382 8810 	msr	PRIMASK, r2
10001056:	4298      	cmp	r0, r3
10001058:	f6ff af50 	blt.w	10000efc <alarm_pool_irq_handler+0x4c>
1000105c:	4607      	mov	r7, r0
1000105e:	46a9      	mov	r9, r5
10001060:	6974      	ldr	r4, [r6, #20]
10001062:	f106 0808 	add.w	r8, r6, #8
10001066:	eb07 0e47 	add.w	lr, r7, r7, lsl #1
1000106a:	eb04 03ce 	add.w	r3, r4, lr, lsl #3
1000106e:	e9d3 5002 	ldrd	r5, r0, [r3, #8]
10001072:	f9b6 3008 	ldrsh.w	r3, [r6, #8]
10001076:	46c4      	mov	ip, r8
10001078:	2b00      	cmp	r3, #0
1000107a:	db13      	blt.n	100010a4 <alarm_pool_irq_handler+0x1f4>
1000107c:	46b2      	mov	sl, r6
1000107e:	9700      	str	r7, [sp, #0]
10001080:	e004      	b.n	1000108c <alarm_pool_irq_handler+0x1dc>
10001082:	f934 3036 	ldrsh.w	r3, [r4, r6, lsl #3]
10001086:	4694      	mov	ip, r2
10001088:	2b00      	cmp	r3, #0
1000108a:	db09      	blt.n	100010a0 <alarm_pool_irq_handler+0x1f0>
1000108c:	eb03 0643 	add.w	r6, r3, r3, lsl #1
10001090:	eb04 02c6 	add.w	r2, r4, r6, lsl #3
10001094:	e9d2 7102 	ldrd	r7, r1, [r2, #8]
10001098:	42bd      	cmp	r5, r7
1000109a:	eb70 0101 	sbcs.w	r1, r0, r1
1000109e:	daf0      	bge.n	10001082 <alarm_pool_irq_handler+0x1d2>
100010a0:	4656      	mov	r6, sl
100010a2:	9f00      	ldr	r7, [sp, #0]
100010a4:	f8ac 7000 	strh.w	r7, [ip]
100010a8:	f934 703e 	ldrsh.w	r7, [r4, lr, lsl #3]
100010ac:	f824 303e 	strh.w	r3, [r4, lr, lsl #3]
100010b0:	2f00      	cmp	r7, #0
100010b2:	dad8      	bge.n	10001066 <alarm_pool_irq_handler+0x1b6>
100010b4:	79b3      	ldrb	r3, [r6, #6]
100010b6:	464d      	mov	r5, r9
100010b8:	2b00      	cmp	r3, #0
100010ba:	f43f af23 	beq.w	10000f04 <alarm_pool_irq_handler+0x54>
100010be:	2300      	movs	r3, #0
100010c0:	71b3      	strb	r3, [r6, #6]
100010c2:	f9b6 3008 	ldrsh.w	r3, [r6, #8]
100010c6:	f106 0808 	add.w	r8, r6, #8
100010ca:	1c58      	adds	r0, r3, #1
100010cc:	d03d      	beq.n	1000114a <alarm_pool_irq_handler+0x29a>
100010ce:	461a      	mov	r2, r3
100010d0:	6977      	ldr	r7, [r6, #20]
100010d2:	e003      	b.n	100010dc <alarm_pool_irq_handler+0x22c>
100010d4:	4680      	mov	r8, r0
100010d6:	1c59      	adds	r1, r3, #1
100010d8:	f43f af16 	beq.w	10000f08 <alarm_pool_irq_handler+0x58>
100010dc:	eb03 0143 	add.w	r1, r3, r3, lsl #1
100010e0:	eb07 00c1 	add.w	r0, r7, r1, lsl #3
100010e4:	f8b0 c002 	ldrh.w	ip, [r0, #2]
100010e8:	461c      	mov	r4, r3
100010ea:	f41c 4f00 	tst.w	ip, #32768	@ 0x8000
100010ee:	469e      	mov	lr, r3
100010f0:	f937 3031 	ldrsh.w	r3, [r7, r1, lsl #3]
100010f4:	d0ee      	beq.n	100010d4 <alarm_pool_irq_handler+0x224>
100010f6:	4294      	cmp	r4, r2
100010f8:	ed80 8b02 	vstr	d8, [r0, #8]
100010fc:	d005      	beq.n	1000110a <alarm_pool_irq_handler+0x25a>
100010fe:	f8a8 3000 	strh.w	r3, [r8]
10001102:	8932      	ldrh	r2, [r6, #8]
10001104:	f827 2031 	strh.w	r2, [r7, r1, lsl #3]
10001108:	8134      	strh	r4, [r6, #8]
1000110a:	4672      	mov	r2, lr
1000110c:	e7e3      	b.n	100010d6 <alarm_pool_irq_handler+0x226>
1000110e:	f838 3039 	ldrh.w	r3, [r8, r9, lsl #3]
10001112:	8133      	strh	r3, [r6, #8]
10001114:	6933      	ldr	r3, [r6, #16]
10001116:	f3ef 8210 	mrs	r2, PRIMASK
1000111a:	b672      	cpsid	i
1000111c:	e8d3 0fcf 	ldaexb	r0, [r3]
10001120:	2101      	movs	r1, #1
10001122:	2800      	cmp	r0, #0
10001124:	d1fa      	bne.n	1000111c <alarm_pool_irq_handler+0x26c>
10001126:	e8c3 1f40 	strexb	r0, r1, [r3]
1000112a:	2800      	cmp	r0, #0
1000112c:	d1f6      	bne.n	1000111c <alarm_pool_irq_handler+0x26c>
1000112e:	f3bf 8f5f 	dmb	sy
10001132:	8873      	ldrh	r3, [r6, #2]
10001134:	6931      	ldr	r1, [r6, #16]
10001136:	f828 3039 	strh.w	r3, [r8, r9, lsl #3]
1000113a:	9b00      	ldr	r3, [sp, #0]
1000113c:	8073      	strh	r3, [r6, #2]
1000113e:	2300      	movs	r3, #0
10001140:	e8c1 3f8f 	stlb	r3, [r1]
10001144:	f382 8810 	msr	PRIMASK, r2
10001148:	e6d4      	b.n	10000ef4 <alarm_pool_irq_handler+0x44>
1000114a:	bf40      	sev
1000114c:	b005      	add	sp, #20
1000114e:	ecbd 8b02 	vpop	{d8}
10001152:	e8bd 8ff0 	ldmia.w	sp!, {r4, r5, r6, r7, r8, r9, sl, fp, pc}
10001156:	4628      	mov	r0, r5
10001158:	e9cd 2302 	strd	r2, r3, [sp, #8]
1000115c:	f000 fa9a 	bl	10001694 <timer_time_us_64>
10001160:	9a02      	ldr	r2, [sp, #8]
10001162:	9b03      	ldr	r3, [sp, #12]
10001164:	eb10 0e02 	adds.w	lr, r0, r2
10001168:	eb43 0a01 	adc.w	sl, r3, r1
1000116c:	e726      	b.n	10000fbc <alarm_pool_irq_handler+0x10c>
1000116e:	4608      	mov	r0, r1
10001170:	690b      	ldr	r3, [r1, #16]
10001172:	9102      	str	r1, [sp, #8]
10001174:	4798      	blx	r3
10001176:	2800      	cmp	r0, #0
10001178:	d0c9      	beq.n	1000110e <alarm_pool_irq_handler+0x25e>
1000117a:	9902      	ldr	r1, [sp, #8]
1000117c:	e9d1 2300 	ldrd	r2, r3, [r1]
10001180:	e711      	b.n	10000fa6 <alarm_pool_irq_handler+0xf6>
10001182:	bf00      	nop
10001184:	f3af 8000 	nop.w
10001188:	ffffffff 	.word	0xffffffff
1000118c:	ffffffff 	.word	0xffffffff
10001190:	400b8000 	.word	0x400b8000
10001194:	20000844 	.word	0x20000844
10001198:	400b0000 	.word	0x400b0000
1000119c:	10000eb1 	.word	0x10000eb1

100011a0 <runtime_init_default_alarm_pool>:
100011a0:	e92d 4ff8 	stmdb	sp!, {r3, r4, r5, r6, r7, r8, r9, sl, fp, lr}
100011a4:	4c36      	ldr	r4, [pc, #216]	@ (10001280 <runtime_init_default_alarm_pool+0xe0>)
100011a6:	6925      	ldr	r5, [r4, #16]
100011a8:	b12d      	cbz	r5, 100011b6 <runtime_init_default_alarm_pool+0x16>
100011aa:	e8bd 4ff8 	ldmia.w	sp!, {r3, r4, r5, r6, r7, r8, r9, sl, fp, lr}
100011ae:	210a      	movs	r1, #10
100011b0:	4834      	ldr	r0, [pc, #208]	@ (10001284 <runtime_init_default_alarm_pool+0xe4>)
100011b2:	f7ff be31 	b.w	10000e18 <lock_init>
100011b6:	f8df 80e4 	ldr.w	r8, [pc, #228]	@ 1000129c <runtime_init_default_alarm_pool+0xfc>
100011ba:	2103      	movs	r1, #3
100011bc:	4640      	mov	r0, r8
100011be:	f000 fa57 	bl	10001670 <timer_hardware_alarm_claim>
100011c2:	2603      	movs	r6, #3
100011c4:	f8c4 800c 	str.w	r8, [r4, #12]
100011c8:	f7ff fc48 	bl	10000a5c <next_striped_spin_lock_num>
100011cc:	f04f 4c50 	mov.w	ip, #3489660928	@ 0xd0000000
100011d0:	4b2d      	ldr	r3, [pc, #180]	@ (10001288 <runtime_init_default_alarm_pool+0xe8>)
100011d2:	7026      	strb	r6, [r4, #0]
100011d4:	4403      	add	r3, r0
100011d6:	6123      	str	r3, [r4, #16]
100011d8:	f8dc 3000 	ldr.w	r3, [ip]
100011dc:	210f      	movs	r1, #15
100011de:	7063      	strb	r3, [r4, #1]
100011e0:	6963      	ldr	r3, [r4, #20]
100011e2:	8061      	strh	r1, [r4, #2]
100011e4:	831d      	strh	r5, [r3, #24]
100011e6:	f04f 0504 	mov.w	r5, #4
100011ea:	f8a3 5078 	strh.w	r5, [r3, #120]	@ 0x78
100011ee:	f04f 0505 	mov.w	r5, #5
100011f2:	f8a3 5090 	strh.w	r5, [r3, #144]	@ 0x90
100011f6:	f04f 0506 	mov.w	r5, #6
100011fa:	f8a3 50a8 	strh.w	r5, [r3, #168]	@ 0xa8
100011fe:	f04f 0507 	mov.w	r5, #7
10001202:	210e      	movs	r1, #14
10001204:	f64f 72ff 	movw	r2, #65535	@ 0xffff
10001208:	2708      	movs	r7, #8
1000120a:	f04f 0e0a 	mov.w	lr, #10
1000120e:	f8a3 50c0 	strh.w	r5, [r3, #192]	@ 0xc0
10001212:	f04f 0901 	mov.w	r9, #1
10001216:	f04f 0c0c 	mov.w	ip, #12
1000121a:	f04f 0b02 	mov.w	fp, #2
1000121e:	f04f 0a09 	mov.w	sl, #9
10001222:	200d      	movs	r0, #13
10001224:	f04f 050b 	mov.w	r5, #11
10001228:	f8a3 1168 	strh.w	r1, [r3, #360]	@ 0x168
1000122c:	4917      	ldr	r1, [pc, #92]	@ (1000128c <runtime_init_default_alarm_pool+0xec>)
1000122e:	80a2      	strh	r2, [r4, #4]
10001230:	f8a3 e108 	strh.w	lr, [r3, #264]	@ 0x108
10001234:	60a1      	str	r1, [r4, #8]
10001236:	f8a3 b048 	strh.w	fp, [r3, #72]	@ 0x48
1000123a:	f8a3 a0f0 	strh.w	sl, [r3, #240]	@ 0xf0
1000123e:	f8a3 5120 	strh.w	r5, [r3, #288]	@ 0x120
10001242:	f8a3 c138 	strh.w	ip, [r3, #312]	@ 0x138
10001246:	f8a3 0150 	strh.w	r0, [r3, #336]	@ 0x150
1000124a:	f8a3 9030 	strh.w	r9, [r3, #48]	@ 0x30
1000124e:	f8a3 6060 	strh.w	r6, [r3, #96]	@ 0x60
10001252:	f8a3 70d8 	strh.w	r7, [r3, #216]	@ 0xd8
10001256:	801a      	strh	r2, [r3, #0]
10001258:	4b0d      	ldr	r3, [pc, #52]	@ (10001290 <runtime_init_default_alarm_pool+0xf0>)
1000125a:	4630      	mov	r0, r6
1000125c:	f8c8 7020 	str.w	r7, [r8, #32]
10001260:	490c      	ldr	r1, [pc, #48]	@ (10001294 <runtime_init_default_alarm_pool+0xf4>)
10001262:	60dc      	str	r4, [r3, #12]
10001264:	f7ff fc50 	bl	10000b08 <irq_set_exclusive_handler>
10001268:	4649      	mov	r1, r9
1000126a:	4630      	mov	r0, r6
1000126c:	f7ff fc36 	bl	10000adc <irq_set_enabled>
10001270:	4b09      	ldr	r3, [pc, #36]	@ (10001298 <runtime_init_default_alarm_pool+0xf8>)
10001272:	210a      	movs	r1, #10
10001274:	641f      	str	r7, [r3, #64]	@ 0x40
10001276:	4803      	ldr	r0, [pc, #12]	@ (10001284 <runtime_init_default_alarm_pool+0xe4>)
10001278:	e8bd 4ff8 	ldmia.w	sp!, {r3, r4, r5, r6, r7, r8, r9, sl, fp, lr}
1000127c:	f7ff bdcc 	b.w	10000e18 <lock_init>
10001280:	200005fc 	.word	0x200005fc
10001284:	20000864 	.word	0x20000864
10001288:	200007c8 	.word	0x200007c8
1000128c:	0010ffff 	.word	0x0010ffff
10001290:	20000844 	.word	0x20000844
10001294:	10000eb1 	.word	0x10000eb1
10001298:	400b2000 	.word	0x400b2000
1000129c:	400b0000 	.word	0x400b0000

100012a0 <alarm_pool_add_alarm_at_force_in_context>:
100012a0:	4601      	mov	r1, r0
100012a2:	b5f0      	push	{r4, r5, r6, r7, lr}
100012a4:	6900      	ldr	r0, [r0, #16]
100012a6:	f3ef 8710 	mrs	r7, PRIMASK
100012aa:	b672      	cpsid	i
100012ac:	e8d0 5fcf 	ldaexb	r5, [r0]
100012b0:	2401      	movs	r4, #1
100012b2:	2d00      	cmp	r5, #0
100012b4:	d1fa      	bne.n	100012ac <alarm_pool_add_alarm_at_force_in_context+0xc>
100012b6:	e8c0 4f45 	strexb	r5, r4, [r0]
100012ba:	2d00      	cmp	r5, #0
100012bc:	d1f6      	bne.n	100012ac <alarm_pool_add_alarm_at_force_in_context+0xc>
100012be:	f3bf 8f5f 	dmb	sy
100012c2:	f9b1 e002 	ldrsh.w	lr, [r1, #2]
100012c6:	694c      	ldr	r4, [r1, #20]
100012c8:	eb0e 0c4e 	add.w	ip, lr, lr, lsl #1
100012cc:	f1be 0f00 	cmp.w	lr, #0
100012d0:	ea4f 05cc 	mov.w	r5, ip, lsl #3
100012d4:	6908      	ldr	r0, [r1, #16]
100012d6:	eb04 0ccc 	add.w	ip, r4, ip, lsl #3
100012da:	db3c      	blt.n	10001356 <alarm_pool_add_alarm_at_force_in_context+0xb6>
100012dc:	5b66      	ldrh	r6, [r4, r5]
100012de:	804e      	strh	r6, [r1, #2]
100012e0:	2600      	movs	r6, #0
100012e2:	e8c0 6f8f 	stlb	r6, [r0]
100012e6:	f387 8810 	msr	PRIMASK, r7
100012ea:	f8bc 0002 	ldrh.w	r0, [ip, #2]
100012ee:	e9cc 2302 	strd	r2, r3, [ip, #8]
100012f2:	3001      	adds	r0, #1
100012f4:	f3c0 000e 	ubfx	r0, r0, #0, #15
100012f8:	2801      	cmp	r0, #1
100012fa:	bf38      	it	cc
100012fc:	2001      	movcc	r0, #1
100012fe:	9b05      	ldr	r3, [sp, #20]
10001300:	f8ac 0002 	strh.w	r0, [ip, #2]
10001304:	f8cc 3010 	str.w	r3, [ip, #16]
10001308:	9b06      	ldr	r3, [sp, #24]
1000130a:	ea40 400e 	orr.w	r0, r0, lr, lsl #16
1000130e:	f8cc 3014 	str.w	r3, [ip, #20]
10001312:	690b      	ldr	r3, [r1, #16]
10001314:	f3ef 8210 	mrs	r2, PRIMASK
10001318:	b672      	cpsid	i
1000131a:	e8d3 cfcf 	ldaexb	ip, [r3]
1000131e:	2701      	movs	r7, #1
10001320:	f1bc 0f00 	cmp.w	ip, #0
10001324:	d1f9      	bne.n	1000131a <alarm_pool_add_alarm_at_force_in_context+0x7a>
10001326:	e8c3 7f4c 	strexb	ip, r7, [r3]
1000132a:	f1bc 0f00 	cmp.w	ip, #0
1000132e:	d1f4      	bne.n	1000131a <alarm_pool_add_alarm_at_force_in_context+0x7a>
10001330:	f3bf 8f5f 	dmb	sy
10001334:	888b      	ldrh	r3, [r1, #4]
10001336:	5363      	strh	r3, [r4, r5]
10001338:	f8a1 e004 	strh.w	lr, [r1, #4]
1000133c:	690b      	ldr	r3, [r1, #16]
1000133e:	e8c3 6f8f 	stlb	r6, [r3]
10001342:	f382 8810 	msr	PRIMASK, r2
10001346:	2201      	movs	r2, #1
10001348:	68cb      	ldr	r3, [r1, #12]
1000134a:	7809      	ldrb	r1, [r1, #0]
1000134c:	f503 5301 	add.w	r3, r3, #8256	@ 0x2040
10001350:	408a      	lsls	r2, r1
10001352:	605a      	str	r2, [r3, #4]
10001354:	bdf0      	pop	{r4, r5, r6, r7, pc}
10001356:	2300      	movs	r3, #0
10001358:	e8c0 3f8f 	stlb	r3, [r0]
1000135c:	f387 8810 	msr	PRIMASK, r7
10001360:	f04f 30ff 	mov.w	r0, #4294967295
10001364:	bdf0      	pop	{r4, r5, r6, r7, pc}
10001366:	bf00      	nop

10001368 <alarm_pool_cancel_alarm>:
10001368:	4603      	mov	r3, r0
1000136a:	8940      	ldrh	r0, [r0, #10]
1000136c:	ebb0 4f21 	cmp.w	r0, r1, asr #16
10001370:	dd37      	ble.n	100013e2 <alarm_pool_cancel_alarm+0x7a>
10001372:	6958      	ldr	r0, [r3, #20]
10001374:	140a      	asrs	r2, r1, #16
10001376:	eb02 0242 	add.w	r2, r2, r2, lsl #1
1000137a:	b510      	push	{r4, lr}
1000137c:	eb00 00c2 	add.w	r0, r0, r2, lsl #3
10001380:	691c      	ldr	r4, [r3, #16]
10001382:	f3ef 8c10 	mrs	ip, PRIMASK
10001386:	b672      	cpsid	i
10001388:	e8d4 efcf 	ldaexb	lr, [r4]
1000138c:	2201      	movs	r2, #1
1000138e:	f1be 0f00 	cmp.w	lr, #0
10001392:	d1f9      	bne.n	10001388 <alarm_pool_cancel_alarm+0x20>
10001394:	e8c4 2f4e 	strexb	lr, r2, [r4]
10001398:	f1be 0f00 	cmp.w	lr, #0
1000139c:	d1f4      	bne.n	10001388 <alarm_pool_cancel_alarm+0x20>
1000139e:	f3bf 8f5f 	dmb	sy
100013a2:	8842      	ldrh	r2, [r0, #2]
100013a4:	b289      	uxth	r1, r1
100013a6:	b292      	uxth	r2, r2
100013a8:	428a      	cmp	r2, r1
100013aa:	d007      	beq.n	100013bc <alarm_pool_cancel_alarm+0x54>
100013ac:	2200      	movs	r2, #0
100013ae:	691b      	ldr	r3, [r3, #16]
100013b0:	e8c3 2f8f 	stlb	r2, [r3]
100013b4:	f38c 8810 	msr	PRIMASK, ip
100013b8:	2000      	movs	r0, #0
100013ba:	bd10      	pop	{r4, pc}
100013bc:	f442 4200 	orr.w	r2, r2, #32768	@ 0x8000
100013c0:	8042      	strh	r2, [r0, #2]
100013c2:	2101      	movs	r1, #1
100013c4:	2200      	movs	r2, #0
100013c6:	6918      	ldr	r0, [r3, #16]
100013c8:	7199      	strb	r1, [r3, #6]
100013ca:	e8c0 2f8f 	stlb	r2, [r0]
100013ce:	f38c 8810 	msr	PRIMASK, ip
100013d2:	781c      	ldrb	r4, [r3, #0]
100013d4:	68da      	ldr	r2, [r3, #12]
100013d6:	4608      	mov	r0, r1
100013d8:	f502 5301 	add.w	r3, r2, #8256	@ 0x2040
100013dc:	40a1      	lsls	r1, r4
100013de:	6059      	str	r1, [r3, #4]
100013e0:	bd10      	pop	{r4, pc}
100013e2:	2000      	movs	r0, #0
100013e4:	4770      	bx	lr
100013e6:	bf00      	nop

100013e8 <sleep_us>:
100013e8:	e92d 41f0 	stmdb	sp!, {r4, r5, r6, r7, r8, lr}
100013ec:	b082      	sub	sp, #8
100013ee:	4604      	mov	r4, r0
100013f0:	460e      	mov	r6, r1
100013f2:	f000 f957 	bl	100016a4 <time_us_64>
100013f6:	f04f 32ff 	mov.w	r2, #4294967295
100013fa:	f06f 4300 	mvn.w	r3, #2147483648	@ 0x80000000
100013fe:	1824      	adds	r4, r4, r0
10001400:	eb46 0601 	adc.w	r6, r6, r1
10001404:	42a2      	cmp	r2, r4
10001406:	eb73 0106 	sbcs.w	r1, r3, r6
1000140a:	bf3c      	itt	cc
1000140c:	4614      	movcc	r4, r2
1000140e:	461e      	movcc	r6, r3
10001410:	1fa5      	subs	r5, r4, #6
10001412:	f146 37ff 	adc.w	r7, r6, #4294967295
10001416:	42ac      	cmp	r4, r5
10001418:	eb76 0307 	sbcs.w	r3, r6, r7
1000141c:	bf3c      	itt	cc
1000141e:	2500      	movcc	r5, #0
10001420:	462f      	movcc	r7, r5
10001422:	f000 f93f 	bl	100016a4 <time_us_64>
10001426:	1a28      	subs	r0, r5, r0
10001428:	eb67 0c01 	sbc.w	ip, r7, r1
1000142c:	2801      	cmp	r0, #1
1000142e:	f17c 0c00 	sbcs.w	ip, ip, #0
10001432:	da06      	bge.n	10001442 <sleep_us+0x5a>
10001434:	4620      	mov	r0, r4
10001436:	4631      	mov	r1, r6
10001438:	b002      	add	sp, #8
1000143a:	e8bd 41f0 	ldmia.w	sp!, {r4, r5, r6, r7, r8, lr}
1000143e:	f000 b969 	b.w	10001714 <busy_wait_until>
10001442:	f000 f92f 	bl	100016a4 <time_us_64>
10001446:	4285      	cmp	r5, r0
10001448:	eb67 0101 	sbc.w	r1, r7, r1
1000144c:	2900      	cmp	r1, #0
1000144e:	db0a      	blt.n	10001466 <sleep_us+0x7e>
10001450:	2100      	movs	r1, #0
10001452:	4b17      	ldr	r3, [pc, #92]	@ (100014b0 <sleep_us+0xc8>)
10001454:	462a      	mov	r2, r5
10001456:	9300      	str	r3, [sp, #0]
10001458:	4816      	ldr	r0, [pc, #88]	@ (100014b4 <sleep_us+0xcc>)
1000145a:	463b      	mov	r3, r7
1000145c:	9101      	str	r1, [sp, #4]
1000145e:	f7ff ff1f 	bl	100012a0 <alarm_pool_add_alarm_at_force_in_context>
10001462:	3001      	adds	r0, #1
10001464:	d0e6      	beq.n	10001434 <sleep_us+0x4c>
10001466:	f04f 0c00 	mov.w	ip, #0
1000146a:	4a13      	ldr	r2, [pc, #76]	@ (100014b8 <sleep_us+0xd0>)
1000146c:	4913      	ldr	r1, [pc, #76]	@ (100014bc <sleep_us+0xd4>)
1000146e:	6a53      	ldr	r3, [r2, #36]	@ 0x24
10001470:	429f      	cmp	r7, r3
10001472:	d804      	bhi.n	1000147e <sleep_us+0x96>
10001474:	6a90      	ldr	r0, [r2, #40]	@ 0x28
10001476:	42a8      	cmp	r0, r5
10001478:	d2dc      	bcs.n	10001434 <sleep_us+0x4c>
1000147a:	429f      	cmp	r7, r3
1000147c:	d1da      	bne.n	10001434 <sleep_us+0x4c>
1000147e:	680b      	ldr	r3, [r1, #0]
10001480:	f3ef 8010 	mrs	r0, PRIMASK
10001484:	b672      	cpsid	i
10001486:	e8d3 8fcf 	ldaexb	r8, [r3]
1000148a:	f05f 0e01 	movs.w	lr, #1
1000148e:	f1b8 0f00 	cmp.w	r8, #0
10001492:	d1f8      	bne.n	10001486 <sleep_us+0x9e>
10001494:	e8c3 ef48 	strexb	r8, lr, [r3]
10001498:	f1b8 0f00 	cmp.w	r8, #0
1000149c:	d1f3      	bne.n	10001486 <sleep_us+0x9e>
1000149e:	f3bf 8f5f 	dmb	sy
100014a2:	680b      	ldr	r3, [r1, #0]
100014a4:	e8c3 cf8f 	stlb	ip, [r3]
100014a8:	f380 8810 	msr	PRIMASK, r0
100014ac:	bf20      	wfe
100014ae:	e7de      	b.n	1000146e <sleep_us+0x86>
100014b0:	10000e71 	.word	0x10000e71
100014b4:	200005fc 	.word	0x200005fc
100014b8:	400b0000 	.word	0x400b0000
100014bc:	20000864 	.word	0x20000864

100014c0 <sleep_ms>:
100014c0:	e92d 41f0 	stmdb	sp!, {r4, r5, r6, r7, r8, lr}
100014c4:	b082      	sub	sp, #8
100014c6:	4606      	mov	r6, r0
100014c8:	f000 f8ec 	bl	100016a4 <time_us_64>
100014cc:	f44f 737a 	mov.w	r3, #1000	@ 0x3e8
100014d0:	4604      	mov	r4, r0
100014d2:	f04f 30ff 	mov.w	r0, #4294967295
100014d6:	f06f 4200 	mvn.w	r2, #2147483648	@ 0x80000000
100014da:	fbe6 4103 	umlal	r4, r1, r6, r3
100014de:	42a0      	cmp	r0, r4
100014e0:	eb72 0301 	sbcs.w	r3, r2, r1
100014e4:	bf3a      	itte	cc
100014e6:	4604      	movcc	r4, r0
100014e8:	4615      	movcc	r5, r2
100014ea:	460d      	movcs	r5, r1
100014ec:	1fa6      	subs	r6, r4, #6
100014ee:	f145 37ff 	adc.w	r7, r5, #4294967295
100014f2:	42b4      	cmp	r4, r6
100014f4:	eb75 0307 	sbcs.w	r3, r5, r7
100014f8:	bf3c      	itt	cc
100014fa:	2600      	movcc	r6, #0
100014fc:	4637      	movcc	r7, r6
100014fe:	f000 f8d1 	bl	100016a4 <time_us_64>
10001502:	1a30      	subs	r0, r6, r0
10001504:	eb67 0101 	sbc.w	r1, r7, r1
10001508:	2801      	cmp	r0, #1
1000150a:	f171 0100 	sbcs.w	r1, r1, #0
1000150e:	da06      	bge.n	1000151e <sleep_ms+0x5e>
10001510:	4620      	mov	r0, r4
10001512:	4629      	mov	r1, r5
10001514:	b002      	add	sp, #8
10001516:	e8bd 41f0 	ldmia.w	sp!, {r4, r5, r6, r7, r8, lr}
1000151a:	f000 b8fb 	b.w	10001714 <busy_wait_until>
1000151e:	f000 f8c1 	bl	100016a4 <time_us_64>
10001522:	4286      	cmp	r6, r0
10001524:	eb67 0101 	sbc.w	r1, r7, r1
10001528:	2900      	cmp	r1, #0
1000152a:	db0a      	blt.n	10001542 <sleep_ms+0x82>
1000152c:	2100      	movs	r1, #0
1000152e:	4b17      	ldr	r3, [pc, #92]	@ (1000158c <sleep_ms+0xcc>)
10001530:	4632      	mov	r2, r6
10001532:	9300      	str	r3, [sp, #0]
10001534:	4816      	ldr	r0, [pc, #88]	@ (10001590 <sleep_ms+0xd0>)
10001536:	463b      	mov	r3, r7
10001538:	9101      	str	r1, [sp, #4]
1000153a:	f7ff feb1 	bl	100012a0 <alarm_pool_add_alarm_at_force_in_context>
1000153e:	3001      	adds	r0, #1
10001540:	d0e6      	beq.n	10001510 <sleep_ms+0x50>
10001542:	f04f 0c00 	mov.w	ip, #0
10001546:	4a13      	ldr	r2, [pc, #76]	@ (10001594 <sleep_ms+0xd4>)
10001548:	4913      	ldr	r1, [pc, #76]	@ (10001598 <sleep_ms+0xd8>)
1000154a:	6a53      	ldr	r3, [r2, #36]	@ 0x24
1000154c:	429f      	cmp	r7, r3
1000154e:	d804      	bhi.n	1000155a <sleep_ms+0x9a>
10001550:	6a90      	ldr	r0, [r2, #40]	@ 0x28
10001552:	42b0      	cmp	r0, r6
10001554:	d2dc      	bcs.n	10001510 <sleep_ms+0x50>
10001556:	429f      	cmp	r7, r3
10001558:	d1da      	bne.n	10001510 <sleep_ms+0x50>
1000155a:	680b      	ldr	r3, [r1, #0]
1000155c:	f3ef 8010 	mrs	r0, PRIMASK
10001560:	b672      	cpsid	i
10001562:	e8d3 8fcf 	ldaexb	r8, [r3]
10001566:	f05f 0e01 	movs.w	lr, #1
1000156a:	f1b8 0f00 	cmp.w	r8, #0
1000156e:	d1f8      	bne.n	10001562 <sleep_ms+0xa2>
10001570:	e8c3 ef48 	strexb	r8, lr, [r3]
10001574:	f1b8 0f00 	cmp.w	r8, #0
10001578:	d1f3      	bne.n	10001562 <sleep_ms+0xa2>
1000157a:	f3bf 8f5f 	dmb	sy
1000157e:	680b      	ldr	r3, [r1, #0]
10001580:	e8c3 cf8f 	stlb	ip, [r3]
10001584:	f380 8810 	msr	PRIMASK, r0
10001588:	bf20      	wfe
1000158a:	e7de      	b.n	1000154a <sleep_ms+0x8a>
1000158c:	10000e71 	.word	0x10000e71
10001590:	200005fc 	.word	0x200005fc
10001594:	400b0000 	.word	0x400b0000
10001598:	20000864 	.word	0x20000864

1000159c <best_effort_wfe_or_timeout>:
1000159c:	e92d 43f0 	stmdb	sp!, {r4, r5, r6, r7, r8, r9, lr}
100015a0:	4606      	mov	r6, r0
100015a2:	460d      	mov	r5, r1
100015a4:	b083      	sub	sp, #12
100015a6:	f3ef 8405 	mrs	r4, IPSR
100015aa:	b2e4      	uxtb	r4, r4
100015ac:	b13c      	cbz	r4, 100015be <best_effort_wfe_or_timeout+0x22>
100015ae:	4b2d      	ldr	r3, [pc, #180]	@ (10001664 <best_effort_wfe_or_timeout+0xc8>)
100015b0:	6a5a      	ldr	r2, [r3, #36]	@ 0x24
100015b2:	42aa      	cmp	r2, r5
100015b4:	d21c      	bcs.n	100015f0 <best_effort_wfe_or_timeout+0x54>
100015b6:	2000      	movs	r0, #0
100015b8:	b003      	add	sp, #12
100015ba:	e8bd 83f0 	ldmia.w	sp!, {r4, r5, r6, r7, r8, r9, pc}
100015be:	4f2a      	ldr	r7, [pc, #168]	@ (10001668 <best_effort_wfe_or_timeout+0xcc>)
100015c0:	f8d7 900c 	ldr.w	r9, [r7, #12]
100015c4:	f897 8000 	ldrb.w	r8, [r7]
100015c8:	4648      	mov	r0, r9
100015ca:	f000 f863 	bl	10001694 <timer_time_us_64>
100015ce:	f108 0804 	add.w	r8, r8, #4
100015d2:	f859 3028 	ldr.w	r3, [r9, r8, lsl #2]
100015d6:	1a1b      	subs	r3, r3, r0
100015d8:	1a30      	subs	r0, r6, r0
100015da:	eb65 0101 	sbc.w	r1, r5, r1
100015de:	4298      	cmp	r0, r3
100015e0:	f171 0100 	sbcs.w	r1, r1, #0
100015e4:	db10      	blt.n	10001608 <best_effort_wfe_or_timeout+0x6c>
100015e6:	bf20      	wfe
100015e8:	4b1e      	ldr	r3, [pc, #120]	@ (10001664 <best_effort_wfe_or_timeout+0xc8>)
100015ea:	6a5a      	ldr	r2, [r3, #36]	@ 0x24
100015ec:	42aa      	cmp	r2, r5
100015ee:	d3e2      	bcc.n	100015b6 <best_effort_wfe_or_timeout+0x1a>
100015f0:	bf14      	ite	ne
100015f2:	2401      	movne	r4, #1
100015f4:	2400      	moveq	r4, #0
100015f6:	6a9b      	ldr	r3, [r3, #40]	@ 0x28
100015f8:	42b3      	cmp	r3, r6
100015fa:	bf34      	ite	cc
100015fc:	4620      	movcc	r0, r4
100015fe:	f044 0001 	orrcs.w	r0, r4, #1
10001602:	b003      	add	sp, #12
10001604:	e8bd 83f0 	ldmia.w	sp!, {r4, r5, r6, r7, r8, r9, pc}
10001608:	f000 f84c 	bl	100016a4 <time_us_64>
1000160c:	4286      	cmp	r6, r0
1000160e:	eb65 0101 	sbc.w	r1, r5, r1
10001612:	2900      	cmp	r1, #0
10001614:	db14      	blt.n	10001640 <best_effort_wfe_or_timeout+0xa4>
10001616:	4b15      	ldr	r3, [pc, #84]	@ (1000166c <best_effort_wfe_or_timeout+0xd0>)
10001618:	4638      	mov	r0, r7
1000161a:	e9cd 3400 	strd	r3, r4, [sp]
1000161e:	4632      	mov	r2, r6
10001620:	462b      	mov	r3, r5
10001622:	f7ff fe3d 	bl	100012a0 <alarm_pool_add_alarm_at_force_in_context>
10001626:	1e01      	subs	r1, r0, #0
10001628:	dd0a      	ble.n	10001640 <best_effort_wfe_or_timeout+0xa4>
1000162a:	4b0e      	ldr	r3, [pc, #56]	@ (10001664 <best_effort_wfe_or_timeout+0xc8>)
1000162c:	6a5a      	ldr	r2, [r3, #36]	@ 0x24
1000162e:	42aa      	cmp	r2, r5
10001630:	d316      	bcc.n	10001660 <best_effort_wfe_or_timeout+0xc4>
10001632:	6a9b      	ldr	r3, [r3, #40]	@ 0x28
10001634:	42b3      	cmp	r3, r6
10001636:	d311      	bcc.n	1000165c <best_effort_wfe_or_timeout+0xc0>
10001638:	480b      	ldr	r0, [pc, #44]	@ (10001668 <best_effort_wfe_or_timeout+0xcc>)
1000163a:	f7ff fe95 	bl	10001368 <alarm_pool_cancel_alarm>
1000163e:	e7b6      	b.n	100015ae <best_effort_wfe_or_timeout+0x12>
10001640:	4b08      	ldr	r3, [pc, #32]	@ (10001664 <best_effort_wfe_or_timeout+0xc8>)
10001642:	6a5c      	ldr	r4, [r3, #36]	@ 0x24
10001644:	42ac      	cmp	r4, r5
10001646:	d3b6      	bcc.n	100015b6 <best_effort_wfe_or_timeout+0x1a>
10001648:	1b64      	subs	r4, r4, r5
1000164a:	bf18      	it	ne
1000164c:	2401      	movne	r4, #1
1000164e:	6a9b      	ldr	r3, [r3, #40]	@ 0x28
10001650:	42b3      	cmp	r3, r6
10001652:	bf34      	ite	cc
10001654:	4620      	movcc	r0, r4
10001656:	f044 0001 	orrcs.w	r0, r4, #1
1000165a:	e7ad      	b.n	100015b8 <best_effort_wfe_or_timeout+0x1c>
1000165c:	42aa      	cmp	r2, r5
1000165e:	d1eb      	bne.n	10001638 <best_effort_wfe_or_timeout+0x9c>
10001660:	bf20      	wfe
10001662:	e7e9      	b.n	10001638 <best_effort_wfe_or_timeout+0x9c>
10001664:	400b0000 	.word	0x400b0000
10001668:	200005fc 	.word	0x200005fc
1000166c:	10000e71 	.word	0x10000e71

10001670 <timer_hardware_alarm_claim>:
10001670:	b410      	push	{r4}
10001672:	4b05      	ldr	r3, [pc, #20]	@ (10001688 <timer_hardware_alarm_claim+0x18>)
10001674:	4c05      	ldr	r4, [pc, #20]	@ (1000168c <timer_hardware_alarm_claim+0x1c>)
10001676:	4a06      	ldr	r2, [pc, #24]	@ (10001690 <timer_hardware_alarm_claim+0x20>)
10001678:	42a0      	cmp	r0, r4
1000167a:	bf14      	ite	ne
1000167c:	4618      	movne	r0, r3
1000167e:	1c58      	addeq	r0, r3, #1
10001680:	f85d 4b04 	ldr.w	r4, [sp], #4
10001684:	f7ff b9be 	b.w	10000a04 <hw_claim_or_assert>
10001688:	200007f0 	.word	0x200007f0
1000168c:	400b8000 	.word	0x400b8000
10001690:	10004004 	.word	0x10004004

10001694 <timer_time_us_64>:
10001694:	4603      	mov	r3, r0
10001696:	6a41      	ldr	r1, [r0, #36]	@ 0x24
10001698:	460a      	mov	r2, r1
1000169a:	6a98      	ldr	r0, [r3, #40]	@ 0x28
1000169c:	6a59      	ldr	r1, [r3, #36]	@ 0x24
1000169e:	428a      	cmp	r2, r1
100016a0:	d1fa      	bne.n	10001698 <timer_time_us_64+0x4>
100016a2:	4770      	bx	lr

100016a4 <time_us_64>:
100016a4:	4b03      	ldr	r3, [pc, #12]	@ (100016b4 <time_us_64+0x10>)
100016a6:	6a59      	ldr	r1, [r3, #36]	@ 0x24
100016a8:	460a      	mov	r2, r1
100016aa:	6a98      	ldr	r0, [r3, #40]	@ 0x28
100016ac:	6a59      	ldr	r1, [r3, #36]	@ 0x24
100016ae:	4291      	cmp	r1, r2
100016b0:	d1fa      	bne.n	100016a8 <time_us_64+0x4>
100016b2:	4770      	bx	lr
100016b4:	400b0000 	.word	0x400b0000

100016b8 <busy_wait_us>:
100016b8:	b430      	push	{r4, r5}
100016ba:	4a15      	ldr	r2, [pc, #84]	@ (10001710 <busy_wait_us+0x58>)
100016bc:	6a53      	ldr	r3, [r2, #36]	@ 0x24
100016be:	469c      	mov	ip, r3
100016c0:	6a94      	ldr	r4, [r2, #40]	@ 0x28
100016c2:	6a53      	ldr	r3, [r2, #36]	@ 0x24
100016c4:	4563      	cmp	r3, ip
100016c6:	d1fa      	bne.n	100016be <busy_wait_us+0x6>
100016c8:	1902      	adds	r2, r0, r4
100016ca:	4159      	adcs	r1, r3
100016cc:	f04f 0500 	mov.w	r5, #0
100016d0:	bf28      	it	cs
100016d2:	2501      	movcs	r5, #1
100016d4:	4b0e      	ldr	r3, [pc, #56]	@ (10001710 <busy_wait_us+0x58>)
100016d6:	6a5b      	ldr	r3, [r3, #36]	@ 0x24
100016d8:	b1b5      	cbz	r5, 10001708 <busy_wait_us+0x50>
100016da:	1c5a      	adds	r2, r3, #1
100016dc:	bf08      	it	eq
100016de:	461a      	moveq	r2, r3
100016e0:	d008      	beq.n	100016f4 <busy_wait_us+0x3c>
100016e2:	f04f 31ff 	mov.w	r1, #4294967295
100016e6:	460a      	mov	r2, r1
100016e8:	4809      	ldr	r0, [pc, #36]	@ (10001710 <busy_wait_us+0x58>)
100016ea:	6a43      	ldr	r3, [r0, #36]	@ 0x24
100016ec:	428b      	cmp	r3, r1
100016ee:	d3fc      	bcc.n	100016ea <busy_wait_us+0x32>
100016f0:	428b      	cmp	r3, r1
100016f2:	d107      	bne.n	10001704 <busy_wait_us+0x4c>
100016f4:	4906      	ldr	r1, [pc, #24]	@ (10001710 <busy_wait_us+0x58>)
100016f6:	e002      	b.n	100016fe <busy_wait_us+0x46>
100016f8:	6a48      	ldr	r0, [r1, #36]	@ 0x24
100016fa:	4298      	cmp	r0, r3
100016fc:	d102      	bne.n	10001704 <busy_wait_us+0x4c>
100016fe:	6a88      	ldr	r0, [r1, #40]	@ 0x28
10001700:	4290      	cmp	r0, r2
10001702:	d3f9      	bcc.n	100016f8 <busy_wait_us+0x40>
10001704:	bc30      	pop	{r4, r5}
10001706:	4770      	bx	lr
10001708:	4299      	cmp	r1, r3
1000170a:	d8ed      	bhi.n	100016e8 <busy_wait_us+0x30>
1000170c:	e7f0      	b.n	100016f0 <busy_wait_us+0x38>
1000170e:	bf00      	nop
10001710:	400b0000 	.word	0x400b0000

10001714 <busy_wait_until>:
10001714:	4a07      	ldr	r2, [pc, #28]	@ (10001734 <busy_wait_until+0x20>)
10001716:	6a53      	ldr	r3, [r2, #36]	@ 0x24
10001718:	4299      	cmp	r1, r3
1000171a:	d8fc      	bhi.n	10001716 <busy_wait_until+0x2>
1000171c:	4299      	cmp	r1, r3
1000171e:	d107      	bne.n	10001730 <busy_wait_until+0x1c>
10001720:	4b04      	ldr	r3, [pc, #16]	@ (10001734 <busy_wait_until+0x20>)
10001722:	e002      	b.n	1000172a <busy_wait_until+0x16>
10001724:	6a5a      	ldr	r2, [r3, #36]	@ 0x24
10001726:	4291      	cmp	r1, r2
10001728:	d102      	bne.n	10001730 <busy_wait_until+0x1c>
1000172a:	6a9a      	ldr	r2, [r3, #40]	@ 0x28
1000172c:	4290      	cmp	r0, r2
1000172e:	d8f9      	bhi.n	10001724 <busy_wait_until+0x10>
10001730:	4770      	bx	lr
10001732:	bf00      	nop
10001734:	400b0000 	.word	0x400b0000

10001738 <uart_init>:
10001738:	b5f8      	push	{r3, r4, r5, r6, r7, lr}
1000173a:	4605      	mov	r5, r0
1000173c:	2006      	movs	r0, #6
1000173e:	460e      	mov	r6, r1
10001740:	f000 f8e4 	bl	1000190c <clock_get_hz>
10001744:	2800      	cmp	r0, #0
10001746:	d042      	beq.n	100017ce <uart_init+0x96>
10001748:	4a35      	ldr	r2, [pc, #212]	@ (10001820 <uart_init+0xe8>)
1000174a:	4836      	ldr	r0, [pc, #216]	@ (10001824 <uart_init+0xec>)
1000174c:	4295      	cmp	r5, r2
1000174e:	bf14      	ite	ne
10001750:	f04f 6280 	movne.w	r2, #67108864	@ 0x4000000
10001754:	f04f 6200 	moveq.w	r2, #134217728	@ 0x8000000
10001758:	4b33      	ldr	r3, [pc, #204]	@ (10001828 <uart_init+0xf0>)
1000175a:	4934      	ldr	r1, [pc, #208]	@ (1000182c <uart_init+0xf4>)
1000175c:	6002      	str	r2, [r0, #0]
1000175e:	601a      	str	r2, [r3, #0]
10001760:	688c      	ldr	r4, [r1, #8]
10001762:	ea32 0404 	bics.w	r4, r2, r4
10001766:	d1fb      	bne.n	10001760 <uart_init+0x28>
10001768:	4b2d      	ldr	r3, [pc, #180]	@ (10001820 <uart_init+0xe8>)
1000176a:	f44f 7180 	mov.w	r1, #256	@ 0x100
1000176e:	1aeb      	subs	r3, r5, r3
10001770:	fab3 f383 	clz	r3, r3
10001774:	4a2e      	ldr	r2, [pc, #184]	@ (10001830 <uart_init+0xf8>)
10001776:	095b      	lsrs	r3, r3, #5
10001778:	2006      	movs	r0, #6
1000177a:	f822 1013 	strh.w	r1, [r2, r3, lsl #1]
1000177e:	f000 f8c5 	bl	1000190c <clock_get_hz>
10001782:	00c3      	lsls	r3, r0, #3
10001784:	fbb3 f3f6 	udiv	r3, r3, r6
10001788:	3301      	adds	r3, #1
1000178a:	09da      	lsrs	r2, r3, #7
1000178c:	d120      	bne.n	100017d0 <uart_init+0x98>
1000178e:	2640      	movs	r6, #64	@ 0x40
10001790:	2101      	movs	r1, #1
10001792:	6269      	str	r1, [r5, #36]	@ 0x24
10001794:	62aa      	str	r2, [r5, #40]	@ 0x28
10001796:	6b2f      	ldr	r7, [r5, #48]	@ 0x30
10001798:	07fb      	lsls	r3, r7, #31
1000179a:	d422      	bmi.n	100017e2 <uart_init+0xaa>
1000179c:	462b      	mov	r3, r5
1000179e:	2200      	movs	r2, #0
100017a0:	f853 1f2c 	ldr.w	r1, [r3, #44]!
100017a4:	2006      	movs	r0, #6
100017a6:	f503 5480 	add.w	r4, r3, #4096	@ 0x1000
100017aa:	6022      	str	r2, [r4, #0]
100017ac:	632f      	str	r7, [r5, #48]	@ 0x30
100017ae:	f000 f8ad 	bl	1000190c <clock_get_hz>
100017b2:	f240 3101 	movw	r1, #769	@ 0x301
100017b6:	2203      	movs	r2, #3
100017b8:	0080      	lsls	r0, r0, #2
100017ba:	fbb0 f0f6 	udiv	r0, r0, r6
100017be:	6aeb      	ldr	r3, [r5, #44]	@ 0x2c
100017c0:	f083 0370 	eor.w	r3, r3, #112	@ 0x70
100017c4:	f003 037e 	and.w	r3, r3, #126	@ 0x7e
100017c8:	6023      	str	r3, [r4, #0]
100017ca:	6329      	str	r1, [r5, #48]	@ 0x30
100017cc:	64aa      	str	r2, [r5, #72]	@ 0x48
100017ce:	bdf8      	pop	{r3, r4, r5, r6, r7, pc}
100017d0:	f64f 71fe 	movw	r1, #65534	@ 0xfffe
100017d4:	428a      	cmp	r2, r1
100017d6:	d91b      	bls.n	10001810 <uart_init+0xd8>
100017d8:	4622      	mov	r2, r4
100017da:	f64f 71ff 	movw	r1, #65535	@ 0xffff
100017de:	4e15      	ldr	r6, [pc, #84]	@ (10001834 <uart_init+0xfc>)
100017e0:	e7d7      	b.n	10001792 <uart_init+0x5a>
100017e2:	f240 3201 	movw	r2, #769	@ 0x301
100017e6:	f505 5340 	add.w	r3, r5, #12288	@ 0x3000
100017ea:	631a      	str	r2, [r3, #48]	@ 0x30
100017ec:	6a6b      	ldr	r3, [r5, #36]	@ 0x24
100017ee:	6aac      	ldr	r4, [r5, #40]	@ 0x28
100017f0:	2006      	movs	r0, #6
100017f2:	eb04 1483 	add.w	r4, r4, r3, lsl #6
100017f6:	f000 f889 	bl	1000190c <clock_get_hz>
100017fa:	4b0f      	ldr	r3, [pc, #60]	@ (10001838 <uart_init+0x100>)
100017fc:	02a4      	lsls	r4, r4, #10
100017fe:	fba3 2300 	umull	r2, r3, r3, r0
10001802:	0adb      	lsrs	r3, r3, #11
10001804:	2100      	movs	r1, #0
10001806:	fbb4 f0f3 	udiv	r0, r4, r3
1000180a:	f7ff ff55 	bl	100016b8 <busy_wait_us>
1000180e:	e7c5      	b.n	1000179c <uart_init+0x64>
10001810:	f3c3 0345 	ubfx	r3, r3, #1, #6
10001814:	4611      	mov	r1, r2
10001816:	eb03 1682 	add.w	r6, r3, r2, lsl #6
1000181a:	461a      	mov	r2, r3
1000181c:	e7b9      	b.n	10001792 <uart_init+0x5a>
1000181e:	bf00      	nop
10001820:	40078000 	.word	0x40078000
10001824:	40022000 	.word	0x40022000
10001828:	40023000 	.word	0x40023000
1000182c:	40020000 	.word	0x40020000
10001830:	20000868 	.word	0x20000868
10001834:	003fffc0 	.word	0x003fffc0
10001838:	8f2b7b75 	.word	0x8f2b7b75

1000183c <clock_configure_undivided>:
1000183c:	eb00 0c40 	add.w	ip, r0, r0, lsl #1
10001840:	ea4f 0c8c 	mov.w	ip, ip, lsl #2
10001844:	f10c 4c80 	add.w	ip, ip, #1073741824	@ 0x40000000
10001848:	f50c 3c80 	add.w	ip, ip, #65536	@ 0x10000
1000184c:	b5f0      	push	{r4, r5, r6, r7, lr}
1000184e:	4616      	mov	r6, r2
10001850:	f8dc 2004 	ldr.w	r2, [ip, #4]
10001854:	1f05      	subs	r5, r0, #4
10001856:	f5b2 3f80 	cmp.w	r2, #65536	@ 0x10000
1000185a:	bf38      	it	cc
1000185c:	f44f 3280 	movcc.w	r2, #65536	@ 0x10000
10001860:	b2ed      	uxtb	r5, r5
10001862:	bf38      	it	cc
10001864:	f8cc 2004 	strcc.w	r2, [ip, #4]
10001868:	2d01      	cmp	r5, #1
1000186a:	d92a      	bls.n	100018c2 <clock_configure_undivided+0x86>
1000186c:	f44f 6700 	mov.w	r7, #2048	@ 0x800
10001870:	4c25      	ldr	r4, [pc, #148]	@ (10001908 <clock_configure_undivided+0xcc>)
10001872:	f50c 5240 	add.w	r2, ip, #12288	@ 0x3000
10001876:	6017      	str	r7, [r2, #0]
10001878:	f854 2020 	ldr.w	r2, [r4, r0, lsl #2]
1000187c:	b9b2      	cbnz	r2, 100018ac <clock_configure_undivided+0x70>
1000187e:	f8dc 2000 	ldr.w	r2, [ip]
10001882:	2d01      	cmp	r5, #1
10001884:	ea82 1246 	eor.w	r2, r2, r6, lsl #5
10001888:	f002 02e0 	and.w	r2, r2, #224	@ 0xe0
1000188c:	f50c 5680 	add.w	r6, ip, #4096	@ 0x1000
10001890:	6032      	str	r2, [r6, #0]
10001892:	d92a      	bls.n	100018ea <clock_configure_undivided+0xae>
10001894:	f44f 6100 	mov.w	r1, #2048	@ 0x800
10001898:	f844 3020 	str.w	r3, [r4, r0, lsl #2]
1000189c:	f44f 3380 	mov.w	r3, #65536	@ 0x10000
100018a0:	f50c 5200 	add.w	r2, ip, #8192	@ 0x2000
100018a4:	6011      	str	r1, [r2, #0]
100018a6:	f8cc 3004 	str.w	r3, [ip, #4]
100018aa:	bdf0      	pop	{r4, r5, r6, r7, pc}
100018ac:	6967      	ldr	r7, [r4, #20]
100018ae:	fbb7 fef2 	udiv	lr, r7, r2
100018b2:	f10e 0e01 	add.w	lr, lr, #1
100018b6:	eb0e 0e4e 	add.w	lr, lr, lr, lsl #1
100018ba:	f1be 0e03 	subs.w	lr, lr, #3
100018be:	d2fc      	bcs.n	100018ba <clock_configure_undivided+0x7e>
100018c0:	e7dd      	b.n	1000187e <clock_configure_undivided+0x42>
100018c2:	2901      	cmp	r1, #1
100018c4:	d1d2      	bne.n	1000186c <clock_configure_undivided+0x30>
100018c6:	2403      	movs	r4, #3
100018c8:	f50c 5240 	add.w	r2, ip, #12288	@ 0x3000
100018cc:	6014      	str	r4, [r2, #0]
100018ce:	f8dc 2008 	ldr.w	r2, [ip, #8]
100018d2:	07d2      	lsls	r2, r2, #31
100018d4:	d5fb      	bpl.n	100018ce <clock_configure_undivided+0x92>
100018d6:	f8dc 2000 	ldr.w	r2, [ip]
100018da:	4c0b      	ldr	r4, [pc, #44]	@ (10001908 <clock_configure_undivided+0xcc>)
100018dc:	ea82 1246 	eor.w	r2, r2, r6, lsl #5
100018e0:	f002 02e0 	and.w	r2, r2, #224	@ 0xe0
100018e4:	f50c 5680 	add.w	r6, ip, #4096	@ 0x1000
100018e8:	6032      	str	r2, [r6, #0]
100018ea:	2201      	movs	r2, #1
100018ec:	f8dc 5000 	ldr.w	r5, [ip]
100018f0:	404d      	eors	r5, r1
100018f2:	f005 0503 	and.w	r5, r5, #3
100018f6:	6035      	str	r5, [r6, #0]
100018f8:	fa02 f101 	lsl.w	r1, r2, r1
100018fc:	f8dc 2008 	ldr.w	r2, [ip, #8]
10001900:	420a      	tst	r2, r1
10001902:	d0fb      	beq.n	100018fc <clock_configure_undivided+0xc0>
10001904:	e7c6      	b.n	10001894 <clock_configure_undivided+0x58>
10001906:	bf00      	nop
10001908:	200007f4 	.word	0x200007f4

1000190c <clock_get_hz>:
1000190c:	4b01      	ldr	r3, [pc, #4]	@ (10001914 <clock_get_hz+0x8>)
1000190e:	f853 0020 	ldr.w	r0, [r3, r0, lsl #2]
10001912:	4770      	bx	lr
10001914:	200007f4 	.word	0x200007f4

10001918 <pll_init>:
10001918:	b470      	push	{r4, r5, r6}
1000191a:	9d03      	ldr	r5, [sp, #12]
1000191c:	6804      	ldr	r4, [r0, #0]
1000191e:	032d      	lsls	r5, r5, #12
10001920:	ea45 4503 	orr.w	r5, r5, r3, lsl #16
10001924:	4b1b      	ldr	r3, [pc, #108]	@ (10001994 <pll_init+0x7c>)
10001926:	2c00      	cmp	r4, #0
10001928:	fbb3 f3f1 	udiv	r3, r3, r1
1000192c:	fbb2 f6f3 	udiv	r6, r2, r3
10001930:	db1f      	blt.n	10001972 <pll_init+0x5a>
10001932:	4a19      	ldr	r2, [pc, #100]	@ (10001998 <pll_init+0x80>)
10001934:	4b19      	ldr	r3, [pc, #100]	@ (1000199c <pll_init+0x84>)
10001936:	4290      	cmp	r0, r2
10001938:	bf14      	ite	ne
1000193a:	f44f 4280 	movne.w	r2, #16384	@ 0x4000
1000193e:	f44f 4200 	moveq.w	r2, #32768	@ 0x8000
10001942:	4c17      	ldr	r4, [pc, #92]	@ (100019a0 <pll_init+0x88>)
10001944:	601a      	str	r2, [r3, #0]
10001946:	f503 5380 	add.w	r3, r3, #4096	@ 0x1000
1000194a:	601a      	str	r2, [r3, #0]
1000194c:	68a3      	ldr	r3, [r4, #8]
1000194e:	ea32 0303 	bics.w	r3, r2, r3
10001952:	d1fb      	bne.n	1000194c <pll_init+0x34>
10001954:	2221      	movs	r2, #33	@ 0x21
10001956:	f500 5340 	add.w	r3, r0, #12288	@ 0x3000
1000195a:	3304      	adds	r3, #4
1000195c:	6001      	str	r1, [r0, #0]
1000195e:	6086      	str	r6, [r0, #8]
10001960:	601a      	str	r2, [r3, #0]
10001962:	6802      	ldr	r2, [r0, #0]
10001964:	2a00      	cmp	r2, #0
10001966:	dafc      	bge.n	10001962 <pll_init+0x4a>
10001968:	2208      	movs	r2, #8
1000196a:	60c5      	str	r5, [r0, #12]
1000196c:	601a      	str	r2, [r3, #0]
1000196e:	bc70      	pop	{r4, r5, r6}
10001970:	4770      	bx	lr
10001972:	6803      	ldr	r3, [r0, #0]
10001974:	f003 033f 	and.w	r3, r3, #63	@ 0x3f
10001978:	428b      	cmp	r3, r1
1000197a:	d1da      	bne.n	10001932 <pll_init+0x1a>
1000197c:	6883      	ldr	r3, [r0, #8]
1000197e:	f3c3 030b 	ubfx	r3, r3, #0, #12
10001982:	42b3      	cmp	r3, r6
10001984:	d1d5      	bne.n	10001932 <pll_init+0x1a>
10001986:	68c3      	ldr	r3, [r0, #12]
10001988:	f403 23ee 	and.w	r3, r3, #487424	@ 0x77000
1000198c:	42ab      	cmp	r3, r5
1000198e:	d1d0      	bne.n	10001932 <pll_init+0x1a>
10001990:	e7ed      	b.n	1000196e <pll_init+0x56>
10001992:	bf00      	nop
10001994:	00b71b00 	.word	0x00b71b00
10001998:	40058000 	.word	0x40058000
1000199c:	40022000 	.word	0x40022000
100019a0:	40020000 	.word	0x40020000

100019a4 <tick_start>:
100019a4:	2301      	movs	r3, #1
100019a6:	eb00 0040 	add.w	r0, r0, r0, lsl #1
100019aa:	0080      	lsls	r0, r0, #2
100019ac:	f100 4080 	add.w	r0, r0, #1073741824	@ 0x40000000
100019b0:	f500 1084 	add.w	r0, r0, #1081344	@ 0x108000
100019b4:	6041      	str	r1, [r0, #4]
100019b6:	6003      	str	r3, [r0, #0]
100019b8:	4770      	bx	lr
100019ba:	bf00      	nop

100019bc <rom_func_lookup>:
100019bc:	2300      	movs	r3, #0
100019be:	8adb      	ldrh	r3, [r3, #22]
100019c0:	2200      	movs	r2, #0
100019c2:	e842 f200 	tt	r2, r2
100019c6:	0252      	lsls	r2, r2, #9
100019c8:	d401      	bmi.n	100019ce <rom_func_lookup+0x12>
100019ca:	2110      	movs	r1, #16
100019cc:	4718      	bx	r3
100019ce:	2104      	movs	r1, #4
100019d0:	4718      	bx	r3
100019d2:	bf00      	nop

100019d4 <runtime_init_bootrom_locking_enable>:
100019d4:	4a03      	ldr	r2, [pc, #12]	@ (100019e4 <runtime_init_bootrom_locking_enable+0x10>)
100019d6:	f8d2 3828 	ldr.w	r3, [r2, #2088]	@ 0x828
100019da:	2b00      	cmp	r3, #0
100019dc:	d0fb      	beq.n	100019d6 <runtime_init_bootrom_locking_enable+0x2>
100019de:	f3bf 8f5f 	dmb	sy
100019e2:	4770      	bx	lr
100019e4:	400e0000 	.word	0x400e0000

100019e8 <runtime_init_boot_locks_reset>:
100019e8:	2100      	movs	r1, #0
100019ea:	4b04      	ldr	r3, [pc, #16]	@ (100019fc <runtime_init_boot_locks_reset+0x14>)
100019ec:	4a04      	ldr	r2, [pc, #16]	@ (10001a00 <runtime_init_boot_locks_reset+0x18>)
100019ee:	f3bf 8f5f 	dmb	sy
100019f2:	f843 1b04 	str.w	r1, [r3], #4
100019f6:	4293      	cmp	r3, r2
100019f8:	d1f9      	bne.n	100019ee <runtime_init_boot_locks_reset+0x6>
100019fa:	4770      	bx	lr
100019fc:	400e080c 	.word	0x400e080c
10001a00:	400e082c 	.word	0x400e082c

10001a04 <xosc_init>:
10001a04:	b410      	push	{r4}
10001a06:	f44f 708d 	mov.w	r0, #282	@ 0x11a
10001a0a:	f44f 642a 	mov.w	r4, #2720	@ 0xaa0
10001a0e:	4a06      	ldr	r2, [pc, #24]	@ (10001a28 <xosc_init+0x24>)
10001a10:	4b06      	ldr	r3, [pc, #24]	@ (10001a2c <xosc_init+0x28>)
10001a12:	4907      	ldr	r1, [pc, #28]	@ (10001a30 <xosc_init+0x2c>)
10001a14:	6014      	str	r4, [r2, #0]
10001a16:	60d0      	str	r0, [r2, #12]
10001a18:	6019      	str	r1, [r3, #0]
10001a1a:	6853      	ldr	r3, [r2, #4]
10001a1c:	2b00      	cmp	r3, #0
10001a1e:	dafc      	bge.n	10001a1a <xosc_init+0x16>
10001a20:	f85d 4b04 	ldr.w	r4, [sp], #4
10001a24:	4770      	bx	lr
10001a26:	bf00      	nop
10001a28:	40048000 	.word	0x40048000
10001a2c:	4004a000 	.word	0x4004a000
10001a30:	00fab000 	.word	0x00fab000

10001a34 <first_per_core_initializer>:
10001a34:	4770      	bx	lr
10001a36:	bf00      	nop

10001a38 <hard_assertion_failure>:
10001a38:	b508      	push	{r3, lr}
10001a3a:	4801      	ldr	r0, [pc, #4]	@ (10001a40 <hard_assertion_failure+0x8>)
10001a3c:	f7fe ffca 	bl	100009d4 <panic>
10001a40:	10004028 	.word	0x10004028

10001a44 <runtime_run_initializers>:
10001a44:	b538      	push	{r3, r4, r5, lr}
10001a46:	4c05      	ldr	r4, [pc, #20]	@ (10001a5c <runtime_run_initializers+0x18>)
10001a48:	4d05      	ldr	r5, [pc, #20]	@ (10001a60 <runtime_run_initializers+0x1c>)
10001a4a:	42ac      	cmp	r4, r5
10001a4c:	d204      	bcs.n	10001a58 <runtime_run_initializers+0x14>
10001a4e:	f854 3b04 	ldr.w	r3, [r4], #4
10001a52:	4798      	blx	r3
10001a54:	42ac      	cmp	r4, r5
10001a56:	d3fa      	bcc.n	10001a4e <runtime_run_initializers+0xa>
10001a58:	bd38      	pop	{r3, r4, r5, pc}
10001a5a:	bf00      	nop
10001a5c:	10003f50 	.word	0x10003f50
10001a60:	10003f90 	.word	0x10003f90

10001a64 <runtime_init_early_resets>:
10001a64:	b410      	push	{r4}
10001a66:	4807      	ldr	r0, [pc, #28]	@ (10001a84 <runtime_init_early_resets+0x20>)
10001a68:	4c07      	ldr	r4, [pc, #28]	@ (10001a88 <runtime_init_early_resets+0x24>)
10001a6a:	4b08      	ldr	r3, [pc, #32]	@ (10001a8c <runtime_init_early_resets+0x28>)
10001a6c:	4a08      	ldr	r2, [pc, #32]	@ (10001a90 <runtime_init_early_resets+0x2c>)
10001a6e:	4909      	ldr	r1, [pc, #36]	@ (10001a94 <runtime_init_early_resets+0x30>)
10001a70:	6004      	str	r4, [r0, #0]
10001a72:	601a      	str	r2, [r3, #0]
10001a74:	688b      	ldr	r3, [r1, #8]
10001a76:	ea32 0303 	bics.w	r3, r2, r3
10001a7a:	d1fb      	bne.n	10001a74 <runtime_init_early_resets+0x10>
10001a7c:	f85d 4b04 	ldr.w	r4, [sp], #4
10001a80:	4770      	bx	lr
10001a82:	bf00      	nop
10001a84:	40022000 	.word	0x40022000
10001a88:	efef3b7f 	.word	0xefef3b7f
10001a8c:	40023000 	.word	0x40023000
10001a90:	03f3fff6 	.word	0x03f3fff6
10001a94:	40020000 	.word	0x40020000

10001a98 <runtime_init_usb_power_down>:
10001a98:	4b04      	ldr	r3, [pc, #16]	@ (10001aac <runtime_init_usb_power_down+0x14>)
10001a9a:	6cdb      	ldr	r3, [r3, #76]	@ 0x4c
10001a9c:	f5b3 4f00 	cmp.w	r3, #32768	@ 0x8000
10001aa0:	d103      	bne.n	10001aaa <runtime_init_usb_power_down+0x12>
10001aa2:	f44f 2280 	mov.w	r2, #262144	@ 0x40000
10001aa6:	4b02      	ldr	r3, [pc, #8]	@ (10001ab0 <runtime_init_usb_power_down+0x18>)
10001aa8:	64da      	str	r2, [r3, #76]	@ 0x4c
10001aaa:	4770      	bx	lr
10001aac:	50110000 	.word	0x50110000
10001ab0:	50112000 	.word	0x50112000

10001ab4 <runtime_init_per_core_enable_coprocessors>:
10001ab4:	f04f 22e0 	mov.w	r2, #3758153728	@ 0xe000e000
10001ab8:	4b04      	ldr	r3, [pc, #16]	@ (10001acc <runtime_init_per_core_enable_coprocessors+0x18>)
10001aba:	f8d2 1d88 	ldr.w	r1, [r2, #3464]	@ 0xd88
10001abe:	430b      	orrs	r3, r1
10001ac0:	f8c2 3d88 	str.w	r3, [r2, #3464]	@ 0xd88
10001ac4:	ee10 0430 			dcp_rcmp r0
10001ac8:	4770      	bx	lr
10001aca:	bf00      	nop
10001acc:	00300303 	.word	0x00300303

10001ad0 <runtime_init_post_clock_resets>:
10001ad0:	f06f 4160 	mvn.w	r1, #3758096384	@ 0xe0000000
10001ad4:	4b04      	ldr	r3, [pc, #16]	@ (10001ae8 <runtime_init_post_clock_resets+0x18>)
10001ad6:	4a05      	ldr	r2, [pc, #20]	@ (10001aec <runtime_init_post_clock_resets+0x1c>)
10001ad8:	6019      	str	r1, [r3, #0]
10001ada:	6893      	ldr	r3, [r2, #8]
10001adc:	43db      	mvns	r3, r3
10001ade:	f033 4360 	bics.w	r3, r3, #3758096384	@ 0xe0000000
10001ae2:	d1fa      	bne.n	10001ada <runtime_init_post_clock_resets+0xa>
10001ae4:	4770      	bx	lr
10001ae6:	bf00      	nop
10001ae8:	40023000 	.word	0x40023000
10001aec:	40020000 	.word	0x40020000

10001af0 <runtime_init_bootrom_reset>:
10001af0:	b510      	push	{r4, lr}
10001af2:	f245 2053 	movw	r0, #21075	@ 0x5253
10001af6:	f7ff ff61 	bl	100019bc <rom_func_lookup>
10001afa:	e8bd 4010 	ldmia.w	sp!, {r4, lr}
10001afe:	4603      	mov	r3, r0
10001b00:	2004      	movs	r0, #4
10001b02:	4718      	bx	r3

10001b04 <runtime_init_per_core_bootrom_reset>:
10001b04:	b510      	push	{r4, lr}
10001b06:	f245 2053 	movw	r0, #21075	@ 0x5253
10001b0a:	f7ff ff57 	bl	100019bc <rom_func_lookup>
10001b0e:	e8bd 4010 	ldmia.w	sp!, {r4, lr}
10001b12:	4603      	mov	r3, r0
10001b14:	2001      	movs	r0, #1
10001b16:	4718      	bx	r3

10001b18 <runtime_init_spin_locks_reset>:
10001b18:	f7fe bfb4 	b.w	10000a84 <spin_locks_reset>

10001b1c <runtime_init_install_ram_vector_table>:
10001b1c:	4914      	ldr	r1, [pc, #80]	@ (10001b70 <runtime_init_install_ram_vector_table+0x54>)
10001b1e:	4b15      	ldr	r3, [pc, #84]	@ (10001b74 <runtime_init_install_ram_vector_table+0x58>)
10001b20:	b570      	push	{r4, r5, r6, lr}
10001b22:	1a5c      	subs	r4, r3, r1
10001b24:	10a6      	asrs	r6, r4, #2
10001b26:	2e44      	cmp	r6, #68	@ 0x44
10001b28:	4632      	mov	r2, r6
10001b2a:	bf28      	it	cs
10001b2c:	2244      	movcs	r2, #68	@ 0x44
10001b2e:	4d12      	ldr	r5, [pc, #72]	@ (10001b78 <runtime_init_install_ram_vector_table+0x5c>)
10001b30:	0092      	lsls	r2, r2, #2
10001b32:	4628      	mov	r0, r5
10001b34:	f002 f95a 	bl	10003dec <memcpy>
10001b38:	f5b4 7f86 	cmp.w	r4, #268	@ 0x10c
10001b3c:	d813      	bhi.n	10001b66 <runtime_init_install_ram_vector_table+0x4a>
10001b3e:	4a0f      	ldr	r2, [pc, #60]	@ (10001b7c <runtime_init_install_ram_vector_table+0x60>)
10001b40:	f1c6 0044 	rsb	r0, r6, #68	@ 0x44
10001b44:	d012      	beq.n	10001b6c <runtime_init_install_ram_vector_table+0x50>
10001b46:	192b      	adds	r3, r5, r4
10001b48:	0841      	lsrs	r1, r0, #1
10001b4a:	eb03 01c1 	add.w	r1, r3, r1, lsl #3
10001b4e:	e9c3 2200 	strd	r2, r2, [r3]
10001b52:	3308      	adds	r3, #8
10001b54:	428b      	cmp	r3, r1
10001b56:	d1fa      	bne.n	10001b4e <runtime_init_install_ram_vector_table+0x32>
10001b58:	07c3      	lsls	r3, r0, #31
10001b5a:	d504      	bpl.n	10001b66 <runtime_init_install_ram_vector_table+0x4a>
10001b5c:	f020 0001 	bic.w	r0, r0, #1
10001b60:	4430      	add	r0, r6
10001b62:	f845 2020 	str.w	r2, [r5, r0, lsl #2]
10001b66:	4b06      	ldr	r3, [pc, #24]	@ (10001b80 <runtime_init_install_ram_vector_table+0x64>)
10001b68:	609d      	str	r5, [r3, #8]
10001b6a:	bd70      	pop	{r4, r5, r6, pc}
10001b6c:	2043      	movs	r0, #67	@ 0x43
10001b6e:	e7f8      	b.n	10001b62 <runtime_init_install_ram_vector_table+0x46>
10001b70:	10000000 	.word	0x10000000
10001b74:	10000110 	.word	0x10000110
10001b78:	20000000 	.word	0x20000000
10001b7c:	10000111 	.word	0x10000111
10001b80:	e000ed00 	.word	0xe000ed00

10001b84 <runtime_init_clocks>:
10001b84:	2300      	movs	r3, #0
10001b86:	b570      	push	{r4, r5, r6, lr}
10001b88:	4c2b      	ldr	r4, [pc, #172]	@ (10001c38 <runtime_init_clocks+0xb4>)
10001b8a:	b082      	sub	sp, #8
10001b8c:	f8c4 3084 	str.w	r3, [r4, #132]	@ 0x84
10001b90:	f7ff ff38 	bl	10001a04 <xosc_init>
10001b94:	2201      	movs	r2, #1
10001b96:	4b29      	ldr	r3, [pc, #164]	@ (10001c3c <runtime_init_clocks+0xb8>)
10001b98:	63da      	str	r2, [r3, #60]	@ 0x3c
10001b9a:	6c63      	ldr	r3, [r4, #68]	@ 0x44
10001b9c:	2b01      	cmp	r3, #1
10001b9e:	d1fc      	bne.n	10001b9a <runtime_init_clocks+0x16>
10001ba0:	2103      	movs	r1, #3
10001ba2:	4a26      	ldr	r2, [pc, #152]	@ (10001c3c <runtime_init_clocks+0xb8>)
10001ba4:	4b24      	ldr	r3, [pc, #144]	@ (10001c38 <runtime_init_clocks+0xb4>)
10001ba6:	6311      	str	r1, [r2, #48]	@ 0x30
10001ba8:	6b9c      	ldr	r4, [r3, #56]	@ 0x38
10001baa:	2c01      	cmp	r4, #1
10001bac:	d1fc      	bne.n	10001ba8 <runtime_init_clocks+0x24>
10001bae:	2602      	movs	r6, #2
10001bb0:	2505      	movs	r5, #5
10001bb2:	4621      	mov	r1, r4
10001bb4:	2305      	movs	r3, #5
10001bb6:	4a22      	ldr	r2, [pc, #136]	@ (10001c40 <runtime_init_clocks+0xbc>)
10001bb8:	4822      	ldr	r0, [pc, #136]	@ (10001c44 <runtime_init_clocks+0xc0>)
10001bba:	9600      	str	r6, [sp, #0]
10001bbc:	f7ff feac 	bl	10001918 <pll_init>
10001bc0:	4621      	mov	r1, r4
10001bc2:	462b      	mov	r3, r5
10001bc4:	4a20      	ldr	r2, [pc, #128]	@ (10001c48 <runtime_init_clocks+0xc4>)
10001bc6:	4821      	ldr	r0, [pc, #132]	@ (10001c4c <runtime_init_clocks+0xc8>)
10001bc8:	9500      	str	r5, [sp, #0]
10001bca:	f7ff fea5 	bl	10001918 <pll_init>
10001bce:	2200      	movs	r2, #0
10001bd0:	2004      	movs	r0, #4
10001bd2:	4631      	mov	r1, r6
10001bd4:	4b1e      	ldr	r3, [pc, #120]	@ (10001c50 <runtime_init_clocks+0xcc>)
10001bd6:	f7ff fe31 	bl	1000183c <clock_configure_undivided>
10001bda:	4621      	mov	r1, r4
10001bdc:	4628      	mov	r0, r5
10001bde:	2200      	movs	r2, #0
10001be0:	4b1c      	ldr	r3, [pc, #112]	@ (10001c54 <runtime_init_clocks+0xd0>)
10001be2:	f7ff fe2b 	bl	1000183c <clock_configure_undivided>
10001be6:	2200      	movs	r2, #0
10001be8:	2008      	movs	r0, #8
10001bea:	4611      	mov	r1, r2
10001bec:	4b1a      	ldr	r3, [pc, #104]	@ (10001c58 <runtime_init_clocks+0xd4>)
10001bee:	f7ff fe25 	bl	1000183c <clock_configure_undivided>
10001bf2:	2200      	movs	r2, #0
10001bf4:	2009      	movs	r0, #9
10001bf6:	4611      	mov	r1, r2
10001bf8:	4b17      	ldr	r3, [pc, #92]	@ (10001c58 <runtime_init_clocks+0xd4>)
10001bfa:	f7ff fe1f 	bl	1000183c <clock_configure_undivided>
10001bfe:	2200      	movs	r2, #0
10001c00:	2006      	movs	r0, #6
10001c02:	4611      	mov	r1, r2
10001c04:	4b13      	ldr	r3, [pc, #76]	@ (10001c54 <runtime_init_clocks+0xd0>)
10001c06:	f7ff fe19 	bl	1000183c <clock_configure_undivided>
10001c0a:	2200      	movs	r2, #0
10001c0c:	4b11      	ldr	r3, [pc, #68]	@ (10001c54 <runtime_init_clocks+0xd0>)
10001c0e:	2007      	movs	r0, #7
10001c10:	4611      	mov	r1, r2
10001c12:	f7ff fe13 	bl	1000183c <clock_configure_undivided>
10001c16:	2004      	movs	r0, #4
10001c18:	f7ff fe78 	bl	1000190c <clock_get_hz>
10001c1c:	2400      	movs	r4, #0
10001c1e:	4b0f      	ldr	r3, [pc, #60]	@ (10001c5c <runtime_init_clocks+0xd8>)
10001c20:	fba3 3500 	umull	r3, r5, r3, r0
10001c24:	0cad      	lsrs	r5, r5, #18
10001c26:	b2e0      	uxtb	r0, r4
10001c28:	4629      	mov	r1, r5
10001c2a:	3401      	adds	r4, #1
10001c2c:	f7ff feba 	bl	100019a4 <tick_start>
10001c30:	2c06      	cmp	r4, #6
10001c32:	d1f8      	bne.n	10001c26 <runtime_init_clocks+0xa2>
10001c34:	b002      	add	sp, #8
10001c36:	bd70      	pop	{r4, r5, r6, pc}
10001c38:	40010000 	.word	0x40010000
10001c3c:	40013000 	.word	0x40013000
10001c40:	59682f00 	.word	0x59682f00
10001c44:	40050000 	.word	0x40050000
10001c48:	47868c00 	.word	0x47868c00
10001c4c:	40058000 	.word	0x40058000
10001c50:	00b71b00 	.word	0x00b71b00
10001c54:	08f0d180 	.word	0x08f0d180
10001c58:	02dc6c00 	.word	0x02dc6c00
10001c5c:	431bde83 	.word	0x431bde83

10001c60 <generic_save_state>:
10001c60:	b086      	sub	sp, #24
10001c62:	b403      	push	{r0, r1}
10001c64:	fc51 0408 	dcp_pxmd r0, r1
10001c68:	e9cd 0102 	strd	r0, r1, [sp, #8]
10001c6c:	fc51 0409 	dcp_pymd r0, r1
10001c70:	e9cd 0104 	strd	r0, r1, [sp, #16]
10001c74:	ec51 040a 	dcp_refd r0, r1
10001c78:	e9cd 0106 	strd	r0, r1, [sp, #24]
10001c7c:	bc03      	pop	{r0, r1}
10001c7e:	47f0      	blx	lr

10001c80 <generic_restore_state>:
10001c80:	e8bd 5000 	ldmia.w	sp!, {ip, lr}
10001c84:	ec4e c400 	dcp_wxmd ip, lr
10001c88:	e8bd 5000 	ldmia.w	sp!, {ip, lr}
10001c8c:	ec4e c401 	dcp_wymd ip, lr
10001c90:	e8bd 5000 	ldmia.w	sp!, {ip, lr}
10001c94:	ec4e c402 	dcp_wefd ip, lr
10001c98:	bd00      	pop	{pc}
10001c9a:	0000      	movs	r0, r0
10001c9c:	b500      	push	{lr}
10001c9e:	f7ff ffdf 	bl	10001c60 <generic_save_state>
10001ca2:	e002      	b.n	10001caa <__wrap___aeabi_dadd+0x6>

10001ca4 <__wrap___aeabi_dadd>:
10001ca4:	fe10 f430 	dcp_pcmp APSR_nzcv
10001ca8:	d4f8      	bmi.n	10001c9c <generic_restore_state+0x1c>
10001caa:	ec41 0410 	dcp_wxup r0, r1
10001cae:	ec43 2411 	dcp_wyup r2, r3
10001cb2:	ee00 0401 			dcp_add0
10001cb6:	ee10 0401 			dcp_add1
10001cba:	ee80 0420 			dcp_nrdd
10001cbe:	ec51 0410 	dcp_rdda r0, r1
10001cc2:	4770      	bx	lr
10001cc4:	b500      	push	{lr}
10001cc6:	f7ff ffcb 	bl	10001c60 <generic_save_state>
10001cca:	e002      	b.n	10001cd2 <__wrap___aeabi_dsub+0x6>

10001ccc <__wrap___aeabi_dsub>:
10001ccc:	fe10 f430 	dcp_pcmp APSR_nzcv
10001cd0:	d4f8      	bmi.n	10001cc4 <__wrap___aeabi_dadd+0x20>
10001cd2:	ec41 0410 	dcp_wxup r0, r1
10001cd6:	ec43 2411 	dcp_wyup r2, r3
10001cda:	ee00 0401 			dcp_add0
10001cde:	ee10 0421 			dcp_sub1
10001ce2:	ee80 0420 			dcp_nrdd
10001ce6:	ec51 0430 	dcp_rdds r0, r1
10001cea:	4770      	bx	lr
10001cec:	b500      	push	{lr}
10001cee:	f7ff ffb7 	bl	10001c60 <generic_save_state>
10001cf2:	e002      	b.n	10001cfa <__wrap___aeabi_dmul+0x6>

10001cf4 <__wrap___aeabi_dmul>:
10001cf4:	fe10 f430 	dcp_pcmp APSR_nzcv
10001cf8:	d4f8      	bmi.n	10001cec <__wrap___aeabi_dsub+0x20>
10001cfa:	b510      	push	{r4, lr}
10001cfc:	ec41 0410 	dcp_wxup r0, r1
10001d00:	ec43 2411 	dcp_wyup r2, r3
10001d04:	ec51 0404 	dcp_rxms r0, r1, #0x0
10001d08:	ec53 2405 	dcp_ryms r2, r3, #0x0
10001d0c:	fba0 4c02 	umull	r4, ip, r0, r2
10001d10:	f05f 0e00 	movs.w	lr, #0
10001d14:	fbe0 ce03 	umlal	ip, lr, r0, r3
10001d18:	fbe1 ce02 	umlal	ip, lr, r1, r2
10001d1c:	ec4c 4420 	dcp_wxms r4, ip
10001d20:	2400      	movs	r4, #0
10001d22:	fbe1 e403 	umlal	lr, r4, r1, r3
10001d26:	ec44 e430 	dcp_wxmo lr, r4
10001d2a:	ee80 0420 			dcp_nrdd
10001d2e:	ec51 0450 	dcp_rddm r0, r1
10001d32:	e8bd 4010 	ldmia.w	sp!, {r4, lr}
10001d36:	4770      	bx	lr
10001d38:	b500      	push	{lr}
10001d3a:	f7ff ff91 	bl	10001c60 <generic_save_state>
10001d3e:	e002      	b.n	10001d46 <__wrap___aeabi_ddiv+0x6>

10001d40 <__wrap___aeabi_ddiv>:
10001d40:	fe10 f430 	dcp_pcmp APSR_nzcv
10001d44:	d4f8      	bmi.n	10001d38 <__wrap___aeabi_dmul+0x44>
10001d46:	ec41 0410 	dcp_wxup r0, r1
10001d4a:	ec43 2411 	dcp_wyup r2, r3
10001d4e:	ec51 0421 	dcp_rymr r0, r1
10001d52:	fba0 1201 	umull	r1, r2, r0, r1
10001d56:	ea6f 0282 	mvn.w	r2, r2, lsl #2
10001d5a:	fb52 0010 	smmlar	r0, r2, r0, r0
10001d5e:	fb52 f212 	smmulr	r2, r2, r2
10001d62:	fb52 0010 	smmlar	r0, r2, r0, r0
10001d66:	eba0 7cd0 	sub.w	ip, r0, r0, lsr #31
10001d6a:	ec53 2404 	dcp_rxms r2, r3, #0x0
10001d6e:	fb5c f113 	smmulr	r1, ip, r3
10001d72:	ec53 2415 	dcp_ryms r2, r3, #0x1
10001d76:	fba1 2002 	umull	r2, r0, r1, r2
10001d7a:	fb01 0003 	mla	r0, r1, r3, r0
10001d7e:	ec53 2444 	dcp_rxms r2, r3, #0x4
10001d82:	eba2 0000 	sub.w	r0, r2, r0
10001d86:	fb50 f21c 	smmulr	r2, r0, ip
10001d8a:	ea4f 1311 	mov.w	r3, r1, lsr #4
10001d8e:	eb12 7001 	adds.w	r0, r2, r1, lsl #28
10001d92:	eb43 71e2 	adc.w	r1, r3, r2, asr #31
10001d96:	ea40 5051 	orr.w	r0, r0, r1, lsr #21
10001d9a:	ea20 5091 	bic.w	r0, r0, r1, lsr #22
10001d9e:	f020 0007 	bic.w	r0, r0, #7
10001da2:	ec53 2475 	dcp_ryms r2, r3, #0x7
10001da6:	fba0 3c02 	umull	r3, ip, r0, r2
10001daa:	ec53 2475 	dcp_ryms r2, r3, #0x7
10001dae:	fb00 cc03 	mla	ip, r0, r3, ip
10001db2:	fb01 cc02 	mla	ip, r1, r2, ip
10001db6:	ec53 2404 	dcp_rxms r2, r3, #0x0
10001dba:	ebac 4c82 	sub.w	ip, ip, r2, lsl #18
10001dbe:	ea40 705c 	orr.w	r0, r0, ip, lsr #29
10001dc2:	f1a0 0001 	sub.w	r0, r0, #1
10001dc6:	ec41 0440 	dcp_wxdd r0, r1
10001dca:	ee80 0420 			dcp_nrdd
10001dce:	ec51 0470 	dcp_rddd r0, r1
10001dd2:	4770      	bx	lr
10001dd4:	b500      	push	{lr}
10001dd6:	f7ff ff43 	bl	10001c60 <generic_save_state>
10001dda:	e002      	b.n	10001de2 <__wrap___aeabi_i2d+0x6>

10001ddc <__wrap___aeabi_i2d>:
10001ddc:	fe10 f430 	dcp_pcmp APSR_nzcv
10001de0:	d4f8      	bmi.n	10001dd4 <__wrap___aeabi_ddiv+0x94>
10001de2:	ec40 0470 	dcp_wxic r0, r0
10001de6:	ee00 0401 			dcp_add0
10001dea:	ee10 0421 			dcp_sub1
10001dee:	ee80 0420 			dcp_nrdd
10001df2:	ec51 0430 	dcp_rdds r0, r1
10001df6:	4770      	bx	lr
10001df8:	b500      	push	{lr}
10001dfa:	f7ff ff31 	bl	10001c60 <generic_save_state>
10001dfe:	e002      	b.n	10001e06 <__wrap___aeabi_ui2d+0x6>

10001e00 <__wrap___aeabi_ui2d>:
10001e00:	fe10 f430 	dcp_pcmp APSR_nzcv
10001e04:	d4f8      	bmi.n	10001df8 <__wrap___aeabi_i2d+0x1c>
10001e06:	ec40 0460 	dcp_wxuc r0, r0
10001e0a:	ee00 0401 			dcp_add0
10001e0e:	ee10 0421 			dcp_sub1
10001e12:	ee80 0420 			dcp_nrdd
10001e16:	ec51 0430 	dcp_rdds r0, r1
10001e1a:	4770      	bx	lr
10001e1c:	b500      	push	{lr}
10001e1e:	f7ff ff1f 	bl	10001c60 <generic_save_state>
10001e22:	e002      	b.n	10001e2a <double2int_z_entry>

10001e24 <__wrap___aeabi_d2iz>:
10001e24:	fe10 f430 	dcp_pcmp APSR_nzcv
10001e28:	d4f8      	bmi.n	10001e1c <__wrap___aeabi_ui2d+0x1c>

10001e2a <double2int_z_entry>:
10001e2a:	ec41 0480 	dcp_wxdc r0, r1
10001e2e:	ee00 0401 			dcp_add0
10001e32:	ee10 0401 			dcp_add1
10001e36:	ee80 0440 			dcp_ntdc
10001e3a:	ee10 0413 			dcp_rdic r0
10001e3e:	4770      	bx	lr
10001e40:	b500      	push	{lr}
10001e42:	f7ff ff0d 	bl	10001c60 <generic_save_state>
10001e46:	e002      	b.n	10001e4e <double2uint_z_entry>

10001e48 <__wrap___aeabi_d2uiz>:
10001e48:	fe10 f430 	dcp_pcmp APSR_nzcv
10001e4c:	d4f8      	bmi.n	10001e40 <double2int_z_entry+0x16>

10001e4e <double2uint_z_entry>:
10001e4e:	ec41 0480 	dcp_wxdc r0, r1
10001e52:	ee00 0401 			dcp_add0
10001e56:	ee10 0401 			dcp_add1
10001e5a:	ee80 0440 			dcp_ntdc
10001e5e:	ee10 0433 			dcp_rduc r0
10001e62:	4770      	bx	lr
10001e64:	b500      	push	{lr}
10001e66:	f7ff fefb 	bl	10001c60 <generic_save_state>
10001e6a:	e002      	b.n	10001e72 <__wrap___aeabi_dcmpun+0x6>

10001e6c <__wrap___aeabi_dcmpun>:
10001e6c:	fe10 f430 	dcp_pcmp APSR_nzcv
10001e70:	d4f8      	bmi.n	10001e64 <double2uint_z_entry+0x16>
10001e72:	ec41 0410 	dcp_wxup r0, r1
10001e76:	ec43 2411 	dcp_wyup r2, r3
10001e7a:	ee00 0401 			dcp_add0
10001e7e:	ee10 0430 			dcp_rcmp r0
10001e82:	f3c0 7000 	ubfx	r0, r0, #28, #1
10001e86:	4770      	bx	lr
10001e88:	b500      	push	{lr}
10001e8a:	f7ff fee9 	bl	10001c60 <generic_save_state>
10001e8e:	e002      	b.n	10001e96 <__wrap___aeabi_dcmplt+0x6>

10001e90 <__wrap___aeabi_dcmplt>:
10001e90:	fe10 f430 	dcp_pcmp APSR_nzcv
10001e94:	d4f8      	bmi.n	10001e88 <__wrap___aeabi_dcmpun+0x1c>
10001e96:	ec43 2410 	dcp_wxup r2, r3
10001e9a:	ec41 0411 	dcp_wyup r0, r1
10001e9e:	ee00 0401 			dcp_add0
10001ea2:	ee10 f430 			dcp_rcmp APSR_nzcv
10001ea6:	bf8c      	ite	hi
10001ea8:	2001      	movhi	r0, #1
10001eaa:	2000      	movls	r0, #0
10001eac:	4770      	bx	lr
10001eae:	bf00      	nop
10001eb0:	b500      	push	{lr}
10001eb2:	f7ff fed5 	bl	10001c60 <generic_save_state>
10001eb6:	e002      	b.n	10001ebe <__wrap___aeabi_dcmple+0x6>

10001eb8 <__wrap___aeabi_dcmple>:
10001eb8:	fe10 f430 	dcp_pcmp APSR_nzcv
10001ebc:	d4f8      	bmi.n	10001eb0 <__wrap___aeabi_dcmplt+0x20>
10001ebe:	ec43 2410 	dcp_wxup r2, r3
10001ec2:	ec41 0411 	dcp_wyup r0, r1
10001ec6:	ee00 0401 			dcp_add0
10001eca:	ee10 f430 			dcp_rcmp APSR_nzcv
10001ece:	bf2c      	ite	cs
10001ed0:	2001      	movcs	r0, #1
10001ed2:	2000      	movcc	r0, #0
10001ed4:	4770      	bx	lr
10001ed6:	bf00      	nop
10001ed8:	b500      	push	{lr}
10001eda:	f7ff fec1 	bl	10001c60 <generic_save_state>
10001ede:	e002      	b.n	10001ee6 <__wrap___aeabi_dcmpge+0x6>

10001ee0 <__wrap___aeabi_dcmpge>:
10001ee0:	fe10 f430 	dcp_pcmp APSR_nzcv
10001ee4:	d4f8      	bmi.n	10001ed8 <__wrap___aeabi_dcmple+0x20>
10001ee6:	ec41 0410 	dcp_wxup r0, r1
10001eea:	ec43 2411 	dcp_wyup r2, r3
10001eee:	ee00 0401 			dcp_add0
10001ef2:	ee10 f430 			dcp_rcmp APSR_nzcv
10001ef6:	bf2c      	ite	cs
10001ef8:	2001      	movcs	r0, #1
10001efa:	2000      	movcc	r0, #0
10001efc:	4770      	bx	lr
10001efe:	bf00      	nop
10001f00:	b500      	push	{lr}
10001f02:	f7ff fead 	bl	10001c60 <generic_save_state>
10001f06:	e002      	b.n	10001f0e <__wrap___aeabi_dcmpgt+0x6>

10001f08 <__wrap___aeabi_dcmpgt>:
10001f08:	fe10 f430 	dcp_pcmp APSR_nzcv
10001f0c:	d4f8      	bmi.n	10001f00 <__wrap___aeabi_dcmpge+0x20>
10001f0e:	ec41 0410 	dcp_wxup r0, r1
10001f12:	ec43 2411 	dcp_wyup r2, r3
10001f16:	ee00 0401 			dcp_add0
10001f1a:	ee10 f430 			dcp_rcmp APSR_nzcv
10001f1e:	bf8c      	ite	hi
10001f20:	2001      	movhi	r0, #1
10001f22:	2000      	movls	r0, #0
10001f24:	4770      	bx	lr
10001f26:	bf00      	nop

10001f28 <_out_buffer>:
10001f28:	429a      	cmp	r2, r3
10001f2a:	bf38      	it	cc
10001f2c:	5488      	strbcc	r0, [r1, r2]
10001f2e:	4770      	bx	lr

10001f30 <_out_null>:
10001f30:	4770      	bx	lr
10001f32:	bf00      	nop

10001f34 <_out_rev>:
10001f34:	e92d 4ff0 	stmdb	sp!, {r4, r5, r6, r7, r8, r9, sl, fp, lr}
10001f38:	b083      	sub	sp, #12
10001f3a:	4699      	mov	r9, r3
10001f3c:	e9dd ab0d 	ldrd	sl, fp, [sp, #52]	@ 0x34
10001f40:	9b0f      	ldr	r3, [sp, #60]	@ 0x3c
10001f42:	4688      	mov	r8, r1
10001f44:	4611      	mov	r1, r2
10001f46:	079a      	lsls	r2, r3, #30
10001f48:	4607      	mov	r7, r0
10001f4a:	d116      	bne.n	10001f7a <_out_rev+0x46>
10001f4c:	45da      	cmp	sl, fp
10001f4e:	d23a      	bcs.n	10001fc6 <_out_rev+0x92>
10001f50:	460c      	mov	r4, r1
10001f52:	460d      	mov	r5, r1
10001f54:	ebab 060a 	sub.w	r6, fp, sl
10001f58:	440e      	add	r6, r1
10001f5a:	4622      	mov	r2, r4
10001f5c:	464b      	mov	r3, r9
10001f5e:	4641      	mov	r1, r8
10001f60:	2020      	movs	r0, #32
10001f62:	3401      	adds	r4, #1
10001f64:	47b8      	blx	r7
10001f66:	42b4      	cmp	r4, r6
10001f68:	d1f7      	bne.n	10001f5a <_out_rev+0x26>
10001f6a:	4629      	mov	r1, r5
10001f6c:	f1ba 0f00 	cmp.w	sl, #0
10001f70:	d108      	bne.n	10001f84 <_out_rev+0x50>
10001f72:	4620      	mov	r0, r4
10001f74:	b003      	add	sp, #12
10001f76:	e8bd 8ff0 	ldmia.w	sp!, {r4, r5, r6, r7, r8, r9, sl, fp, pc}
10001f7a:	460c      	mov	r4, r1
10001f7c:	f1ba 0f00 	cmp.w	sl, #0
10001f80:	d010      	beq.n	10001fa4 <_out_rev+0x70>
10001f82:	460e      	mov	r6, r1
10001f84:	4655      	mov	r5, sl
10001f86:	9b0c      	ldr	r3, [sp, #48]	@ 0x30
10001f88:	442e      	add	r6, r5
10001f8a:	449a      	add	sl, r3
10001f8c:	9101      	str	r1, [sp, #4]
10001f8e:	1b72      	subs	r2, r6, r5
10001f90:	464b      	mov	r3, r9
10001f92:	3d01      	subs	r5, #1
10001f94:	4641      	mov	r1, r8
10001f96:	f81a 0d01 	ldrb.w	r0, [sl, #-1]!
10001f9a:	4634      	mov	r4, r6
10001f9c:	47b8      	blx	r7
10001f9e:	2d00      	cmp	r5, #0
10001fa0:	d1f5      	bne.n	10001f8e <_out_rev+0x5a>
10001fa2:	9901      	ldr	r1, [sp, #4]
10001fa4:	9b0f      	ldr	r3, [sp, #60]	@ 0x3c
10001fa6:	079b      	lsls	r3, r3, #30
10001fa8:	d5e3      	bpl.n	10001f72 <_out_rev+0x3e>
10001faa:	1a65      	subs	r5, r4, r1
10001fac:	45ab      	cmp	fp, r5
10001fae:	d9e0      	bls.n	10001f72 <_out_rev+0x3e>
10001fb0:	4622      	mov	r2, r4
10001fb2:	464b      	mov	r3, r9
10001fb4:	4641      	mov	r1, r8
10001fb6:	2020      	movs	r0, #32
10001fb8:	3501      	adds	r5, #1
10001fba:	47b8      	blx	r7
10001fbc:	455d      	cmp	r5, fp
10001fbe:	f104 0401 	add.w	r4, r4, #1
10001fc2:	d3f5      	bcc.n	10001fb0 <_out_rev+0x7c>
10001fc4:	e7d5      	b.n	10001f72 <_out_rev+0x3e>
10001fc6:	460c      	mov	r4, r1
10001fc8:	f1ba 0f00 	cmp.w	sl, #0
10001fcc:	d1d9      	bne.n	10001f82 <_out_rev+0x4e>
10001fce:	e7d0      	b.n	10001f72 <_out_rev+0x3e>

10001fd0 <_ntoa_format>:
10001fd0:	e92d 4ff0 	stmdb	sp!, {r4, r5, r6, r7, r8, r9, sl, fp, lr}
10001fd4:	9f0f      	ldr	r7, [sp, #60]	@ 0x3c
10001fd6:	f8dd 8024 	ldr.w	r8, [sp, #36]	@ 0x24
10001fda:	f017 0f02 	tst.w	r7, #2
10001fde:	9c0a      	ldr	r4, [sp, #40]	@ 0x28
10001fe0:	f89d a02c 	ldrb.w	sl, [sp, #44]	@ 0x2c
10001fe4:	9d0e      	ldr	r5, [sp, #56]	@ 0x38
10001fe6:	e9dd 960c 	ldrd	r9, r6, [sp, #48]	@ 0x30
10001fea:	d144      	bne.n	10002076 <_ntoa_format+0xa6>
10001fec:	bbf5      	cbnz	r5, 1000206c <_ntoa_format+0x9c>
10001fee:	42b4      	cmp	r4, r6
10001ff0:	d241      	bcs.n	10002076 <_ntoa_format+0xa6>
10001ff2:	f007 0b01 	and.w	fp, r7, #1
10001ff6:	f104 3cff 	add.w	ip, r4, #4294967295
10001ffa:	f04f 0e30 	mov.w	lr, #48	@ 0x30
10001ffe:	44c4      	add	ip, r8
10002000:	e004      	b.n	1000200c <_ntoa_format+0x3c>
10002002:	3401      	adds	r4, #1
10002004:	42a6      	cmp	r6, r4
10002006:	f80c ef01 	strb.w	lr, [ip, #1]!
1000200a:	d901      	bls.n	10002010 <_ntoa_format+0x40>
1000200c:	2c20      	cmp	r4, #32
1000200e:	d1f8      	bne.n	10002002 <_ntoa_format+0x32>
10002010:	f1bb 0f00 	cmp.w	fp, #0
10002014:	f000 8088 	beq.w	10002128 <_ntoa_format+0x158>
10002018:	42a5      	cmp	r5, r4
1000201a:	d92c      	bls.n	10002076 <_ntoa_format+0xa6>
1000201c:	f104 3cff 	add.w	ip, r4, #4294967295
10002020:	f04f 0e30 	mov.w	lr, #48	@ 0x30
10002024:	44c4      	add	ip, r8
10002026:	e004      	b.n	10002032 <_ntoa_format+0x62>
10002028:	3401      	adds	r4, #1
1000202a:	42ac      	cmp	r4, r5
1000202c:	f80c ef01 	strb.w	lr, [ip, #1]!
10002030:	d021      	beq.n	10002076 <_ntoa_format+0xa6>
10002032:	2c20      	cmp	r4, #32
10002034:	d1f8      	bne.n	10002028 <_ntoa_format+0x58>
10002036:	f017 0f10 	tst.w	r7, #16
1000203a:	d00e      	beq.n	1000205a <_ntoa_format+0x8a>
1000203c:	f417 6f80 	tst.w	r7, #1024	@ 0x400
10002040:	d154      	bne.n	100020ec <_ntoa_format+0x11c>
10002042:	42a6      	cmp	r6, r4
10002044:	d063      	beq.n	1000210e <_ntoa_format+0x13e>
10002046:	42a5      	cmp	r5, r4
10002048:	d061      	beq.n	1000210e <_ntoa_format+0x13e>
1000204a:	f1b9 0f10 	cmp.w	r9, #16
1000204e:	d050      	beq.n	100020f2 <_ntoa_format+0x122>
10002050:	f1b9 0f02 	cmp.w	r9, #2
10002054:	d056      	beq.n	10002104 <_ntoa_format+0x134>
10002056:	2c20      	cmp	r4, #32
10002058:	d129      	bne.n	100020ae <_ntoa_format+0xde>
1000205a:	2420      	movs	r4, #32
1000205c:	e9cd 570b 	strd	r5, r7, [sp, #44]	@ 0x2c
10002060:	e9cd 8409 	strd	r8, r4, [sp, #36]	@ 0x24
10002064:	e8bd 4ff0 	ldmia.w	sp!, {r4, r5, r6, r7, r8, r9, sl, fp, lr}
10002068:	f7ff bf64 	b.w	10001f34 <_out_rev>
1000206c:	f017 0b01 	ands.w	fp, r7, #1
10002070:	d134      	bne.n	100020dc <_ntoa_format+0x10c>
10002072:	42b4      	cmp	r4, r6
10002074:	d3bf      	bcc.n	10001ff6 <_ntoa_format+0x26>
10002076:	f017 0f10 	tst.w	r7, #16
1000207a:	d01e      	beq.n	100020ba <_ntoa_format+0xea>
1000207c:	f417 6f80 	tst.w	r7, #1024	@ 0x400
10002080:	d1e3      	bne.n	1000204a <_ntoa_format+0x7a>
10002082:	2c00      	cmp	r4, #0
10002084:	d1dd      	bne.n	10002042 <_ntoa_format+0x72>
10002086:	f1b9 0f10 	cmp.w	r9, #16
1000208a:	d063      	beq.n	10002154 <_ntoa_format+0x184>
1000208c:	f1b9 0f02 	cmp.w	r9, #2
10002090:	d077      	beq.n	10002182 <_ntoa_format+0x1b2>
10002092:	2430      	movs	r4, #48	@ 0x30
10002094:	f888 4000 	strb.w	r4, [r8]
10002098:	2401      	movs	r4, #1
1000209a:	f1ba 0f00 	cmp.w	sl, #0
1000209e:	d111      	bne.n	100020c4 <_ntoa_format+0xf4>
100020a0:	077e      	lsls	r6, r7, #29
100020a2:	d548      	bpl.n	10002136 <_ntoa_format+0x166>
100020a4:	262b      	movs	r6, #43	@ 0x2b
100020a6:	f808 6004 	strb.w	r6, [r8, r4]
100020aa:	3401      	adds	r4, #1
100020ac:	e7d6      	b.n	1000205c <_ntoa_format+0x8c>
100020ae:	4626      	mov	r6, r4
100020b0:	3401      	adds	r4, #1
100020b2:	f04f 0c30 	mov.w	ip, #48	@ 0x30
100020b6:	f808 c006 	strb.w	ip, [r8, r6]
100020ba:	2c20      	cmp	r4, #32
100020bc:	d0cd      	beq.n	1000205a <_ntoa_format+0x8a>
100020be:	f1ba 0f00 	cmp.w	sl, #0
100020c2:	d0ed      	beq.n	100020a0 <_ntoa_format+0xd0>
100020c4:	262d      	movs	r6, #45	@ 0x2d
100020c6:	f808 6004 	strb.w	r6, [r8, r4]
100020ca:	3401      	adds	r4, #1
100020cc:	e9cd 570b 	strd	r5, r7, [sp, #44]	@ 0x2c
100020d0:	e9cd 8409 	strd	r8, r4, [sp, #36]	@ 0x24
100020d4:	e8bd 4ff0 	ldmia.w	sp!, {r4, r5, r6, r7, r8, r9, sl, fp, lr}
100020d8:	f7ff bf2c 	b.w	10001f34 <_out_rev>
100020dc:	f1ba 0f00 	cmp.w	sl, #0
100020e0:	d030      	beq.n	10002144 <_ntoa_format+0x174>
100020e2:	42b4      	cmp	r4, r6
100020e4:	f105 35ff 	add.w	r5, r5, #4294967295
100020e8:	d385      	bcc.n	10001ff6 <_ntoa_format+0x26>
100020ea:	e795      	b.n	10002018 <_ntoa_format+0x48>
100020ec:	f1b9 0f10 	cmp.w	r9, #16
100020f0:	d1b3      	bne.n	1000205a <_ntoa_format+0x8a>
100020f2:	06be      	lsls	r6, r7, #26
100020f4:	d53b      	bpl.n	1000216e <_ntoa_format+0x19e>
100020f6:	2c20      	cmp	r4, #32
100020f8:	d0af      	beq.n	1000205a <_ntoa_format+0x8a>
100020fa:	2658      	movs	r6, #88	@ 0x58
100020fc:	f808 6004 	strb.w	r6, [r8, r4]
10002100:	3401      	adds	r4, #1
10002102:	e7a8      	b.n	10002056 <_ntoa_format+0x86>
10002104:	2c20      	cmp	r4, #32
10002106:	d0a8      	beq.n	1000205a <_ntoa_format+0x8a>
10002108:	4626      	mov	r6, r4
1000210a:	3401      	adds	r4, #1
1000210c:	e007      	b.n	1000211e <_ntoa_format+0x14e>
1000210e:	1e66      	subs	r6, r4, #1
10002110:	d0b9      	beq.n	10002086 <_ntoa_format+0xb6>
10002112:	f1b9 0f10 	cmp.w	r9, #16
10002116:	d036      	beq.n	10002186 <_ntoa_format+0x1b6>
10002118:	f1b9 0f02 	cmp.w	r9, #2
1000211c:	d1c9      	bne.n	100020b2 <_ntoa_format+0xe2>
1000211e:	f04f 0c62 	mov.w	ip, #98	@ 0x62
10002122:	f808 c006 	strb.w	ip, [r8, r6]
10002126:	e796      	b.n	10002056 <_ntoa_format+0x86>
10002128:	f017 0f10 	tst.w	r7, #16
1000212c:	d0c5      	beq.n	100020ba <_ntoa_format+0xea>
1000212e:	f417 6f80 	tst.w	r7, #1024	@ 0x400
10002132:	d086      	beq.n	10002042 <_ntoa_format+0x72>
10002134:	e789      	b.n	1000204a <_ntoa_format+0x7a>
10002136:	073e      	lsls	r6, r7, #28
10002138:	d590      	bpl.n	1000205c <_ntoa_format+0x8c>
1000213a:	2620      	movs	r6, #32
1000213c:	f808 6004 	strb.w	r6, [r8, r4]
10002140:	3401      	adds	r4, #1
10002142:	e78b      	b.n	1000205c <_ntoa_format+0x8c>
10002144:	f017 0f0c 	tst.w	r7, #12
10002148:	d000      	beq.n	1000214c <_ntoa_format+0x17c>
1000214a:	3d01      	subs	r5, #1
1000214c:	42b4      	cmp	r4, r6
1000214e:	f4ff af52 	bcc.w	10001ff6 <_ntoa_format+0x26>
10002152:	e761      	b.n	10002018 <_ntoa_format+0x48>
10002154:	06bc      	lsls	r4, r7, #26
10002156:	d412      	bmi.n	1000217e <_ntoa_format+0x1ae>
10002158:	2478      	movs	r4, #120	@ 0x78
1000215a:	f888 4000 	strb.w	r4, [r8]
1000215e:	2430      	movs	r4, #48	@ 0x30
10002160:	f888 4001 	strb.w	r4, [r8, #1]
10002164:	2402      	movs	r4, #2
10002166:	f1ba 0f00 	cmp.w	sl, #0
1000216a:	d099      	beq.n	100020a0 <_ntoa_format+0xd0>
1000216c:	e7aa      	b.n	100020c4 <_ntoa_format+0xf4>
1000216e:	2c20      	cmp	r4, #32
10002170:	f43f af73 	beq.w	1000205a <_ntoa_format+0x8a>
10002174:	2678      	movs	r6, #120	@ 0x78
10002176:	f808 6004 	strb.w	r6, [r8, r4]
1000217a:	3401      	adds	r4, #1
1000217c:	e76b      	b.n	10002056 <_ntoa_format+0x86>
1000217e:	2458      	movs	r4, #88	@ 0x58
10002180:	e7eb      	b.n	1000215a <_ntoa_format+0x18a>
10002182:	2462      	movs	r4, #98	@ 0x62
10002184:	e7e9      	b.n	1000215a <_ntoa_format+0x18a>
10002186:	f017 0f20 	tst.w	r7, #32
1000218a:	f1a4 0c02 	sub.w	ip, r4, #2
1000218e:	d004      	beq.n	1000219a <_ntoa_format+0x1ca>
10002190:	f04f 0e58 	mov.w	lr, #88	@ 0x58
10002194:	f808 e00c 	strb.w	lr, [r8, ip]
10002198:	e78b      	b.n	100020b2 <_ntoa_format+0xe2>
1000219a:	f04f 0e78 	mov.w	lr, #120	@ 0x78
1000219e:	f808 e00c 	strb.w	lr, [r8, ip]
100021a2:	e786      	b.n	100020b2 <_ntoa_format+0xe2>

100021a4 <_out_char>:
100021a4:	b900      	cbnz	r0, 100021a8 <_out_char+0x4>
100021a6:	4770      	bx	lr
100021a8:	f001 bb88 	b.w	100038bc <__wrap_putchar>

100021ac <_out_fct>:
100021ac:	b110      	cbz	r0, 100021b4 <_out_fct+0x8>
100021ae:	e9d1 3100 	ldrd	r3, r1, [r1]
100021b2:	4718      	bx	r3
100021b4:	4770      	bx	lr
100021b6:	bf00      	nop

100021b8 <_ftoa>:
100021b8:	e92d 4ff0 	stmdb	sp!, {r4, r5, r6, r7, r8, r9, sl, fp, lr}
100021bc:	b097      	sub	sp, #92	@ 0x5c
100021be:	ed9d 7b20 	vldr	d7, [sp, #128]	@ 0x80
100021c2:	e9dd 5b22 	ldrd	r5, fp, [sp, #136]	@ 0x88
100021c6:	4607      	mov	r7, r0
100021c8:	4688      	mov	r8, r1
100021ca:	ec51 0b17 	vmov	r0, r1, d7
100021ce:	9c24      	ldr	r4, [sp, #144]	@ 0x90
100021d0:	4699      	mov	r9, r3
100021d2:	920c      	str	r2, [sp, #48]	@ 0x30
100021d4:	460b      	mov	r3, r1
100021d6:	4602      	mov	r2, r0
100021d8:	ed8d 7b04 	vstr	d7, [sp, #16]
100021dc:	9407      	str	r4, [sp, #28]
100021de:	f7ff fe45 	bl	10001e6c <__wrap___aeabi_dcmpun>
100021e2:	2800      	cmp	r0, #0
100021e4:	f040 81f4 	bne.w	100025d0 <_ftoa+0x418>
100021e8:	e9dd 0104 	ldrd	r0, r1, [sp, #16]
100021ec:	f04f 32ff 	mov.w	r2, #4294967295
100021f0:	f46f 1380 	mvn.w	r3, #1048576	@ 0x100000
100021f4:	f7ff fe4c 	bl	10001e90 <__wrap___aeabi_dcmplt>
100021f8:	2800      	cmp	r0, #0
100021fa:	f040 811b 	bne.w	10002434 <_ftoa+0x27c>
100021fe:	e9dd 0104 	ldrd	r0, r1, [sp, #16]
10002202:	f04f 32ff 	mov.w	r2, #4294967295
10002206:	4bac      	ldr	r3, [pc, #688]	@ (100024b8 <_ftoa+0x300>)
10002208:	f7ff fe7e 	bl	10001f08 <__wrap___aeabi_dcmpgt>
1000220c:	2800      	cmp	r0, #0
1000220e:	f040 80ee 	bne.w	100023ee <_ftoa+0x236>
10002212:	e9dd 0104 	ldrd	r0, r1, [sp, #16]
10002216:	a3a4      	add	r3, pc, #656	@ (adr r3, 100024a8 <_ftoa+0x2f0>)
10002218:	e9d3 2300 	ldrd	r2, r3, [r3]
1000221c:	f7ff fe74 	bl	10001f08 <__wrap___aeabi_dcmpgt>
10002220:	2800      	cmp	r0, #0
10002222:	f040 80d3 	bne.w	100023cc <_ftoa+0x214>
10002226:	e9dd 0104 	ldrd	r0, r1, [sp, #16]
1000222a:	a3a1      	add	r3, pc, #644	@ (adr r3, 100024b0 <_ftoa+0x2f8>)
1000222c:	e9d3 2300 	ldrd	r2, r3, [r3]
10002230:	f7ff fe2e 	bl	10001e90 <__wrap___aeabi_dcmplt>
10002234:	2800      	cmp	r0, #0
10002236:	f040 80c9 	bne.w	100023cc <_ftoa+0x214>
1000223a:	e9dd 0104 	ldrd	r0, r1, [sp, #16]
1000223e:	2200      	movs	r2, #0
10002240:	2300      	movs	r3, #0
10002242:	f7ff fe25 	bl	10001e90 <__wrap___aeabi_dcmplt>
10002246:	2800      	cmp	r0, #0
10002248:	f040 80e8 	bne.w	1000241c <_ftoa+0x264>
1000224c:	4623      	mov	r3, r4
1000224e:	900d      	str	r0, [sp, #52]	@ 0x34
10002250:	f413 6f80 	tst.w	r3, #1024	@ 0x400
10002254:	bf08      	it	eq
10002256:	2506      	moveq	r5, #6
10002258:	2130      	movs	r1, #48	@ 0x30
1000225a:	462b      	mov	r3, r5
1000225c:	aa0e      	add	r2, sp, #56	@ 0x38
1000225e:	f1a5 0620 	sub.w	r6, r5, #32
10002262:	e005      	b.n	10002270 <_ftoa+0xb8>
10002264:	3b01      	subs	r3, #1
10002266:	42b3      	cmp	r3, r6
10002268:	f802 1b01 	strb.w	r1, [r2], #1
1000226c:	f000 8193 	beq.w	10002596 <_ftoa+0x3de>
10002270:	2b09      	cmp	r3, #9
10002272:	d8f7      	bhi.n	10002264 <_ftoa+0xac>
10002274:	461e      	mov	r6, r3
10002276:	1aed      	subs	r5, r5, r3
10002278:	e9dd 0104 	ldrd	r0, r1, [sp, #16]
1000227c:	f7ff fdd2 	bl	10001e24 <__wrap___aeabi_d2iz>
10002280:	4b8e      	ldr	r3, [pc, #568]	@ (100024bc <_ftoa+0x304>)
10002282:	4604      	mov	r4, r0
10002284:	eb03 03c6 	add.w	r3, r3, r6, lsl #3
10002288:	ed93 7b00 	vldr	d7, [r3]
1000228c:	ed8d 7b08 	vstr	d7, [sp, #32]
10002290:	f7ff fda4 	bl	10001ddc <__wrap___aeabi_i2d>
10002294:	4602      	mov	r2, r0
10002296:	460b      	mov	r3, r1
10002298:	e9dd 0104 	ldrd	r0, r1, [sp, #16]
1000229c:	f7ff fd16 	bl	10001ccc <__wrap___aeabi_dsub>
100022a0:	e9dd 2308 	ldrd	r2, r3, [sp, #32]
100022a4:	f7ff fd26 	bl	10001cf4 <__wrap___aeabi_dmul>
100022a8:	4602      	mov	r2, r0
100022aa:	460b      	mov	r3, r1
100022ac:	e9cd 230a 	strd	r2, r3, [sp, #40]	@ 0x28
100022b0:	f7ff fdca 	bl	10001e48 <__wrap___aeabi_d2uiz>
100022b4:	4682      	mov	sl, r0
100022b6:	f7ff fda3 	bl	10001e00 <__wrap___aeabi_ui2d>
100022ba:	4602      	mov	r2, r0
100022bc:	460b      	mov	r3, r1
100022be:	e9dd 010a 	ldrd	r0, r1, [sp, #40]	@ 0x28
100022c2:	f7ff fd03 	bl	10001ccc <__wrap___aeabi_dsub>
100022c6:	4602      	mov	r2, r0
100022c8:	460b      	mov	r3, r1
100022ca:	e9cd 230a 	strd	r2, r3, [sp, #40]	@ 0x28
100022ce:	2200      	movs	r2, #0
100022d0:	4b7b      	ldr	r3, [pc, #492]	@ (100024c0 <_ftoa+0x308>)
100022d2:	f7ff fe19 	bl	10001f08 <__wrap___aeabi_dcmpgt>
100022d6:	2800      	cmp	r0, #0
100022d8:	f000 80fe 	beq.w	100024d8 <_ftoa+0x320>
100022dc:	f10a 0a01 	add.w	sl, sl, #1
100022e0:	4650      	mov	r0, sl
100022e2:	f7ff fd8d 	bl	10001e00 <__wrap___aeabi_ui2d>
100022e6:	4602      	mov	r2, r0
100022e8:	460b      	mov	r3, r1
100022ea:	e9dd 0108 	ldrd	r0, r1, [sp, #32]
100022ee:	f7ff fde3 	bl	10001eb8 <__wrap___aeabi_dcmple>
100022f2:	b110      	cbz	r0, 100022fa <_ftoa+0x142>
100022f4:	f04f 0a00 	mov.w	sl, #0
100022f8:	3401      	adds	r4, #1
100022fa:	2e00      	cmp	r6, #0
100022fc:	f000 80fd 	beq.w	100024fa <_ftoa+0x342>
10002300:	1e68      	subs	r0, r5, #1
10002302:	ab0e      	add	r3, sp, #56	@ 0x38
10002304:	f8df c1cc 	ldr.w	ip, [pc, #460]	@ 100024d4 <_ftoa+0x31c>
10002308:	4418      	add	r0, r3
1000230a:	e00f      	b.n	1000232c <_ftoa+0x174>
1000230c:	fbac 210a 	umull	r2, r1, ip, sl
10002310:	08c9      	lsrs	r1, r1, #3
10002312:	eb01 0281 	add.w	r2, r1, r1, lsl #2
10002316:	ebaa 0242 	sub.w	r2, sl, r2, lsl #1
1000231a:	3230      	adds	r2, #48	@ 0x30
1000231c:	f1ba 0f09 	cmp.w	sl, #9
10002320:	f800 2f01 	strb.w	r2, [r0, #1]!
10002324:	f240 811c 	bls.w	10002560 <_ftoa+0x3a8>
10002328:	468a      	mov	sl, r1
1000232a:	461d      	mov	r5, r3
1000232c:	2d20      	cmp	r5, #32
1000232e:	f105 0301 	add.w	r3, r5, #1
10002332:	f106 36ff 	add.w	r6, r6, #4294967295
10002336:	d1e9      	bne.n	1000230c <_ftoa+0x154>
10002338:	2520      	movs	r5, #32
1000233a:	1e69      	subs	r1, r5, #1
1000233c:	ab0e      	add	r3, sp, #56	@ 0x38
1000233e:	4861      	ldr	r0, [pc, #388]	@ (100024c4 <_ftoa+0x30c>)
10002340:	4419      	add	r1, r3
10002342:	e010      	b.n	10002366 <_ftoa+0x1ae>
10002344:	fb80 6204 	smull	r6, r2, r0, r4
10002348:	ebc3 03a2 	rsb	r3, r3, r2, asr #2
1000234c:	eb03 0283 	add.w	r2, r3, r3, lsl #2
10002350:	eba4 0442 	sub.w	r4, r4, r2, lsl #1
10002354:	f104 0230 	add.w	r2, r4, #48	@ 0x30
10002358:	3501      	adds	r5, #1
1000235a:	461c      	mov	r4, r3
1000235c:	f801 2f01 	strb.w	r2, [r1, #1]!
10002360:	2b00      	cmp	r3, #0
10002362:	f000 80eb 	beq.w	1000253c <_ftoa+0x384>
10002366:	2d20      	cmp	r5, #32
10002368:	ea4f 73e4 	mov.w	r3, r4, asr #31
1000236c:	d1ea      	bne.n	10002344 <_ftoa+0x18c>
1000236e:	9b07      	ldr	r3, [sp, #28]
10002370:	f003 0303 	and.w	r3, r3, #3
10002374:	2b01      	cmp	r3, #1
10002376:	d118      	bne.n	100023aa <_ftoa+0x1f2>
10002378:	f1bb 0f00 	cmp.w	fp, #0
1000237c:	d015      	beq.n	100023aa <_ftoa+0x1f2>
1000237e:	9b0d      	ldr	r3, [sp, #52]	@ 0x34
10002380:	2b00      	cmp	r3, #0
10002382:	f000 810a 	beq.w	1000259a <_ftoa+0x3e2>
10002386:	f10b 3bff 	add.w	fp, fp, #4294967295
1000238a:	f1bb 0f20 	cmp.w	fp, #32
1000238e:	d90c      	bls.n	100023aa <_ftoa+0x1f2>
10002390:	1e6b      	subs	r3, r5, #1
10002392:	a90e      	add	r1, sp, #56	@ 0x38
10002394:	2230      	movs	r2, #48	@ 0x30
10002396:	440b      	add	r3, r1
10002398:	e005      	b.n	100023a6 <_ftoa+0x1ee>
1000239a:	3501      	adds	r5, #1
1000239c:	455d      	cmp	r5, fp
1000239e:	f803 2f01 	strb.w	r2, [r3, #1]!
100023a2:	f080 80d1 	bcs.w	10002548 <_ftoa+0x390>
100023a6:	2d20      	cmp	r5, #32
100023a8:	d1f7      	bne.n	1000239a <_ftoa+0x1e2>
100023aa:	9b07      	ldr	r3, [sp, #28]
100023ac:	ac0e      	add	r4, sp, #56	@ 0x38
100023ae:	e9cd b302 	strd	fp, r3, [sp, #8]
100023b2:	4641      	mov	r1, r8
100023b4:	464b      	mov	r3, r9
100023b6:	4638      	mov	r0, r7
100023b8:	9a0c      	ldr	r2, [sp, #48]	@ 0x30
100023ba:	9501      	str	r5, [sp, #4]
100023bc:	9400      	str	r4, [sp, #0]
100023be:	f7ff fdb9 	bl	10001f34 <_out_rev>
100023c2:	4682      	mov	sl, r0
100023c4:	4650      	mov	r0, sl
100023c6:	b017      	add	sp, #92	@ 0x5c
100023c8:	e8bd 8ff0 	ldmia.w	sp!, {r4, r5, r6, r7, r8, r9, sl, fp, pc}
100023cc:	9b07      	ldr	r3, [sp, #28]
100023ce:	ed9d 7b04 	vldr	d7, [sp, #16]
100023d2:	e9cd b323 	strd	fp, r3, [sp, #140]	@ 0x8c
100023d6:	4641      	mov	r1, r8
100023d8:	464b      	mov	r3, r9
100023da:	4638      	mov	r0, r7
100023dc:	9a0c      	ldr	r2, [sp, #48]	@ 0x30
100023de:	ed8d 7b20 	vstr	d7, [sp, #128]	@ 0x80
100023e2:	9522      	str	r5, [sp, #136]	@ 0x88
100023e4:	b017      	add	sp, #92	@ 0x5c
100023e6:	e8bd 4ff0 	ldmia.w	sp!, {r4, r5, r6, r7, r8, r9, sl, fp, lr}
100023ea:	f000 b945 	b.w	10002678 <_etoa>
100023ee:	0761      	lsls	r1, r4, #29
100023f0:	4623      	mov	r3, r4
100023f2:	bf4c      	ite	mi
100023f4:	2304      	movmi	r3, #4
100023f6:	2303      	movpl	r3, #3
100023f8:	4641      	mov	r1, r8
100023fa:	9321      	str	r3, [sp, #132]	@ 0x84
100023fc:	4638      	mov	r0, r7
100023fe:	464b      	mov	r3, r9
10002400:	9a07      	ldr	r2, [sp, #28]
10002402:	bf48      	it	mi
10002404:	4c30      	ldrmi	r4, [pc, #192]	@ (100024c8 <_ftoa+0x310>)
10002406:	e9cd b222 	strd	fp, r2, [sp, #136]	@ 0x88
1000240a:	bf58      	it	pl
1000240c:	4c2f      	ldrpl	r4, [pc, #188]	@ (100024cc <_ftoa+0x314>)
1000240e:	9a0c      	ldr	r2, [sp, #48]	@ 0x30
10002410:	9420      	str	r4, [sp, #128]	@ 0x80
10002412:	b017      	add	sp, #92	@ 0x5c
10002414:	e8bd 4ff0 	ldmia.w	sp!, {r4, r5, r6, r7, r8, r9, sl, fp, lr}
10002418:	f7ff bd8c 	b.w	10001f34 <_out_rev>
1000241c:	e9dd 2304 	ldrd	r2, r3, [sp, #16]
10002420:	2000      	movs	r0, #0
10002422:	2100      	movs	r1, #0
10002424:	f7ff fc52 	bl	10001ccc <__wrap___aeabi_dsub>
10002428:	2301      	movs	r3, #1
1000242a:	e9cd 0104 	strd	r0, r1, [sp, #16]
1000242e:	930d      	str	r3, [sp, #52]	@ 0x34
10002430:	4623      	mov	r3, r4
10002432:	e70d      	b.n	10002250 <_ftoa+0x98>
10002434:	4623      	mov	r3, r4
10002436:	079c      	lsls	r4, r3, #30
10002438:	f040 80aa 	bne.w	10002590 <_ftoa+0x3d8>
1000243c:	f1bb 0f04 	cmp.w	fp, #4
10002440:	f240 80a6 	bls.w	10002590 <_ftoa+0x3d8>
10002444:	9b0c      	ldr	r3, [sp, #48]	@ 0x30
10002446:	461d      	mov	r5, r3
10002448:	1f1c      	subs	r4, r3, #4
1000244a:	eb04 0a0b 	add.w	sl, r4, fp
1000244e:	462a      	mov	r2, r5
10002450:	464b      	mov	r3, r9
10002452:	4641      	mov	r1, r8
10002454:	2020      	movs	r0, #32
10002456:	3501      	adds	r5, #1
10002458:	47b8      	blx	r7
1000245a:	45aa      	cmp	sl, r5
1000245c:	d1f7      	bne.n	1000244e <_ftoa+0x296>
1000245e:	4655      	mov	r5, sl
10002460:	4c1b      	ldr	r4, [pc, #108]	@ (100024d0 <_ftoa+0x318>)
10002462:	1f26      	subs	r6, r4, #4
10002464:	f814 0d01 	ldrb.w	r0, [r4, #-1]!
10002468:	462a      	mov	r2, r5
1000246a:	464b      	mov	r3, r9
1000246c:	4641      	mov	r1, r8
1000246e:	47b8      	blx	r7
10002470:	42b4      	cmp	r4, r6
10002472:	f105 0501 	add.w	r5, r5, #1
10002476:	d1f5      	bne.n	10002464 <_ftoa+0x2ac>
10002478:	9b07      	ldr	r3, [sp, #28]
1000247a:	f10a 0a04 	add.w	sl, sl, #4
1000247e:	0798      	lsls	r0, r3, #30
10002480:	d5a0      	bpl.n	100023c4 <_ftoa+0x20c>
10002482:	9c0c      	ldr	r4, [sp, #48]	@ 0x30
10002484:	ebaa 0304 	sub.w	r3, sl, r4
10002488:	459b      	cmp	fp, r3
1000248a:	d99b      	bls.n	100023c4 <_ftoa+0x20c>
1000248c:	4652      	mov	r2, sl
1000248e:	464b      	mov	r3, r9
10002490:	4641      	mov	r1, r8
10002492:	2020      	movs	r0, #32
10002494:	f10a 0a01 	add.w	sl, sl, #1
10002498:	47b8      	blx	r7
1000249a:	ebaa 0304 	sub.w	r3, sl, r4
1000249e:	455b      	cmp	r3, fp
100024a0:	d3f4      	bcc.n	1000248c <_ftoa+0x2d4>
100024a2:	e78f      	b.n	100023c4 <_ftoa+0x20c>
100024a4:	f3af 8000 	nop.w
100024a8:	00000000 	.word	0x00000000
100024ac:	41cdcd65 	.word	0x41cdcd65
100024b0:	00000000 	.word	0x00000000
100024b4:	c1cdcd65 	.word	0xc1cdcd65
100024b8:	7fefffff 	.word	0x7fefffff
100024bc:	10004120 	.word	0x10004120
100024c0:	3fe00000 	.word	0x3fe00000
100024c4:	66666667 	.word	0x66666667
100024c8:	1000407c 	.word	0x1000407c
100024cc:	10004084 	.word	0x10004084
100024d0:	10004090 	.word	0x10004090
100024d4:	cccccccd 	.word	0xcccccccd
100024d8:	2200      	movs	r2, #0
100024da:	e9dd 010a 	ldrd	r0, r1, [sp, #40]	@ 0x28
100024de:	4b63      	ldr	r3, [pc, #396]	@ (1000266c <_ftoa+0x4b4>)
100024e0:	f7ff fcd6 	bl	10001e90 <__wrap___aeabi_dcmplt>
100024e4:	2800      	cmp	r0, #0
100024e6:	f47f af08 	bne.w	100022fa <_ftoa+0x142>
100024ea:	f1ba 0f00 	cmp.w	sl, #0
100024ee:	d16a      	bne.n	100025c6 <_ftoa+0x40e>
100024f0:	f10a 0a01 	add.w	sl, sl, #1
100024f4:	2e00      	cmp	r6, #0
100024f6:	f47f af03 	bne.w	10002300 <_ftoa+0x148>
100024fa:	4620      	mov	r0, r4
100024fc:	f7ff fc6e 	bl	10001ddc <__wrap___aeabi_i2d>
10002500:	4602      	mov	r2, r0
10002502:	460b      	mov	r3, r1
10002504:	e9dd 0104 	ldrd	r0, r1, [sp, #16]
10002508:	f7ff fbe0 	bl	10001ccc <__wrap___aeabi_dsub>
1000250c:	4602      	mov	r2, r0
1000250e:	460b      	mov	r3, r1
10002510:	e9cd 2304 	strd	r2, r3, [sp, #16]
10002514:	2200      	movs	r2, #0
10002516:	4b55      	ldr	r3, [pc, #340]	@ (1000266c <_ftoa+0x4b4>)
10002518:	f7ff fcba 	bl	10001e90 <__wrap___aeabi_dcmplt>
1000251c:	2800      	cmp	r0, #0
1000251e:	f47f af0c 	bne.w	1000233a <_ftoa+0x182>
10002522:	e9dd 0104 	ldrd	r0, r1, [sp, #16]
10002526:	2200      	movs	r2, #0
10002528:	4b50      	ldr	r3, [pc, #320]	@ (1000266c <_ftoa+0x4b4>)
1000252a:	f7ff fced 	bl	10001f08 <__wrap___aeabi_dcmpgt>
1000252e:	2800      	cmp	r0, #0
10002530:	f47f af03 	bne.w	1000233a <_ftoa+0x182>
10002534:	3401      	adds	r4, #1
10002536:	f024 0401 	bic.w	r4, r4, #1
1000253a:	e6fe      	b.n	1000233a <_ftoa+0x182>
1000253c:	9b07      	ldr	r3, [sp, #28]
1000253e:	f003 0303 	and.w	r3, r3, #3
10002542:	2b01      	cmp	r3, #1
10002544:	f000 8082 	beq.w	1000264c <_ftoa+0x494>
10002548:	2d20      	cmp	r5, #32
1000254a:	f43f af2e 	beq.w	100023aa <_ftoa+0x1f2>
1000254e:	9b0d      	ldr	r3, [sp, #52]	@ 0x34
10002550:	b37b      	cbz	r3, 100025b2 <_ftoa+0x3fa>
10002552:	222d      	movs	r2, #45	@ 0x2d
10002554:	eb0d 0305 	add.w	r3, sp, r5
10002558:	f883 2038 	strb.w	r2, [r3, #56]	@ 0x38
1000255c:	3501      	adds	r5, #1
1000255e:	e724      	b.n	100023aa <_ftoa+0x1f2>
10002560:	2b20      	cmp	r3, #32
10002562:	f43f aee9 	beq.w	10002338 <_ftoa+0x180>
10002566:	aa0e      	add	r2, sp, #56	@ 0x38
10002568:	4415      	add	r5, r2
1000256a:	441e      	add	r6, r3
1000256c:	2230      	movs	r2, #48	@ 0x30
1000256e:	e004      	b.n	1000257a <_ftoa+0x3c2>
10002570:	2b20      	cmp	r3, #32
10002572:	f805 2f01 	strb.w	r2, [r5, #1]!
10002576:	f43f aedf 	beq.w	10002338 <_ftoa+0x180>
1000257a:	429e      	cmp	r6, r3
1000257c:	f103 0301 	add.w	r3, r3, #1
10002580:	d1f6      	bne.n	10002570 <_ftoa+0x3b8>
10002582:	222e      	movs	r2, #46	@ 0x2e
10002584:	eb0d 0306 	add.w	r3, sp, r6
10002588:	f883 2038 	strb.w	r2, [r3, #56]	@ 0x38
1000258c:	1c75      	adds	r5, r6, #1
1000258e:	e6d4      	b.n	1000233a <_ftoa+0x182>
10002590:	f8dd a030 	ldr.w	sl, [sp, #48]	@ 0x30
10002594:	e763      	b.n	1000245e <_ftoa+0x2a6>
10002596:	2520      	movs	r5, #32
10002598:	e66e      	b.n	10002278 <_ftoa+0xc0>
1000259a:	9b07      	ldr	r3, [sp, #28]
1000259c:	f013 0f0c 	tst.w	r3, #12
100025a0:	d050      	beq.n	10002644 <_ftoa+0x48c>
100025a2:	f10b 3bff 	add.w	fp, fp, #4294967295
100025a6:	45ab      	cmp	fp, r5
100025a8:	f63f aef2 	bhi.w	10002390 <_ftoa+0x1d8>
100025ac:	2d20      	cmp	r5, #32
100025ae:	f43f aefc 	beq.w	100023aa <_ftoa+0x1f2>
100025b2:	9b07      	ldr	r3, [sp, #28]
100025b4:	075a      	lsls	r2, r3, #29
100025b6:	d501      	bpl.n	100025bc <_ftoa+0x404>
100025b8:	222b      	movs	r2, #43	@ 0x2b
100025ba:	e7cb      	b.n	10002554 <_ftoa+0x39c>
100025bc:	071b      	lsls	r3, r3, #28
100025be:	f57f aef4 	bpl.w	100023aa <_ftoa+0x1f2>
100025c2:	2220      	movs	r2, #32
100025c4:	e7c6      	b.n	10002554 <_ftoa+0x39c>
100025c6:	f01a 0f01 	tst.w	sl, #1
100025ca:	f43f ae96 	beq.w	100022fa <_ftoa+0x142>
100025ce:	e78f      	b.n	100024f0 <_ftoa+0x338>
100025d0:	07a6      	lsls	r6, r4, #30
100025d2:	d134      	bne.n	1000263e <_ftoa+0x486>
100025d4:	f1bb 0f03 	cmp.w	fp, #3
100025d8:	d931      	bls.n	1000263e <_ftoa+0x486>
100025da:	9b0c      	ldr	r3, [sp, #48]	@ 0x30
100025dc:	461d      	mov	r5, r3
100025de:	1edc      	subs	r4, r3, #3
100025e0:	eb04 0a0b 	add.w	sl, r4, fp
100025e4:	462a      	mov	r2, r5
100025e6:	464b      	mov	r3, r9
100025e8:	4641      	mov	r1, r8
100025ea:	2020      	movs	r0, #32
100025ec:	3501      	adds	r5, #1
100025ee:	47b8      	blx	r7
100025f0:	4555      	cmp	r5, sl
100025f2:	d1f7      	bne.n	100025e4 <_ftoa+0x42c>
100025f4:	4655      	mov	r5, sl
100025f6:	4c1e      	ldr	r4, [pc, #120]	@ (10002670 <_ftoa+0x4b8>)
100025f8:	1ee6      	subs	r6, r4, #3
100025fa:	f814 0d01 	ldrb.w	r0, [r4, #-1]!
100025fe:	462a      	mov	r2, r5
10002600:	464b      	mov	r3, r9
10002602:	4641      	mov	r1, r8
10002604:	47b8      	blx	r7
10002606:	42a6      	cmp	r6, r4
10002608:	f105 0501 	add.w	r5, r5, #1
1000260c:	d1f5      	bne.n	100025fa <_ftoa+0x442>
1000260e:	9b07      	ldr	r3, [sp, #28]
10002610:	f10a 0a03 	add.w	sl, sl, #3
10002614:	079d      	lsls	r5, r3, #30
10002616:	f57f aed5 	bpl.w	100023c4 <_ftoa+0x20c>
1000261a:	9c0c      	ldr	r4, [sp, #48]	@ 0x30
1000261c:	ebaa 0304 	sub.w	r3, sl, r4
10002620:	459b      	cmp	fp, r3
10002622:	f67f aecf 	bls.w	100023c4 <_ftoa+0x20c>
10002626:	4652      	mov	r2, sl
10002628:	464b      	mov	r3, r9
1000262a:	4641      	mov	r1, r8
1000262c:	2020      	movs	r0, #32
1000262e:	f10a 0a01 	add.w	sl, sl, #1
10002632:	47b8      	blx	r7
10002634:	ebaa 0304 	sub.w	r3, sl, r4
10002638:	459b      	cmp	fp, r3
1000263a:	d8f4      	bhi.n	10002626 <_ftoa+0x46e>
1000263c:	e6c2      	b.n	100023c4 <_ftoa+0x20c>
1000263e:	f8dd a030 	ldr.w	sl, [sp, #48]	@ 0x30
10002642:	e7d7      	b.n	100025f4 <_ftoa+0x43c>
10002644:	45ab      	cmp	fp, r5
10002646:	f63f aea3 	bhi.w	10002390 <_ftoa+0x1d8>
1000264a:	e6ae      	b.n	100023aa <_ftoa+0x1f2>
1000264c:	f1bb 0f00 	cmp.w	fp, #0
10002650:	f43f af7a 	beq.w	10002548 <_ftoa+0x390>
10002654:	9b0d      	ldr	r3, [sp, #52]	@ 0x34
10002656:	2b00      	cmp	r3, #0
10002658:	d09f      	beq.n	1000259a <_ftoa+0x3e2>
1000265a:	f10b 3bff 	add.w	fp, fp, #4294967295
1000265e:	455d      	cmp	r5, fp
10002660:	f4ff ae96 	bcc.w	10002390 <_ftoa+0x1d8>
10002664:	2d20      	cmp	r5, #32
10002666:	f47f af74 	bne.w	10002552 <_ftoa+0x39a>
1000266a:	e69e      	b.n	100023aa <_ftoa+0x1f2>
1000266c:	3fe00000 	.word	0x3fe00000
10002670:	1000408b 	.word	0x1000408b
10002674:	00000000 	.word	0x00000000

10002678 <_etoa>:
10002678:	e92d 4ff0 	stmdb	sp!, {r4, r5, r6, r7, r8, r9, sl, fp, lr}
1000267c:	b09f      	sub	sp, #124	@ 0x7c
1000267e:	9e2a      	ldr	r6, [sp, #168]	@ 0xa8
10002680:	e9dd 4528 	ldrd	r4, r5, [sp, #160]	@ 0xa0
10002684:	4607      	mov	r7, r0
10002686:	4693      	mov	fp, r2
10002688:	9108      	str	r1, [sp, #32]
1000268a:	9309      	str	r3, [sp, #36]	@ 0x24
1000268c:	4622      	mov	r2, r4
1000268e:	462b      	mov	r3, r5
10002690:	4620      	mov	r0, r4
10002692:	4629      	mov	r1, r5
10002694:	960e      	str	r6, [sp, #56]	@ 0x38
10002696:	e9dd a62b 	ldrd	sl, r6, [sp, #172]	@ 0xac
1000269a:	f7ff fbe7 	bl	10001e6c <__wrap___aeabi_dcmpun>
1000269e:	2800      	cmp	r0, #0
100026a0:	f040 80be 	bne.w	10002820 <_etoa+0x1a8>
100026a4:	4620      	mov	r0, r4
100026a6:	4629      	mov	r1, r5
100026a8:	f04f 32ff 	mov.w	r2, #4294967295
100026ac:	4b78      	ldr	r3, [pc, #480]	@ (10002890 <_etoa+0x218>)
100026ae:	f7ff fc2b 	bl	10001f08 <__wrap___aeabi_dcmpgt>
100026b2:	2800      	cmp	r0, #0
100026b4:	f040 80b4 	bne.w	10002820 <_etoa+0x1a8>
100026b8:	4620      	mov	r0, r4
100026ba:	4629      	mov	r1, r5
100026bc:	f04f 32ff 	mov.w	r2, #4294967295
100026c0:	f46f 1380 	mvn.w	r3, #1048576	@ 0x100000
100026c4:	f7ff fbe4 	bl	10001e90 <__wrap___aeabi_dcmplt>
100026c8:	2800      	cmp	r0, #0
100026ca:	f040 80a9 	bne.w	10002820 <_etoa+0x1a8>
100026ce:	4620      	mov	r0, r4
100026d0:	4629      	mov	r1, r5
100026d2:	2200      	movs	r2, #0
100026d4:	2300      	movs	r3, #0
100026d6:	f7ff fbdb 	bl	10001e90 <__wrap___aeabi_dcmplt>
100026da:	2800      	cmp	r0, #0
100026dc:	f040 81d5 	bne.w	10002a8a <_etoa+0x412>
100026e0:	e9cd 450a 	strd	r4, r5, [sp, #40]	@ 0x28
100026e4:	e9dd 230a 	ldrd	r2, r3, [sp, #40]	@ 0x28
100026e8:	4690      	mov	r8, r2
100026ea:	4699      	mov	r9, r3
100026ec:	f406 6200 	and.w	r2, r6, #2048	@ 0x800
100026f0:	f416 6380 	ands.w	r3, r6, #1024	@ 0x400
100026f4:	920f      	str	r2, [sp, #60]	@ 0x3c
100026f6:	9313      	str	r3, [sp, #76]	@ 0x4c
100026f8:	f040 80a1 	bne.w	1000283e <_etoa+0x1c6>
100026fc:	ea58 0309 	orrs.w	r3, r8, r9
10002700:	f040 80ca 	bne.w	10002898 <_etoa+0x220>
10002704:	2a00      	cmp	r2, #0
10002706:	f040 81e3 	bne.w	10002ad0 <_etoa+0x458>
1000270a:	2306      	movs	r3, #6
1000270c:	930e      	str	r3, [sp, #56]	@ 0x38
1000270e:	f016 0202 	ands.w	r2, r6, #2
10002712:	9210      	str	r2, [sp, #64]	@ 0x40
10002714:	f040 81d4 	bne.w	10002ac0 <_etoa+0x448>
10002718:	4653      	mov	r3, sl
1000271a:	2b04      	cmp	r3, #4
1000271c:	bf38      	it	cc
1000271e:	2304      	movcc	r3, #4
10002720:	920c      	str	r2, [sp, #48]	@ 0x30
10002722:	2204      	movs	r2, #4
10002724:	3b04      	subs	r3, #4
10002726:	9212      	str	r2, [sp, #72]	@ 0x48
10002728:	930f      	str	r3, [sp, #60]	@ 0x3c
1000272a:	4620      	mov	r0, r4
1000272c:	4629      	mov	r1, r5
1000272e:	2200      	movs	r2, #0
10002730:	2300      	movs	r3, #0
10002732:	f7ff fbad 	bl	10001e90 <__wrap___aeabi_dcmplt>
10002736:	2800      	cmp	r0, #0
10002738:	f040 81f3 	bne.w	10002b22 <_etoa+0x4aa>
1000273c:	ed9d 7b0a 	vldr	d7, [sp, #40]	@ 0x28
10002740:	9b0f      	ldr	r3, [sp, #60]	@ 0x3c
10002742:	465a      	mov	r2, fp
10002744:	9303      	str	r3, [sp, #12]
10002746:	9b0e      	ldr	r3, [sp, #56]	@ 0x38
10002748:	ed8d 7b00 	vstr	d7, [sp]
1000274c:	9302      	str	r3, [sp, #8]
1000274e:	f426 6300 	bic.w	r3, r6, #2048	@ 0x800
10002752:	9304      	str	r3, [sp, #16]
10002754:	4638      	mov	r0, r7
10002756:	9b09      	ldr	r3, [sp, #36]	@ 0x24
10002758:	9908      	ldr	r1, [sp, #32]
1000275a:	f7ff fd2d 	bl	100021b8 <_ftoa>
1000275e:	4602      	mov	r2, r0
10002760:	f016 0f20 	tst.w	r6, #32
10002764:	9b09      	ldr	r3, [sp, #36]	@ 0x24
10002766:	9908      	ldr	r1, [sp, #32]
10002768:	bf0c      	ite	eq
1000276a:	2065      	moveq	r0, #101	@ 0x65
1000276c:	2045      	movne	r0, #69	@ 0x45
1000276e:	f102 0801 	add.w	r8, r2, #1
10002772:	47b8      	blx	r7
10002774:	9a0c      	ldr	r2, [sp, #48]	@ 0x30
10002776:	9b12      	ldr	r3, [sp, #72]	@ 0x48
10002778:	ac16      	add	r4, sp, #88	@ 0x58
1000277a:	1e5d      	subs	r5, r3, #1
1000277c:	ea82 73e2 	eor.w	r3, r2, r2, asr #31
10002780:	eba3 73e2 	sub.w	r3, r3, r2, asr #31
10002784:	0fd1      	lsrs	r1, r2, #31
10002786:	2600      	movs	r6, #0
10002788:	4622      	mov	r2, r4
1000278a:	4699      	mov	r9, r3
1000278c:	f8df c104 	ldr.w	ip, [pc, #260]	@ 10002894 <_etoa+0x21c>
10002790:	e001      	b.n	10002796 <_etoa+0x11e>
10002792:	2e20      	cmp	r6, #32
10002794:	d010      	beq.n	100027b8 <_etoa+0x140>
10002796:	46ce      	mov	lr, r9
10002798:	fbac 3009 	umull	r3, r0, ip, r9
1000279c:	08c0      	lsrs	r0, r0, #3
1000279e:	eb00 0380 	add.w	r3, r0, r0, lsl #2
100027a2:	eba9 0343 	sub.w	r3, r9, r3, lsl #1
100027a6:	3330      	adds	r3, #48	@ 0x30
100027a8:	f1be 0f09 	cmp.w	lr, #9
100027ac:	4681      	mov	r9, r0
100027ae:	f106 0601 	add.w	r6, r6, #1
100027b2:	f802 3b01 	strb.w	r3, [r2], #1
100027b6:	d8ec      	bhi.n	10002792 <_etoa+0x11a>
100027b8:	2305      	movs	r3, #5
100027ba:	2000      	movs	r0, #0
100027bc:	9306      	str	r3, [sp, #24]
100027be:	230a      	movs	r3, #10
100027c0:	9505      	str	r5, [sp, #20]
100027c2:	9400      	str	r4, [sp, #0]
100027c4:	9d09      	ldr	r5, [sp, #36]	@ 0x24
100027c6:	9c08      	ldr	r4, [sp, #32]
100027c8:	4642      	mov	r2, r8
100027ca:	e9cd 3003 	strd	r3, r0, [sp, #12]
100027ce:	e9cd 6101 	strd	r6, r1, [sp, #4]
100027d2:	462b      	mov	r3, r5
100027d4:	4621      	mov	r1, r4
100027d6:	4638      	mov	r0, r7
100027d8:	f7ff fbfa 	bl	10001fd0 <_ntoa_format>
100027dc:	9a10      	ldr	r2, [sp, #64]	@ 0x40
100027de:	4680      	mov	r8, r0
100027e0:	b1d2      	cbz	r2, 10002818 <_etoa+0x1a0>
100027e2:	eba0 060b 	sub.w	r6, r0, fp
100027e6:	45b2      	cmp	sl, r6
100027e8:	d916      	bls.n	10002818 <_etoa+0x1a0>
100027ea:	eb0b 0206 	add.w	r2, fp, r6
100027ee:	462b      	mov	r3, r5
100027f0:	4621      	mov	r1, r4
100027f2:	2020      	movs	r0, #32
100027f4:	3601      	adds	r6, #1
100027f6:	47b8      	blx	r7
100027f8:	45b2      	cmp	sl, r6
100027fa:	d8f6      	bhi.n	100027ea <_etoa+0x172>
100027fc:	f10b 33ff 	add.w	r3, fp, #4294967295
10002800:	4453      	add	r3, sl
10002802:	f1cb 0201 	rsb	r2, fp, #1
10002806:	eba3 0308 	sub.w	r3, r3, r8
1000280a:	4442      	add	r2, r8
1000280c:	4592      	cmp	sl, r2
1000280e:	bf38      	it	cc
10002810:	2300      	movcc	r3, #0
10002812:	f108 0801 	add.w	r8, r8, #1
10002816:	4498      	add	r8, r3
10002818:	4640      	mov	r0, r8
1000281a:	b01f      	add	sp, #124	@ 0x7c
1000281c:	e8bd 8ff0 	ldmia.w	sp!, {r4, r5, r6, r7, r8, r9, sl, fp, pc}
10002820:	465a      	mov	r2, fp
10002822:	4638      	mov	r0, r7
10002824:	e9cd 4528 	strd	r4, r5, [sp, #160]	@ 0xa0
10002828:	e9cd a62b 	strd	sl, r6, [sp, #172]	@ 0xac
1000282c:	9c0e      	ldr	r4, [sp, #56]	@ 0x38
1000282e:	9b09      	ldr	r3, [sp, #36]	@ 0x24
10002830:	9908      	ldr	r1, [sp, #32]
10002832:	942a      	str	r4, [sp, #168]	@ 0xa8
10002834:	b01f      	add	sp, #124	@ 0x7c
10002836:	e8bd 4ff0 	ldmia.w	sp!, {r4, r5, r6, r7, r8, r9, sl, fp, lr}
1000283a:	f7ff bcbd 	b.w	100021b8 <_ftoa>
1000283e:	ea58 0309 	orrs.w	r3, r8, r9
10002842:	d12b      	bne.n	1000289c <_etoa+0x224>
10002844:	2a00      	cmp	r2, #0
10002846:	f43f af62 	beq.w	1000270e <_etoa+0x96>
1000284a:	2300      	movs	r3, #0
1000284c:	930c      	str	r3, [sp, #48]	@ 0x30
1000284e:	9b0e      	ldr	r3, [sp, #56]	@ 0x38
10002850:	9a0c      	ldr	r2, [sp, #48]	@ 0x30
10002852:	4293      	cmp	r3, r2
10002854:	f300 81b9 	bgt.w	10002bca <_etoa+0x552>
10002858:	f04f 0800 	mov.w	r8, #0
1000285c:	4620      	mov	r0, r4
1000285e:	4629      	mov	r1, r5
10002860:	2200      	movs	r2, #0
10002862:	2300      	movs	r3, #0
10002864:	f7ff fb14 	bl	10001e90 <__wrap___aeabi_dcmplt>
10002868:	2800      	cmp	r0, #0
1000286a:	f040 8113 	bne.w	10002a94 <_etoa+0x41c>
1000286e:	ed9d 7b0a 	vldr	d7, [sp, #40]	@ 0x28
10002872:	f426 6600 	bic.w	r6, r6, #2048	@ 0x800
10002876:	f446 6680 	orr.w	r6, r6, #1024	@ 0x400
1000287a:	ed8d 7b28 	vstr	d7, [sp, #160]	@ 0xa0
1000287e:	465a      	mov	r2, fp
10002880:	4638      	mov	r0, r7
10002882:	e9cd 8a2a 	strd	r8, sl, [sp, #168]	@ 0xa8
10002886:	9b09      	ldr	r3, [sp, #36]	@ 0x24
10002888:	9908      	ldr	r1, [sp, #32]
1000288a:	962c      	str	r6, [sp, #176]	@ 0xb0
1000288c:	e7d2      	b.n	10002834 <_etoa+0x1bc>
1000288e:	bf00      	nop
10002890:	7fefffff 	.word	0x7fefffff
10002894:	cccccccd 	.word	0xcccccccd
10002898:	2306      	movs	r3, #6
1000289a:	930e      	str	r3, [sp, #56]	@ 0x38
1000289c:	f3c9 500a 	ubfx	r0, r9, #20, #11
100028a0:	f2a0 30ff 	subw	r0, r0, #1023	@ 0x3ff
100028a4:	f7ff fa9a 	bl	10001ddc <__wrap___aeabi_i2d>
100028a8:	a3c1      	add	r3, pc, #772	@ (adr r3, 10002bb0 <_etoa+0x538>)
100028aa:	e9d3 2300 	ldrd	r2, r3, [r3]
100028ae:	f7ff fa21 	bl	10001cf4 <__wrap___aeabi_dmul>
100028b2:	a3c1      	add	r3, pc, #772	@ (adr r3, 10002bb8 <_etoa+0x540>)
100028b4:	e9d3 2300 	ldrd	r2, r3, [r3]
100028b8:	f7ff f9f4 	bl	10001ca4 <__wrap___aeabi_dadd>
100028bc:	f3c9 0913 	ubfx	r9, r9, #0, #20
100028c0:	e9cd 010c 	strd	r0, r1, [sp, #48]	@ 0x30
100028c4:	f049 517f 	orr.w	r1, r9, #1069547520	@ 0x3fc00000
100028c8:	4640      	mov	r0, r8
100028ca:	2200      	movs	r2, #0
100028cc:	4bb2      	ldr	r3, [pc, #712]	@ (10002b98 <_etoa+0x520>)
100028ce:	f441 1140 	orr.w	r1, r1, #3145728	@ 0x300000
100028d2:	f7ff f9fb 	bl	10001ccc <__wrap___aeabi_dsub>
100028d6:	a3a4      	add	r3, pc, #656	@ (adr r3, 10002b68 <_etoa+0x4f0>)
100028d8:	e9d3 2300 	ldrd	r2, r3, [r3]
100028dc:	f7ff fa0a 	bl	10001cf4 <__wrap___aeabi_dmul>
100028e0:	4602      	mov	r2, r0
100028e2:	460b      	mov	r3, r1
100028e4:	e9dd 010c 	ldrd	r0, r1, [sp, #48]	@ 0x30
100028e8:	f7ff f9dc 	bl	10001ca4 <__wrap___aeabi_dadd>
100028ec:	f7ff fa9a 	bl	10001e24 <__wrap___aeabi_d2iz>
100028f0:	900c      	str	r0, [sp, #48]	@ 0x30
100028f2:	f7ff fa73 	bl	10001ddc <__wrap___aeabi_i2d>
100028f6:	a39e      	add	r3, pc, #632	@ (adr r3, 10002b70 <_etoa+0x4f8>)
100028f8:	e9d3 2300 	ldrd	r2, r3, [r3]
100028fc:	4680      	mov	r8, r0
100028fe:	4689      	mov	r9, r1
10002900:	f7ff f9f8 	bl	10001cf4 <__wrap___aeabi_dmul>
10002904:	2200      	movs	r2, #0
10002906:	4ba5      	ldr	r3, [pc, #660]	@ (10002b9c <_etoa+0x524>)
10002908:	f7ff f9cc 	bl	10001ca4 <__wrap___aeabi_dadd>
1000290c:	f7ff fa8a 	bl	10001e24 <__wrap___aeabi_d2iz>
10002910:	4603      	mov	r3, r0
10002912:	4649      	mov	r1, r9
10002914:	4640      	mov	r0, r8
10002916:	9312      	str	r3, [sp, #72]	@ 0x48
10002918:	a397      	add	r3, pc, #604	@ (adr r3, 10002b78 <_etoa+0x500>)
1000291a:	e9d3 2300 	ldrd	r2, r3, [r3]
1000291e:	f7ff f9e9 	bl	10001cf4 <__wrap___aeabi_dmul>
10002922:	4680      	mov	r8, r0
10002924:	9812      	ldr	r0, [sp, #72]	@ 0x48
10002926:	4689      	mov	r9, r1
10002928:	f7ff fa58 	bl	10001ddc <__wrap___aeabi_i2d>
1000292c:	a394      	add	r3, pc, #592	@ (adr r3, 10002b80 <_etoa+0x508>)
1000292e:	e9d3 2300 	ldrd	r2, r3, [r3]
10002932:	f7ff f9df 	bl	10001cf4 <__wrap___aeabi_dmul>
10002936:	4602      	mov	r2, r0
10002938:	460b      	mov	r3, r1
1000293a:	4640      	mov	r0, r8
1000293c:	4649      	mov	r1, r9
1000293e:	f7ff f9c5 	bl	10001ccc <__wrap___aeabi_dsub>
10002942:	4602      	mov	r2, r0
10002944:	460b      	mov	r3, r1
10002946:	4680      	mov	r8, r0
10002948:	4689      	mov	r9, r1
1000294a:	f7ff f9d3 	bl	10001cf4 <__wrap___aeabi_dmul>
1000294e:	4642      	mov	r2, r8
10002950:	464b      	mov	r3, r9
10002952:	e9cd 0110 	strd	r0, r1, [sp, #64]	@ 0x40
10002956:	4640      	mov	r0, r8
10002958:	4649      	mov	r1, r9
1000295a:	f7ff f9a3 	bl	10001ca4 <__wrap___aeabi_dadd>
1000295e:	2200      	movs	r2, #0
10002960:	e9cd 0114 	strd	r0, r1, [sp, #80]	@ 0x50
10002964:	e9dd 0110 	ldrd	r0, r1, [sp, #64]	@ 0x40
10002968:	4b8d      	ldr	r3, [pc, #564]	@ (10002ba0 <_etoa+0x528>)
1000296a:	f7ff f9e9 	bl	10001d40 <__wrap___aeabi_ddiv>
1000296e:	2200      	movs	r2, #0
10002970:	4b8c      	ldr	r3, [pc, #560]	@ (10002ba4 <_etoa+0x52c>)
10002972:	f7ff f997 	bl	10001ca4 <__wrap___aeabi_dadd>
10002976:	4602      	mov	r2, r0
10002978:	460b      	mov	r3, r1
1000297a:	e9dd 0110 	ldrd	r0, r1, [sp, #64]	@ 0x40
1000297e:	f7ff f9df 	bl	10001d40 <__wrap___aeabi_ddiv>
10002982:	2200      	movs	r2, #0
10002984:	4b88      	ldr	r3, [pc, #544]	@ (10002ba8 <_etoa+0x530>)
10002986:	f7ff f98d 	bl	10001ca4 <__wrap___aeabi_dadd>
1000298a:	4602      	mov	r2, r0
1000298c:	460b      	mov	r3, r1
1000298e:	e9dd 0110 	ldrd	r0, r1, [sp, #64]	@ 0x40
10002992:	f7ff f9d5 	bl	10001d40 <__wrap___aeabi_ddiv>
10002996:	4642      	mov	r2, r8
10002998:	464b      	mov	r3, r9
1000299a:	4680      	mov	r8, r0
1000299c:	4689      	mov	r9, r1
1000299e:	2000      	movs	r0, #0
100029a0:	f04f 4180 	mov.w	r1, #1073741824	@ 0x40000000
100029a4:	f7ff f992 	bl	10001ccc <__wrap___aeabi_dsub>
100029a8:	4602      	mov	r2, r0
100029aa:	460b      	mov	r3, r1
100029ac:	4640      	mov	r0, r8
100029ae:	4649      	mov	r1, r9
100029b0:	f7ff f978 	bl	10001ca4 <__wrap___aeabi_dadd>
100029b4:	4602      	mov	r2, r0
100029b6:	460b      	mov	r3, r1
100029b8:	e9dd 0114 	ldrd	r0, r1, [sp, #80]	@ 0x50
100029bc:	f7ff f9c0 	bl	10001d40 <__wrap___aeabi_ddiv>
100029c0:	2200      	movs	r2, #0
100029c2:	4b7a      	ldr	r3, [pc, #488]	@ (10002bac <_etoa+0x534>)
100029c4:	f7ff f96e 	bl	10001ca4 <__wrap___aeabi_dadd>
100029c8:	9b12      	ldr	r3, [sp, #72]	@ 0x48
100029ca:	2200      	movs	r2, #0
100029cc:	f203 3cff 	addw	ip, r3, #1023	@ 0x3ff
100029d0:	ea4f 530c 	mov.w	r3, ip, lsl #20
100029d4:	f7ff f98e 	bl	10001cf4 <__wrap___aeabi_dmul>
100029d8:	4680      	mov	r8, r0
100029da:	4689      	mov	r9, r1
100029dc:	e9dd 010a 	ldrd	r0, r1, [sp, #40]	@ 0x28
100029e0:	4642      	mov	r2, r8
100029e2:	464b      	mov	r3, r9
100029e4:	f7ff fa54 	bl	10001e90 <__wrap___aeabi_dcmplt>
100029e8:	b150      	cbz	r0, 10002a00 <_etoa+0x388>
100029ea:	9b0c      	ldr	r3, [sp, #48]	@ 0x30
100029ec:	4640      	mov	r0, r8
100029ee:	3b01      	subs	r3, #1
100029f0:	4649      	mov	r1, r9
100029f2:	930c      	str	r3, [sp, #48]	@ 0x30
100029f4:	2200      	movs	r2, #0
100029f6:	4b6b      	ldr	r3, [pc, #428]	@ (10002ba4 <_etoa+0x52c>)
100029f8:	f7ff f9a2 	bl	10001d40 <__wrap___aeabi_ddiv>
100029fc:	4680      	mov	r8, r0
100029fe:	4689      	mov	r9, r1
10002a00:	9a0c      	ldr	r2, [sp, #48]	@ 0x30
10002a02:	4643      	mov	r3, r8
10002a04:	3263      	adds	r2, #99	@ 0x63
10002a06:	2ac6      	cmp	r2, #198	@ 0xc6
10002a08:	f006 0202 	and.w	r2, r6, #2
10002a0c:	9210      	str	r2, [sp, #64]	@ 0x40
10002a0e:	4649      	mov	r1, r9
10002a10:	9a0f      	ldr	r2, [sp, #60]	@ 0x3c
10002a12:	d82c      	bhi.n	10002a6e <_etoa+0x3f6>
10002a14:	2a00      	cmp	r2, #0
10002a16:	d05e      	beq.n	10002ad6 <_etoa+0x45e>
10002a18:	2204      	movs	r2, #4
10002a1a:	9212      	str	r2, [sp, #72]	@ 0x48
10002a1c:	430b      	orrs	r3, r1
10002a1e:	f43f af16 	beq.w	1000284e <_etoa+0x1d6>
10002a22:	e9dd 010a 	ldrd	r0, r1, [sp, #40]	@ 0x28
10002a26:	a358      	add	r3, pc, #352	@ (adr r3, 10002b88 <_etoa+0x510>)
10002a28:	e9d3 2300 	ldrd	r2, r3, [r3]
10002a2c:	f7ff fa58 	bl	10001ee0 <__wrap___aeabi_dcmpge>
10002a30:	b148      	cbz	r0, 10002a46 <_etoa+0x3ce>
10002a32:	e9dd 010a 	ldrd	r0, r1, [sp, #40]	@ 0x28
10002a36:	a356      	add	r3, pc, #344	@ (adr r3, 10002b90 <_etoa+0x518>)
10002a38:	e9d3 2300 	ldrd	r2, r3, [r3]
10002a3c:	f7ff fa28 	bl	10001e90 <__wrap___aeabi_dcmplt>
10002a40:	2800      	cmp	r0, #0
10002a42:	f47f af04 	bne.w	1000284e <_etoa+0x1d6>
10002a46:	9b0e      	ldr	r3, [sp, #56]	@ 0x38
10002a48:	2b00      	cmp	r3, #0
10002a4a:	d050      	beq.n	10002aee <_etoa+0x476>
10002a4c:	9a13      	ldr	r2, [sp, #76]	@ 0x4c
10002a4e:	2a00      	cmp	r2, #0
10002a50:	d07d      	beq.n	10002b4e <_etoa+0x4d6>
10002a52:	3b01      	subs	r3, #1
10002a54:	930e      	str	r3, [sp, #56]	@ 0x38
10002a56:	9b12      	ldr	r3, [sp, #72]	@ 0x48
10002a58:	459a      	cmp	sl, r3
10002a5a:	d905      	bls.n	10002a68 <_etoa+0x3f0>
10002a5c:	9b10      	ldr	r3, [sp, #64]	@ 0x40
10002a5e:	2b00      	cmp	r3, #0
10002a60:	f000 80ae 	beq.w	10002bc0 <_etoa+0x548>
10002a64:	2302      	movs	r3, #2
10002a66:	9310      	str	r3, [sp, #64]	@ 0x40
10002a68:	2300      	movs	r3, #0
10002a6a:	930f      	str	r3, [sp, #60]	@ 0x3c
10002a6c:	e044      	b.n	10002af8 <_etoa+0x480>
10002a6e:	bb22      	cbnz	r2, 10002aba <_etoa+0x442>
10002a70:	f1ba 0f05 	cmp.w	sl, #5
10002a74:	d94f      	bls.n	10002b16 <_etoa+0x49e>
10002a76:	f006 0302 	and.w	r3, r6, #2
10002a7a:	2b00      	cmp	r3, #0
10002a7c:	d149      	bne.n	10002b12 <_etoa+0x49a>
10002a7e:	2305      	movs	r3, #5
10002a80:	9312      	str	r3, [sp, #72]	@ 0x48
10002a82:	f1aa 0305 	sub.w	r3, sl, #5
10002a86:	930f      	str	r3, [sp, #60]	@ 0x3c
10002a88:	e03a      	b.n	10002b00 <_etoa+0x488>
10002a8a:	f105 4300 	add.w	r3, r5, #2147483648	@ 0x80000000
10002a8e:	940a      	str	r4, [sp, #40]	@ 0x28
10002a90:	930b      	str	r3, [sp, #44]	@ 0x2c
10002a92:	e627      	b.n	100026e4 <_etoa+0x6c>
10002a94:	f426 6600 	bic.w	r6, r6, #2048	@ 0x800
10002a98:	f446 6680 	orr.w	r6, r6, #1024	@ 0x400
10002a9c:	4638      	mov	r0, r7
10002a9e:	962c      	str	r6, [sp, #176]	@ 0xb0
10002aa0:	e9dd 670a 	ldrd	r6, r7, [sp, #40]	@ 0x28
10002aa4:	4634      	mov	r4, r6
10002aa6:	f107 4500 	add.w	r5, r7, #2147483648	@ 0x80000000
10002aaa:	465a      	mov	r2, fp
10002aac:	e9cd 8a2a 	strd	r8, sl, [sp, #168]	@ 0xa8
10002ab0:	e9cd 4528 	strd	r4, r5, [sp, #160]	@ 0xa0
10002ab4:	9b09      	ldr	r3, [sp, #36]	@ 0x24
10002ab6:	9908      	ldr	r1, [sp, #32]
10002ab8:	e6bc      	b.n	10002834 <_etoa+0x1bc>
10002aba:	2205      	movs	r2, #5
10002abc:	9212      	str	r2, [sp, #72]	@ 0x48
10002abe:	e7ad      	b.n	10002a1c <_etoa+0x3a4>
10002ac0:	2300      	movs	r3, #0
10002ac2:	2202      	movs	r2, #2
10002ac4:	e9cd 320f 	strd	r3, r2, [sp, #60]	@ 0x3c
10002ac8:	2204      	movs	r2, #4
10002aca:	930c      	str	r3, [sp, #48]	@ 0x30
10002acc:	9212      	str	r2, [sp, #72]	@ 0x48
10002ace:	e62c      	b.n	1000272a <_etoa+0xb2>
10002ad0:	f04f 0805 	mov.w	r8, #5
10002ad4:	e6c2      	b.n	1000285c <_etoa+0x1e4>
10002ad6:	f1ba 0f04 	cmp.w	sl, #4
10002ada:	d91f      	bls.n	10002b1c <_etoa+0x4a4>
10002adc:	9b10      	ldr	r3, [sp, #64]	@ 0x40
10002ade:	2b00      	cmp	r3, #0
10002ae0:	d178      	bne.n	10002bd4 <_etoa+0x55c>
10002ae2:	2304      	movs	r3, #4
10002ae4:	9312      	str	r3, [sp, #72]	@ 0x48
10002ae6:	f1aa 0304 	sub.w	r3, sl, #4
10002aea:	930f      	str	r3, [sp, #60]	@ 0x3c
10002aec:	e004      	b.n	10002af8 <_etoa+0x480>
10002aee:	9b12      	ldr	r3, [sp, #72]	@ 0x48
10002af0:	459a      	cmp	sl, r3
10002af2:	d831      	bhi.n	10002b58 <_etoa+0x4e0>
10002af4:	9b0e      	ldr	r3, [sp, #56]	@ 0x38
10002af6:	930f      	str	r3, [sp, #60]	@ 0x3c
10002af8:	9b0c      	ldr	r3, [sp, #48]	@ 0x30
10002afa:	2b00      	cmp	r3, #0
10002afc:	f43f ae15 	beq.w	1000272a <_etoa+0xb2>
10002b00:	e9dd 010a 	ldrd	r0, r1, [sp, #40]	@ 0x28
10002b04:	4642      	mov	r2, r8
10002b06:	464b      	mov	r3, r9
10002b08:	f7ff f91a 	bl	10001d40 <__wrap___aeabi_ddiv>
10002b0c:	e9cd 010a 	strd	r0, r1, [sp, #40]	@ 0x28
10002b10:	e60b      	b.n	1000272a <_etoa+0xb2>
10002b12:	2302      	movs	r3, #2
10002b14:	9310      	str	r3, [sp, #64]	@ 0x40
10002b16:	2305      	movs	r3, #5
10002b18:	9312      	str	r3, [sp, #72]	@ 0x48
10002b1a:	e7f1      	b.n	10002b00 <_etoa+0x488>
10002b1c:	2304      	movs	r3, #4
10002b1e:	9312      	str	r3, [sp, #72]	@ 0x48
10002b20:	e7ea      	b.n	10002af8 <_etoa+0x480>
10002b22:	e9dd 450a 	ldrd	r4, r5, [sp, #40]	@ 0x28
10002b26:	46a0      	mov	r8, r4
10002b28:	9b0f      	ldr	r3, [sp, #60]	@ 0x3c
10002b2a:	f105 4900 	add.w	r9, r5, #2147483648	@ 0x80000000
10002b2e:	9303      	str	r3, [sp, #12]
10002b30:	9b0e      	ldr	r3, [sp, #56]	@ 0x38
10002b32:	465a      	mov	r2, fp
10002b34:	9302      	str	r3, [sp, #8]
10002b36:	f426 6300 	bic.w	r3, r6, #2048	@ 0x800
10002b3a:	9304      	str	r3, [sp, #16]
10002b3c:	4638      	mov	r0, r7
10002b3e:	e9cd 8900 	strd	r8, r9, [sp]
10002b42:	9b09      	ldr	r3, [sp, #36]	@ 0x24
10002b44:	9908      	ldr	r1, [sp, #32]
10002b46:	f7ff fb37 	bl	100021b8 <_ftoa>
10002b4a:	4602      	mov	r2, r0
10002b4c:	e608      	b.n	10002760 <_etoa+0xe8>
10002b4e:	9b12      	ldr	r3, [sp, #72]	@ 0x48
10002b50:	459a      	cmp	sl, r3
10002b52:	d844      	bhi.n	10002bde <_etoa+0x566>
10002b54:	920f      	str	r2, [sp, #60]	@ 0x3c
10002b56:	e7cf      	b.n	10002af8 <_etoa+0x480>
10002b58:	9b10      	ldr	r3, [sp, #64]	@ 0x40
10002b5a:	b38b      	cbz	r3, 10002bc0 <_etoa+0x548>
10002b5c:	9b0e      	ldr	r3, [sp, #56]	@ 0x38
10002b5e:	930f      	str	r3, [sp, #60]	@ 0x3c
10002b60:	2302      	movs	r3, #2
10002b62:	9310      	str	r3, [sp, #64]	@ 0x40
10002b64:	e7c8      	b.n	10002af8 <_etoa+0x480>
10002b66:	bf00      	nop
10002b68:	636f4361 	.word	0x636f4361
10002b6c:	3fd287a7 	.word	0x3fd287a7
10002b70:	0979a371 	.word	0x0979a371
10002b74:	400a934f 	.word	0x400a934f
10002b78:	bbb55516 	.word	0xbbb55516
10002b7c:	40026bb1 	.word	0x40026bb1
10002b80:	fefa39ef 	.word	0xfefa39ef
10002b84:	3fe62e42 	.word	0x3fe62e42
10002b88:	eb1c432d 	.word	0xeb1c432d
10002b8c:	3f1a36e2 	.word	0x3f1a36e2
10002b90:	00000000 	.word	0x00000000
10002b94:	412e8480 	.word	0x412e8480
10002b98:	3ff80000 	.word	0x3ff80000
10002b9c:	3fe00000 	.word	0x3fe00000
10002ba0:	402c0000 	.word	0x402c0000
10002ba4:	40240000 	.word	0x40240000
10002ba8:	40180000 	.word	0x40180000
10002bac:	3ff00000 	.word	0x3ff00000
10002bb0:	509f79fb 	.word	0x509f79fb
10002bb4:	3fd34413 	.word	0x3fd34413
10002bb8:	8b60c8b3 	.word	0x8b60c8b3
10002bbc:	3fc68a28 	.word	0x3fc68a28
10002bc0:	9b12      	ldr	r3, [sp, #72]	@ 0x48
10002bc2:	ebaa 0303 	sub.w	r3, sl, r3
10002bc6:	930f      	str	r3, [sp, #60]	@ 0x3c
10002bc8:	e796      	b.n	10002af8 <_etoa+0x480>
10002bca:	eba3 0802 	sub.w	r8, r3, r2
10002bce:	f108 38ff 	add.w	r8, r8, #4294967295
10002bd2:	e643      	b.n	1000285c <_etoa+0x1e4>
10002bd4:	2304      	movs	r3, #4
10002bd6:	9312      	str	r3, [sp, #72]	@ 0x48
10002bd8:	2302      	movs	r3, #2
10002bda:	9310      	str	r3, [sp, #64]	@ 0x40
10002bdc:	e78c      	b.n	10002af8 <_etoa+0x480>
10002bde:	9b10      	ldr	r3, [sp, #64]	@ 0x40
10002be0:	2b00      	cmp	r3, #0
10002be2:	d0ed      	beq.n	10002bc0 <_etoa+0x548>
10002be4:	2302      	movs	r3, #2
10002be6:	920f      	str	r2, [sp, #60]	@ 0x3c
10002be8:	9310      	str	r3, [sp, #64]	@ 0x40
10002bea:	e785      	b.n	10002af8 <_etoa+0x480>

10002bec <_vsnprintf>:
10002bec:	e92d 4ff0 	stmdb	sp!, {r4, r5, r6, r7, r8, r9, sl, fp, lr}
10002bf0:	b09b      	sub	sp, #108	@ 0x6c
10002bf2:	9c24      	ldr	r4, [sp, #144]	@ 0x90
10002bf4:	4d95      	ldr	r5, [pc, #596]	@ (10002e4c <_vsnprintf+0x260>)
10002bf6:	940a      	str	r4, [sp, #40]	@ 0x28
10002bf8:	4c95      	ldr	r4, [pc, #596]	@ (10002e50 <_vsnprintf+0x264>)
10002bfa:	f1b1 0a00 	subs.w	sl, r1, #0
10002bfe:	bf18      	it	ne
10002c00:	4683      	movne	fp, r0
10002c02:	6025      	str	r5, [r4, #0]
10002c04:	7818      	ldrb	r0, [r3, #0]
10002c06:	4c93      	ldr	r4, [pc, #588]	@ (10002e54 <_vsnprintf+0x268>)
10002c08:	4691      	mov	r9, r2
10002c0a:	bf08      	it	eq
10002c0c:	46a3      	moveq	fp, r4
10002c0e:	9309      	str	r3, [sp, #36]	@ 0x24
10002c10:	2800      	cmp	r0, #0
10002c12:	f000 8293 	beq.w	1000313c <_vsnprintf+0x550>
10002c16:	f04f 0800 	mov.w	r8, #0
10002c1a:	e00a      	b.n	10002c32 <_vsnprintf+0x46>
10002c1c:	4642      	mov	r2, r8
10002c1e:	464b      	mov	r3, r9
10002c20:	4651      	mov	r1, sl
10002c22:	f108 0801 	add.w	r8, r8, #1
10002c26:	47d8      	blx	fp
10002c28:	9b09      	ldr	r3, [sp, #36]	@ 0x24
10002c2a:	7818      	ldrb	r0, [r3, #0]
10002c2c:	2800      	cmp	r0, #0
10002c2e:	f000 80ce 	beq.w	10002dce <_vsnprintf+0x1e2>
10002c32:	9b09      	ldr	r3, [sp, #36]	@ 0x24
10002c34:	2825      	cmp	r0, #37	@ 0x25
10002c36:	f103 0301 	add.w	r3, r3, #1
10002c3a:	9309      	str	r3, [sp, #36]	@ 0x24
10002c3c:	d1ee      	bne.n	10002c1c <_vsnprintf+0x30>
10002c3e:	461c      	mov	r4, r3
10002c40:	2300      	movs	r3, #0
10002c42:	4622      	mov	r2, r4
10002c44:	f812 0b01 	ldrb.w	r0, [r2], #1
10002c48:	f1a0 0120 	sub.w	r1, r0, #32
10002c4c:	2910      	cmp	r1, #16
10002c4e:	d80a      	bhi.n	10002c66 <_vsnprintf+0x7a>
10002c50:	e8df f001 	tbb	[pc, r1]
10002c54:	3c090940 	.word	0x3c090940
10002c58:	09090909 	.word	0x09090909
10002c5c:	38090909 	.word	0x38090909
10002c60:	09093409 	.word	0x09093409
10002c64:	30          	.byte	0x30
10002c65:	00          	.byte	0x00
10002c66:	f1a0 0130 	sub.w	r1, r0, #48	@ 0x30
10002c6a:	2909      	cmp	r1, #9
10002c6c:	9409      	str	r4, [sp, #36]	@ 0x24
10002c6e:	f240 808a 	bls.w	10002d86 <_vsnprintf+0x19a>
10002c72:	282a      	cmp	r0, #42	@ 0x2a
10002c74:	f000 80f0 	beq.w	10002e58 <_vsnprintf+0x26c>
10002c78:	2500      	movs	r5, #0
10002c7a:	282e      	cmp	r0, #46	@ 0x2e
10002c7c:	f000 8096 	beq.w	10002dac <_vsnprintf+0x1c0>
10002c80:	2600      	movs	r6, #0
10002c82:	f1a0 0168 	sub.w	r1, r0, #104	@ 0x68
10002c86:	2912      	cmp	r1, #18
10002c88:	d82d      	bhi.n	10002ce6 <_vsnprintf+0xfa>
10002c8a:	e8df f011 	tbh	[pc, r1, lsl #1]
10002c8e:	0149      	.short	0x0149
10002c90:	0143002c 	.word	0x0143002c
10002c94:	0138002c 	.word	0x0138002c
10002c98:	002c002c 	.word	0x002c002c
10002c9c:	002c002c 	.word	0x002c002c
10002ca0:	002c002c 	.word	0x002c002c
10002ca4:	0027002c 	.word	0x0027002c
10002ca8:	002c002c 	.word	0x002c002c
10002cac:	002c002c 	.word	0x002c002c
10002cb0:	0027002c 	.word	0x0027002c
10002cb4:	4614      	mov	r4, r2
10002cb6:	f043 0301 	orr.w	r3, r3, #1
10002cba:	e7c2      	b.n	10002c42 <_vsnprintf+0x56>
10002cbc:	4614      	mov	r4, r2
10002cbe:	f043 0302 	orr.w	r3, r3, #2
10002cc2:	e7be      	b.n	10002c42 <_vsnprintf+0x56>
10002cc4:	4614      	mov	r4, r2
10002cc6:	f043 0304 	orr.w	r3, r3, #4
10002cca:	e7ba      	b.n	10002c42 <_vsnprintf+0x56>
10002ccc:	4614      	mov	r4, r2
10002cce:	f043 0310 	orr.w	r3, r3, #16
10002cd2:	e7b6      	b.n	10002c42 <_vsnprintf+0x56>
10002cd4:	4614      	mov	r4, r2
10002cd6:	f043 0308 	orr.w	r3, r3, #8
10002cda:	e7b2      	b.n	10002c42 <_vsnprintf+0x56>
10002cdc:	9909      	ldr	r1, [sp, #36]	@ 0x24
10002cde:	7848      	ldrb	r0, [r1, #1]
10002ce0:	f443 7380 	orr.w	r3, r3, #256	@ 0x100
10002ce4:	3201      	adds	r2, #1
10002ce6:	2867      	cmp	r0, #103	@ 0x67
10002ce8:	9209      	str	r2, [sp, #36]	@ 0x24
10002cea:	d87e      	bhi.n	10002dea <_vsnprintf+0x1fe>
10002cec:	2824      	cmp	r0, #36	@ 0x24
10002cee:	f240 80c1 	bls.w	10002e74 <_vsnprintf+0x288>
10002cf2:	f1a0 0225 	sub.w	r2, r0, #37	@ 0x25
10002cf6:	2a42      	cmp	r2, #66	@ 0x42
10002cf8:	f200 80bc 	bhi.w	10002e74 <_vsnprintf+0x288>
10002cfc:	e8df f012 	tbh	[pc, r2, lsl #1]
10002d00:	00ba0150 	.word	0x00ba0150
10002d04:	00ba00ba 	.word	0x00ba00ba
10002d08:	00ba00ba 	.word	0x00ba00ba
10002d0c:	00ba00ba 	.word	0x00ba00ba
10002d10:	00ba00ba 	.word	0x00ba00ba
10002d14:	00ba00ba 	.word	0x00ba00ba
10002d18:	00ba00ba 	.word	0x00ba00ba
10002d1c:	00ba00ba 	.word	0x00ba00ba
10002d20:	00ba00ba 	.word	0x00ba00ba
10002d24:	00ba00ba 	.word	0x00ba00ba
10002d28:	00ba00ba 	.word	0x00ba00ba
10002d2c:	00ba00ba 	.word	0x00ba00ba
10002d30:	00ba00ba 	.word	0x00ba00ba
10002d34:	00ba00ba 	.word	0x00ba00ba
10002d38:	00ba00ba 	.word	0x00ba00ba
10002d3c:	00ba00ba 	.word	0x00ba00ba
10002d40:	01370119 	.word	0x01370119
10002d44:	00ba0119 	.word	0x00ba0119
10002d48:	00ba00ba 	.word	0x00ba00ba
10002d4c:	00ba00ba 	.word	0x00ba00ba
10002d50:	00ba00ba 	.word	0x00ba00ba
10002d54:	00ba00ba 	.word	0x00ba00ba
10002d58:	00ba00ba 	.word	0x00ba00ba
10002d5c:	00ba00ba 	.word	0x00ba00ba
10002d60:	00ba00ba 	.word	0x00ba00ba
10002d64:	01bc00ba 	.word	0x01bc00ba
10002d68:	00ba00ba 	.word	0x00ba00ba
10002d6c:	00ba00ba 	.word	0x00ba00ba
10002d70:	00ba00ba 	.word	0x00ba00ba
10002d74:	00ba00ba 	.word	0x00ba00ba
10002d78:	01bc00ba 	.word	0x01bc00ba
10002d7c:	01bc0158 	.word	0x01bc0158
10002d80:	01370119 	.word	0x01370119
10002d84:	0119      	.short	0x0119
10002d86:	2500      	movs	r5, #0
10002d88:	e000      	b.n	10002d8c <_vsnprintf+0x1a0>
10002d8a:	3201      	adds	r2, #1
10002d8c:	eb05 0585 	add.w	r5, r5, r5, lsl #2
10002d90:	eb00 0545 	add.w	r5, r0, r5, lsl #1
10002d94:	7810      	ldrb	r0, [r2, #0]
10002d96:	3d30      	subs	r5, #48	@ 0x30
10002d98:	f1a0 0130 	sub.w	r1, r0, #48	@ 0x30
10002d9c:	2909      	cmp	r1, #9
10002d9e:	d9f4      	bls.n	10002d8a <_vsnprintf+0x19e>
10002da0:	282e      	cmp	r0, #46	@ 0x2e
10002da2:	9209      	str	r2, [sp, #36]	@ 0x24
10002da4:	f102 0201 	add.w	r2, r2, #1
10002da8:	f47f af6a 	bne.w	10002c80 <_vsnprintf+0x94>
10002dac:	9909      	ldr	r1, [sp, #36]	@ 0x24
10002dae:	f443 6380 	orr.w	r3, r3, #1024	@ 0x400
10002db2:	7848      	ldrb	r0, [r1, #1]
10002db4:	4611      	mov	r1, r2
10002db6:	f1a0 0630 	sub.w	r6, r0, #48	@ 0x30
10002dba:	2e09      	cmp	r6, #9
10002dbc:	f240 8121 	bls.w	10003002 <_vsnprintf+0x416>
10002dc0:	282a      	cmp	r0, #42	@ 0x2a
10002dc2:	f000 812f 	beq.w	10003024 <_vsnprintf+0x438>
10002dc6:	9209      	str	r2, [sp, #36]	@ 0x24
10002dc8:	2600      	movs	r6, #0
10002dca:	3201      	adds	r2, #1
10002dcc:	e759      	b.n	10002c82 <_vsnprintf+0x96>
10002dce:	4644      	mov	r4, r8
10002dd0:	45c1      	cmp	r9, r8
10002dd2:	d801      	bhi.n	10002dd8 <_vsnprintf+0x1ec>
10002dd4:	f109 38ff 	add.w	r8, r9, #4294967295
10002dd8:	464b      	mov	r3, r9
10002dda:	4642      	mov	r2, r8
10002ddc:	4651      	mov	r1, sl
10002dde:	2000      	movs	r0, #0
10002de0:	47d8      	blx	fp
10002de2:	4620      	mov	r0, r4
10002de4:	b01b      	add	sp, #108	@ 0x6c
10002de6:	e8bd 8ff0 	ldmia.w	sp!, {r4, r5, r6, r7, r8, r9, sl, fp, pc}
10002dea:	f1a0 0269 	sub.w	r2, r0, #105	@ 0x69
10002dee:	b2d2      	uxtb	r2, r2
10002df0:	2a0f      	cmp	r2, #15
10002df2:	d83f      	bhi.n	10002e74 <_vsnprintf+0x288>
10002df4:	2101      	movs	r1, #1
10002df6:	f249 0741 	movw	r7, #36929	@ 0x9041
10002dfa:	4091      	lsls	r1, r2
10002dfc:	4039      	ands	r1, r7
10002dfe:	f040 80f3 	bne.w	10002fe8 <_vsnprintf+0x3fc>
10002e02:	2a0a      	cmp	r2, #10
10002e04:	d03d      	beq.n	10002e82 <_vsnprintf+0x296>
10002e06:	2a07      	cmp	r2, #7
10002e08:	d134      	bne.n	10002e74 <_vsnprintf+0x288>
10002e0a:	9d0a      	ldr	r5, [sp, #40]	@ 0x28
10002e0c:	f855 2b04 	ldr.w	r2, [r5], #4
10002e10:	2a00      	cmp	r2, #0
10002e12:	f000 8113 	beq.w	1000303c <_vsnprintf+0x450>
10002e16:	f043 0021 	orr.w	r0, r3, #33	@ 0x21
10002e1a:	ab12      	add	r3, sp, #72	@ 0x48
10002e1c:	461f      	mov	r7, r3
10002e1e:	930b      	str	r3, [sp, #44]	@ 0x2c
10002e20:	e003      	b.n	10002e2a <_vsnprintf+0x23e>
10002e22:	2920      	cmp	r1, #32
10002e24:	f000 8114 	beq.w	10003050 <_vsnprintf+0x464>
10002e28:	461a      	mov	r2, r3
10002e2a:	f002 040f 	and.w	r4, r2, #15
10002e2e:	4623      	mov	r3, r4
10002e30:	2c09      	cmp	r4, #9
10002e32:	bf94      	ite	ls
10002e34:	3330      	addls	r3, #48	@ 0x30
10002e36:	3337      	addhi	r3, #55	@ 0x37
10002e38:	2a0f      	cmp	r2, #15
10002e3a:	f807 3b01 	strb.w	r3, [r7], #1
10002e3e:	f101 0101 	add.w	r1, r1, #1
10002e42:	ea4f 1312 	mov.w	r3, r2, lsr #4
10002e46:	d8ec      	bhi.n	10002e22 <_vsnprintf+0x236>
10002e48:	e102      	b.n	10003050 <_vsnprintf+0x464>
10002e4a:	bf00      	nop
10002e4c:	10002bed 	.word	0x10002bed
10002e50:	20000824 	.word	0x20000824
10002e54:	10001f31 	.word	0x10001f31
10002e58:	990a      	ldr	r1, [sp, #40]	@ 0x28
10002e5a:	9809      	ldr	r0, [sp, #36]	@ 0x24
10002e5c:	f851 5b04 	ldr.w	r5, [r1], #4
10002e60:	7840      	ldrb	r0, [r0, #1]
10002e62:	2d00      	cmp	r5, #0
10002e64:	e9cd 2109 	strd	r2, r1, [sp, #36]	@ 0x24
10002e68:	bfbc      	itt	lt
10002e6a:	f043 0302 	orrlt.w	r3, r3, #2
10002e6e:	426d      	neglt	r5, r5
10002e70:	3201      	adds	r2, #1
10002e72:	e702      	b.n	10002c7a <_vsnprintf+0x8e>
10002e74:	4642      	mov	r2, r8
10002e76:	464b      	mov	r3, r9
10002e78:	4651      	mov	r1, sl
10002e7a:	f108 0801 	add.w	r8, r8, #1
10002e7e:	47d8      	blx	fp
10002e80:	e6d2      	b.n	10002c28 <_vsnprintf+0x3c>
10002e82:	990a      	ldr	r1, [sp, #40]	@ 0x28
10002e84:	2e00      	cmp	r6, #0
10002e86:	f851 7b04 	ldr.w	r7, [r1], #4
10002e8a:	bf18      	it	ne
10002e8c:	4632      	movne	r2, r6
10002e8e:	7838      	ldrb	r0, [r7, #0]
10002e90:	bf08      	it	eq
10002e92:	f04f 32ff 	moveq.w	r2, #4294967295
10002e96:	2800      	cmp	r0, #0
10002e98:	f000 837b 	beq.w	10003592 <_vsnprintf+0x9a6>
10002e9c:	18bc      	adds	r4, r7, r2
10002e9e:	46a4      	mov	ip, r4
10002ea0:	463a      	mov	r2, r7
10002ea2:	e004      	b.n	10002eae <_vsnprintf+0x2c2>
10002ea4:	f812 4f01 	ldrb.w	r4, [r2, #1]!
10002ea8:	2c00      	cmp	r4, #0
10002eaa:	f000 813f 	beq.w	1000312c <_vsnprintf+0x540>
10002eae:	4594      	cmp	ip, r2
10002eb0:	d1f8      	bne.n	10002ea4 <_vsnprintf+0x2b8>
10002eb2:	4664      	mov	r4, ip
10002eb4:	1be4      	subs	r4, r4, r7
10002eb6:	055a      	lsls	r2, r3, #21
10002eb8:	f140 8122 	bpl.w	10003100 <_vsnprintf+0x514>
10002ebc:	42b4      	cmp	r4, r6
10002ebe:	bf28      	it	cs
10002ec0:	4634      	movcs	r4, r6
10002ec2:	f013 0302 	ands.w	r3, r3, #2
10002ec6:	f000 8288 	beq.w	100033da <_vsnprintf+0x7ee>
10002eca:	2302      	movs	r3, #2
10002ecc:	e9cd 510a 	strd	r5, r1, [sp, #40]	@ 0x28
10002ed0:	4642      	mov	r2, r8
10002ed2:	461d      	mov	r5, r3
10002ed4:	4446      	add	r6, r8
10002ed6:	e008      	b.n	10002eea <_vsnprintf+0x2fe>
10002ed8:	464b      	mov	r3, r9
10002eda:	4651      	mov	r1, sl
10002edc:	47d8      	blx	fp
10002ede:	f817 0f01 	ldrb.w	r0, [r7, #1]!
10002ee2:	f108 0801 	add.w	r8, r8, #1
10002ee6:	b110      	cbz	r0, 10002eee <_vsnprintf+0x302>
10002ee8:	4642      	mov	r2, r8
10002eea:	4546      	cmp	r6, r8
10002eec:	d1f4      	bne.n	10002ed8 <_vsnprintf+0x2ec>
10002eee:	462b      	mov	r3, r5
10002ef0:	990b      	ldr	r1, [sp, #44]	@ 0x2c
10002ef2:	9d0a      	ldr	r5, [sp, #40]	@ 0x28
10002ef4:	2b00      	cmp	r3, #0
10002ef6:	f040 8141 	bne.w	1000317c <_vsnprintf+0x590>
10002efa:	910a      	str	r1, [sp, #40]	@ 0x28
10002efc:	e694      	b.n	10002c28 <_vsnprintf+0x3c>
10002efe:	9909      	ldr	r1, [sp, #36]	@ 0x24
10002f00:	7848      	ldrb	r0, [r1, #1]
10002f02:	286c      	cmp	r0, #108	@ 0x6c
10002f04:	f47f aeec 	bne.w	10002ce0 <_vsnprintf+0xf4>
10002f08:	460a      	mov	r2, r1
10002f0a:	7888      	ldrb	r0, [r1, #2]
10002f0c:	f443 7340 	orr.w	r3, r3, #768	@ 0x300
10002f10:	3203      	adds	r2, #3
10002f12:	e6e8      	b.n	10002ce6 <_vsnprintf+0xfa>
10002f14:	9909      	ldr	r1, [sp, #36]	@ 0x24
10002f16:	f443 7300 	orr.w	r3, r3, #512	@ 0x200
10002f1a:	7848      	ldrb	r0, [r1, #1]
10002f1c:	3201      	adds	r2, #1
10002f1e:	e6e2      	b.n	10002ce6 <_vsnprintf+0xfa>
10002f20:	9909      	ldr	r1, [sp, #36]	@ 0x24
10002f22:	7848      	ldrb	r0, [r1, #1]
10002f24:	2868      	cmp	r0, #104	@ 0x68
10002f26:	f000 8103 	beq.w	10003130 <_vsnprintf+0x544>
10002f2a:	f043 0380 	orr.w	r3, r3, #128	@ 0x80
10002f2e:	3201      	adds	r2, #1
10002f30:	e6d9      	b.n	10002ce6 <_vsnprintf+0xfa>
10002f32:	2867      	cmp	r0, #103	@ 0x67
10002f34:	f000 80d9 	beq.w	100030ea <_vsnprintf+0x4fe>
10002f38:	2847      	cmp	r0, #71	@ 0x47
10002f3a:	f000 80dc 	beq.w	100030f6 <_vsnprintf+0x50a>
10002f3e:	2845      	cmp	r0, #69	@ 0x45
10002f40:	f000 80db 	beq.w	100030fa <_vsnprintf+0x50e>
10002f44:	e9cd 5303 	strd	r5, r3, [sp, #12]
10002f48:	9b0a      	ldr	r3, [sp, #40]	@ 0x28
10002f4a:	9602      	str	r6, [sp, #8]
10002f4c:	3307      	adds	r3, #7
10002f4e:	f023 0307 	bic.w	r3, r3, #7
10002f52:	461c      	mov	r4, r3
10002f54:	4642      	mov	r2, r8
10002f56:	e8f4 6702 	ldrd	r6, r7, [r4], #8
10002f5a:	464b      	mov	r3, r9
10002f5c:	4651      	mov	r1, sl
10002f5e:	4658      	mov	r0, fp
10002f60:	e9cd 6700 	strd	r6, r7, [sp]
10002f64:	940a      	str	r4, [sp, #40]	@ 0x28
10002f66:	f7ff fb87 	bl	10002678 <_etoa>
10002f6a:	4680      	mov	r8, r0
10002f6c:	e65c      	b.n	10002c28 <_vsnprintf+0x3c>
10002f6e:	2846      	cmp	r0, #70	@ 0x46
10002f70:	bf08      	it	eq
10002f72:	f043 0320 	orreq.w	r3, r3, #32
10002f76:	e9cd 5303 	strd	r5, r3, [sp, #12]
10002f7a:	9b0a      	ldr	r3, [sp, #40]	@ 0x28
10002f7c:	9602      	str	r6, [sp, #8]
10002f7e:	3307      	adds	r3, #7
10002f80:	f023 0307 	bic.w	r3, r3, #7
10002f84:	461c      	mov	r4, r3
10002f86:	4642      	mov	r2, r8
10002f88:	e8f4 6702 	ldrd	r6, r7, [r4], #8
10002f8c:	464b      	mov	r3, r9
10002f8e:	4651      	mov	r1, sl
10002f90:	4658      	mov	r0, fp
10002f92:	e9cd 6700 	strd	r6, r7, [sp]
10002f96:	940a      	str	r4, [sp, #40]	@ 0x28
10002f98:	f7ff f90e 	bl	100021b8 <_ftoa>
10002f9c:	4680      	mov	r8, r0
10002f9e:	e643      	b.n	10002c28 <_vsnprintf+0x3c>
10002fa0:	4642      	mov	r2, r8
10002fa2:	464b      	mov	r3, r9
10002fa4:	4651      	mov	r1, sl
10002fa6:	2025      	movs	r0, #37	@ 0x25
10002fa8:	f108 0801 	add.w	r8, r8, #1
10002fac:	47d8      	blx	fp
10002fae:	e63b      	b.n	10002c28 <_vsnprintf+0x3c>
10002fb0:	9a0a      	ldr	r2, [sp, #40]	@ 0x28
10002fb2:	0799      	lsls	r1, r3, #30
10002fb4:	f102 0404 	add.w	r4, r2, #4
10002fb8:	f108 0601 	add.w	r6, r8, #1
10002fbc:	f140 80c6 	bpl.w	1000314c <_vsnprintf+0x560>
10002fc0:	7810      	ldrb	r0, [r2, #0]
10002fc2:	464b      	mov	r3, r9
10002fc4:	4642      	mov	r2, r8
10002fc6:	4651      	mov	r1, sl
10002fc8:	47d8      	blx	fp
10002fca:	2d01      	cmp	r5, #1
10002fcc:	bf88      	it	hi
10002fce:	44a8      	addhi	r8, r5
10002fd0:	f240 81bd 	bls.w	1000334e <_vsnprintf+0x762>
10002fd4:	4632      	mov	r2, r6
10002fd6:	464b      	mov	r3, r9
10002fd8:	4651      	mov	r1, sl
10002fda:	2020      	movs	r0, #32
10002fdc:	3601      	adds	r6, #1
10002fde:	47d8      	blx	fp
10002fe0:	4546      	cmp	r6, r8
10002fe2:	d1f7      	bne.n	10002fd4 <_vsnprintf+0x3e8>
10002fe4:	940a      	str	r4, [sp, #40]	@ 0x28
10002fe6:	e61f      	b.n	10002c28 <_vsnprintf+0x3c>
10002fe8:	286f      	cmp	r0, #111	@ 0x6f
10002fea:	f000 8081 	beq.w	100030f0 <_vsnprintf+0x504>
10002fee:	f240 8248 	bls.w	10003482 <_vsnprintf+0x896>
10002ff2:	2878      	cmp	r0, #120	@ 0x78
10002ff4:	f000 8190 	beq.w	10003318 <_vsnprintf+0x72c>
10002ff8:	270a      	movs	r7, #10
10002ffa:	f023 0310 	bic.w	r3, r3, #16
10002ffe:	46bc      	mov	ip, r7
10003000:	e041      	b.n	10003086 <_vsnprintf+0x49a>
10003002:	2600      	movs	r6, #0
10003004:	eb06 0686 	add.w	r6, r6, r6, lsl #2
10003008:	eb00 0046 	add.w	r0, r0, r6, lsl #1
1000300c:	f1a0 0630 	sub.w	r6, r0, #48	@ 0x30
10003010:	f811 0f01 	ldrb.w	r0, [r1, #1]!
10003014:	f1a0 0230 	sub.w	r2, r0, #48	@ 0x30
10003018:	2a09      	cmp	r2, #9
1000301a:	d9f3      	bls.n	10003004 <_vsnprintf+0x418>
1000301c:	460a      	mov	r2, r1
1000301e:	9109      	str	r1, [sp, #36]	@ 0x24
10003020:	3201      	adds	r2, #1
10003022:	e62e      	b.n	10002c82 <_vsnprintf+0x96>
10003024:	e9dd 2109 	ldrd	r2, r1, [sp, #36]	@ 0x24
10003028:	f851 6b04 	ldr.w	r6, [r1], #4
1000302c:	7890      	ldrb	r0, [r2, #2]
1000302e:	3202      	adds	r2, #2
10003030:	9209      	str	r2, [sp, #36]	@ 0x24
10003032:	910a      	str	r1, [sp, #40]	@ 0x28
10003034:	3201      	adds	r2, #1
10003036:	ea26 76e6 	bic.w	r6, r6, r6, asr #31
1000303a:	e622      	b.n	10002c82 <_vsnprintf+0x96>
1000303c:	f023 0010 	bic.w	r0, r3, #16
10003040:	f413 6280 	ands.w	r2, r3, #1024	@ 0x400
10003044:	f040 0021 	orr.w	r0, r0, #33	@ 0x21
10003048:	f43f aee7 	beq.w	10002e1a <_vsnprintf+0x22e>
1000304c:	ab12      	add	r3, sp, #72	@ 0x48
1000304e:	930b      	str	r3, [sp, #44]	@ 0x2c
10003050:	9b0b      	ldr	r3, [sp, #44]	@ 0x2c
10003052:	9006      	str	r0, [sp, #24]
10003054:	9300      	str	r3, [sp, #0]
10003056:	2308      	movs	r3, #8
10003058:	2010      	movs	r0, #16
1000305a:	9305      	str	r3, [sp, #20]
1000305c:	2300      	movs	r3, #0
1000305e:	4642      	mov	r2, r8
10003060:	e9cd 3002 	strd	r3, r0, [sp, #8]
10003064:	9101      	str	r1, [sp, #4]
10003066:	464b      	mov	r3, r9
10003068:	4651      	mov	r1, sl
1000306a:	4658      	mov	r0, fp
1000306c:	9604      	str	r6, [sp, #16]
1000306e:	f7fe ffaf 	bl	10001fd0 <_ntoa_format>
10003072:	950a      	str	r5, [sp, #40]	@ 0x28
10003074:	4680      	mov	r8, r0
10003076:	e5d7      	b.n	10002c28 <_vsnprintf+0x3c>
10003078:	2858      	cmp	r0, #88	@ 0x58
1000307a:	d062      	beq.n	10003142 <_vsnprintf+0x556>
1000307c:	2862      	cmp	r0, #98	@ 0x62
1000307e:	f040 808f 	bne.w	100031a0 <_vsnprintf+0x5b4>
10003082:	2702      	movs	r7, #2
10003084:	46bc      	mov	ip, r7
10003086:	f413 6080 	ands.w	r0, r3, #1024	@ 0x400
1000308a:	f000 80dd 	beq.w	10003248 <_vsnprintf+0x65c>
1000308e:	f023 030d 	bic.w	r3, r3, #13
10003092:	f413 7200 	ands.w	r2, r3, #512	@ 0x200
10003096:	f040 8181 	bne.w	1000339c <_vsnprintf+0x7b0>
1000309a:	990a      	ldr	r1, [sp, #40]	@ 0x28
1000309c:	1d0f      	adds	r7, r1, #4
1000309e:	f413 7180 	ands.w	r1, r3, #256	@ 0x100
100030a2:	f040 8237 	bne.w	10003514 <_vsnprintf+0x928>
100030a6:	065c      	lsls	r4, r3, #25
100030a8:	9a0a      	ldr	r2, [sp, #40]	@ 0x28
100030aa:	f140 813b 	bpl.w	10003324 <_vsnprintf+0x738>
100030ae:	7812      	ldrb	r2, [r2, #0]
100030b0:	2a00      	cmp	r2, #0
100030b2:	f040 814e 	bne.w	10003352 <_vsnprintf+0x766>
100030b6:	f023 0310 	bic.w	r3, r3, #16
100030ba:	2800      	cmp	r0, #0
100030bc:	f000 8149 	beq.w	10003352 <_vsnprintf+0x766>
100030c0:	4611      	mov	r1, r2
100030c2:	aa12      	add	r2, sp, #72	@ 0x48
100030c4:	920b      	str	r2, [sp, #44]	@ 0x2c
100030c6:	e9cd 5305 	strd	r5, r3, [sp, #20]
100030ca:	e9cd c603 	strd	ip, r6, [sp, #12]
100030ce:	9101      	str	r1, [sp, #4]
100030d0:	9b0b      	ldr	r3, [sp, #44]	@ 0x2c
100030d2:	4642      	mov	r2, r8
100030d4:	9300      	str	r3, [sp, #0]
100030d6:	2300      	movs	r3, #0
100030d8:	4651      	mov	r1, sl
100030da:	9302      	str	r3, [sp, #8]
100030dc:	4658      	mov	r0, fp
100030de:	464b      	mov	r3, r9
100030e0:	f7fe ff76 	bl	10001fd0 <_ntoa_format>
100030e4:	970a      	str	r7, [sp, #40]	@ 0x28
100030e6:	4680      	mov	r8, r0
100030e8:	e59e      	b.n	10002c28 <_vsnprintf+0x3c>
100030ea:	f443 6300 	orr.w	r3, r3, #2048	@ 0x800
100030ee:	e729      	b.n	10002f44 <_vsnprintf+0x358>
100030f0:	2708      	movs	r7, #8
100030f2:	46bc      	mov	ip, r7
100030f4:	e7c7      	b.n	10003086 <_vsnprintf+0x49a>
100030f6:	f443 6300 	orr.w	r3, r3, #2048	@ 0x800
100030fa:	f043 0320 	orr.w	r3, r3, #32
100030fe:	e721      	b.n	10002f44 <_vsnprintf+0x358>
10003100:	f013 0302 	ands.w	r3, r3, #2
10003104:	f000 818e 	beq.w	10003424 <_vsnprintf+0x838>
10003108:	2302      	movs	r3, #2
1000310a:	950a      	str	r5, [sp, #40]	@ 0x28
1000310c:	461e      	mov	r6, r3
1000310e:	460d      	mov	r5, r1
10003110:	4642      	mov	r2, r8
10003112:	464b      	mov	r3, r9
10003114:	4651      	mov	r1, sl
10003116:	47d8      	blx	fp
10003118:	f817 0f01 	ldrb.w	r0, [r7, #1]!
1000311c:	f108 0801 	add.w	r8, r8, #1
10003120:	2800      	cmp	r0, #0
10003122:	d1f5      	bne.n	10003110 <_vsnprintf+0x524>
10003124:	4629      	mov	r1, r5
10003126:	4633      	mov	r3, r6
10003128:	9d0a      	ldr	r5, [sp, #40]	@ 0x28
1000312a:	e6e3      	b.n	10002ef4 <_vsnprintf+0x308>
1000312c:	1bd4      	subs	r4, r2, r7
1000312e:	e6c2      	b.n	10002eb6 <_vsnprintf+0x2ca>
10003130:	460a      	mov	r2, r1
10003132:	7888      	ldrb	r0, [r1, #2]
10003134:	f043 03c0 	orr.w	r3, r3, #192	@ 0xc0
10003138:	3203      	adds	r2, #3
1000313a:	e5d4      	b.n	10002ce6 <_vsnprintf+0xfa>
1000313c:	4604      	mov	r4, r0
1000313e:	4680      	mov	r8, r0
10003140:	e646      	b.n	10002dd0 <_vsnprintf+0x1e4>
10003142:	2710      	movs	r7, #16
10003144:	f043 0320 	orr.w	r3, r3, #32
10003148:	46bc      	mov	ip, r7
1000314a:	e79c      	b.n	10003086 <_vsnprintf+0x49a>
1000314c:	2d01      	cmp	r5, #1
1000314e:	f240 80f8 	bls.w	10003342 <_vsnprintf+0x756>
10003152:	4646      	mov	r6, r8
10003154:	f108 37ff 	add.w	r7, r8, #4294967295
10003158:	442f      	add	r7, r5
1000315a:	4632      	mov	r2, r6
1000315c:	464b      	mov	r3, r9
1000315e:	4651      	mov	r1, sl
10003160:	2020      	movs	r0, #32
10003162:	3601      	adds	r6, #1
10003164:	47d8      	blx	fp
10003166:	42be      	cmp	r6, r7
10003168:	d1f7      	bne.n	1000315a <_vsnprintf+0x56e>
1000316a:	9b0a      	ldr	r3, [sp, #40]	@ 0x28
1000316c:	4632      	mov	r2, r6
1000316e:	7818      	ldrb	r0, [r3, #0]
10003170:	4651      	mov	r1, sl
10003172:	464b      	mov	r3, r9
10003174:	47d8      	blx	fp
10003176:	44a8      	add	r8, r5
10003178:	940a      	str	r4, [sp, #40]	@ 0x28
1000317a:	e555      	b.n	10002c28 <_vsnprintf+0x3c>
1000317c:	4646      	mov	r6, r8
1000317e:	42a5      	cmp	r5, r4
10003180:	f67f aebb 	bls.w	10002efa <_vsnprintf+0x30e>
10003184:	44a8      	add	r8, r5
10003186:	eba8 0804 	sub.w	r8, r8, r4
1000318a:	460c      	mov	r4, r1
1000318c:	4632      	mov	r2, r6
1000318e:	464b      	mov	r3, r9
10003190:	4651      	mov	r1, sl
10003192:	2020      	movs	r0, #32
10003194:	3601      	adds	r6, #1
10003196:	47d8      	blx	fp
10003198:	4546      	cmp	r6, r8
1000319a:	d1f7      	bne.n	1000318c <_vsnprintf+0x5a0>
1000319c:	4621      	mov	r1, r4
1000319e:	e6ac      	b.n	10002efa <_vsnprintf+0x30e>
100031a0:	f413 6280 	ands.w	r2, r3, #1024	@ 0x400
100031a4:	f000 80bb 	beq.w	1000331e <_vsnprintf+0x732>
100031a8:	f44f 6280 	mov.w	r2, #1024	@ 0x400
100031ac:	f023 0c11 	bic.w	ip, r3, #17
100031b0:	f41c 7700 	ands.w	r7, ip, #512	@ 0x200
100031b4:	9b0a      	ldr	r3, [sp, #40]	@ 0x28
100031b6:	d14a      	bne.n	1000324e <_vsnprintf+0x662>
100031b8:	f41c 7080 	ands.w	r0, ip, #256	@ 0x100
100031bc:	f103 0404 	add.w	r4, r3, #4
100031c0:	f040 8134 	bne.w	1000342c <_vsnprintf+0x840>
100031c4:	f01c 0f40 	tst.w	ip, #64	@ 0x40
100031c8:	f040 80a3 	bne.w	10003312 <_vsnprintf+0x726>
100031cc:	f01c 0f80 	tst.w	ip, #128	@ 0x80
100031d0:	f000 81d3 	beq.w	1000357a <_vsnprintf+0x98e>
100031d4:	f9b3 1000 	ldrsh.w	r1, [r3]
100031d8:	ea81 77e1 	eor.w	r7, r1, r1, asr #31
100031dc:	eba7 77e1 	sub.w	r7, r7, r1, asr #31
100031e0:	b2bf      	uxth	r7, r7
100031e2:	0fcb      	lsrs	r3, r1, #31
100031e4:	2900      	cmp	r1, #0
100031e6:	f000 8156 	beq.w	10003496 <_vsnprintf+0x8aa>
100031ea:	463a      	mov	r2, r7
100031ec:	a912      	add	r1, sp, #72	@ 0x48
100031ee:	460f      	mov	r7, r1
100031f0:	f8df e3d8 	ldr.w	lr, [pc, #984]	@ 100035cc <_vsnprintf+0x9e0>
100031f4:	910b      	str	r1, [sp, #44]	@ 0x2c
100031f6:	930a      	str	r3, [sp, #40]	@ 0x28
100031f8:	950c      	str	r5, [sp, #48]	@ 0x30
100031fa:	e001      	b.n	10003200 <_vsnprintf+0x614>
100031fc:	2820      	cmp	r0, #32
100031fe:	d00f      	beq.n	10003220 <_vsnprintf+0x634>
10003200:	4615      	mov	r5, r2
10003202:	fbae 1302 	umull	r1, r3, lr, r2
10003206:	08db      	lsrs	r3, r3, #3
10003208:	eb03 0183 	add.w	r1, r3, r3, lsl #2
1000320c:	eba2 0141 	sub.w	r1, r2, r1, lsl #1
10003210:	3130      	adds	r1, #48	@ 0x30
10003212:	2d09      	cmp	r5, #9
10003214:	461a      	mov	r2, r3
10003216:	f100 0001 	add.w	r0, r0, #1
1000321a:	f807 1b01 	strb.w	r1, [r7], #1
1000321e:	d8ed      	bhi.n	100031fc <_vsnprintf+0x610>
10003220:	9b0a      	ldr	r3, [sp, #40]	@ 0x28
10003222:	9d0c      	ldr	r5, [sp, #48]	@ 0x30
10003224:	e9cd 5c05 	strd	r5, ip, [sp, #20]
10003228:	e9cd 0301 	strd	r0, r3, [sp, #4]
1000322c:	9604      	str	r6, [sp, #16]
1000322e:	9b0b      	ldr	r3, [sp, #44]	@ 0x2c
10003230:	4642      	mov	r2, r8
10003232:	9300      	str	r3, [sp, #0]
10003234:	230a      	movs	r3, #10
10003236:	4651      	mov	r1, sl
10003238:	9303      	str	r3, [sp, #12]
1000323a:	4658      	mov	r0, fp
1000323c:	464b      	mov	r3, r9
1000323e:	f7fe fec7 	bl	10001fd0 <_ntoa_format>
10003242:	940a      	str	r4, [sp, #40]	@ 0x28
10003244:	4680      	mov	r8, r0
10003246:	e4ef      	b.n	10002c28 <_vsnprintf+0x3c>
10003248:	f023 030c 	bic.w	r3, r3, #12
1000324c:	e721      	b.n	10003092 <_vsnprintf+0x4a6>
1000324e:	3307      	adds	r3, #7
10003250:	f023 0307 	bic.w	r3, r3, #7
10003254:	4619      	mov	r1, r3
10003256:	4608      	mov	r0, r1
10003258:	685b      	ldr	r3, [r3, #4]
1000325a:	f850 1b08 	ldr.w	r1, [r0], #8
1000325e:	0fdf      	lsrs	r7, r3, #31
10003260:	900a      	str	r0, [sp, #40]	@ 0x28
10003262:	ea51 0003 	orrs.w	r0, r1, r3
10003266:	d162      	bne.n	1000332e <_vsnprintf+0x742>
10003268:	2a00      	cmp	r2, #0
1000326a:	f040 819f 	bne.w	100035ac <_vsnprintf+0x9c0>
1000326e:	4613      	mov	r3, r2
10003270:	4611      	mov	r1, r2
10003272:	aa12      	add	r2, sp, #72	@ 0x48
10003274:	e9cd 750c 	strd	r7, r5, [sp, #48]	@ 0x30
10003278:	2000      	movs	r0, #0
1000327a:	4615      	mov	r5, r2
1000327c:	e9cd 680e 	strd	r6, r8, [sp, #56]	@ 0x38
10003280:	f8df e348 	ldr.w	lr, [pc, #840]	@ 100035cc <_vsnprintf+0x9e0>
10003284:	920b      	str	r2, [sp, #44]	@ 0x2c
10003286:	e001      	b.n	1000328c <_vsnprintf+0x6a0>
10003288:	2820      	cmp	r0, #32
1000328a:	d02d      	beq.n	100032e8 <_vsnprintf+0x6fc>
1000328c:	185a      	adds	r2, r3, r1
1000328e:	f142 0200 	adc.w	r2, r2, #0
10003292:	fbae 7802 	umull	r7, r8, lr, r2
10003296:	f028 0703 	bic.w	r7, r8, #3
1000329a:	eb07 0798 	add.w	r7, r7, r8, lsr #2
1000329e:	1bd2      	subs	r2, r2, r7
100032a0:	461e      	mov	r6, r3
100032a2:	1a9b      	subs	r3, r3, r2
100032a4:	f161 0700 	sbc.w	r7, r1, #0
100032a8:	460c      	mov	r4, r1
100032aa:	f04f 31cc 	mov.w	r1, #3435973836	@ 0xcccccccc
100032ae:	fb01 f103 	mul.w	r1, r1, r3
100032b2:	fb0e 1107 	mla	r1, lr, r7, r1
100032b6:	fba3 730e 	umull	r7, r3, r3, lr
100032ba:	4419      	add	r1, r3
100032bc:	2305      	movs	r3, #5
100032be:	f007 0801 	and.w	r8, r7, #1
100032c2:	fba8 3803 	umull	r3, r8, r8, r3
100032c6:	189b      	adds	r3, r3, r2
100032c8:	2e0a      	cmp	r6, #10
100032ca:	f103 0330 	add.w	r3, r3, #48	@ 0x30
100032ce:	ea4f 0757 	mov.w	r7, r7, lsr #1
100032d2:	f174 0400 	sbcs.w	r4, r4, #0
100032d6:	f805 3b01 	strb.w	r3, [r5], #1
100032da:	f100 0001 	add.w	r0, r0, #1
100032de:	ea47 73c1 	orr.w	r3, r7, r1, lsl #31
100032e2:	ea4f 0151 	mov.w	r1, r1, lsr #1
100032e6:	d2cf      	bcs.n	10003288 <_vsnprintf+0x69c>
100032e8:	e9dd 750c 	ldrd	r7, r5, [sp, #48]	@ 0x30
100032ec:	e9dd 680e 	ldrd	r6, r8, [sp, #56]	@ 0x38
100032f0:	9b0b      	ldr	r3, [sp, #44]	@ 0x2c
100032f2:	4642      	mov	r2, r8
100032f4:	9300      	str	r3, [sp, #0]
100032f6:	230a      	movs	r3, #10
100032f8:	e9cd 5c05 	strd	r5, ip, [sp, #20]
100032fc:	e9cd 0701 	strd	r0, r7, [sp, #4]
10003300:	9604      	str	r6, [sp, #16]
10003302:	9303      	str	r3, [sp, #12]
10003304:	464b      	mov	r3, r9
10003306:	4651      	mov	r1, sl
10003308:	4658      	mov	r0, fp
1000330a:	f7fe fe61 	bl	10001fd0 <_ntoa_format>
1000330e:	4680      	mov	r8, r0
10003310:	e48a      	b.n	10002c28 <_vsnprintf+0x3c>
10003312:	7819      	ldrb	r1, [r3, #0]
10003314:	460f      	mov	r7, r1
10003316:	e764      	b.n	100031e2 <_vsnprintf+0x5f6>
10003318:	2710      	movs	r7, #16
1000331a:	46bc      	mov	ip, r7
1000331c:	e6b3      	b.n	10003086 <_vsnprintf+0x49a>
1000331e:	f023 0c10 	bic.w	ip, r3, #16
10003322:	e745      	b.n	100031b0 <_vsnprintf+0x5c4>
10003324:	061c      	lsls	r4, r3, #24
10003326:	bf4c      	ite	mi
10003328:	8812      	ldrhmi	r2, [r2, #0]
1000332a:	6812      	ldrpl	r2, [r2, #0]
1000332c:	e6c0      	b.n	100030b0 <_vsnprintf+0x4c4>
1000332e:	460a      	mov	r2, r1
10003330:	1e19      	subs	r1, r3, #0
10003332:	db01      	blt.n	10003338 <_vsnprintf+0x74c>
10003334:	4613      	mov	r3, r2
10003336:	e79c      	b.n	10003272 <_vsnprintf+0x686>
10003338:	4252      	negs	r2, r2
1000333a:	4613      	mov	r3, r2
1000333c:	eb61 0141 	sbc.w	r1, r1, r1, lsl #1
10003340:	e797      	b.n	10003272 <_vsnprintf+0x686>
10003342:	4613      	mov	r3, r2
10003344:	4651      	mov	r1, sl
10003346:	7818      	ldrb	r0, [r3, #0]
10003348:	4642      	mov	r2, r8
1000334a:	464b      	mov	r3, r9
1000334c:	47d8      	blx	fp
1000334e:	46b0      	mov	r8, r6
10003350:	e648      	b.n	10002fe4 <_vsnprintf+0x3f8>
10003352:	f013 0f20 	tst.w	r3, #32
10003356:	bf14      	ite	ne
10003358:	2041      	movne	r0, #65	@ 0x41
1000335a:	2061      	moveq	r0, #97	@ 0x61
1000335c:	ac12      	add	r4, sp, #72	@ 0x48
1000335e:	46a6      	mov	lr, r4
10003360:	940b      	str	r4, [sp, #44]	@ 0x2c
10003362:	930a      	str	r3, [sp, #40]	@ 0x28
10003364:	f1a0 040a 	sub.w	r4, r0, #10
10003368:	950c      	str	r5, [sp, #48]	@ 0x30
1000336a:	e002      	b.n	10003372 <_vsnprintf+0x786>
1000336c:	2920      	cmp	r1, #32
1000336e:	d012      	beq.n	10003396 <_vsnprintf+0x7aa>
10003370:	462a      	mov	r2, r5
10003372:	fbb2 f5fc 	udiv	r5, r2, ip
10003376:	fb0c 2015 	mls	r0, ip, r5, r2
1000337a:	b2c3      	uxtb	r3, r0
1000337c:	2809      	cmp	r0, #9
1000337e:	f103 0030 	add.w	r0, r3, #48	@ 0x30
10003382:	bf8a      	itet	hi
10003384:	191b      	addhi	r3, r3, r4
10003386:	b2c3      	uxtbls	r3, r0
10003388:	b2db      	uxtbhi	r3, r3
1000338a:	4562      	cmp	r2, ip
1000338c:	f80e 3b01 	strb.w	r3, [lr], #1
10003390:	f101 0101 	add.w	r1, r1, #1
10003394:	d2ea      	bcs.n	1000336c <_vsnprintf+0x780>
10003396:	9b0a      	ldr	r3, [sp, #40]	@ 0x28
10003398:	9d0c      	ldr	r5, [sp, #48]	@ 0x30
1000339a:	e694      	b.n	100030c6 <_vsnprintf+0x4da>
1000339c:	9a0a      	ldr	r2, [sp, #40]	@ 0x28
1000339e:	3207      	adds	r2, #7
100033a0:	f022 0207 	bic.w	r2, r2, #7
100033a4:	6851      	ldr	r1, [r2, #4]
100033a6:	f852 4b08 	ldr.w	r4, [r2], #8
100033aa:	468e      	mov	lr, r1
100033ac:	920a      	str	r2, [sp, #40]	@ 0x28
100033ae:	ea54 0201 	orrs.w	r2, r4, r1
100033b2:	d176      	bne.n	100034a2 <_vsnprintf+0x8b6>
100033b4:	f023 0310 	bic.w	r3, r3, #16
100033b8:	2800      	cmp	r0, #0
100033ba:	d072      	beq.n	100034a2 <_vsnprintf+0x8b6>
100033bc:	2200      	movs	r2, #0
100033be:	4611      	mov	r1, r2
100033c0:	aa12      	add	r2, sp, #72	@ 0x48
100033c2:	920b      	str	r2, [sp, #44]	@ 0x2c
100033c4:	e9cd 5305 	strd	r5, r3, [sp, #20]
100033c8:	9b0b      	ldr	r3, [sp, #44]	@ 0x2c
100033ca:	4642      	mov	r2, r8
100033cc:	9300      	str	r3, [sp, #0]
100033ce:	2300      	movs	r3, #0
100033d0:	e9cd c603 	strd	ip, r6, [sp, #12]
100033d4:	9101      	str	r1, [sp, #4]
100033d6:	9302      	str	r3, [sp, #8]
100033d8:	e794      	b.n	10003304 <_vsnprintf+0x718>
100033da:	42a5      	cmp	r5, r4
100033dc:	bf98      	it	ls
100033de:	3401      	addls	r4, #1
100033e0:	f67f ad74 	bls.w	10002ecc <_vsnprintf+0x2e0>
100033e4:	f44f 6380 	mov.w	r3, #1024	@ 0x400
100033e8:	e9cd 750a 	strd	r7, r5, [sp, #40]	@ 0x28
100033ec:	eb05 0208 	add.w	r2, r5, r8
100033f0:	461f      	mov	r7, r3
100033f2:	460d      	mov	r5, r1
100033f4:	1b14      	subs	r4, r2, r4
100033f6:	4642      	mov	r2, r8
100033f8:	464b      	mov	r3, r9
100033fa:	4651      	mov	r1, sl
100033fc:	2020      	movs	r0, #32
100033fe:	f108 0801 	add.w	r8, r8, #1
10003402:	47d8      	blx	fp
10003404:	45a0      	cmp	r8, r4
10003406:	d1f6      	bne.n	100033f6 <_vsnprintf+0x80a>
10003408:	463b      	mov	r3, r7
1000340a:	9f0a      	ldr	r7, [sp, #40]	@ 0x28
1000340c:	4629      	mov	r1, r5
1000340e:	7838      	ldrb	r0, [r7, #0]
10003410:	9d0b      	ldr	r5, [sp, #44]	@ 0x2c
10003412:	1c6c      	adds	r4, r5, #1
10003414:	2800      	cmp	r0, #0
10003416:	f43f ad70 	beq.w	10002efa <_vsnprintf+0x30e>
1000341a:	2b00      	cmp	r3, #0
1000341c:	f43f ae75 	beq.w	1000310a <_vsnprintf+0x51e>
10003420:	2300      	movs	r3, #0
10003422:	e553      	b.n	10002ecc <_vsnprintf+0x2e0>
10003424:	42a5      	cmp	r5, r4
10003426:	d8df      	bhi.n	100033e8 <_vsnprintf+0x7fc>
10003428:	3401      	adds	r4, #1
1000342a:	e66e      	b.n	1000310a <_vsnprintf+0x51e>
1000342c:	6819      	ldr	r1, [r3, #0]
1000342e:	0fcb      	lsrs	r3, r1, #31
10003430:	2900      	cmp	r1, #0
10003432:	f000 80a8 	beq.w	10003586 <_vsnprintf+0x99a>
10003436:	ea81 72e1 	eor.w	r2, r1, r1, asr #31
1000343a:	eba2 72e1 	sub.w	r2, r2, r1, asr #31
1000343e:	a912      	add	r1, sp, #72	@ 0x48
10003440:	4608      	mov	r0, r1
10003442:	f8df e188 	ldr.w	lr, [pc, #392]	@ 100035cc <_vsnprintf+0x9e0>
10003446:	910b      	str	r1, [sp, #44]	@ 0x2c
10003448:	930a      	str	r3, [sp, #40]	@ 0x28
1000344a:	950c      	str	r5, [sp, #48]	@ 0x30
1000344c:	e001      	b.n	10003452 <_vsnprintf+0x866>
1000344e:	2f20      	cmp	r7, #32
10003450:	d00f      	beq.n	10003472 <_vsnprintf+0x886>
10003452:	4615      	mov	r5, r2
10003454:	fbae 1302 	umull	r1, r3, lr, r2
10003458:	08db      	lsrs	r3, r3, #3
1000345a:	eb03 0183 	add.w	r1, r3, r3, lsl #2
1000345e:	eba2 0141 	sub.w	r1, r2, r1, lsl #1
10003462:	3130      	adds	r1, #48	@ 0x30
10003464:	2d09      	cmp	r5, #9
10003466:	461a      	mov	r2, r3
10003468:	f107 0701 	add.w	r7, r7, #1
1000346c:	f800 1b01 	strb.w	r1, [r0], #1
10003470:	d8ed      	bhi.n	1000344e <_vsnprintf+0x862>
10003472:	9b0a      	ldr	r3, [sp, #40]	@ 0x28
10003474:	9d0c      	ldr	r5, [sp, #48]	@ 0x30
10003476:	e9cd 5c05 	strd	r5, ip, [sp, #20]
1000347a:	e9cd 7301 	strd	r7, r3, [sp, #4]
1000347e:	9604      	str	r6, [sp, #16]
10003480:	e6d5      	b.n	1000322e <_vsnprintf+0x642>
10003482:	2869      	cmp	r0, #105	@ 0x69
10003484:	f023 0c10 	bic.w	ip, r3, #16
10003488:	f040 808c 	bne.w	100035a4 <_vsnprintf+0x9b8>
1000348c:	f413 6280 	ands.w	r2, r3, #1024	@ 0x400
10003490:	f43f ae8e 	beq.w	100031b0 <_vsnprintf+0x5c4>
10003494:	e688      	b.n	100031a8 <_vsnprintf+0x5bc>
10003496:	2a00      	cmp	r2, #0
10003498:	f43f aea8 	beq.w	100031ec <_vsnprintf+0x600>
1000349c:	aa12      	add	r2, sp, #72	@ 0x48
1000349e:	920b      	str	r2, [sp, #44]	@ 0x2c
100034a0:	e6c0      	b.n	10003224 <_vsnprintf+0x638>
100034a2:	f013 0f20 	tst.w	r3, #32
100034a6:	bf14      	ite	ne
100034a8:	2241      	movne	r2, #65	@ 0x41
100034aa:	2261      	moveq	r2, #97	@ 0x61
100034ac:	2000      	movs	r0, #0
100034ae:	a912      	add	r1, sp, #72	@ 0x48
100034b0:	3a0a      	subs	r2, #10
100034b2:	e9cd 680e 	strd	r6, r8, [sp, #56]	@ 0x38
100034b6:	e9cd 350c 	strd	r3, r5, [sp, #48]	@ 0x30
100034ba:	f8cd b044 	str.w	fp, [sp, #68]	@ 0x44
100034be:	4606      	mov	r6, r0
100034c0:	4688      	mov	r8, r1
100034c2:	4675      	mov	r5, lr
100034c4:	4693      	mov	fp, r2
100034c6:	910b      	str	r1, [sp, #44]	@ 0x2c
100034c8:	f8cd c040 	str.w	ip, [sp, #64]	@ 0x40
100034cc:	e003      	b.n	100034d6 <_vsnprintf+0x8ea>
100034ce:	2e20      	cmp	r6, #32
100034d0:	d017      	beq.n	10003502 <_vsnprintf+0x916>
100034d2:	4604      	mov	r4, r0
100034d4:	460d      	mov	r5, r1
100034d6:	4629      	mov	r1, r5
100034d8:	463a      	mov	r2, r7
100034da:	2300      	movs	r3, #0
100034dc:	4620      	mov	r0, r4
100034de:	f000 fd2b 	bl	10003f38 <____aeabi_uldivmod_veneer>
100034e2:	b2d2      	uxtb	r2, r2
100034e4:	2a09      	cmp	r2, #9
100034e6:	f102 0330 	add.w	r3, r2, #48	@ 0x30
100034ea:	bf88      	it	hi
100034ec:	eb02 030b 	addhi.w	r3, r2, fp
100034f0:	42bc      	cmp	r4, r7
100034f2:	b2db      	uxtb	r3, r3
100034f4:	f175 0500 	sbcs.w	r5, r5, #0
100034f8:	f808 3b01 	strb.w	r3, [r8], #1
100034fc:	f106 0601 	add.w	r6, r6, #1
10003500:	d2e5      	bcs.n	100034ce <_vsnprintf+0x8e2>
10003502:	4631      	mov	r1, r6
10003504:	e9dd 350c 	ldrd	r3, r5, [sp, #48]	@ 0x30
10003508:	e9dd cb10 	ldrd	ip, fp, [sp, #64]	@ 0x40
1000350c:	f8dd 803c 	ldr.w	r8, [sp, #60]	@ 0x3c
10003510:	9e0e      	ldr	r6, [sp, #56]	@ 0x38
10003512:	e757      	b.n	100033c4 <_vsnprintf+0x7d8>
10003514:	990a      	ldr	r1, [sp, #40]	@ 0x28
10003516:	6809      	ldr	r1, [r1, #0]
10003518:	b951      	cbnz	r1, 10003530 <_vsnprintf+0x944>
1000351a:	f023 0310 	bic.w	r3, r3, #16
1000351e:	b138      	cbz	r0, 10003530 <_vsnprintf+0x944>
10003520:	a912      	add	r1, sp, #72	@ 0x48
10003522:	910b      	str	r1, [sp, #44]	@ 0x2c
10003524:	e9cd 5305 	strd	r5, r3, [sp, #20]
10003528:	e9cd c603 	strd	ip, r6, [sp, #12]
1000352c:	9201      	str	r2, [sp, #4]
1000352e:	e5cf      	b.n	100030d0 <_vsnprintf+0x4e4>
10003530:	f013 0f20 	tst.w	r3, #32
10003534:	bf14      	ite	ne
10003536:	2041      	movne	r0, #65	@ 0x41
10003538:	2061      	moveq	r0, #97	@ 0x61
1000353a:	ac12      	add	r4, sp, #72	@ 0x48
1000353c:	46a6      	mov	lr, r4
1000353e:	940b      	str	r4, [sp, #44]	@ 0x2c
10003540:	930a      	str	r3, [sp, #40]	@ 0x28
10003542:	f1a0 040a 	sub.w	r4, r0, #10
10003546:	950c      	str	r5, [sp, #48]	@ 0x30
10003548:	e002      	b.n	10003550 <_vsnprintf+0x964>
1000354a:	2a20      	cmp	r2, #32
1000354c:	d012      	beq.n	10003574 <_vsnprintf+0x988>
1000354e:	4629      	mov	r1, r5
10003550:	fbb1 f5fc 	udiv	r5, r1, ip
10003554:	fb0c 1015 	mls	r0, ip, r5, r1
10003558:	b2c3      	uxtb	r3, r0
1000355a:	2809      	cmp	r0, #9
1000355c:	f103 0030 	add.w	r0, r3, #48	@ 0x30
10003560:	bf8a      	itet	hi
10003562:	191b      	addhi	r3, r3, r4
10003564:	b2c3      	uxtbls	r3, r0
10003566:	b2db      	uxtbhi	r3, r3
10003568:	4561      	cmp	r1, ip
1000356a:	f80e 3b01 	strb.w	r3, [lr], #1
1000356e:	f102 0201 	add.w	r2, r2, #1
10003572:	d2ea      	bcs.n	1000354a <_vsnprintf+0x95e>
10003574:	9b0a      	ldr	r3, [sp, #40]	@ 0x28
10003576:	9d0c      	ldr	r5, [sp, #48]	@ 0x30
10003578:	e7d4      	b.n	10003524 <_vsnprintf+0x938>
1000357a:	6819      	ldr	r1, [r3, #0]
1000357c:	ea81 77e1 	eor.w	r7, r1, r1, asr #31
10003580:	eba7 77e1 	sub.w	r7, r7, r1, asr #31
10003584:	e62d      	b.n	100031e2 <_vsnprintf+0x5f6>
10003586:	2a00      	cmp	r2, #0
10003588:	f43f af59 	beq.w	1000343e <_vsnprintf+0x852>
1000358c:	aa12      	add	r2, sp, #72	@ 0x48
1000358e:	920b      	str	r2, [sp, #44]	@ 0x2c
10003590:	e771      	b.n	10003476 <_vsnprintf+0x88a>
10003592:	f413 6480 	ands.w	r4, r3, #1024	@ 0x400
10003596:	d00d      	beq.n	100035b4 <_vsnprintf+0x9c8>
10003598:	f013 0402 	ands.w	r4, r3, #2
1000359c:	d012      	beq.n	100035c4 <_vsnprintf+0x9d8>
1000359e:	4604      	mov	r4, r0
100035a0:	4646      	mov	r6, r8
100035a2:	e5ec      	b.n	1000317e <_vsnprintf+0x592>
100035a4:	270a      	movs	r7, #10
100035a6:	4663      	mov	r3, ip
100035a8:	46bc      	mov	ip, r7
100035aa:	e56c      	b.n	10003086 <_vsnprintf+0x49a>
100035ac:	ab12      	add	r3, sp, #72	@ 0x48
100035ae:	2000      	movs	r0, #0
100035b0:	930b      	str	r3, [sp, #44]	@ 0x2c
100035b2:	e69d      	b.n	100032f0 <_vsnprintf+0x704>
100035b4:	f013 0302 	ands.w	r3, r3, #2
100035b8:	f47f ade0 	bne.w	1000317c <_vsnprintf+0x590>
100035bc:	2d00      	cmp	r5, #0
100035be:	f47f af13 	bne.w	100033e8 <_vsnprintf+0x7fc>
100035c2:	e49a      	b.n	10002efa <_vsnprintf+0x30e>
100035c4:	2d00      	cmp	r5, #0
100035c6:	f47f af0d 	bne.w	100033e4 <_vsnprintf+0x7f8>
100035ca:	e496      	b.n	10002efa <_vsnprintf+0x30e>
100035cc:	cccccccd 	.word	0xcccccccd

100035d0 <__wrap_snprintf>:
100035d0:	4684      	mov	ip, r0
100035d2:	b40c      	push	{r2, r3}
100035d4:	b510      	push	{r4, lr}
100035d6:	b084      	sub	sp, #16
100035d8:	ac06      	add	r4, sp, #24
100035da:	f854 3b04 	ldr.w	r3, [r4], #4
100035de:	460a      	mov	r2, r1
100035e0:	9400      	str	r4, [sp, #0]
100035e2:	4661      	mov	r1, ip
100035e4:	4804      	ldr	r0, [pc, #16]	@ (100035f8 <__wrap_snprintf+0x28>)
100035e6:	9403      	str	r4, [sp, #12]
100035e8:	f7ff fb00 	bl	10002bec <_vsnprintf>
100035ec:	b004      	add	sp, #16
100035ee:	e8bd 4010 	ldmia.w	sp!, {r4, lr}
100035f2:	b002      	add	sp, #8
100035f4:	4770      	bx	lr
100035f6:	bf00      	nop
100035f8:	10001f29 	.word	0x10001f29

100035fc <vfctprintf>:
100035fc:	b570      	push	{r4, r5, r6, lr}
100035fe:	4694      	mov	ip, r2
10003600:	461e      	mov	r6, r3
10003602:	4605      	mov	r5, r0
10003604:	460c      	mov	r4, r1
10003606:	b084      	sub	sp, #16
10003608:	f04f 32ff 	mov.w	r2, #4294967295
1000360c:	4663      	mov	r3, ip
1000360e:	a902      	add	r1, sp, #8
10003610:	9600      	str	r6, [sp, #0]
10003612:	4803      	ldr	r0, [pc, #12]	@ (10003620 <vfctprintf+0x24>)
10003614:	e9cd 5402 	strd	r5, r4, [sp, #8]
10003618:	f7ff fae8 	bl	10002bec <_vsnprintf>
1000361c:	b004      	add	sp, #16
1000361e:	bd70      	pop	{r4, r5, r6, pc}
10003620:	100021ad 	.word	0x100021ad

10003624 <weak_raw_vprintf>:
10003624:	b510      	push	{r4, lr}
10003626:	4b09      	ldr	r3, [pc, #36]	@ (1000364c <weak_raw_vprintf+0x28>)
10003628:	b084      	sub	sp, #16
1000362a:	681c      	ldr	r4, [r3, #0]
1000362c:	b14c      	cbz	r4, 10003642 <weak_raw_vprintf+0x1e>
1000362e:	4603      	mov	r3, r0
10003630:	9100      	str	r1, [sp, #0]
10003632:	f04f 32ff 	mov.w	r2, #4294967295
10003636:	a903      	add	r1, sp, #12
10003638:	4805      	ldr	r0, [pc, #20]	@ (10003650 <weak_raw_vprintf+0x2c>)
1000363a:	47a0      	blx	r4
1000363c:	2001      	movs	r0, #1
1000363e:	b004      	add	sp, #16
10003640:	bd10      	pop	{r4, pc}
10003642:	f000 f97d 	bl	10003940 <__wrap_puts>
10003646:	4620      	mov	r0, r4
10003648:	b004      	add	sp, #16
1000364a:	bd10      	pop	{r4, pc}
1000364c:	20000824 	.word	0x20000824
10003650:	100021a5 	.word	0x100021a5

10003654 <_exit>:
10003654:	be00      	bkpt	0x0000
10003656:	e7fd      	b.n	10003654 <_exit>

10003658 <exit>:
10003658:	b508      	push	{r3, lr}
1000365a:	f7ff fffb 	bl	10003654 <_exit>
1000365e:	bf00      	nop

10003660 <runtime_init>:
10003660:	b538      	push	{r3, r4, r5, lr}
10003662:	4c06      	ldr	r4, [pc, #24]	@ (1000367c <runtime_init+0x1c>)
10003664:	4d06      	ldr	r5, [pc, #24]	@ (10003680 <runtime_init+0x20>)
10003666:	f7fe f9ed 	bl	10001a44 <runtime_run_initializers>
1000366a:	42ac      	cmp	r4, r5
1000366c:	d204      	bcs.n	10003678 <runtime_init+0x18>
1000366e:	f854 3b04 	ldr.w	r3, [r4], #4
10003672:	4798      	blx	r3
10003674:	42ac      	cmp	r4, r5
10003676:	d3fa      	bcc.n	1000366e <runtime_init+0xe>
10003678:	bd38      	pop	{r3, r4, r5, pc}
1000367a:	bf00      	nop
1000367c:	10003f90 	.word	0x10003f90
10003680:	10003f94 	.word	0x10003f94

10003684 <stdio_out_chars_no_crlf>:
10003684:	6803      	ldr	r3, [r0, #0]
10003686:	4608      	mov	r0, r1
10003688:	4611      	mov	r1, r2
1000368a:	4718      	bx	r3

1000368c <stdio_out_chars_crlf>:
1000368c:	e92d 41f0 	stmdb	sp!, {r4, r5, r6, r7, r8, lr}
10003690:	4615      	mov	r5, r2
10003692:	7d42      	ldrb	r2, [r0, #21]
10003694:	4607      	mov	r7, r0
10003696:	4688      	mov	r8, r1
10003698:	2a00      	cmp	r2, #0
1000369a:	d046      	beq.n	1000372a <stdio_out_chars_crlf+0x9e>
1000369c:	2d00      	cmp	r5, #0
1000369e:	dd1d      	ble.n	100036dc <stdio_out_chars_crlf+0x50>
100036a0:	780b      	ldrb	r3, [r1, #0]
100036a2:	2b0a      	cmp	r3, #10
100036a4:	d023      	beq.n	100036ee <stdio_out_chars_crlf+0x62>
100036a6:	2d01      	cmp	r5, #1
100036a8:	f04f 0c00 	mov.w	ip, #0
100036ac:	d018      	beq.n	100036e0 <stdio_out_chars_crlf+0x54>
100036ae:	4646      	mov	r6, r8
100036b0:	2401      	movs	r4, #1
100036b2:	f816 2f01 	ldrb.w	r2, [r6, #1]!
100036b6:	4621      	mov	r1, r4
100036b8:	2a0a      	cmp	r2, #10
100036ba:	f104 0401 	add.w	r4, r4, #1
100036be:	d022      	beq.n	10003706 <stdio_out_chars_crlf+0x7a>
100036c0:	42a5      	cmp	r5, r4
100036c2:	d1f6      	bne.n	100036b2 <stdio_out_chars_crlf+0x26>
100036c4:	4565      	cmp	r5, ip
100036c6:	dc0b      	bgt.n	100036e0 <stdio_out_chars_crlf+0x54>
100036c8:	eb08 0305 	add.w	r3, r8, r5
100036cc:	f813 3c01 	ldrb.w	r3, [r3, #-1]
100036d0:	f1a3 030d 	sub.w	r3, r3, #13
100036d4:	fab3 f383 	clz	r3, r3
100036d8:	095b      	lsrs	r3, r3, #5
100036da:	753b      	strb	r3, [r7, #20]
100036dc:	e8bd 81f0 	ldmia.w	sp!, {r4, r5, r6, r7, r8, pc}
100036e0:	683b      	ldr	r3, [r7, #0]
100036e2:	eba5 010c 	sub.w	r1, r5, ip
100036e6:	eb08 000c 	add.w	r0, r8, ip
100036ea:	4798      	blx	r3
100036ec:	e7ec      	b.n	100036c8 <stdio_out_chars_crlf+0x3c>
100036ee:	7d03      	ldrb	r3, [r0, #20]
100036f0:	2b00      	cmp	r3, #0
100036f2:	d1d8      	bne.n	100036a6 <stdio_out_chars_crlf+0x1a>
100036f4:	6803      	ldr	r3, [r0, #0]
100036f6:	2102      	movs	r1, #2
100036f8:	480f      	ldr	r0, [pc, #60]	@ (10003738 <stdio_out_chars_crlf+0xac>)
100036fa:	4798      	blx	r3
100036fc:	2d01      	cmp	r5, #1
100036fe:	d0e3      	beq.n	100036c8 <stdio_out_chars_crlf+0x3c>
10003700:	f04f 0c01 	mov.w	ip, #1
10003704:	e7d3      	b.n	100036ae <stdio_out_chars_crlf+0x22>
10003706:	f816 3c01 	ldrb.w	r3, [r6, #-1]
1000370a:	2b0d      	cmp	r3, #13
1000370c:	d0d8      	beq.n	100036c0 <stdio_out_chars_crlf+0x34>
1000370e:	458c      	cmp	ip, r1
10003710:	eb08 000c 	add.w	r0, r8, ip
10003714:	eba1 010c 	sub.w	r1, r1, ip
10003718:	da01      	bge.n	1000371e <stdio_out_chars_crlf+0x92>
1000371a:	683b      	ldr	r3, [r7, #0]
1000371c:	4798      	blx	r3
1000371e:	2102      	movs	r1, #2
10003720:	4805      	ldr	r0, [pc, #20]	@ (10003738 <stdio_out_chars_crlf+0xac>)
10003722:	683b      	ldr	r3, [r7, #0]
10003724:	4798      	blx	r3
10003726:	46a4      	mov	ip, r4
10003728:	e7ca      	b.n	100036c0 <stdio_out_chars_crlf+0x34>
1000372a:	4629      	mov	r1, r5
1000372c:	4640      	mov	r0, r8
1000372e:	683b      	ldr	r3, [r7, #0]
10003730:	e8bd 41f0 	ldmia.w	sp!, {r4, r5, r6, r7, r8, lr}
10003734:	4718      	bx	r3
10003736:	bf00      	nop
10003738:	10004170 	.word	0x10004170

1000373c <stdio_buffered_printer>:
1000373c:	680b      	ldr	r3, [r1, #0]
1000373e:	e92d 41f0 	stmdb	sp!, {r4, r5, r6, r7, r8, lr}
10003742:	2b80      	cmp	r3, #128	@ 0x80
10003744:	460d      	mov	r5, r1
10003746:	4606      	mov	r6, r0
10003748:	d005      	beq.n	10003756 <stdio_buffered_printer+0x1a>
1000374a:	1c5a      	adds	r2, r3, #1
1000374c:	442b      	add	r3, r5
1000374e:	602a      	str	r2, [r5, #0]
10003750:	711e      	strb	r6, [r3, #4]
10003752:	e8bd 81f0 	ldmia.w	sp!, {r4, r5, r6, r7, r8, pc}
10003756:	4b0f      	ldr	r3, [pc, #60]	@ (10003794 <stdio_buffered_printer+0x58>)
10003758:	681c      	ldr	r4, [r3, #0]
1000375a:	b1a4      	cbz	r4, 10003786 <stdio_buffered_printer+0x4a>
1000375c:	4f0e      	ldr	r7, [pc, #56]	@ (10003798 <stdio_buffered_printer+0x5c>)
1000375e:	f101 0804 	add.w	r8, r1, #4
10003762:	e001      	b.n	10003768 <stdio_buffered_printer+0x2c>
10003764:	6924      	ldr	r4, [r4, #16]
10003766:	b174      	cbz	r4, 10003786 <stdio_buffered_printer+0x4a>
10003768:	6823      	ldr	r3, [r4, #0]
1000376a:	2b00      	cmp	r3, #0
1000376c:	d0fa      	beq.n	10003764 <stdio_buffered_printer+0x28>
1000376e:	683b      	ldr	r3, [r7, #0]
10003770:	b10b      	cbz	r3, 10003776 <stdio_buffered_printer+0x3a>
10003772:	42a3      	cmp	r3, r4
10003774:	d1f6      	bne.n	10003764 <stdio_buffered_printer+0x28>
10003776:	4620      	mov	r0, r4
10003778:	4641      	mov	r1, r8
1000377a:	682a      	ldr	r2, [r5, #0]
1000377c:	f7ff ff86 	bl	1000368c <stdio_out_chars_crlf>
10003780:	6924      	ldr	r4, [r4, #16]
10003782:	2c00      	cmp	r4, #0
10003784:	d1f0      	bne.n	10003768 <stdio_buffered_printer+0x2c>
10003786:	2300      	movs	r3, #0
10003788:	2201      	movs	r2, #1
1000378a:	442b      	add	r3, r5
1000378c:	602a      	str	r2, [r5, #0]
1000378e:	711e      	strb	r6, [r3, #4]
10003790:	e8bd 81f0 	ldmia.w	sp!, {r4, r5, r6, r7, r8, pc}
10003794:	2000081c 	.word	0x2000081c
10003798:	20000820 	.word	0x20000820

1000379c <stdio_put_string>:
1000379c:	e92d 47f0 	stmdb	sp!, {r4, r5, r6, r7, r8, r9, sl, lr}
100037a0:	b082      	sub	sp, #8
100037a2:	460d      	mov	r5, r1
100037a4:	4691      	mov	r9, r2
100037a6:	461c      	mov	r4, r3
100037a8:	4606      	mov	r6, r0
100037aa:	f7fd ff7b 	bl	100016a4 <time_us_64>
100037ae:	f04f 3cff 	mov.w	ip, #4294967295
100037b2:	f06f 4700 	mvn.w	r7, #2147483648	@ 0x80000000
100037b6:	4a2e      	ldr	r2, [pc, #184]	@ (10003870 <stdio_put_string+0xd4>)
100037b8:	1882      	adds	r2, r0, r2
100037ba:	f141 0300 	adc.w	r3, r1, #0
100037be:	4594      	cmp	ip, r2
100037c0:	eb77 0103 	sbcs.w	r1, r7, r3
100037c4:	bf3c      	itt	cc
100037c6:	4662      	movcc	r2, ip
100037c8:	463b      	movcc	r3, r7
100037ca:	482a      	ldr	r0, [pc, #168]	@ (10003874 <stdio_put_string+0xd8>)
100037cc:	f000 fbbc 	bl	10003f48 <__mutex_try_enter_block_until_veneer>
100037d0:	1c6b      	adds	r3, r5, #1
100037d2:	4680      	mov	r8, r0
100037d4:	d040      	beq.n	10003858 <stdio_put_string+0xbc>
100037d6:	b30c      	cbz	r4, 1000381c <stdio_put_string+0x80>
100037d8:	4f27      	ldr	r7, [pc, #156]	@ (10003878 <stdio_put_string+0xdc>)
100037da:	4b28      	ldr	r3, [pc, #160]	@ (1000387c <stdio_put_string+0xe0>)
100037dc:	681c      	ldr	r4, [r3, #0]
100037de:	b1b4      	cbz	r4, 1000380e <stdio_put_string+0x72>
100037e0:	f1b9 0f00 	cmp.w	r9, #0
100037e4:	d11c      	bne.n	10003820 <stdio_put_string+0x84>
100037e6:	f8df 909c 	ldr.w	r9, [pc, #156]	@ 10003884 <stdio_put_string+0xe8>
100037ea:	e001      	b.n	100037f0 <stdio_put_string+0x54>
100037ec:	6924      	ldr	r4, [r4, #16]
100037ee:	b174      	cbz	r4, 1000380e <stdio_put_string+0x72>
100037f0:	6823      	ldr	r3, [r4, #0]
100037f2:	2b00      	cmp	r3, #0
100037f4:	d0fa      	beq.n	100037ec <stdio_put_string+0x50>
100037f6:	f8d9 3000 	ldr.w	r3, [r9]
100037fa:	b10b      	cbz	r3, 10003800 <stdio_put_string+0x64>
100037fc:	429c      	cmp	r4, r3
100037fe:	d1f5      	bne.n	100037ec <stdio_put_string+0x50>
10003800:	4620      	mov	r0, r4
10003802:	462a      	mov	r2, r5
10003804:	4631      	mov	r1, r6
10003806:	47b8      	blx	r7
10003808:	6924      	ldr	r4, [r4, #16]
1000380a:	2c00      	cmp	r4, #0
1000380c:	d1f0      	bne.n	100037f0 <stdio_put_string+0x54>
1000380e:	f1b8 0f00 	cmp.w	r8, #0
10003812:	d126      	bne.n	10003862 <stdio_put_string+0xc6>
10003814:	4628      	mov	r0, r5
10003816:	b002      	add	sp, #8
10003818:	e8bd 87f0 	ldmia.w	sp!, {r4, r5, r6, r7, r8, r9, sl, pc}
1000381c:	4f18      	ldr	r7, [pc, #96]	@ (10003880 <stdio_put_string+0xe4>)
1000381e:	e7dc      	b.n	100037da <stdio_put_string+0x3e>
10003820:	f04f 0a0a 	mov.w	sl, #10
10003824:	f8df 905c 	ldr.w	r9, [pc, #92]	@ 10003884 <stdio_put_string+0xe8>
10003828:	e002      	b.n	10003830 <stdio_put_string+0x94>
1000382a:	6924      	ldr	r4, [r4, #16]
1000382c:	2c00      	cmp	r4, #0
1000382e:	d0ee      	beq.n	1000380e <stdio_put_string+0x72>
10003830:	6823      	ldr	r3, [r4, #0]
10003832:	2b00      	cmp	r3, #0
10003834:	d0f9      	beq.n	1000382a <stdio_put_string+0x8e>
10003836:	f8d9 3000 	ldr.w	r3, [r9]
1000383a:	b10b      	cbz	r3, 10003840 <stdio_put_string+0xa4>
1000383c:	42a3      	cmp	r3, r4
1000383e:	d1f4      	bne.n	1000382a <stdio_put_string+0x8e>
10003840:	462a      	mov	r2, r5
10003842:	4631      	mov	r1, r6
10003844:	4620      	mov	r0, r4
10003846:	47b8      	blx	r7
10003848:	2201      	movs	r2, #1
1000384a:	4620      	mov	r0, r4
1000384c:	f10d 0107 	add.w	r1, sp, #7
10003850:	f88d a007 	strb.w	sl, [sp, #7]
10003854:	47b8      	blx	r7
10003856:	e7e8      	b.n	1000382a <stdio_put_string+0x8e>
10003858:	4630      	mov	r0, r6
1000385a:	f000 fb3d 	bl	10003ed8 <strlen>
1000385e:	4605      	mov	r5, r0
10003860:	e7b9      	b.n	100037d6 <stdio_put_string+0x3a>
10003862:	4804      	ldr	r0, [pc, #16]	@ (10003874 <stdio_put_string+0xd8>)
10003864:	f000 fb6c 	bl	10003f40 <__mutex_exit_veneer>
10003868:	4628      	mov	r0, r5
1000386a:	b002      	add	sp, #8
1000386c:	e8bd 87f0 	ldmia.w	sp!, {r4, r5, r6, r7, r8, r9, sl, pc}
10003870:	000f4240 	.word	0x000f4240
10003874:	2000063c 	.word	0x2000063c
10003878:	1000368d 	.word	0x1000368d
1000387c:	2000081c 	.word	0x2000081c
10003880:	10003685 	.word	0x10003685
10003884:	20000820 	.word	0x20000820

10003888 <stdio_set_driver_enabled>:
10003888:	4a08      	ldr	r2, [pc, #32]	@ (100038ac <stdio_set_driver_enabled+0x24>)
1000388a:	6813      	ldr	r3, [r2, #0]
1000388c:	b923      	cbnz	r3, 10003898 <stdio_set_driver_enabled+0x10>
1000388e:	e00a      	b.n	100038a6 <stdio_set_driver_enabled+0x1e>
10003890:	f103 0210 	add.w	r2, r3, #16
10003894:	691b      	ldr	r3, [r3, #16]
10003896:	b133      	cbz	r3, 100038a6 <stdio_set_driver_enabled+0x1e>
10003898:	4283      	cmp	r3, r0
1000389a:	d1f9      	bne.n	10003890 <stdio_set_driver_enabled+0x8>
1000389c:	b929      	cbnz	r1, 100038aa <stdio_set_driver_enabled+0x22>
1000389e:	6918      	ldr	r0, [r3, #16]
100038a0:	6010      	str	r0, [r2, #0]
100038a2:	6119      	str	r1, [r3, #16]
100038a4:	4770      	bx	lr
100038a6:	b101      	cbz	r1, 100038aa <stdio_set_driver_enabled+0x22>
100038a8:	6010      	str	r0, [r2, #0]
100038aa:	4770      	bx	lr
100038ac:	2000081c 	.word	0x2000081c

100038b0 <stdio_init_all>:
100038b0:	b508      	push	{r3, lr}
100038b2:	f000 f9a3 	bl	10003bfc <stdio_uart_init>
100038b6:	2001      	movs	r0, #1
100038b8:	bd08      	pop	{r3, pc}
100038ba:	bf00      	nop

100038bc <__wrap_putchar>:
100038bc:	b5f0      	push	{r4, r5, r6, r7, lr}
100038be:	b083      	sub	sp, #12
100038c0:	4606      	mov	r6, r0
100038c2:	f88d 0007 	strb.w	r0, [sp, #7]
100038c6:	f7fd feed 	bl	100016a4 <time_us_64>
100038ca:	f04f 35ff 	mov.w	r5, #4294967295
100038ce:	f06f 4400 	mvn.w	r4, #2147483648	@ 0x80000000
100038d2:	4a17      	ldr	r2, [pc, #92]	@ (10003930 <__wrap_putchar+0x74>)
100038d4:	1882      	adds	r2, r0, r2
100038d6:	f141 0300 	adc.w	r3, r1, #0
100038da:	4295      	cmp	r5, r2
100038dc:	eb74 0103 	sbcs.w	r1, r4, r3
100038e0:	bf3c      	itt	cc
100038e2:	4623      	movcc	r3, r4
100038e4:	462a      	movcc	r2, r5
100038e6:	4813      	ldr	r0, [pc, #76]	@ (10003934 <__wrap_putchar+0x78>)
100038e8:	f000 fb2e 	bl	10003f48 <__mutex_try_enter_block_until_veneer>
100038ec:	4b12      	ldr	r3, [pc, #72]	@ (10003938 <__wrap_putchar+0x7c>)
100038ee:	4607      	mov	r7, r0
100038f0:	681c      	ldr	r4, [r3, #0]
100038f2:	b19c      	cbz	r4, 1000391c <__wrap_putchar+0x60>
100038f4:	4d11      	ldr	r5, [pc, #68]	@ (1000393c <__wrap_putchar+0x80>)
100038f6:	e001      	b.n	100038fc <__wrap_putchar+0x40>
100038f8:	6924      	ldr	r4, [r4, #16]
100038fa:	b17c      	cbz	r4, 1000391c <__wrap_putchar+0x60>
100038fc:	6823      	ldr	r3, [r4, #0]
100038fe:	2b00      	cmp	r3, #0
10003900:	d0fa      	beq.n	100038f8 <__wrap_putchar+0x3c>
10003902:	682b      	ldr	r3, [r5, #0]
10003904:	b10b      	cbz	r3, 1000390a <__wrap_putchar+0x4e>
10003906:	429c      	cmp	r4, r3
10003908:	d1f6      	bne.n	100038f8 <__wrap_putchar+0x3c>
1000390a:	4620      	mov	r0, r4
1000390c:	2201      	movs	r2, #1
1000390e:	f10d 0107 	add.w	r1, sp, #7
10003912:	f7ff febb 	bl	1000368c <stdio_out_chars_crlf>
10003916:	6924      	ldr	r4, [r4, #16]
10003918:	2c00      	cmp	r4, #0
1000391a:	d1ef      	bne.n	100038fc <__wrap_putchar+0x40>
1000391c:	b917      	cbnz	r7, 10003924 <__wrap_putchar+0x68>
1000391e:	4630      	mov	r0, r6
10003920:	b003      	add	sp, #12
10003922:	bdf0      	pop	{r4, r5, r6, r7, pc}
10003924:	4803      	ldr	r0, [pc, #12]	@ (10003934 <__wrap_putchar+0x78>)
10003926:	f000 fb0b 	bl	10003f40 <__mutex_exit_veneer>
1000392a:	4630      	mov	r0, r6
1000392c:	b003      	add	sp, #12
1000392e:	bdf0      	pop	{r4, r5, r6, r7, pc}
10003930:	000f4240 	.word	0x000f4240
10003934:	2000063c 	.word	0x2000063c
10003938:	2000081c 	.word	0x2000081c
1000393c:	20000820 	.word	0x20000820

10003940 <__wrap_puts>:
10003940:	b538      	push	{r3, r4, r5, lr}
10003942:	4604      	mov	r4, r0
10003944:	f000 fac8 	bl	10003ed8 <strlen>
10003948:	2301      	movs	r3, #1
1000394a:	4605      	mov	r5, r0
1000394c:	461a      	mov	r2, r3
1000394e:	4620      	mov	r0, r4
10003950:	4629      	mov	r1, r5
10003952:	f7ff ff23 	bl	1000379c <stdio_put_string>
10003956:	4b08      	ldr	r3, [pc, #32]	@ (10003978 <__wrap_puts+0x38>)
10003958:	681c      	ldr	r4, [r3, #0]
1000395a:	b12c      	cbz	r4, 10003968 <__wrap_puts+0x28>
1000395c:	6863      	ldr	r3, [r4, #4]
1000395e:	b12b      	cbz	r3, 1000396c <__wrap_puts+0x2c>
10003960:	4798      	blx	r3
10003962:	6924      	ldr	r4, [r4, #16]
10003964:	2c00      	cmp	r4, #0
10003966:	d1f9      	bne.n	1000395c <__wrap_puts+0x1c>
10003968:	4628      	mov	r0, r5
1000396a:	bd38      	pop	{r3, r4, r5, pc}
1000396c:	6924      	ldr	r4, [r4, #16]
1000396e:	2c00      	cmp	r4, #0
10003970:	d1f4      	bne.n	1000395c <__wrap_puts+0x1c>
10003972:	4628      	mov	r0, r5
10003974:	bd38      	pop	{r3, r4, r5, pc}
10003976:	bf00      	nop
10003978:	2000081c 	.word	0x2000081c

1000397c <__wrap_vprintf>:
1000397c:	e92d 41f0 	stmdb	sp!, {r4, r5, r6, r7, r8, lr}
10003980:	b0a2      	sub	sp, #136	@ 0x88
10003982:	4604      	mov	r4, r0
10003984:	460d      	mov	r5, r1
10003986:	f7fd fe8d 	bl	100016a4 <time_us_64>
1000398a:	f04f 37ff 	mov.w	r7, #4294967295
1000398e:	f06f 4600 	mvn.w	r6, #2147483648	@ 0x80000000
10003992:	4a26      	ldr	r2, [pc, #152]	@ (10003a2c <__wrap_vprintf+0xb0>)
10003994:	f8df 80a4 	ldr.w	r8, [pc, #164]	@ 10003a3c <__wrap_vprintf+0xc0>
10003998:	1882      	adds	r2, r0, r2
1000399a:	f141 0300 	adc.w	r3, r1, #0
1000399e:	4297      	cmp	r7, r2
100039a0:	eb76 0103 	sbcs.w	r1, r6, r3
100039a4:	bf3c      	itt	cc
100039a6:	463a      	movcc	r2, r7
100039a8:	4633      	movcc	r3, r6
100039aa:	4821      	ldr	r0, [pc, #132]	@ (10003a30 <__wrap_vprintf+0xb4>)
100039ac:	f000 facc 	bl	10003f48 <__mutex_try_enter_block_until_veneer>
100039b0:	2700      	movs	r7, #0
100039b2:	462b      	mov	r3, r5
100039b4:	4622      	mov	r2, r4
100039b6:	4606      	mov	r6, r0
100039b8:	a901      	add	r1, sp, #4
100039ba:	481e      	ldr	r0, [pc, #120]	@ (10003a34 <__wrap_vprintf+0xb8>)
100039bc:	9701      	str	r7, [sp, #4]
100039be:	f7ff fe1d 	bl	100035fc <vfctprintf>
100039c2:	9b01      	ldr	r3, [sp, #4]
100039c4:	4605      	mov	r5, r0
100039c6:	f8d8 4000 	ldr.w	r4, [r8]
100039ca:	b1c3      	cbz	r3, 100039fe <__wrap_vprintf+0x82>
100039cc:	2c00      	cmp	r4, #0
100039ce:	d02b      	beq.n	10003a28 <__wrap_vprintf+0xac>
100039d0:	4f19      	ldr	r7, [pc, #100]	@ (10003a38 <__wrap_vprintf+0xbc>)
100039d2:	e001      	b.n	100039d8 <__wrap_vprintf+0x5c>
100039d4:	6924      	ldr	r4, [r4, #16]
100039d6:	b174      	cbz	r4, 100039f6 <__wrap_vprintf+0x7a>
100039d8:	6823      	ldr	r3, [r4, #0]
100039da:	2b00      	cmp	r3, #0
100039dc:	d0fa      	beq.n	100039d4 <__wrap_vprintf+0x58>
100039de:	683b      	ldr	r3, [r7, #0]
100039e0:	b10b      	cbz	r3, 100039e6 <__wrap_vprintf+0x6a>
100039e2:	42a3      	cmp	r3, r4
100039e4:	d1f6      	bne.n	100039d4 <__wrap_vprintf+0x58>
100039e6:	4620      	mov	r0, r4
100039e8:	9a01      	ldr	r2, [sp, #4]
100039ea:	a902      	add	r1, sp, #8
100039ec:	f7ff fe4e 	bl	1000368c <stdio_out_chars_crlf>
100039f0:	6924      	ldr	r4, [r4, #16]
100039f2:	2c00      	cmp	r4, #0
100039f4:	d1f0      	bne.n	100039d8 <__wrap_vprintf+0x5c>
100039f6:	2300      	movs	r3, #0
100039f8:	f8d8 4000 	ldr.w	r4, [r8]
100039fc:	9301      	str	r3, [sp, #4]
100039fe:	b12c      	cbz	r4, 10003a0c <__wrap_vprintf+0x90>
10003a00:	6863      	ldr	r3, [r4, #4]
10003a02:	b143      	cbz	r3, 10003a16 <__wrap_vprintf+0x9a>
10003a04:	4798      	blx	r3
10003a06:	6924      	ldr	r4, [r4, #16]
10003a08:	2c00      	cmp	r4, #0
10003a0a:	d1f9      	bne.n	10003a00 <__wrap_vprintf+0x84>
10003a0c:	b92e      	cbnz	r6, 10003a1a <__wrap_vprintf+0x9e>
10003a0e:	4628      	mov	r0, r5
10003a10:	b022      	add	sp, #136	@ 0x88
10003a12:	e8bd 81f0 	ldmia.w	sp!, {r4, r5, r6, r7, r8, pc}
10003a16:	6924      	ldr	r4, [r4, #16]
10003a18:	e7f1      	b.n	100039fe <__wrap_vprintf+0x82>
10003a1a:	4805      	ldr	r0, [pc, #20]	@ (10003a30 <__wrap_vprintf+0xb4>)
10003a1c:	f000 fa90 	bl	10003f40 <__mutex_exit_veneer>
10003a20:	4628      	mov	r0, r5
10003a22:	b022      	add	sp, #136	@ 0x88
10003a24:	e8bd 81f0 	ldmia.w	sp!, {r4, r5, r6, r7, r8, pc}
10003a28:	9401      	str	r4, [sp, #4]
10003a2a:	e7ef      	b.n	10003a0c <__wrap_vprintf+0x90>
10003a2c:	000f4240 	.word	0x000f4240
10003a30:	2000063c 	.word	0x2000063c
10003a34:	1000373d 	.word	0x1000373d
10003a38:	20000820 	.word	0x20000820
10003a3c:	2000081c 	.word	0x2000081c

10003a40 <__wrap_printf>:
10003a40:	b40f      	push	{r0, r1, r2, r3}
10003a42:	b500      	push	{lr}
10003a44:	b083      	sub	sp, #12
10003a46:	a904      	add	r1, sp, #16
10003a48:	f851 0b04 	ldr.w	r0, [r1], #4
10003a4c:	9101      	str	r1, [sp, #4]
10003a4e:	f7ff ff95 	bl	1000397c <__wrap_vprintf>
10003a52:	b003      	add	sp, #12
10003a54:	f85d eb04 	ldr.w	lr, [sp], #4
10003a58:	b004      	add	sp, #16
10003a5a:	4770      	bx	lr

10003a5c <stdio_uart_out_chars>:
10003a5c:	f1b1 0c00 	subs.w	ip, r1, #0
10003a60:	dd1d      	ble.n	10003a9e <stdio_uart_out_chars+0x42>
10003a62:	4a0f      	ldr	r2, [pc, #60]	@ (10003aa0 <stdio_uart_out_chars+0x44>)
10003a64:	4b0f      	ldr	r3, [pc, #60]	@ (10003aa4 <stdio_uart_out_chars+0x48>)
10003a66:	6812      	ldr	r2, [r2, #0]
10003a68:	b530      	push	{r4, r5, lr}
10003a6a:	1ad3      	subs	r3, r2, r3
10003a6c:	fab3 f383 	clz	r3, r3
10003a70:	240d      	movs	r4, #13
10003a72:	4d0d      	ldr	r5, [pc, #52]	@ (10003aa8 <stdio_uart_out_chars+0x4c>)
10003a74:	095b      	lsrs	r3, r3, #5
10003a76:	1e41      	subs	r1, r0, #1
10003a78:	f935 e013 	ldrsh.w	lr, [r5, r3, lsl #1]
10003a7c:	448c      	add	ip, r1
10003a7e:	f811 0f01 	ldrb.w	r0, [r1, #1]!
10003a82:	4586      	cmp	lr, r0
10003a84:	d006      	beq.n	10003a94 <stdio_uart_out_chars+0x38>
10003a86:	6993      	ldr	r3, [r2, #24]
10003a88:	069b      	lsls	r3, r3, #26
10003a8a:	d4fc      	bmi.n	10003a86 <stdio_uart_out_chars+0x2a>
10003a8c:	4561      	cmp	r1, ip
10003a8e:	6010      	str	r0, [r2, #0]
10003a90:	d1f5      	bne.n	10003a7e <stdio_uart_out_chars+0x22>
10003a92:	bd30      	pop	{r4, r5, pc}
10003a94:	6993      	ldr	r3, [r2, #24]
10003a96:	069d      	lsls	r5, r3, #26
10003a98:	d4fc      	bmi.n	10003a94 <stdio_uart_out_chars+0x38>
10003a9a:	6014      	str	r4, [r2, #0]
10003a9c:	e7f3      	b.n	10003a86 <stdio_uart_out_chars+0x2a>
10003a9e:	4770      	bx	lr
10003aa0:	2000086c 	.word	0x2000086c
10003aa4:	40078000 	.word	0x40078000
10003aa8:	20000868 	.word	0x20000868

10003aac <stdio_uart_in_chars>:
10003aac:	4b22      	ldr	r3, [pc, #136]	@ (10003b38 <stdio_uart_in_chars+0x8c>)
10003aae:	f1b1 0c00 	subs.w	ip, r1, #0
10003ab2:	b410      	push	{r4}
10003ab4:	681c      	ldr	r4, [r3, #0]
10003ab6:	dd2e      	ble.n	10003b16 <stdio_uart_in_chars+0x6a>
10003ab8:	4603      	mov	r3, r0
10003aba:	2000      	movs	r0, #0
10003abc:	4a1f      	ldr	r2, [pc, #124]	@ (10003b3c <stdio_uart_in_chars+0x90>)
10003abe:	1e59      	subs	r1, r3, #1
10003ac0:	6812      	ldr	r2, [r2, #0]
10003ac2:	6993      	ldr	r3, [r2, #24]
10003ac4:	06db      	lsls	r3, r3, #27
10003ac6:	d417      	bmi.n	10003af8 <stdio_uart_in_chars+0x4c>
10003ac8:	3001      	adds	r0, #1
10003aca:	6993      	ldr	r3, [r2, #24]
10003acc:	06db      	lsls	r3, r3, #27
10003ace:	d4fc      	bmi.n	10003aca <stdio_uart_in_chars+0x1e>
10003ad0:	6813      	ldr	r3, [r2, #0]
10003ad2:	4584      	cmp	ip, r0
10003ad4:	f801 3f01 	strb.w	r3, [r1, #1]!
10003ad8:	d1f3      	bne.n	10003ac2 <stdio_uart_in_chars+0x16>
10003ada:	b14c      	cbz	r4, 10003af0 <stdio_uart_in_chars+0x44>
10003adc:	2150      	movs	r1, #80	@ 0x50
10003ade:	4613      	mov	r3, r2
10003ae0:	6391      	str	r1, [r2, #56]	@ 0x38
10003ae2:	f853 2f34 	ldr.w	r2, [r3, #52]!
10003ae6:	f002 0238 	and.w	r2, r2, #56	@ 0x38
10003aea:	f503 5380 	add.w	r3, r3, #4096	@ 0x1000
10003aee:	601a      	str	r2, [r3, #0]
10003af0:	4660      	mov	r0, ip
10003af2:	f85d 4b04 	ldr.w	r4, [sp], #4
10003af6:	4770      	bx	lr
10003af8:	b14c      	cbz	r4, 10003b0e <stdio_uart_in_chars+0x62>
10003afa:	2150      	movs	r1, #80	@ 0x50
10003afc:	4613      	mov	r3, r2
10003afe:	6391      	str	r1, [r2, #56]	@ 0x38
10003b00:	f853 2f34 	ldr.w	r2, [r3, #52]!
10003b04:	f002 0238 	and.w	r2, r2, #56	@ 0x38
10003b08:	f503 5380 	add.w	r3, r3, #4096	@ 0x1000
10003b0c:	601a      	str	r2, [r3, #0]
10003b0e:	b178      	cbz	r0, 10003b30 <stdio_uart_in_chars+0x84>
10003b10:	f85d 4b04 	ldr.w	r4, [sp], #4
10003b14:	4770      	bx	lr
10003b16:	b15c      	cbz	r4, 10003b30 <stdio_uart_in_chars+0x84>
10003b18:	4b08      	ldr	r3, [pc, #32]	@ (10003b3c <stdio_uart_in_chars+0x90>)
10003b1a:	2150      	movs	r1, #80	@ 0x50
10003b1c:	681a      	ldr	r2, [r3, #0]
10003b1e:	4613      	mov	r3, r2
10003b20:	6391      	str	r1, [r2, #56]	@ 0x38
10003b22:	f853 2f34 	ldr.w	r2, [r3, #52]!
10003b26:	f002 0238 	and.w	r2, r2, #56	@ 0x38
10003b2a:	f503 5380 	add.w	r3, r3, #4096	@ 0x1000
10003b2e:	601a      	str	r2, [r3, #0]
10003b30:	f06f 0002 	mvn.w	r0, #2
10003b34:	e7dd      	b.n	10003af2 <stdio_uart_in_chars+0x46>
10003b36:	bf00      	nop
10003b38:	200007e8 	.word	0x200007e8
10003b3c:	2000086c 	.word	0x2000086c

10003b40 <on_uart_rx>:
10003b40:	4b05      	ldr	r3, [pc, #20]	@ (10003b58 <on_uart_rx+0x18>)
10003b42:	681b      	ldr	r3, [r3, #0]
10003b44:	b133      	cbz	r3, 10003b54 <on_uart_rx+0x14>
10003b46:	2100      	movs	r1, #0
10003b48:	4a04      	ldr	r2, [pc, #16]	@ (10003b5c <on_uart_rx+0x1c>)
10003b4a:	4805      	ldr	r0, [pc, #20]	@ (10003b60 <on_uart_rx+0x20>)
10003b4c:	6812      	ldr	r2, [r2, #0]
10003b4e:	6800      	ldr	r0, [r0, #0]
10003b50:	6391      	str	r1, [r2, #56]	@ 0x38
10003b52:	4718      	bx	r3
10003b54:	4770      	bx	lr
10003b56:	bf00      	nop
10003b58:	200007e8 	.word	0x200007e8
10003b5c:	2000086c 	.word	0x2000086c
10003b60:	200007ec 	.word	0x200007ec

10003b64 <stdio_uart_out_flush>:
10003b64:	4b02      	ldr	r3, [pc, #8]	@ (10003b70 <stdio_uart_out_flush+0xc>)
10003b66:	681a      	ldr	r2, [r3, #0]
10003b68:	6993      	ldr	r3, [r2, #24]
10003b6a:	071b      	lsls	r3, r3, #28
10003b6c:	d4fc      	bmi.n	10003b68 <stdio_uart_out_flush+0x4>
10003b6e:	4770      	bx	lr
10003b70:	2000086c 	.word	0x2000086c

10003b74 <stdio_uart_set_chars_available_callback>:
10003b74:	b5f8      	push	{r3, r4, r5, r6, r7, lr}
10003b76:	4f1c      	ldr	r7, [pc, #112]	@ (10003be8 <stdio_uart_set_chars_available_callback+0x74>)
10003b78:	4d1c      	ldr	r5, [pc, #112]	@ (10003bec <stdio_uart_set_chars_available_callback+0x78>)
10003b7a:	683a      	ldr	r2, [r7, #0]
10003b7c:	4e1c      	ldr	r6, [pc, #112]	@ (10003bf0 <stdio_uart_set_chars_available_callback+0x7c>)
10003b7e:	42aa      	cmp	r2, r5
10003b80:	bf14      	ite	ne
10003b82:	2521      	movne	r5, #33	@ 0x21
10003b84:	2522      	moveq	r5, #34	@ 0x22
10003b86:	4604      	mov	r4, r0
10003b88:	f8d6 c000 	ldr.w	ip, [r6]
10003b8c:	b118      	cbz	r0, 10003b96 <stdio_uart_set_chars_available_callback+0x22>
10003b8e:	f1bc 0f00 	cmp.w	ip, #0
10003b92:	d010      	beq.n	10003bb6 <stdio_uart_set_chars_available_callback+0x42>
10003b94:	bdf8      	pop	{r3, r4, r5, r6, r7, pc}
10003b96:	f1bc 0f00 	cmp.w	ip, #0
10003b9a:	d0fb      	beq.n	10003b94 <stdio_uart_set_chars_available_callback+0x20>
10003b9c:	4601      	mov	r1, r0
10003b9e:	6390      	str	r0, [r2, #56]	@ 0x38
10003ba0:	4628      	mov	r0, r5
10003ba2:	f7fc ff9b 	bl	10000adc <irq_set_enabled>
10003ba6:	4628      	mov	r0, r5
10003ba8:	4912      	ldr	r1, [pc, #72]	@ (10003bf4 <stdio_uart_set_chars_available_callback+0x80>)
10003baa:	f7fc ffdd 	bl	10000b68 <irq_remove_handler>
10003bae:	4b12      	ldr	r3, [pc, #72]	@ (10003bf8 <stdio_uart_set_chars_available_callback+0x84>)
10003bb0:	6034      	str	r4, [r6, #0]
10003bb2:	601c      	str	r4, [r3, #0]
10003bb4:	bdf8      	pop	{r3, r4, r5, r6, r7, pc}
10003bb6:	460b      	mov	r3, r1
10003bb8:	4a0f      	ldr	r2, [pc, #60]	@ (10003bf8 <stdio_uart_set_chars_available_callback+0x84>)
10003bba:	490e      	ldr	r1, [pc, #56]	@ (10003bf4 <stdio_uart_set_chars_available_callback+0x80>)
10003bbc:	6030      	str	r0, [r6, #0]
10003bbe:	4628      	mov	r0, r5
10003bc0:	6013      	str	r3, [r2, #0]
10003bc2:	f7fc ffa1 	bl	10000b08 <irq_set_exclusive_handler>
10003bc6:	2101      	movs	r1, #1
10003bc8:	4628      	mov	r0, r5
10003bca:	f7fc ff87 	bl	10000adc <irq_set_enabled>
10003bce:	683a      	ldr	r2, [r7, #0]
10003bd0:	2150      	movs	r1, #80	@ 0x50
10003bd2:	4613      	mov	r3, r2
10003bd4:	6391      	str	r1, [r2, #56]	@ 0x38
10003bd6:	f853 2f34 	ldr.w	r2, [r3, #52]!
10003bda:	f002 0238 	and.w	r2, r2, #56	@ 0x38
10003bde:	f503 5380 	add.w	r3, r3, #4096	@ 0x1000
10003be2:	601a      	str	r2, [r3, #0]
10003be4:	bdf8      	pop	{r3, r4, r5, r6, r7, pc}
10003be6:	bf00      	nop
10003be8:	2000086c 	.word	0x2000086c
10003bec:	40078000 	.word	0x40078000
10003bf0:	200007e8 	.word	0x200007e8
10003bf4:	10003b41 	.word	0x10003b41
10003bf8:	200007ec 	.word	0x200007ec

10003bfc <stdio_uart_init>:
10003bfc:	b510      	push	{r4, lr}
10003bfe:	490e      	ldr	r1, [pc, #56]	@ (10003c38 <stdio_uart_init+0x3c>)
10003c00:	4c0e      	ldr	r4, [pc, #56]	@ (10003c3c <stdio_uart_init+0x40>)
10003c02:	480f      	ldr	r0, [pc, #60]	@ (10003c40 <stdio_uart_init+0x44>)
10003c04:	4a0f      	ldr	r2, [pc, #60]	@ (10003c44 <stdio_uart_init+0x48>)
10003c06:	4b10      	ldr	r3, [pc, #64]	@ (10003c48 <stdio_uart_init+0x4c>)
10003c08:	7800      	ldrb	r0, [r0, #0]
10003c0a:	6021      	str	r1, [r4, #0]
10003c0c:	2000      	movs	r0, #0
10003c0e:	2102      	movs	r1, #2
10003c10:	7812      	ldrb	r2, [r2, #0]
10003c12:	781b      	ldrb	r3, [r3, #0]
10003c14:	f7fc feac 	bl	10000970 <gpio_set_function>
10003c18:	2102      	movs	r1, #2
10003c1a:	2001      	movs	r0, #1
10003c1c:	f7fc fea8 	bl	10000970 <gpio_set_function>
10003c20:	f44f 31e1 	mov.w	r1, #115200	@ 0x1c200
10003c24:	6820      	ldr	r0, [r4, #0]
10003c26:	f7fd fd87 	bl	10001738 <uart_init>
10003c2a:	e8bd 4010 	ldmia.w	sp!, {r4, lr}
10003c2e:	2101      	movs	r1, #1
10003c30:	4806      	ldr	r0, [pc, #24]	@ (10003c4c <stdio_uart_init+0x50>)
10003c32:	f7ff be29 	b.w	10003888 <stdio_set_driver_enabled>
10003c36:	bf00      	nop
10003c38:	40070000 	.word	0x40070000
10003c3c:	2000086c 	.word	0x2000086c
10003c40:	100041c0 	.word	0x100041c0
10003c44:	100041bc 	.word	0x100041bc
10003c48:	100041b8 	.word	0x100041b8
10003c4c:	20000614 	.word	0x20000614

10003c50 <i2c_write_blocking_internal.constprop.0>:
10003c50:	e92d 41f0 	stmdb	sp!, {r4, r5, r6, r7, r8, lr}
10003c54:	2700      	movs	r7, #0
10003c56:	2401      	movs	r4, #1
10003c58:	4694      	mov	ip, r2
10003c5a:	6802      	ldr	r2, [r0, #0]
10003c5c:	4605      	mov	r5, r0
10003c5e:	66d7      	str	r7, [r2, #108]	@ 0x6c
10003c60:	6051      	str	r1, [r2, #4]
10003c62:	66d4      	str	r4, [r2, #108]	@ 0x6c
10003c64:	1e1c      	subs	r4, r3, #0
10003c66:	4638      	mov	r0, r7
10003c68:	f89d 6018 	ldrb.w	r6, [sp, #24]
10003c6c:	dd1e      	ble.n	10003cac <i2c_write_blocking_internal.constprop.0+0x5c>
10003c6e:	7929      	ldrb	r1, [r5, #4]
10003c70:	f086 0701 	eor.w	r7, r6, #1
10003c74:	0289      	lsls	r1, r1, #10
10003c76:	027f      	lsls	r7, r7, #9
10003c78:	f104 3eff 	add.w	lr, r4, #4294967295
10003c7c:	4570      	cmp	r0, lr
10003c7e:	bf0c      	ite	eq
10003c80:	46b8      	moveq	r8, r7
10003c82:	f04f 0800 	movne.w	r8, #0
10003c86:	f81c 3b01 	ldrb.w	r3, [ip], #1
10003c8a:	430b      	orrs	r3, r1
10003c8c:	ea43 0308 	orr.w	r3, r3, r8
10003c90:	6113      	str	r3, [r2, #16]
10003c92:	6b53      	ldr	r3, [r2, #52]	@ 0x34
10003c94:	06d9      	lsls	r1, r3, #27
10003c96:	d5fc      	bpl.n	10003c92 <i2c_write_blocking_internal.constprop.0+0x42>
10003c98:	f8d2 1080 	ldr.w	r1, [r2, #128]	@ 0x80
10003c9c:	b949      	cbnz	r1, 10003cb2 <i2c_write_blocking_internal.constprop.0+0x62>
10003c9e:	4570      	cmp	r0, lr
10003ca0:	d01c      	beq.n	10003cdc <i2c_write_blocking_internal.constprop.0+0x8c>
10003ca2:	3001      	adds	r0, #1
10003ca4:	4284      	cmp	r4, r0
10003ca6:	f04f 0100 	mov.w	r1, #0
10003caa:	d1e7      	bne.n	10003c7c <i2c_write_blocking_internal.constprop.0+0x2c>
10003cac:	712e      	strb	r6, [r5, #4]
10003cae:	e8bd 81f0 	ldmia.w	sp!, {r4, r5, r6, r7, r8, pc}
10003cb2:	f04f 0801 	mov.w	r8, #1
10003cb6:	6d53      	ldr	r3, [r2, #84]	@ 0x54
10003cb8:	6b53      	ldr	r3, [r2, #52]	@ 0x34
10003cba:	059b      	lsls	r3, r3, #22
10003cbc:	d5fc      	bpl.n	10003cb8 <i2c_write_blocking_internal.constprop.0+0x68>
10003cbe:	6e13      	ldr	r3, [r2, #96]	@ 0x60
10003cc0:	f1b8 0f00 	cmp.w	r8, #0
10003cc4:	d0ed      	beq.n	10003ca2 <i2c_write_blocking_internal.constprop.0+0x52>
10003cc6:	b169      	cbz	r1, 10003ce4 <i2c_write_blocking_internal.constprop.0+0x94>
10003cc8:	07cb      	lsls	r3, r1, #31
10003cca:	d40b      	bmi.n	10003ce4 <i2c_write_blocking_internal.constprop.0+0x94>
10003ccc:	f011 0f08 	tst.w	r1, #8
10003cd0:	bf08      	it	eq
10003cd2:	f04f 30ff 	moveq.w	r0, #4294967295
10003cd6:	712e      	strb	r6, [r5, #4]
10003cd8:	e8bd 81f0 	ldmia.w	sp!, {r4, r5, r6, r7, r8, pc}
10003cdc:	2e00      	cmp	r6, #0
10003cde:	d1e0      	bne.n	10003ca2 <i2c_write_blocking_internal.constprop.0+0x52>
10003ce0:	46b0      	mov	r8, r6
10003ce2:	e7e9      	b.n	10003cb8 <i2c_write_blocking_internal.constprop.0+0x68>
10003ce4:	f04f 30ff 	mov.w	r0, #4294967295
10003ce8:	e7e0      	b.n	10003cac <i2c_write_blocking_internal.constprop.0+0x5c>
10003cea:	bf00      	nop

10003cec <i2c_set_baudrate>:
10003cec:	b5f8      	push	{r3, r4, r5, r6, r7, lr}
10003cee:	4604      	mov	r4, r0
10003cf0:	2005      	movs	r0, #5
10003cf2:	460f      	mov	r7, r1
10003cf4:	f7fd fe0a 	bl	1000190c <clock_get_hz>
10003cf8:	eb00 0c57 	add.w	ip, r0, r7, lsr #1
10003cfc:	fbbc fcf7 	udiv	ip, ip, r7
10003d00:	4d20      	ldr	r5, [pc, #128]	@ (10003d84 <i2c_set_baudrate+0x98>)
10003d02:	eb0c 024c 	add.w	r2, ip, ip, lsl #1
10003d06:	fba5 6502 	umull	r6, r5, r5, r2
10003d0a:	491f      	ldr	r1, [pc, #124]	@ (10003d88 <i2c_set_baudrate+0x9c>)
10003d0c:	08ae      	lsrs	r6, r5, #2
10003d0e:	428f      	cmp	r7, r1
10003d10:	eb00 0340 	add.w	r3, r0, r0, lsl #1
10003d14:	ebac 0595 	sub.w	r5, ip, r5, lsr #2
10003d18:	d82e      	bhi.n	10003d78 <i2c_set_baudrate+0x8c>
10003d1a:	f101 41d6 	add.w	r1, r1, #1795162112	@ 0x6b000000
10003d1e:	f501 01a1 	add.w	r1, r1, #5275648	@ 0x508000
10003d22:	f601 012c 	addw	r1, r1, #2092	@ 0x82c
10003d26:	fba1 1303 	umull	r1, r3, r1, r3
10003d2a:	0d9b      	lsrs	r3, r3, #22
10003d2c:	3301      	adds	r3, #1
10003d2e:	2100      	movs	r1, #0
10003d30:	2a4f      	cmp	r2, #79	@ 0x4f
10003d32:	bf98      	it	ls
10003d34:	2201      	movls	r2, #1
10003d36:	6824      	ldr	r4, [r4, #0]
10003d38:	fbb0 f0fc 	udiv	r0, r0, ip
10003d3c:	66e1      	str	r1, [r4, #108]	@ 0x6c
10003d3e:	6821      	ldr	r1, [r4, #0]
10003d40:	f504 5780 	add.w	r7, r4, #4096	@ 0x1000
10003d44:	f081 0104 	eor.w	r1, r1, #4
10003d48:	f001 0106 	and.w	r1, r1, #6
10003d4c:	6039      	str	r1, [r7, #0]
10003d4e:	bf88      	it	hi
10003d50:	490c      	ldrhi	r1, [pc, #48]	@ (10003d84 <i2c_set_baudrate+0x98>)
10003d52:	61e5      	str	r5, [r4, #28]
10003d54:	bf84      	itt	hi
10003d56:	fba1 1202 	umullhi	r1, r2, r1, r2
10003d5a:	0992      	lsrhi	r2, r2, #6
10003d5c:	6226      	str	r6, [r4, #32]
10003d5e:	f8c4 20a0 	str.w	r2, [r4, #160]	@ 0xa0
10003d62:	4622      	mov	r2, r4
10003d64:	2101      	movs	r1, #1
10003d66:	f852 5f7c 	ldr.w	r5, [r2, #124]!
10003d6a:	406b      	eors	r3, r5
10003d6c:	b29b      	uxth	r3, r3
10003d6e:	f502 5280 	add.w	r2, r2, #4096	@ 0x1000
10003d72:	6013      	str	r3, [r2, #0]
10003d74:	66e1      	str	r1, [r4, #108]	@ 0x6c
10003d76:	bdf8      	pop	{r3, r4, r5, r6, r7, pc}
10003d78:	4904      	ldr	r1, [pc, #16]	@ (10003d8c <i2c_set_baudrate+0xa0>)
10003d7a:	fba1 1303 	umull	r1, r3, r1, r3
10003d7e:	0ddb      	lsrs	r3, r3, #23
10003d80:	3301      	adds	r3, #1
10003d82:	e7d4      	b.n	10003d2e <i2c_set_baudrate+0x42>
10003d84:	cccccccd 	.word	0xcccccccd
10003d88:	000f423f 	.word	0x000f423f
10003d8c:	55e63b89 	.word	0x55e63b89

10003d90 <i2c_init>:
10003d90:	4a0e      	ldr	r2, [pc, #56]	@ (10003dcc <i2c_init+0x3c>)
10003d92:	b430      	push	{r4, r5}
10003d94:	4290      	cmp	r0, r2
10003d96:	bf14      	ite	ne
10003d98:	2220      	movne	r2, #32
10003d9a:	2210      	moveq	r2, #16
10003d9c:	4d0c      	ldr	r5, [pc, #48]	@ (10003dd0 <i2c_init+0x40>)
10003d9e:	4b0d      	ldr	r3, [pc, #52]	@ (10003dd4 <i2c_init+0x44>)
10003da0:	4c0d      	ldr	r4, [pc, #52]	@ (10003dd8 <i2c_init+0x48>)
10003da2:	602a      	str	r2, [r5, #0]
10003da4:	601a      	str	r2, [r3, #0]
10003da6:	68a3      	ldr	r3, [r4, #8]
10003da8:	ea32 0303 	bics.w	r3, r2, r3
10003dac:	d1fb      	bne.n	10003da6 <i2c_init+0x16>
10003dae:	f240 1565 	movw	r5, #357	@ 0x165
10003db2:	2403      	movs	r4, #3
10003db4:	6802      	ldr	r2, [r0, #0]
10003db6:	7103      	strb	r3, [r0, #4]
10003db8:	66d3      	str	r3, [r2, #108]	@ 0x6c
10003dba:	6015      	str	r5, [r2, #0]
10003dbc:	63d3      	str	r3, [r2, #60]	@ 0x3c
10003dbe:	6393      	str	r3, [r2, #56]	@ 0x38
10003dc0:	f8c2 4088 	str.w	r4, [r2, #136]	@ 0x88
10003dc4:	bc30      	pop	{r4, r5}
10003dc6:	f7ff bf91 	b.w	10003cec <i2c_set_baudrate>
10003dca:	bf00      	nop
10003dcc:	20000634 	.word	0x20000634
10003dd0:	40022000 	.word	0x40022000
10003dd4:	40023000 	.word	0x40023000
10003dd8:	40020000 	.word	0x40020000

10003ddc <i2c_write_blocking>:
10003ddc:	b410      	push	{r4}
10003dde:	f89d 4004 	ldrb.w	r4, [sp, #4]
10003de2:	9401      	str	r4, [sp, #4]
10003de4:	f85d 4b04 	ldr.w	r4, [sp], #4
10003de8:	f7ff bf32 	b.w	10003c50 <i2c_write_blocking_internal.constprop.0>

10003dec <memcpy>:
10003dec:	4684      	mov	ip, r0
10003dee:	ea41 0300 	orr.w	r3, r1, r0
10003df2:	f013 0303 	ands.w	r3, r3, #3
10003df6:	d149      	bne.n	10003e8c <memcpy+0xa0>
10003df8:	3a40      	subs	r2, #64	@ 0x40
10003dfa:	d323      	bcc.n	10003e44 <memcpy+0x58>
10003dfc:	680b      	ldr	r3, [r1, #0]
10003dfe:	6003      	str	r3, [r0, #0]
10003e00:	684b      	ldr	r3, [r1, #4]
10003e02:	6043      	str	r3, [r0, #4]
10003e04:	688b      	ldr	r3, [r1, #8]
10003e06:	6083      	str	r3, [r0, #8]
10003e08:	68cb      	ldr	r3, [r1, #12]
10003e0a:	60c3      	str	r3, [r0, #12]
10003e0c:	690b      	ldr	r3, [r1, #16]
10003e0e:	6103      	str	r3, [r0, #16]
10003e10:	694b      	ldr	r3, [r1, #20]
10003e12:	6143      	str	r3, [r0, #20]
10003e14:	698b      	ldr	r3, [r1, #24]
10003e16:	6183      	str	r3, [r0, #24]
10003e18:	69cb      	ldr	r3, [r1, #28]
10003e1a:	61c3      	str	r3, [r0, #28]
10003e1c:	6a0b      	ldr	r3, [r1, #32]
10003e1e:	6203      	str	r3, [r0, #32]
10003e20:	6a4b      	ldr	r3, [r1, #36]	@ 0x24
10003e22:	6243      	str	r3, [r0, #36]	@ 0x24
10003e24:	6a8b      	ldr	r3, [r1, #40]	@ 0x28
10003e26:	6283      	str	r3, [r0, #40]	@ 0x28
10003e28:	6acb      	ldr	r3, [r1, #44]	@ 0x2c
10003e2a:	62c3      	str	r3, [r0, #44]	@ 0x2c
10003e2c:	6b0b      	ldr	r3, [r1, #48]	@ 0x30
10003e2e:	6303      	str	r3, [r0, #48]	@ 0x30
10003e30:	6b4b      	ldr	r3, [r1, #52]	@ 0x34
10003e32:	6343      	str	r3, [r0, #52]	@ 0x34
10003e34:	6b8b      	ldr	r3, [r1, #56]	@ 0x38
10003e36:	6383      	str	r3, [r0, #56]	@ 0x38
10003e38:	6bcb      	ldr	r3, [r1, #60]	@ 0x3c
10003e3a:	63c3      	str	r3, [r0, #60]	@ 0x3c
10003e3c:	3040      	adds	r0, #64	@ 0x40
10003e3e:	3140      	adds	r1, #64	@ 0x40
10003e40:	3a40      	subs	r2, #64	@ 0x40
10003e42:	d2db      	bcs.n	10003dfc <memcpy+0x10>
10003e44:	3230      	adds	r2, #48	@ 0x30
10003e46:	d30b      	bcc.n	10003e60 <memcpy+0x74>
10003e48:	680b      	ldr	r3, [r1, #0]
10003e4a:	6003      	str	r3, [r0, #0]
10003e4c:	684b      	ldr	r3, [r1, #4]
10003e4e:	6043      	str	r3, [r0, #4]
10003e50:	688b      	ldr	r3, [r1, #8]
10003e52:	6083      	str	r3, [r0, #8]
10003e54:	68cb      	ldr	r3, [r1, #12]
10003e56:	60c3      	str	r3, [r0, #12]
10003e58:	3010      	adds	r0, #16
10003e5a:	3110      	adds	r1, #16
10003e5c:	3a10      	subs	r2, #16
10003e5e:	d2f3      	bcs.n	10003e48 <memcpy+0x5c>
10003e60:	320c      	adds	r2, #12
10003e62:	d305      	bcc.n	10003e70 <memcpy+0x84>
10003e64:	f851 3b04 	ldr.w	r3, [r1], #4
10003e68:	f840 3b04 	str.w	r3, [r0], #4
10003e6c:	3a04      	subs	r2, #4
10003e6e:	d2f9      	bcs.n	10003e64 <memcpy+0x78>
10003e70:	3204      	adds	r2, #4
10003e72:	d008      	beq.n	10003e86 <memcpy+0x9a>
10003e74:	07d2      	lsls	r2, r2, #31
10003e76:	bf1c      	itt	ne
10003e78:	f811 3b01 	ldrbne.w	r3, [r1], #1
10003e7c:	f800 3b01 	strbne.w	r3, [r0], #1
10003e80:	d301      	bcc.n	10003e86 <memcpy+0x9a>
10003e82:	880b      	ldrh	r3, [r1, #0]
10003e84:	8003      	strh	r3, [r0, #0]
10003e86:	4660      	mov	r0, ip
10003e88:	4770      	bx	lr
10003e8a:	bf00      	nop
10003e8c:	2a08      	cmp	r2, #8
10003e8e:	d313      	bcc.n	10003eb8 <memcpy+0xcc>
10003e90:	078b      	lsls	r3, r1, #30
10003e92:	d0b1      	beq.n	10003df8 <memcpy+0xc>
10003e94:	f010 0303 	ands.w	r3, r0, #3
10003e98:	d0ae      	beq.n	10003df8 <memcpy+0xc>
10003e9a:	f1c3 0304 	rsb	r3, r3, #4
10003e9e:	1ad2      	subs	r2, r2, r3
10003ea0:	07db      	lsls	r3, r3, #31
10003ea2:	bf1c      	itt	ne
10003ea4:	f811 3b01 	ldrbne.w	r3, [r1], #1
10003ea8:	f800 3b01 	strbne.w	r3, [r0], #1
10003eac:	d3a4      	bcc.n	10003df8 <memcpy+0xc>
10003eae:	f831 3b02 	ldrh.w	r3, [r1], #2
10003eb2:	f820 3b02 	strh.w	r3, [r0], #2
10003eb6:	e79f      	b.n	10003df8 <memcpy+0xc>
10003eb8:	3a04      	subs	r2, #4
10003eba:	d3d9      	bcc.n	10003e70 <memcpy+0x84>
10003ebc:	3a01      	subs	r2, #1
10003ebe:	f811 3b01 	ldrb.w	r3, [r1], #1
10003ec2:	f800 3b01 	strb.w	r3, [r0], #1
10003ec6:	d2f9      	bcs.n	10003ebc <memcpy+0xd0>
10003ec8:	780b      	ldrb	r3, [r1, #0]
10003eca:	7003      	strb	r3, [r0, #0]
10003ecc:	784b      	ldrb	r3, [r1, #1]
10003ece:	7043      	strb	r3, [r0, #1]
10003ed0:	788b      	ldrb	r3, [r1, #2]
10003ed2:	7083      	strb	r3, [r0, #2]
10003ed4:	4660      	mov	r0, ip
10003ed6:	4770      	bx	lr

10003ed8 <strlen>:
10003ed8:	f020 0103 	bic.w	r1, r0, #3
10003edc:	f010 0003 	ands.w	r0, r0, #3
10003ee0:	f1c0 0000 	rsb	r0, r0, #0
10003ee4:	f851 3b04 	ldr.w	r3, [r1], #4
10003ee8:	f100 0c04 	add.w	ip, r0, #4
10003eec:	ea4f 0ccc 	mov.w	ip, ip, lsl #3
10003ef0:	f06f 0200 	mvn.w	r2, #0
10003ef4:	bf1c      	itt	ne
10003ef6:	fa22 f20c 	lsrne.w	r2, r2, ip
10003efa:	4313      	orrne	r3, r2
10003efc:	f04f 0c01 	mov.w	ip, #1
10003f00:	ea4c 2c0c 	orr.w	ip, ip, ip, lsl #8
10003f04:	ea4c 4c0c 	orr.w	ip, ip, ip, lsl #16
10003f08:	eba3 020c 	sub.w	r2, r3, ip
10003f0c:	ea22 0203 	bic.w	r2, r2, r3
10003f10:	ea12 12cc 	ands.w	r2, r2, ip, lsl #7
10003f14:	bf04      	itt	eq
10003f16:	f851 3b04 	ldreq.w	r3, [r1], #4
10003f1a:	3004      	addeq	r0, #4
10003f1c:	d0f4      	beq.n	10003f08 <strlen+0x30>
10003f1e:	f1c2 0100 	rsb	r1, r2, #0
10003f22:	ea02 0201 	and.w	r2, r2, r1
10003f26:	fab2 f282 	clz	r2, r2
10003f2a:	f1c2 021f 	rsb	r2, r2, #31
10003f2e:	eb00 00d2 	add.w	r0, r0, r2, lsr #3
10003f32:	4770      	bx	lr

10003f34 <_fini>:
10003f34:	b5f8      	push	{r3, r4, r5, r6, r7, lr}
10003f36:	bf00      	nop

10003f38 <____aeabi_uldivmod_veneer>:
10003f38:	f85f f000 	ldr.w	pc, [pc]	@ 10003f3c <____aeabi_uldivmod_veneer+0x4>
10003f3c:	20000221 	.word	0x20000221

10003f40 <__mutex_exit_veneer>:
10003f40:	f85f f000 	ldr.w	pc, [pc]	@ 10003f44 <__mutex_exit_veneer+0x4>
10003f44:	200001e5 	.word	0x200001e5

10003f48 <__mutex_try_enter_block_until_veneer>:
10003f48:	f85f f000 	ldr.w	pc, [pc]	@ 10003f4c <__mutex_try_enter_block_until_veneer+0x4>
10003f4c:	2000017d 	.word	0x2000017d

10003f50 <__pre_init_runtime_init_bootrom_reset>:
10003f50:	10001af1                                ....

10003f54 <__pre_init_runtime_init_early_resets>:
10003f54:	10001a65                                e...

10003f58 <__pre_init_runtime_init_usb_power_down>:
10003f58:	10001a99                                ....

10003f5c <__pre_init_runtime_init_clocks>:
10003f5c:	10001b85                                ....

10003f60 <__pre_init_runtime_init_post_clock_resets>:
10003f60:	10001ad1                                ....

10003f64 <__pre_init_runtime_init_boot_locks_reset>:
10003f64:	100019e9                                ....

10003f68 <__pre_init_runtime_init_spin_locks_reset>:
10003f68:	10001b19                                ....

10003f6c <__pre_init_runtime_init_bootrom_locking_enable>:
10003f6c:	100019d5                                ....

10003f70 <__pre_init_runtime_init_mutex>:
10003f70:	10000e25                                %...

10003f74 <__pre_init_runtime_init_install_ram_vector_table>:
10003f74:	10001b1d                                ....

10003f78 <__pre_init_runtime_init_default_alarm_pool>:
10003f78:	100011a1                                ....

10003f7c <__pre_init_first_per_core_initializer>:
10003f7c:	10001a35                                5...

10003f80 <__pre_init_runtime_init_per_core_bootrom_reset>:
10003f80:	10001b05                                ....

10003f84 <__pre_init_runtime_init_per_core_enable_coprocessors>:
10003f84:	10001ab5                                ....

10003f88 <__pre_init_spinlock_set_extexclall>:
10003f88:	10000a75                                u...

10003f8c <__pre_init_runtime_init_per_core_irq_priorities>:
10003f8c:	10000a9d                                ....

10003f90 <__frame_dummy_init_array_entry>:
10003f90:	10000211                                ....

Disassembly of section .data:

20000110 <mutex_enter_block_until>:
20000110:	f04f 4150 	mov.w	r1, #3489660928	@ 0xd0000000
20000114:	e92d 41f0 	stmdb	sp!, {r4, r5, r6, r7, r8, lr}
20000118:	2700      	movs	r7, #0
2000011a:	4604      	mov	r4, r0
2000011c:	4616      	mov	r6, r2
2000011e:	461d      	mov	r5, r3
20000120:	f8d1 8000 	ldr.w	r8, [r1]
20000124:	e008      	b.n	20000138 <mutex_enter_block_until+0x28>
20000126:	e8c1 7f8f 	stlb	r7, [r1]
2000012a:	f38c 8810 	msr	PRIMASK, ip
2000012e:	4630      	mov	r0, r6
20000130:	4629      	mov	r1, r5
20000132:	f000 fa35 	bl	200005a0 <__best_effort_wfe_or_timeout_veneer>
20000136:	b9e8      	cbnz	r0, 20000174 <mutex_enter_block_until+0x64>
20000138:	6821      	ldr	r1, [r4, #0]
2000013a:	f3ef 8c10 	mrs	ip, PRIMASK
2000013e:	b672      	cpsid	i
20000140:	e8d1 2fcf 	ldaexb	r2, [r1]
20000144:	2301      	movs	r3, #1
20000146:	2a00      	cmp	r2, #0
20000148:	d1fa      	bne.n	20000140 <mutex_enter_block_until+0x30>
2000014a:	e8c1 3f42 	strexb	r2, r3, [r1]
2000014e:	2a00      	cmp	r2, #0
20000150:	d1f6      	bne.n	20000140 <mutex_enter_block_until+0x30>
20000152:	f3bf 8f5f 	dmb	sy
20000156:	f994 3004 	ldrsb.w	r3, [r4, #4]
2000015a:	6821      	ldr	r1, [r4, #0]
2000015c:	2b00      	cmp	r3, #0
2000015e:	dae2      	bge.n	20000126 <mutex_enter_block_until+0x16>
20000160:	2300      	movs	r3, #0
20000162:	f884 8004 	strb.w	r8, [r4, #4]
20000166:	e8c1 3f8f 	stlb	r3, [r1]
2000016a:	f38c 8810 	msr	PRIMASK, ip
2000016e:	2001      	movs	r0, #1
20000170:	e8bd 81f0 	ldmia.w	sp!, {r4, r5, r6, r7, r8, pc}
20000174:	2000      	movs	r0, #0
20000176:	e8bd 81f0 	ldmia.w	sp!, {r4, r5, r6, r7, r8, pc}
2000017a:	bf00      	nop

2000017c <mutex_try_enter_block_until>:
2000017c:	b530      	push	{r4, r5, lr}
2000017e:	6804      	ldr	r4, [r0, #0]
20000180:	f3ef 8c10 	mrs	ip, PRIMASK
20000184:	b672      	cpsid	i
20000186:	e8d4 efcf 	ldaexb	lr, [r4]
2000018a:	2501      	movs	r5, #1
2000018c:	f1be 0f00 	cmp.w	lr, #0
20000190:	d1f9      	bne.n	20000186 <mutex_try_enter_block_until+0xa>
20000192:	e8c4 5f4e 	strexb	lr, r5, [r4]
20000196:	f1be 0f00 	cmp.w	lr, #0
2000019a:	d1f4      	bne.n	20000186 <mutex_try_enter_block_until+0xa>
2000019c:	f3bf 8f5f 	dmb	sy
200001a0:	f990 4004 	ldrsb.w	r4, [r0, #4]
200001a4:	6805      	ldr	r5, [r0, #0]
200001a6:	2c00      	cmp	r4, #0
200001a8:	db10      	blt.n	200001cc <mutex_try_enter_block_until+0x50>
200001aa:	2100      	movs	r1, #0
200001ac:	e8c5 1f8f 	stlb	r1, [r5]
200001b0:	f38c 8810 	msr	PRIMASK, ip
200001b4:	f04f 4550 	mov.w	r5, #3489660928	@ 0xd0000000
200001b8:	f995 5000 	ldrsb.w	r5, [r5]
200001bc:	42a5      	cmp	r5, r4
200001be:	d101      	bne.n	200001c4 <mutex_try_enter_block_until+0x48>
200001c0:	4608      	mov	r0, r1
200001c2:	bd30      	pop	{r4, r5, pc}
200001c4:	e8bd 4030 	ldmia.w	sp!, {r4, r5, lr}
200001c8:	f7ff bfa2 	b.w	20000110 <mutex_enter_block_until>
200001cc:	f04f 4250 	mov.w	r2, #3489660928	@ 0xd0000000
200001d0:	6812      	ldr	r2, [r2, #0]
200001d2:	2300      	movs	r3, #0
200001d4:	7102      	strb	r2, [r0, #4]
200001d6:	e8c5 3f8f 	stlb	r3, [r5]
200001da:	f38c 8810 	msr	PRIMASK, ip
200001de:	2001      	movs	r0, #1
200001e0:	bd30      	pop	{r4, r5, pc}
200001e2:	bf00      	nop

200001e4 <mutex_exit>:
200001e4:	6803      	ldr	r3, [r0, #0]
200001e6:	f3ef 8210 	mrs	r2, PRIMASK
200001ea:	b672      	cpsid	i
200001ec:	e8d3 cfcf 	ldaexb	ip, [r3]
200001f0:	2101      	movs	r1, #1
200001f2:	f1bc 0f00 	cmp.w	ip, #0
200001f6:	d1f9      	bne.n	200001ec <mutex_exit+0x8>
200001f8:	e8c3 1f4c 	strexb	ip, r1, [r3]
200001fc:	f1bc 0f00 	cmp.w	ip, #0
20000200:	d1f4      	bne.n	200001ec <mutex_exit+0x8>
20000202:	f3bf 8f5f 	dmb	sy
20000206:	f04f 0cff 	mov.w	ip, #255	@ 0xff
2000020a:	2300      	movs	r3, #0
2000020c:	6801      	ldr	r1, [r0, #0]
2000020e:	f880 c004 	strb.w	ip, [r0, #4]
20000212:	e8c1 3f8f 	stlb	r3, [r1]
20000216:	f382 8810 	msr	PRIMASK, r2
2000021a:	bf40      	sev
2000021c:	4770      	bx	lr
2000021e:	bf00      	nop

20000220 <__aeabi_uldivmod>:
20000220:	b953      	cbnz	r3, 20000238 <__aeabi_uldivmod+0x18>
20000222:	b94a      	cbnz	r2, 20000238 <__aeabi_uldivmod+0x18>
20000224:	2900      	cmp	r1, #0
20000226:	bf08      	it	eq
20000228:	2800      	cmpeq	r0, #0
2000022a:	bf1c      	itt	ne
2000022c:	f04f 31ff 	movne.w	r1, #4294967295
20000230:	f04f 30ff 	movne.w	r0, #4294967295
20000234:	f000 b9b2 	b.w	2000059c <__aeabi_idiv0>
20000238:	f1ad 0c08 	sub.w	ip, sp, #8
2000023c:	e96d ce04 	strd	ip, lr, [sp, #-16]!
20000240:	f000 f806 	bl	20000250 <__udivmoddi4>
20000244:	f8dd e004 	ldr.w	lr, [sp, #4]
20000248:	e9dd 2302 	ldrd	r2, r3, [sp, #8]
2000024c:	b004      	add	sp, #16
2000024e:	4770      	bx	lr

20000250 <__udivmoddi4>:
20000250:	e92d 4ff0 	stmdb	sp!, {r4, r5, r6, r7, r8, r9, sl, fp, lr}
20000254:	468c      	mov	ip, r1
20000256:	9e09      	ldr	r6, [sp, #36]	@ 0x24
20000258:	4604      	mov	r4, r0
2000025a:	460f      	mov	r7, r1
2000025c:	2b00      	cmp	r3, #0
2000025e:	d148      	bne.n	200002f2 <__udivmoddi4+0xa2>
20000260:	428a      	cmp	r2, r1
20000262:	4615      	mov	r5, r2
20000264:	d95e      	bls.n	20000324 <__udivmoddi4+0xd4>
20000266:	fab2 f382 	clz	r3, r2
2000026a:	b13b      	cbz	r3, 2000027c <__udivmoddi4+0x2c>
2000026c:	f1c3 0220 	rsb	r2, r3, #32
20000270:	409f      	lsls	r7, r3
20000272:	409d      	lsls	r5, r3
20000274:	409c      	lsls	r4, r3
20000276:	fa20 f202 	lsr.w	r2, r0, r2
2000027a:	4317      	orrs	r7, r2
2000027c:	ea4f 4e15 	mov.w	lr, r5, lsr #16
20000280:	fa1f fc85 	uxth.w	ip, r5
20000284:	0c22      	lsrs	r2, r4, #16
20000286:	fbb7 f1fe 	udiv	r1, r7, lr
2000028a:	fb0e 7711 	mls	r7, lr, r1, r7
2000028e:	fb01 f00c 	mul.w	r0, r1, ip
20000292:	ea42 4207 	orr.w	r2, r2, r7, lsl #16
20000296:	4290      	cmp	r0, r2
20000298:	d907      	bls.n	200002aa <__udivmoddi4+0x5a>
2000029a:	18aa      	adds	r2, r5, r2
2000029c:	f101 37ff 	add.w	r7, r1, #4294967295
200002a0:	d202      	bcs.n	200002a8 <__udivmoddi4+0x58>
200002a2:	4290      	cmp	r0, r2
200002a4:	f200 8158 	bhi.w	20000558 <__udivmoddi4+0x308>
200002a8:	4639      	mov	r1, r7
200002aa:	1a12      	subs	r2, r2, r0
200002ac:	b2a4      	uxth	r4, r4
200002ae:	fbb2 f0fe 	udiv	r0, r2, lr
200002b2:	fb0e 2210 	mls	r2, lr, r0, r2
200002b6:	fb00 fc0c 	mul.w	ip, r0, ip
200002ba:	ea44 4402 	orr.w	r4, r4, r2, lsl #16
200002be:	45a4      	cmp	ip, r4
200002c0:	d90b      	bls.n	200002da <__udivmoddi4+0x8a>
200002c2:	192c      	adds	r4, r5, r4
200002c4:	f100 32ff 	add.w	r2, r0, #4294967295
200002c8:	bf2c      	ite	cs
200002ca:	2701      	movcs	r7, #1
200002cc:	2700      	movcc	r7, #0
200002ce:	45a4      	cmp	ip, r4
200002d0:	d902      	bls.n	200002d8 <__udivmoddi4+0x88>
200002d2:	2f00      	cmp	r7, #0
200002d4:	f000 8143 	beq.w	2000055e <__udivmoddi4+0x30e>
200002d8:	4610      	mov	r0, r2
200002da:	ea40 4001 	orr.w	r0, r0, r1, lsl #16
200002de:	eba4 040c 	sub.w	r4, r4, ip
200002e2:	2100      	movs	r1, #0
200002e4:	b11e      	cbz	r6, 200002ee <__udivmoddi4+0x9e>
200002e6:	40dc      	lsrs	r4, r3
200002e8:	2300      	movs	r3, #0
200002ea:	e9c6 4300 	strd	r4, r3, [r6]
200002ee:	e8bd 8ff0 	ldmia.w	sp!, {r4, r5, r6, r7, r8, r9, sl, fp, pc}
200002f2:	428b      	cmp	r3, r1
200002f4:	d906      	bls.n	20000304 <__udivmoddi4+0xb4>
200002f6:	b10e      	cbz	r6, 200002fc <__udivmoddi4+0xac>
200002f8:	e9c6 0100 	strd	r0, r1, [r6]
200002fc:	2100      	movs	r1, #0
200002fe:	4608      	mov	r0, r1
20000300:	e8bd 8ff0 	ldmia.w	sp!, {r4, r5, r6, r7, r8, r9, sl, fp, pc}
20000304:	fab3 f183 	clz	r1, r3
20000308:	2900      	cmp	r1, #0
2000030a:	d151      	bne.n	200003b0 <__udivmoddi4+0x160>
2000030c:	4563      	cmp	r3, ip
2000030e:	f0c0 8116 	bcc.w	2000053e <__udivmoddi4+0x2ee>
20000312:	4282      	cmp	r2, r0
20000314:	f240 8113 	bls.w	2000053e <__udivmoddi4+0x2ee>
20000318:	4608      	mov	r0, r1
2000031a:	2e00      	cmp	r6, #0
2000031c:	d0e7      	beq.n	200002ee <__udivmoddi4+0x9e>
2000031e:	e9c6 4700 	strd	r4, r7, [r6]
20000322:	e7e4      	b.n	200002ee <__udivmoddi4+0x9e>
20000324:	2a00      	cmp	r2, #0
20000326:	f000 80af 	beq.w	20000488 <__udivmoddi4+0x238>
2000032a:	fab2 f382 	clz	r3, r2
2000032e:	2b00      	cmp	r3, #0
20000330:	f040 80c2 	bne.w	200004b8 <__udivmoddi4+0x268>
20000334:	1a8a      	subs	r2, r1, r2
20000336:	ea4f 4e15 	mov.w	lr, r5, lsr #16
2000033a:	b2af      	uxth	r7, r5
2000033c:	2101      	movs	r1, #1
2000033e:	0c20      	lsrs	r0, r4, #16
20000340:	fbb2 fcfe 	udiv	ip, r2, lr
20000344:	fb0e 221c 	mls	r2, lr, ip, r2
20000348:	ea40 4202 	orr.w	r2, r0, r2, lsl #16
2000034c:	fb07 f00c 	mul.w	r0, r7, ip
20000350:	4290      	cmp	r0, r2
20000352:	d90e      	bls.n	20000372 <__udivmoddi4+0x122>
20000354:	18aa      	adds	r2, r5, r2
20000356:	f10c 38ff 	add.w	r8, ip, #4294967295
2000035a:	bf2c      	ite	cs
2000035c:	f04f 0901 	movcs.w	r9, #1
20000360:	f04f 0900 	movcc.w	r9, #0
20000364:	4290      	cmp	r0, r2
20000366:	d903      	bls.n	20000370 <__udivmoddi4+0x120>
20000368:	f1b9 0f00 	cmp.w	r9, #0
2000036c:	f000 80f0 	beq.w	20000550 <__udivmoddi4+0x300>
20000370:	46c4      	mov	ip, r8
20000372:	1a12      	subs	r2, r2, r0
20000374:	b2a4      	uxth	r4, r4
20000376:	fbb2 f0fe 	udiv	r0, r2, lr
2000037a:	fb0e 2210 	mls	r2, lr, r0, r2
2000037e:	fb00 f707 	mul.w	r7, r0, r7
20000382:	ea44 4402 	orr.w	r4, r4, r2, lsl #16
20000386:	42a7      	cmp	r7, r4
20000388:	d90e      	bls.n	200003a8 <__udivmoddi4+0x158>
2000038a:	192c      	adds	r4, r5, r4
2000038c:	f100 32ff 	add.w	r2, r0, #4294967295
20000390:	bf2c      	ite	cs
20000392:	f04f 0e01 	movcs.w	lr, #1
20000396:	f04f 0e00 	movcc.w	lr, #0
2000039a:	42a7      	cmp	r7, r4
2000039c:	d903      	bls.n	200003a6 <__udivmoddi4+0x156>
2000039e:	f1be 0f00 	cmp.w	lr, #0
200003a2:	f000 80d2 	beq.w	2000054a <__udivmoddi4+0x2fa>
200003a6:	4610      	mov	r0, r2
200003a8:	1be4      	subs	r4, r4, r7
200003aa:	ea40 400c 	orr.w	r0, r0, ip, lsl #16
200003ae:	e799      	b.n	200002e4 <__udivmoddi4+0x94>
200003b0:	f1c1 0520 	rsb	r5, r1, #32
200003b4:	408b      	lsls	r3, r1
200003b6:	fa0c f401 	lsl.w	r4, ip, r1
200003ba:	fa00 f901 	lsl.w	r9, r0, r1
200003be:	fa22 f705 	lsr.w	r7, r2, r5
200003c2:	fa2c fc05 	lsr.w	ip, ip, r5
200003c6:	408a      	lsls	r2, r1
200003c8:	431f      	orrs	r7, r3
200003ca:	fa20 f305 	lsr.w	r3, r0, r5
200003ce:	0c38      	lsrs	r0, r7, #16
200003d0:	4323      	orrs	r3, r4
200003d2:	fa1f fe87 	uxth.w	lr, r7
200003d6:	0c1c      	lsrs	r4, r3, #16
200003d8:	fbbc f8f0 	udiv	r8, ip, r0
200003dc:	fb00 cc18 	mls	ip, r0, r8, ip
200003e0:	ea44 440c 	orr.w	r4, r4, ip, lsl #16
200003e4:	fb08 fc0e 	mul.w	ip, r8, lr
200003e8:	45a4      	cmp	ip, r4
200003ea:	d90e      	bls.n	2000040a <__udivmoddi4+0x1ba>
200003ec:	193c      	adds	r4, r7, r4
200003ee:	f108 3aff 	add.w	sl, r8, #4294967295
200003f2:	bf2c      	ite	cs
200003f4:	f04f 0b01 	movcs.w	fp, #1
200003f8:	f04f 0b00 	movcc.w	fp, #0
200003fc:	45a4      	cmp	ip, r4
200003fe:	d903      	bls.n	20000408 <__udivmoddi4+0x1b8>
20000400:	f1bb 0f00 	cmp.w	fp, #0
20000404:	f000 80b8 	beq.w	20000578 <__udivmoddi4+0x328>
20000408:	46d0      	mov	r8, sl
2000040a:	eba4 040c 	sub.w	r4, r4, ip
2000040e:	fa1f fc83 	uxth.w	ip, r3
20000412:	fbb4 f3f0 	udiv	r3, r4, r0
20000416:	fb00 4413 	mls	r4, r0, r3, r4
2000041a:	fb03 fe0e 	mul.w	lr, r3, lr
2000041e:	ea4c 4404 	orr.w	r4, ip, r4, lsl #16
20000422:	45a6      	cmp	lr, r4
20000424:	d90e      	bls.n	20000444 <__udivmoddi4+0x1f4>
20000426:	193c      	adds	r4, r7, r4
20000428:	f103 30ff 	add.w	r0, r3, #4294967295
2000042c:	bf2c      	ite	cs
2000042e:	f04f 0c01 	movcs.w	ip, #1
20000432:	f04f 0c00 	movcc.w	ip, #0
20000436:	45a6      	cmp	lr, r4
20000438:	d903      	bls.n	20000442 <__udivmoddi4+0x1f2>
2000043a:	f1bc 0f00 	cmp.w	ip, #0
2000043e:	f000 809f 	beq.w	20000580 <__udivmoddi4+0x330>
20000442:	4603      	mov	r3, r0
20000444:	ea43 4008 	orr.w	r0, r3, r8, lsl #16
20000448:	eba4 040e 	sub.w	r4, r4, lr
2000044c:	fba0 ec02 	umull	lr, ip, r0, r2
20000450:	4564      	cmp	r4, ip
20000452:	4673      	mov	r3, lr
20000454:	46e0      	mov	r8, ip
20000456:	d302      	bcc.n	2000045e <__udivmoddi4+0x20e>
20000458:	d107      	bne.n	2000046a <__udivmoddi4+0x21a>
2000045a:	45f1      	cmp	r9, lr
2000045c:	d205      	bcs.n	2000046a <__udivmoddi4+0x21a>
2000045e:	ebbe 0302 	subs.w	r3, lr, r2
20000462:	eb6c 0c07 	sbc.w	ip, ip, r7
20000466:	3801      	subs	r0, #1
20000468:	46e0      	mov	r8, ip
2000046a:	b15e      	cbz	r6, 20000484 <__udivmoddi4+0x234>
2000046c:	ebb9 0203 	subs.w	r2, r9, r3
20000470:	eb64 0408 	sbc.w	r4, r4, r8
20000474:	fa04 f505 	lsl.w	r5, r4, r5
20000478:	fa22 f301 	lsr.w	r3, r2, r1
2000047c:	40cc      	lsrs	r4, r1
2000047e:	431d      	orrs	r5, r3
20000480:	e9c6 5400 	strd	r5, r4, [r6]
20000484:	2100      	movs	r1, #0
20000486:	e732      	b.n	200002ee <__udivmoddi4+0x9e>
20000488:	0842      	lsrs	r2, r0, #1
2000048a:	462f      	mov	r7, r5
2000048c:	084b      	lsrs	r3, r1, #1
2000048e:	46ac      	mov	ip, r5
20000490:	ea42 72c1 	orr.w	r2, r2, r1, lsl #31
20000494:	46ae      	mov	lr, r5
20000496:	07c4      	lsls	r4, r0, #31
20000498:	0c11      	lsrs	r1, r2, #16
2000049a:	b292      	uxth	r2, r2
2000049c:	ea41 4103 	orr.w	r1, r1, r3, lsl #16
200004a0:	ea42 4201 	orr.w	r2, r2, r1, lsl #16
200004a4:	fbb1 f1f5 	udiv	r1, r1, r5
200004a8:	fbb3 f0f5 	udiv	r0, r3, r5
200004ac:	231f      	movs	r3, #31
200004ae:	eba2 020c 	sub.w	r2, r2, ip
200004b2:	ea41 4100 	orr.w	r1, r1, r0, lsl #16
200004b6:	e742      	b.n	2000033e <__udivmoddi4+0xee>
200004b8:	409d      	lsls	r5, r3
200004ba:	f1c3 0220 	rsb	r2, r3, #32
200004be:	4099      	lsls	r1, r3
200004c0:	409c      	lsls	r4, r3
200004c2:	fa2c fc02 	lsr.w	ip, ip, r2
200004c6:	ea4f 4e15 	mov.w	lr, r5, lsr #16
200004ca:	fa20 f202 	lsr.w	r2, r0, r2
200004ce:	b2af      	uxth	r7, r5
200004d0:	fbbc f8fe 	udiv	r8, ip, lr
200004d4:	430a      	orrs	r2, r1
200004d6:	fb0e cc18 	mls	ip, lr, r8, ip
200004da:	0c11      	lsrs	r1, r2, #16
200004dc:	ea41 410c 	orr.w	r1, r1, ip, lsl #16
200004e0:	fb08 fc07 	mul.w	ip, r8, r7
200004e4:	458c      	cmp	ip, r1
200004e6:	d950      	bls.n	2000058a <__udivmoddi4+0x33a>
200004e8:	1869      	adds	r1, r5, r1
200004ea:	f108 30ff 	add.w	r0, r8, #4294967295
200004ee:	bf2c      	ite	cs
200004f0:	f04f 0901 	movcs.w	r9, #1
200004f4:	f04f 0900 	movcc.w	r9, #0
200004f8:	458c      	cmp	ip, r1
200004fa:	d902      	bls.n	20000502 <__udivmoddi4+0x2b2>
200004fc:	f1b9 0f00 	cmp.w	r9, #0
20000500:	d030      	beq.n	20000564 <__udivmoddi4+0x314>
20000502:	eba1 010c 	sub.w	r1, r1, ip
20000506:	fbb1 f8fe 	udiv	r8, r1, lr
2000050a:	fb08 fc07 	mul.w	ip, r8, r7
2000050e:	fb0e 1118 	mls	r1, lr, r8, r1
20000512:	b292      	uxth	r2, r2
20000514:	ea42 4201 	orr.w	r2, r2, r1, lsl #16
20000518:	4562      	cmp	r2, ip
2000051a:	d234      	bcs.n	20000586 <__udivmoddi4+0x336>
2000051c:	18aa      	adds	r2, r5, r2
2000051e:	f108 31ff 	add.w	r1, r8, #4294967295
20000522:	bf2c      	ite	cs
20000524:	f04f 0901 	movcs.w	r9, #1
20000528:	f04f 0900 	movcc.w	r9, #0
2000052c:	4562      	cmp	r2, ip
2000052e:	d2be      	bcs.n	200004ae <__udivmoddi4+0x25e>
20000530:	f1b9 0f00 	cmp.w	r9, #0
20000534:	d1bb      	bne.n	200004ae <__udivmoddi4+0x25e>
20000536:	f1a8 0102 	sub.w	r1, r8, #2
2000053a:	442a      	add	r2, r5
2000053c:	e7b7      	b.n	200004ae <__udivmoddi4+0x25e>
2000053e:	1a84      	subs	r4, r0, r2
20000540:	eb6c 0203 	sbc.w	r2, ip, r3
20000544:	2001      	movs	r0, #1
20000546:	4617      	mov	r7, r2
20000548:	e6e7      	b.n	2000031a <__udivmoddi4+0xca>
2000054a:	442c      	add	r4, r5
2000054c:	3802      	subs	r0, #2
2000054e:	e72b      	b.n	200003a8 <__udivmoddi4+0x158>
20000550:	f1ac 0c02 	sub.w	ip, ip, #2
20000554:	442a      	add	r2, r5
20000556:	e70c      	b.n	20000372 <__udivmoddi4+0x122>
20000558:	3902      	subs	r1, #2
2000055a:	442a      	add	r2, r5
2000055c:	e6a5      	b.n	200002aa <__udivmoddi4+0x5a>
2000055e:	442c      	add	r4, r5
20000560:	3802      	subs	r0, #2
20000562:	e6ba      	b.n	200002da <__udivmoddi4+0x8a>
20000564:	eba5 0c0c 	sub.w	ip, r5, ip
20000568:	f1a8 0002 	sub.w	r0, r8, #2
2000056c:	4461      	add	r1, ip
2000056e:	fbb1 f8fe 	udiv	r8, r1, lr
20000572:	fb08 fc07 	mul.w	ip, r8, r7
20000576:	e7ca      	b.n	2000050e <__udivmoddi4+0x2be>
20000578:	f1a8 0802 	sub.w	r8, r8, #2
2000057c:	443c      	add	r4, r7
2000057e:	e744      	b.n	2000040a <__udivmoddi4+0x1ba>
20000580:	3b02      	subs	r3, #2
20000582:	443c      	add	r4, r7
20000584:	e75e      	b.n	20000444 <__udivmoddi4+0x1f4>
20000586:	4641      	mov	r1, r8
20000588:	e791      	b.n	200004ae <__udivmoddi4+0x25e>
2000058a:	eba1 010c 	sub.w	r1, r1, ip
2000058e:	4640      	mov	r0, r8
20000590:	fbb1 f8fe 	udiv	r8, r1, lr
20000594:	fb08 fc07 	mul.w	ip, r8, r7
20000598:	e7b9      	b.n	2000050e <__udivmoddi4+0x2be>
2000059a:	bf00      	nop

2000059c <__aeabi_idiv0>:
2000059c:	4770      	bx	lr
2000059e:	bf00      	nop

200005a0 <__best_effort_wfe_or_timeout_veneer>:
200005a0:	f85f f000 	ldr.w	pc, [pc]	@ 200005a4 <__best_effort_wfe_or_timeout_veneer+0x4>
200005a4:	1000159d 	.word	0x1000159d

200005a8 <lcd_backlight_mask>:
200005a8:	00000008                                ....

200005ac <lcd_nibble_shift>:
200005ac:	00000004                                ....

200005b0 <lcd_addr>:
200005b0:	                                         '

200005b1 <striped_spin_lock_num>:
200005b1:	                                         ...

200005b4 <irq_handler_chain_slots>:
200005b4:	00000000 	.word	0x00000000
200005b8:	00010000 	.word	0x00010000
	...
200005c4:	00020000 	.word	0x00020000
	...
200005d0:	00030000 	.word	0x00030000
	...
200005dc:	00ff0000 	.word	0x00ff0000
200005e0:	00000000 	.word	0x00000000

200005e4 <irq_handler_chain_first_slot>:
200005e4:	b501      	push	{r0, lr}
200005e6:	6848      	ldr	r0, [r1, #4]
200005e8:	3101      	adds	r1, #1
200005ea:	468e      	mov	lr, r1
200005ec:	4700      	bx	r0

200005ee <irq_handler_chain_remove_tail>:
200005ee:	4670      	mov	r0, lr
200005f0:	3809      	subs	r0, #9
200005f2:	4901      	ldr	r1, [pc, #4]	@ (200005f8 <irq_handler_chain_remove_tail+0xa>)
200005f4:	4788      	blx	r1
200005f6:	bd01      	pop	{r0, pc}
200005f8:	10000d5d 	.word	0x10000d5d

200005fc <default_alarm_pool>:
	...
20000610:	20000648                                H.. 

20000614 <stdio_uart>:
20000614:	10003a5d 10003b65 10003aad 10003b75     ]:..e;...:..u;..
20000624:	00000000 00000100                       ........

2000062c <i2c1_inst>:
2000062c:	40098000 00000000                       ...@....

20000634 <i2c0_inst>:
20000634:	40090000 00000000                       ...@....

2000063c <print_mutex>:
	...
