
C:/Users/assem.KEVINTHOMAS/OneDrive/Documents/Embedded-Hacking/drivers/0x05_servo/build/0x05_servo.elf:     file format elf32-littlearm

Sections:
Idx Name          Size      VMA       LMA       File off  Algn
  0 .text         0000375c  10000000  10000000  00001000  2**3
                  CONTENTS, ALLOC, LOAD, READONLY, CODE
  1 .rodata       00000208  10003760  10003760  00004760  2**3
                  CONTENTS, ALLOC, LOAD, READONLY, DATA
  2 .ARM.exidx    00000008  10003968  10003968  00004968  2**2
                  CONTENTS, ALLOC, LOAD, READONLY, DATA
  3 .binary_info  0000002c  10003970  10003970  00004970  2**2
                  CONTENTS, ALLOC, LOAD, READONLY, DATA
  4 .ram_vector_table 00000110  20000000  20000000  00006000  2**2
                  ALLOC
  5 .uninitialized_data 00000000  20000110  20000110  00005ecc  2**0
                  CONTENTS
  6 .data         0000051c  20000110  1000399c  00005110  2**3
                  CONTENTS, ALLOC, LOAD, READONLY, CODE
  7 .tdata        00000000  2000062c  2000062c  00005ecc  2**0
                  CONTENTS, ALLOC, LOAD, DATA, THREAD_LOCAL
  8 .tbss         00000000  2000062c  2000062c  00000000  2**0
                  ALLOC, THREAD_LOCAL
  9 .bss          00000230  20000630  10003eb8  00006630  2**3
                  ALLOC
 10 .heap         00000800  20000860  10003eb8  00006860  2**2
                  ALLOC, READONLY
 11 .scratch_x    00000000  20080000  20080000  00005ecc  2**0
                  CONTENTS
 12 .scratch_y    00000000  20081000  20081000  00005ecc  2**0
                  CONTENTS
 13 .stack_dummy  00000800  20081000  20081000  00006000  2**5
                  ALLOC, READONLY
 14 .flash_end    00000014  10003eb8  10003eb8  00005eb8  2**2
                  CONTENTS, ALLOC, LOAD, READONLY, DATA
 15 .ARM.attributes 00000034  00000000  00000000  00005ecc  2**0
                  CONTENTS, READONLY
 16 .comment      00000045  00000000  00000000  00005f00  2**0
                  CONTENTS, READONLY
 17 .debug_info   0002141f  00000000  00000000  00005f45  2**0
                  CONTENTS, READONLY, DEBUGGING, OCTETS
 18 .debug_abbrev 00005936  00000000  00000000  00027364  2**0
                  CONTENTS, READONLY, DEBUGGING, OCTETS
 19 .debug_loclists 000106e8  00000000  00000000  0002cc9a  2**0
                  CONTENTS, READONLY, DEBUGGING, OCTETS
 20 .debug_aranges 00000c18  00000000  00000000  0003d388  2**3
                  CONTENTS, READONLY, DEBUGGING, OCTETS
 21 .debug_rnglists 00003127  00000000  00000000  0003dfa0  2**0
                  CONTENTS, READONLY, DEBUGGING, OCTETS
 22 .debug_line   000169e6  00000000  00000000  000410c7  2**0
                  CONTENTS, READONLY, DEBUGGING, OCTETS
 23 .debug_str    00005b45  00000000  00000000  00057aad  2**0
                  CONTENTS, READONLY, DEBUGGING, OCTETS
 24 .debug_frame  00001f84  00000000  00000000  0005d5f4  2**2
                  CONTENTS, READONLY, DEBUGGING, OCTETS
 25 .debug_line_str 000002c8  00000000  00000000  0005f578  2**0
                  CONTENTS, READONLY, DEBUGGING, OCTETS

C:/Users/assem.KEVINTHOMAS/OneDrive/Documents/Embedded-Hacking/drivers/0x05_servo/build/0x05_servo.elf:     file format elf32-littlearm


Disassembly of section .text:

10000000 <__VECTOR_TABLE>:
10000000:	20082000 	.word	0x20082000
10000004:	1000015d 	.word	0x1000015d
10000008:	1000011b 	.word	0x1000011b
1000000c:	1000011d 	.word	0x1000011d
10000010:	10000111 	.word	0x10000111
10000014:	10000111 	.word	0x10000111
10000018:	10000111 	.word	0x10000111
1000001c:	10000111 	.word	0x10000111
10000020:	10000119 	.word	0x10000119
10000024:	10000119 	.word	0x10000119
10000028:	10000119 	.word	0x10000119
1000002c:	1000011f 	.word	0x1000011f
10000030:	10000111 	.word	0x10000111
10000034:	10000119 	.word	0x10000119
10000038:	10000121 	.word	0x10000121
1000003c:	10000123 	.word	0x10000123
10000040:	10000111 	.word	0x10000111
10000044:	10000111 	.word	0x10000111
10000048:	10000111 	.word	0x10000111
1000004c:	10000111 	.word	0x10000111
10000050:	10000111 	.word	0x10000111
10000054:	10000111 	.word	0x10000111
10000058:	10000111 	.word	0x10000111
1000005c:	10000111 	.word	0x10000111
10000060:	10000111 	.word	0x10000111
10000064:	10000111 	.word	0x10000111
10000068:	10000111 	.word	0x10000111
1000006c:	10000111 	.word	0x10000111
10000070:	10000111 	.word	0x10000111
10000074:	10000111 	.word	0x10000111
10000078:	10000111 	.word	0x10000111
1000007c:	10000111 	.word	0x10000111
10000080:	10000111 	.word	0x10000111
10000084:	10000111 	.word	0x10000111
10000088:	10000111 	.word	0x10000111
1000008c:	10000111 	.word	0x10000111
10000090:	10000111 	.word	0x10000111
10000094:	10000111 	.word	0x10000111
10000098:	10000111 	.word	0x10000111
1000009c:	10000111 	.word	0x10000111
100000a0:	10000111 	.word	0x10000111
100000a4:	10000111 	.word	0x10000111
100000a8:	10000111 	.word	0x10000111
100000ac:	10000111 	.word	0x10000111
100000b0:	10000111 	.word	0x10000111
100000b4:	10000111 	.word	0x10000111
100000b8:	10000111 	.word	0x10000111
100000bc:	10000111 	.word	0x10000111
100000c0:	10000111 	.word	0x10000111
100000c4:	10000111 	.word	0x10000111
100000c8:	10000111 	.word	0x10000111
100000cc:	10000111 	.word	0x10000111
100000d0:	10000111 	.word	0x10000111
100000d4:	10000111 	.word	0x10000111
100000d8:	10000111 	.word	0x10000111
100000dc:	10000111 	.word	0x10000111
100000e0:	10000111 	.word	0x10000111
100000e4:	10000111 	.word	0x10000111
100000e8:	10000111 	.word	0x10000111
100000ec:	10000111 	.word	0x10000111
100000f0:	10000111 	.word	0x10000111
100000f4:	10000111 	.word	0x10000111
100000f8:	10000111 	.word	0x10000111
100000fc:	10000111 	.word	0x10000111
10000100:	10000111 	.word	0x10000111
10000104:	10000111 	.word	0x10000111
10000108:	10000111 	.word	0x10000111
1000010c:	10000111 	.word	0x10000111

10000110 <__unhandled_user_irq>:
10000110:	f3ef 8005 	mrs	r0, IPSR
10000114:	3810      	subs	r0, #16

10000116 <unhandled_user_irq_num_in_r0>:
10000116:	be00      	bkpt	0x0000

10000118 <isr_invalid>:
10000118:	be00      	bkpt	0x0000

1000011a <isr_nmi>:
1000011a:	be00      	bkpt	0x0000

1000011c <isr_hardfault>:
1000011c:	be00      	bkpt	0x0000

1000011e <isr_svcall>:
1000011e:	be00      	bkpt	0x0000

10000120 <isr_pendsv>:
10000120:	be00      	bkpt	0x0000

10000122 <isr_systick>:
10000122:	be00      	bkpt	0x0000

10000124 <__default_isrs_end>:
10000124:	7188ebf2 	.word	0x7188ebf2
10000128:	10003970 	.word	0x10003970
1000012c:	1000399c 	.word	0x1000399c
10000130:	100001a0 	.word	0x100001a0
10000134:	e71aa390 	.word	0xe71aa390

10000138 <__binary_info_header_end>:
10000138:	ffffded3 	.word	0xffffded3
1000013c:	10210142 	.word	0x10210142
10000140:	000001ff 	.word	0x000001ff
10000144:	00003d80 	.word	0x00003d80
10000148:	ab123579 	.word	0xab123579

1000014c <_entry_point>:
1000014c:	f04f 0000 	mov.w	r0, #0

10000150 <_enter_vtable_in_r0>:
10000150:	491e      	ldr	r1, [pc, #120]	@ (100001cc <data_cpy_table+0x2c>)
10000152:	6008      	str	r0, [r1, #0]
10000154:	c806      	ldmia	r0!, {r1, r2}
10000156:	f381 8808 	msr	MSP, r1
1000015a:	4710      	bx	r2

1000015c <_reset_handler>:
1000015c:	f04f 4050 	mov.w	r0, #3489660928	@ 0xd0000000
10000160:	6800      	ldr	r0, [r0, #0]
10000162:	b110      	cbz	r0, 1000016a <hold_non_core0_in_bootrom+0x6>

10000164 <hold_non_core0_in_bootrom>:
10000164:	f04f 0000 	mov.w	r0, #0
10000168:	e7f2      	b.n	10000150 <_enter_vtable_in_r0>
1000016a:	a40d      	add	r4, pc, #52	@ (adr r4, 100001a0 <data_cpy_table>)
1000016c:	cc0e      	ldmia	r4!, {r1, r2, r3}
1000016e:	2900      	cmp	r1, #0
10000170:	d002      	beq.n	10000178 <hold_non_core0_in_bootrom+0x14>
10000172:	f000 f812 	bl	1000019a <data_cpy>
10000176:	e7f9      	b.n	1000016c <hold_non_core0_in_bootrom+0x8>
10000178:	4915      	ldr	r1, [pc, #84]	@ (100001d0 <data_cpy_table+0x30>)
1000017a:	4a16      	ldr	r2, [pc, #88]	@ (100001d4 <data_cpy_table+0x34>)
1000017c:	2000      	movs	r0, #0
1000017e:	e000      	b.n	10000182 <bss_fill_test>

10000180 <bss_fill_loop>:
10000180:	c101      	stmia	r1!, {r0}

10000182 <bss_fill_test>:
10000182:	4291      	cmp	r1, r2
10000184:	d1fc      	bne.n	10000180 <bss_fill_loop>

10000186 <platform_entry>:
10000186:	4914      	ldr	r1, [pc, #80]	@ (100001d8 <data_cpy_table+0x38>)
10000188:	4788      	blx	r1
1000018a:	4914      	ldr	r1, [pc, #80]	@ (100001dc <data_cpy_table+0x3c>)
1000018c:	4788      	blx	r1
1000018e:	4914      	ldr	r1, [pc, #80]	@ (100001e0 <data_cpy_table+0x40>)
10000190:	4788      	blx	r1
10000192:	be00      	bkpt	0x0000
10000194:	e7fd      	b.n	10000192 <platform_entry+0xc>

10000196 <data_cpy_loop>:
10000196:	c901      	ldmia	r1!, {r0}
10000198:	c201      	stmia	r2!, {r0}

1000019a <data_cpy>:
1000019a:	429a      	cmp	r2, r3
1000019c:	d3fb      	bcc.n	10000196 <data_cpy_loop>
1000019e:	4770      	bx	lr

100001a0 <data_cpy_table>:
100001a0:	1000399c 	.word	0x1000399c
100001a4:	20000110 	.word	0x20000110
100001a8:	2000062c 	.word	0x2000062c
100001ac:	10003eb8 	.word	0x10003eb8
100001b0:	20080000 	.word	0x20080000
100001b4:	20080000 	.word	0x20080000
100001b8:	10003eb8 	.word	0x10003eb8
100001bc:	20081000 	.word	0x20081000
100001c0:	20081000 	.word	0x20081000
100001c4:	00000000 	.word	0x00000000
100001c8:	4770      	bx	lr
100001ca:	0000      	.short	0x0000
100001cc:	e000ed08 	.word	0xe000ed08
100001d0:	2000062c 	.word	0x2000062c
100001d4:	20000860 	.word	0x20000860
100001d8:	10002fc5 	.word	0x10002fc5
100001dc:	10000235 	.word	0x10000235
100001e0:	10002fbd 	.word	0x10002fbd

100001e4 <_init>:
100001e4:	b5f8      	push	{r3, r4, r5, r6, r7, lr}
100001e6:	bf00      	nop

100001e8 <register_tm_clones>:
100001e8:	4b06      	ldr	r3, [pc, #24]	@ (10000204 <register_tm_clones+0x1c>)
100001ea:	4907      	ldr	r1, [pc, #28]	@ (10000208 <register_tm_clones+0x20>)
100001ec:	1ac9      	subs	r1, r1, r3
100001ee:	1089      	asrs	r1, r1, #2
100001f0:	bf48      	it	mi
100001f2:	3101      	addmi	r1, #1
100001f4:	1049      	asrs	r1, r1, #1
100001f6:	d003      	beq.n	10000200 <register_tm_clones+0x18>
100001f8:	4b04      	ldr	r3, [pc, #16]	@ (1000020c <register_tm_clones+0x24>)
100001fa:	b10b      	cbz	r3, 10000200 <register_tm_clones+0x18>
100001fc:	4801      	ldr	r0, [pc, #4]	@ (10000204 <register_tm_clones+0x1c>)
100001fe:	4718      	bx	r3
10000200:	4770      	bx	lr
10000202:	bf00      	nop
10000204:	2000062c 	.word	0x2000062c
10000208:	2000062c 	.word	0x2000062c
1000020c:	00000000 	.word	0x00000000

10000210 <frame_dummy>:
10000210:	b508      	push	{r3, lr}
10000212:	4b05      	ldr	r3, [pc, #20]	@ (10000228 <frame_dummy+0x18>)
10000214:	b11b      	cbz	r3, 1000021e <frame_dummy+0xe>
10000216:	4905      	ldr	r1, [pc, #20]	@ (1000022c <frame_dummy+0x1c>)
10000218:	4805      	ldr	r0, [pc, #20]	@ (10000230 <frame_dummy+0x20>)
1000021a:	f3af 8000 	nop.w
1000021e:	e8bd 4008 	ldmia.w	sp!, {r3, lr}
10000222:	f7ff bfe1 	b.w	100001e8 <register_tm_clones>
10000226:	bf00      	nop
10000228:	00000000 	.word	0x00000000
1000022c:	20000810 	.word	0x20000810
10000230:	1000375c 	.word	0x1000375c

10000234 <main>:
10000234:	b508      	push	{r3, lr}
10000236:	f002 ffed 	bl	10003214 <stdio_init_all>
1000023a:	2006      	movs	r0, #6
1000023c:	f000 f836 	bl	100002ac <servo_init>
10000240:	2106      	movs	r1, #6
10000242:	4817      	ldr	r0, [pc, #92]	@ (100002a0 <main+0x6c>)
10000244:	f003 f8ae 	bl	100033a4 <__wrap_printf>
10000248:	210a      	movs	r1, #10
1000024a:	4816      	ldr	r0, [pc, #88]	@ (100002a4 <main+0x70>)
1000024c:	f003 f8aa 	bl	100033a4 <__wrap_printf>
10000250:	2400      	movs	r4, #0
10000252:	ee07 4a90 	vmov	s15, r4
10000256:	eef8 7ae7 	vcvt.f32.s32	s15, s15
1000025a:	ee17 0a90 	vmov	r0, s15
1000025e:	f000 f873 	bl	10000348 <servo_set_angle>
10000262:	4621      	mov	r1, r4
10000264:	4810      	ldr	r0, [pc, #64]	@ (100002a8 <main+0x74>)
10000266:	f003 f89d 	bl	100033a4 <__wrap_printf>
1000026a:	340a      	adds	r4, #10
1000026c:	2096      	movs	r0, #150	@ 0x96
1000026e:	f000 fdf3 	bl	10000e58 <sleep_ms>
10000272:	2cbe      	cmp	r4, #190	@ 0xbe
10000274:	d1ed      	bne.n	10000252 <main+0x1e>
10000276:	24b4      	movs	r4, #180	@ 0xb4
10000278:	ee07 4a90 	vmov	s15, r4
1000027c:	eef8 7ae7 	vcvt.f32.s32	s15, s15
10000280:	ee17 0a90 	vmov	r0, s15
10000284:	f000 f860 	bl	10000348 <servo_set_angle>
10000288:	4621      	mov	r1, r4
1000028a:	4807      	ldr	r0, [pc, #28]	@ (100002a8 <main+0x74>)
1000028c:	f003 f88a 	bl	100033a4 <__wrap_printf>
10000290:	3c0a      	subs	r4, #10
10000292:	2096      	movs	r0, #150	@ 0x96
10000294:	f000 fde0 	bl	10000e58 <sleep_ms>
10000298:	f114 0f0a 	cmn.w	r4, #10
1000029c:	d1ec      	bne.n	10000278 <main+0x44>
1000029e:	e7d7      	b.n	10000250 <main+0x1c>
100002a0:	10003760 	.word	0x10003760
100002a4:	10003788 	.word	0x10003788
100002a8:	100037bc 	.word	0x100037bc

100002ac <servo_init>:
100002ac:	b570      	push	{r4, r5, r6, lr}
100002ae:	4c20      	ldr	r4, [pc, #128]	@ (10000330 <servo_init+0x84>)
100002b0:	2104      	movs	r1, #4
100002b2:	7020      	strb	r0, [r4, #0]
100002b4:	f000 f8a8 	bl	10000408 <gpio_set_function>
100002b8:	7823      	ldrb	r3, [r4, #0]
100002ba:	491e      	ldr	r1, [pc, #120]	@ (10000334 <servo_init+0x88>)
100002bc:	085a      	lsrs	r2, r3, #1
100002be:	2b1f      	cmp	r3, #31
100002c0:	bf88      	it	hi
100002c2:	f002 0203 	andhi.w	r2, r2, #3
100002c6:	4d1c      	ldr	r5, [pc, #112]	@ (10000338 <servo_init+0x8c>)
100002c8:	bf94      	ite	ls
100002ca:	f002 0207 	andls.w	r2, r2, #7
100002ce:	3208      	addhi	r2, #8
100002d0:	f003 0301 	and.w	r3, r3, #1
100002d4:	2005      	movs	r0, #5
100002d6:	600b      	str	r3, [r1, #0]
100002d8:	602a      	str	r2, [r5, #0]
100002da:	f000 ffe3 	bl	100012a4 <clock_get_hz>
100002de:	ee07 0a10 	vmov	s14, r0
100002e2:	eddf 5a16 	vldr	s11, [pc, #88]	@ 1000033c <servo_init+0x90>
100002e6:	eeb8 7a47 	vcvt.f32.u32	s14, s14
100002ea:	ed9f 6a15 	vldr	s12, [pc, #84]	@ 10000340 <servo_init+0x94>
100002ee:	eec7 7a25 	vdiv.f32	s15, s14, s11
100002f2:	eef3 6a00 	vmov.f32	s13, #48	@ 0x41800000  16.0
100002f6:	ee77 7a86 	vadd.f32	s15, s15, s12
100002fa:	ee67 7aa6 	vmul.f32	s15, s15, s13
100002fe:	2100      	movs	r1, #0
10000300:	2001      	movs	r0, #1
10000302:	f644 661f 	movw	r6, #19999	@ 0x4e1f
10000306:	eefc 7ae7 	vcvt.u32.f32	s15, s15
1000030a:	682b      	ldr	r3, [r5, #0]
1000030c:	4c0d      	ldr	r4, [pc, #52]	@ (10000344 <servo_init+0x98>)
1000030e:	eb03 0383 	add.w	r3, r3, r3, lsl #2
10000312:	009b      	lsls	r3, r3, #2
10000314:	f103 4280 	add.w	r2, r3, #1073741824	@ 0x40000000
10000318:	f502 2228 	add.w	r2, r2, #688128	@ 0xa8000
1000031c:	6011      	str	r1, [r2, #0]
1000031e:	6091      	str	r1, [r2, #8]
10000320:	60d1      	str	r1, [r2, #12]
10000322:	6116      	str	r6, [r2, #16]
10000324:	edc2 7a01 	vstr	s15, [r2, #4]
10000328:	7020      	strb	r0, [r4, #0]
1000032a:	6010      	str	r0, [r2, #0]
1000032c:	bd70      	pop	{r4, r5, r6, pc}
1000032e:	bf00      	nop
10000330:	2000085e 	.word	0x2000085e
10000334:	20000848 	.word	0x20000848
10000338:	2000084c 	.word	0x2000084c
1000033c:	49742400 	.word	0x49742400
10000340:	3d000000 	.word	0x3d000000
10000344:	2000085d 	.word	0x2000085d

10000348 <servo_set_angle>:
10000348:	ee07 0a10 	vmov	s14, r0
1000034c:	eeb5 7ac0 	vcmpe.f32	s14, #0.0
10000350:	eef1 fa10 	vmrs	APSR_nzcv, fpscr
10000354:	d446      	bmi.n	100003e4 <servo_set_angle+0x9c>
10000356:	eddf 6a25 	vldr	s13, [pc, #148]	@ 100003ec <servo_set_angle+0xa4>
1000035a:	eeb4 7ae6 	vcmpe.f32	s14, s13
1000035e:	eef1 fa10 	vmrs	APSR_nzcv, fpscr
10000362:	fe36 7a87 	vselgt.f32	s14, s13, s14
10000366:	eddf 7a22 	vldr	s15, [pc, #136]	@ 100003f0 <servo_set_angle+0xa8>
1000036a:	eec7 5a26 	vdiv.f32	s11, s14, s13
1000036e:	eeb6 6a00 	vmov.f32	s12, #96	@ 0x3f000000  0.5
10000372:	eee5 7aa7 	vfma.f32	s15, s11, s15
10000376:	ee77 7a86 	vadd.f32	s15, s15, s12
1000037a:	eefc 7ae7 	vcvt.u32.f32	s15, s15
1000037e:	ee17 3a90 	vmov	r3, s15
10000382:	b29b      	uxth	r3, r3
10000384:	4a1b      	ldr	r2, [pc, #108]	@ (100003f4 <servo_set_angle+0xac>)
10000386:	7812      	ldrb	r2, [r2, #0]
10000388:	b342      	cbz	r2, 100003dc <servo_set_angle+0x94>
1000038a:	f5b3 6ffa 	cmp.w	r3, #2000	@ 0x7d0
1000038e:	bf28      	it	cs
10000390:	f44f 63fa 	movcs.w	r3, #2000	@ 0x7d0
10000394:	f5b3 7f7a 	cmp.w	r3, #1000	@ 0x3e8
10000398:	bf38      	it	cc
1000039a:	f44f 737a 	movcc.w	r3, #1000	@ 0x3e8
1000039e:	ee07 3a90 	vmov	s15, r3
100003a2:	eeb6 7a00 	vmov.f32	s14, #96	@ 0x3f000000  0.5
100003a6:	eef8 7a67 	vcvt.f32.u32	s15, s15
100003aa:	ee77 7a87 	vadd.f32	s15, s15, s14
100003ae:	eefc 7ae7 	vcvt.u32.f32	s15, s15
100003b2:	ee17 3a90 	vmov	r3, s15
100003b6:	4a10      	ldr	r2, [pc, #64]	@ (100003f8 <servo_set_angle+0xb0>)
100003b8:	4810      	ldr	r0, [pc, #64]	@ (100003fc <servo_set_angle+0xb4>)
100003ba:	6811      	ldr	r1, [r2, #0]
100003bc:	6800      	ldr	r0, [r0, #0]
100003be:	4a10      	ldr	r2, [pc, #64]	@ (10000400 <servo_set_angle+0xb8>)
100003c0:	eb01 0181 	add.w	r1, r1, r1, lsl #2
100003c4:	0089      	lsls	r1, r1, #2
100003c6:	440a      	add	r2, r1
100003c8:	b29b      	uxth	r3, r3
100003ca:	b940      	cbnz	r0, 100003de <servo_set_angle+0x96>
100003cc:	f64f 70ff 	movw	r0, #65535	@ 0xffff
100003d0:	6811      	ldr	r1, [r2, #0]
100003d2:	f502 5280 	add.w	r2, r2, #4096	@ 0x1000
100003d6:	404b      	eors	r3, r1
100003d8:	4003      	ands	r3, r0
100003da:	6013      	str	r3, [r2, #0]
100003dc:	4770      	bx	lr
100003de:	4809      	ldr	r0, [pc, #36]	@ (10000404 <servo_set_angle+0xbc>)
100003e0:	041b      	lsls	r3, r3, #16
100003e2:	e7f5      	b.n	100003d0 <servo_set_angle+0x88>
100003e4:	f44f 737a 	mov.w	r3, #1000	@ 0x3e8
100003e8:	e7cc      	b.n	10000384 <servo_set_angle+0x3c>
100003ea:	bf00      	nop
100003ec:	43340000 	.word	0x43340000
100003f0:	447a0000 	.word	0x447a0000
100003f4:	2000085d 	.word	0x2000085d
100003f8:	2000084c 	.word	0x2000084c
100003fc:	20000848 	.word	0x20000848
10000400:	400a800c 	.word	0x400a800c
10000404:	ffff0000 	.word	0xffff0000

10000408 <gpio_set_function>:
10000408:	b410      	push	{r4}
1000040a:	f44f 7480 	mov.w	r4, #256	@ 0x100
1000040e:	4b0c      	ldr	r3, [pc, #48]	@ (10000440 <gpio_set_function+0x38>)
10000410:	f853 2020 	ldr.w	r2, [r3, r0, lsl #2]
10000414:	eb03 0380 	add.w	r3, r3, r0, lsl #2
10000418:	00c0      	lsls	r0, r0, #3
1000041a:	f082 0240 	eor.w	r2, r2, #64	@ 0x40
1000041e:	f100 4080 	add.w	r0, r0, #1073741824	@ 0x40000000
10000422:	f503 5c80 	add.w	ip, r3, #4096	@ 0x1000
10000426:	f002 02c0 	and.w	r2, r2, #192	@ 0xc0
1000042a:	f500 3020 	add.w	r0, r0, #163840	@ 0x28000
1000042e:	f503 5340 	add.w	r3, r3, #12288	@ 0x3000
10000432:	f8cc 2000 	str.w	r2, [ip]
10000436:	6041      	str	r1, [r0, #4]
10000438:	601c      	str	r4, [r3, #0]
1000043a:	f85d 4b04 	ldr.w	r4, [sp], #4
1000043e:	4770      	bx	lr
10000440:	40038004 	.word	0x40038004

10000444 <panic>:
10000444:	b40f      	push	{r0, r1, r2, r3}
10000446:	b500      	push	{lr}
10000448:	b083      	sub	sp, #12
1000044a:	9c04      	ldr	r4, [sp, #16]
1000044c:	4807      	ldr	r0, [pc, #28]	@ (1000046c <panic+0x28>)
1000044e:	f002 ff29 	bl	100032a4 <__wrap_puts>
10000452:	b13c      	cbz	r4, 10000464 <panic+0x20>
10000454:	a905      	add	r1, sp, #20
10000456:	4620      	mov	r0, r4
10000458:	9101      	str	r1, [sp, #4]
1000045a:	f002 fd95 	bl	10002f88 <weak_raw_vprintf>
1000045e:	4804      	ldr	r0, [pc, #16]	@ (10000470 <panic+0x2c>)
10000460:	f002 ff20 	bl	100032a4 <__wrap_puts>
10000464:	2001      	movs	r0, #1
10000466:	f002 fda7 	bl	10002fb8 <_exit>
1000046a:	bf00      	nop
1000046c:	100037d0 	.word	0x100037d0
10000470:	10003784 	.word	0x10003784

10000474 <hw_claim_or_assert>:
10000474:	b570      	push	{r4, r5, r6, lr}
10000476:	4686      	mov	lr, r0
10000478:	f3ef 8510 	mrs	r5, PRIMASK
1000047c:	b672      	cpsid	i
1000047e:	4c12      	ldr	r4, [pc, #72]	@ (100004c8 <hw_claim_or_assert+0x54>)
10000480:	e8d4 6fcf 	ldaexb	r6, [r4]
10000484:	2001      	movs	r0, #1
10000486:	2e00      	cmp	r6, #0
10000488:	d1fa      	bne.n	10000480 <hw_claim_or_assert+0xc>
1000048a:	e8c4 0f46 	strexb	r6, r0, [r4]
1000048e:	2e00      	cmp	r6, #0
10000490:	d1f6      	bne.n	10000480 <hw_claim_or_assert+0xc>
10000492:	f3bf 8f5f 	dmb	sy
10000496:	f04f 0c01 	mov.w	ip, #1
1000049a:	08c8      	lsrs	r0, r1, #3
1000049c:	f001 0307 	and.w	r3, r1, #7
100004a0:	fa0c f303 	lsl.w	r3, ip, r3
100004a4:	f81e c000 	ldrb.w	ip, [lr, r0]
100004a8:	ea1c 0603 	ands.w	r6, ip, r3
100004ac:	d108      	bne.n	100004c0 <hw_claim_or_assert+0x4c>
100004ae:	ea4c 0c03 	orr.w	ip, ip, r3
100004b2:	f80e c000 	strb.w	ip, [lr, r0]
100004b6:	e8c4 6f8f 	stlb	r6, [r4]
100004ba:	f385 8810 	msr	PRIMASK, r5
100004be:	bd70      	pop	{r4, r5, r6, pc}
100004c0:	4610      	mov	r0, r2
100004c2:	f7ff ffbf 	bl	10000444 <panic>
100004c6:	bf00      	nop
100004c8:	200007bb 	.word	0x200007bb

100004cc <next_striped_spin_lock_num>:
100004cc:	4a04      	ldr	r2, [pc, #16]	@ (100004e0 <next_striped_spin_lock_num+0x14>)
100004ce:	7810      	ldrb	r0, [r2, #0]
100004d0:	1c43      	adds	r3, r0, #1
100004d2:	b2db      	uxtb	r3, r3
100004d4:	2b18      	cmp	r3, #24
100004d6:	bf28      	it	cs
100004d8:	2310      	movcs	r3, #16
100004da:	7013      	strb	r3, [r2, #0]
100004dc:	4770      	bx	lr
100004de:	bf00      	nop
100004e0:	200005a8 	.word	0x200005a8

100004e4 <spinlock_set_extexclall>:
100004e4:	f04f 22e0 	mov.w	r2, #3758153728	@ 0xe000e000
100004e8:	6893      	ldr	r3, [r2, #8]
100004ea:	f043 5300 	orr.w	r3, r3, #536870912	@ 0x20000000
100004ee:	6093      	str	r3, [r2, #8]
100004f0:	4770      	bx	lr
100004f2:	bf00      	nop

100004f4 <spin_locks_reset>:
100004f4:	2100      	movs	r1, #0
100004f6:	4b04      	ldr	r3, [pc, #16]	@ (10000508 <spin_locks_reset+0x14>)
100004f8:	f103 0220 	add.w	r2, r3, #32
100004fc:	e8c3 1f8f 	stlb	r1, [r3]
10000500:	3301      	adds	r3, #1
10000502:	4293      	cmp	r3, r2
10000504:	d1fa      	bne.n	100004fc <spin_locks_reset+0x8>
10000506:	4770      	bx	lr
10000508:	200007b0 	.word	0x200007b0

1000050c <runtime_init_per_core_irq_priorities>:
1000050c:	f04f 23e0 	mov.w	r3, #3758153728	@ 0xe000e000
10000510:	f04f 3280 	mov.w	r2, #2155905152	@ 0x80808080
10000514:	f8c3 2400 	str.w	r2, [r3, #1024]	@ 0x400
10000518:	f8c3 2404 	str.w	r2, [r3, #1028]	@ 0x404
1000051c:	f8c3 2408 	str.w	r2, [r3, #1032]	@ 0x408
10000520:	f8c3 240c 	str.w	r2, [r3, #1036]	@ 0x40c
10000524:	f8c3 2410 	str.w	r2, [r3, #1040]	@ 0x410
10000528:	f8c3 2414 	str.w	r2, [r3, #1044]	@ 0x414
1000052c:	f8c3 2418 	str.w	r2, [r3, #1048]	@ 0x418
10000530:	f8c3 241c 	str.w	r2, [r3, #1052]	@ 0x41c
10000534:	f8c3 2420 	str.w	r2, [r3, #1056]	@ 0x420
10000538:	f8c3 2424 	str.w	r2, [r3, #1060]	@ 0x424
1000053c:	f8c3 2428 	str.w	r2, [r3, #1064]	@ 0x428
10000540:	f8c3 242c 	str.w	r2, [r3, #1068]	@ 0x42c
10000544:	f8c3 2430 	str.w	r2, [r3, #1072]	@ 0x430
10000548:	b662      	cpsie	i
1000054a:	4770      	bx	lr

1000054c <irq_set_enabled>:
1000054c:	2301      	movs	r3, #1
1000054e:	f000 021f 	and.w	r2, r0, #31
10000552:	4093      	lsls	r3, r2
10000554:	0940      	lsrs	r0, r0, #5
10000556:	b141      	cbz	r1, 1000056a <irq_set_enabled+0x1e>
10000558:	0080      	lsls	r0, r0, #2
1000055a:	f100 4060 	add.w	r0, r0, #3758096384	@ 0xe0000000
1000055e:	f500 4061 	add.w	r0, r0, #57600	@ 0xe100
10000562:	f8c0 3180 	str.w	r3, [r0, #384]	@ 0x180
10000566:	6003      	str	r3, [r0, #0]
10000568:	4770      	bx	lr
1000056a:	4a02      	ldr	r2, [pc, #8]	@ (10000574 <irq_set_enabled+0x28>)
1000056c:	3020      	adds	r0, #32
1000056e:	f842 3020 	str.w	r3, [r2, r0, lsl #2]
10000572:	4770      	bx	lr
10000574:	e000e100 	.word	0xe000e100

10000578 <irq_set_exclusive_handler>:
10000578:	b5f8      	push	{r3, r4, r5, r6, r7, lr}
1000057a:	460d      	mov	r5, r1
1000057c:	f3ef 8710 	mrs	r7, PRIMASK
10000580:	b672      	cpsid	i
10000582:	4e12      	ldr	r6, [pc, #72]	@ (100005cc <irq_set_exclusive_handler+0x54>)
10000584:	e8d6 2fcf 	ldaexb	r2, [r6]
10000588:	2301      	movs	r3, #1
1000058a:	2a00      	cmp	r2, #0
1000058c:	d1fa      	bne.n	10000584 <irq_set_exclusive_handler+0xc>
1000058e:	e8c6 3f42 	strexb	r2, r3, [r6]
10000592:	2a00      	cmp	r2, #0
10000594:	d1f6      	bne.n	10000584 <irq_set_exclusive_handler+0xc>
10000596:	f3bf 8f5f 	dmb	sy
1000059a:	4b0d      	ldr	r3, [pc, #52]	@ (100005d0 <irq_set_exclusive_handler+0x58>)
1000059c:	f100 0410 	add.w	r4, r0, #16
100005a0:	689b      	ldr	r3, [r3, #8]
100005a2:	4a0c      	ldr	r2, [pc, #48]	@ (100005d4 <irq_set_exclusive_handler+0x5c>)
100005a4:	f853 3024 	ldr.w	r3, [r3, r4, lsl #2]
100005a8:	4293      	cmp	r3, r2
100005aa:	d003      	beq.n	100005b4 <irq_set_exclusive_handler+0x3c>
100005ac:	4299      	cmp	r1, r3
100005ae:	d001      	beq.n	100005b4 <irq_set_exclusive_handler+0x3c>
100005b0:	f000 ff0e 	bl	100013d0 <hard_assertion_failure>
100005b4:	4b06      	ldr	r3, [pc, #24]	@ (100005d0 <irq_set_exclusive_handler+0x58>)
100005b6:	689b      	ldr	r3, [r3, #8]
100005b8:	f843 5024 	str.w	r5, [r3, r4, lsl #2]
100005bc:	f3bf 8f5f 	dmb	sy
100005c0:	2300      	movs	r3, #0
100005c2:	e8c6 3f8f 	stlb	r3, [r6]
100005c6:	f387 8810 	msr	PRIMASK, r7
100005ca:	bdf8      	pop	{r3, r4, r5, r6, r7, pc}
100005cc:	200007b9 	.word	0x200007b9
100005d0:	e000ed00 	.word	0xe000ed00
100005d4:	10000111 	.word	0x10000111

100005d8 <irq_remove_handler>:
100005d8:	e92d 4ff0 	stmdb	sp!, {r4, r5, r6, r7, r8, r9, sl, fp, lr}
100005dc:	b083      	sub	sp, #12
100005de:	f3ef 8a10 	mrs	sl, PRIMASK
100005e2:	b672      	cpsid	i
100005e4:	4e71      	ldr	r6, [pc, #452]	@ (100007ac <irq_remove_handler+0x1d4>)
100005e6:	e8d6 2fcf 	ldaexb	r2, [r6]
100005ea:	2301      	movs	r3, #1
100005ec:	2a00      	cmp	r2, #0
100005ee:	d1fa      	bne.n	100005e6 <irq_remove_handler+0xe>
100005f0:	e8c6 3f42 	strexb	r2, r3, [r6]
100005f4:	2a00      	cmp	r2, #0
100005f6:	d1f6      	bne.n	100005e6 <irq_remove_handler+0xe>
100005f8:	f3bf 8f5f 	dmb	sy
100005fc:	4b6c      	ldr	r3, [pc, #432]	@ (100007b0 <irq_remove_handler+0x1d8>)
100005fe:	f100 0810 	add.w	r8, r0, #16
10000602:	689b      	ldr	r3, [r3, #8]
10000604:	4a6b      	ldr	r2, [pc, #428]	@ (100007b4 <irq_remove_handler+0x1dc>)
10000606:	f853 5028 	ldr.w	r5, [r3, r8, lsl #2]
1000060a:	4295      	cmp	r5, r2
1000060c:	d045      	beq.n	1000069a <irq_remove_handler+0xc2>
1000060e:	428d      	cmp	r5, r1
10000610:	460c      	mov	r4, r1
10000612:	d050      	beq.n	100006b6 <irq_remove_handler+0xde>
10000614:	4f68      	ldr	r7, [pc, #416]	@ (100007b8 <irq_remove_handler+0x1e0>)
10000616:	1beb      	subs	r3, r5, r7
10000618:	2b2f      	cmp	r3, #47	@ 0x2f
1000061a:	d83e      	bhi.n	1000069a <irq_remove_handler+0xc2>
1000061c:	2101      	movs	r1, #1
1000061e:	ea4f 1950 	mov.w	r9, r0, lsr #5
10000622:	ea4f 0989 	mov.w	r9, r9, lsl #2
10000626:	f109 4960 	add.w	r9, r9, #3758096384	@ 0xe0000000
1000062a:	f509 4961 	add.w	r9, r9, #57600	@ 0xe100
1000062e:	f000 031f 	and.w	r3, r0, #31
10000632:	fa01 f003 	lsl.w	r0, r1, r3
10000636:	f8d9 3000 	ldr.w	r3, [r9]
1000063a:	f8c9 0080 	str.w	r0, [r9, #128]	@ 0x80
1000063e:	ea00 0b03 	and.w	fp, r0, r3
10000642:	f3bf 8f5f 	dmb	sy
10000646:	f3ef 8105 	mrs	r1, IPSR
1000064a:	b2c9      	uxtb	r1, r1
1000064c:	2900      	cmp	r1, #0
1000064e:	d034      	beq.n	100006ba <irq_remove_handler+0xe2>
10000650:	4588      	cmp	r8, r1
10000652:	d005      	beq.n	10000660 <irq_remove_handler+0x88>
10000654:	e9cd 1000 	strd	r1, r0, [sp]
10000658:	f000 feba 	bl	100013d0 <hard_assertion_failure>
1000065c:	e9dd 1000 	ldrd	r1, r0, [sp]
10000660:	f025 0e01 	bic.w	lr, r5, #1
10000664:	f8de c008 	ldr.w	ip, [lr, #8]
10000668:	4564      	cmp	r4, ip
1000066a:	d105      	bne.n	10000678 <irq_remove_handler+0xa0>
1000066c:	e089      	b.n	10000782 <irq_remove_handler+0x1aa>
1000066e:	f8d3 c008 	ldr.w	ip, [r3, #8]
10000672:	4564      	cmp	r4, ip
10000674:	d031      	beq.n	100006da <irq_remove_handler+0x102>
10000676:	469e      	mov	lr, r3
10000678:	f99e 2006 	ldrsb.w	r2, [lr, #6]
1000067c:	eb02 0342 	add.w	r3, r2, r2, lsl #1
10000680:	2a00      	cmp	r2, #0
10000682:	eb07 0383 	add.w	r3, r7, r3, lsl #2
10000686:	daf2      	bge.n	1000066e <irq_remove_handler+0x96>
10000688:	4564      	cmp	r4, ip
1000068a:	d061      	beq.n	10000750 <irq_remove_handler+0x178>
1000068c:	f1bb 0f00 	cmp.w	fp, #0
10000690:	d020      	beq.n	100006d4 <irq_remove_handler+0xfc>
10000692:	f8c9 0180 	str.w	r0, [r9, #384]	@ 0x180
10000696:	f8c9 0000 	str.w	r0, [r9]
1000069a:	4b45      	ldr	r3, [pc, #276]	@ (100007b0 <irq_remove_handler+0x1d8>)
1000069c:	689b      	ldr	r3, [r3, #8]
1000069e:	f843 5028 	str.w	r5, [r3, r8, lsl #2]
100006a2:	f3bf 8f5f 	dmb	sy
100006a6:	2300      	movs	r3, #0
100006a8:	e8c6 3f8f 	stlb	r3, [r6]
100006ac:	f38a 8810 	msr	PRIMASK, sl
100006b0:	b003      	add	sp, #12
100006b2:	e8bd 8ff0 	ldmia.w	sp!, {r4, r5, r6, r7, r8, r9, sl, fp, pc}
100006b6:	4615      	mov	r5, r2
100006b8:	e7ef      	b.n	1000069a <irq_remove_handler+0xc2>
100006ba:	f025 0e01 	bic.w	lr, r5, #1
100006be:	f8de c008 	ldr.w	ip, [lr, #8]
100006c2:	4564      	cmp	r4, ip
100006c4:	d1d8      	bne.n	10000678 <irq_remove_handler+0xa0>
100006c6:	f99e 4006 	ldrsb.w	r4, [lr, #6]
100006ca:	4673      	mov	r3, lr
100006cc:	2c00      	cmp	r4, #0
100006ce:	da08      	bge.n	100006e2 <irq_remove_handler+0x10a>
100006d0:	4615      	mov	r5, r2
100006d2:	e046      	b.n	10000762 <irq_remove_handler+0x18a>
100006d4:	f8c9 0080 	str.w	r0, [r9, #128]	@ 0x80
100006d8:	e7df      	b.n	1000069a <irq_remove_handler+0xc2>
100006da:	f993 4006 	ldrsb.w	r4, [r3, #6]
100006de:	2c00      	cmp	r4, #0
100006e0:	db37      	blt.n	10000752 <irq_remove_handler+0x17a>
100006e2:	eb04 0c44 	add.w	ip, r4, r4, lsl #1
100006e6:	eb07 0c8c 	add.w	ip, r7, ip, lsl #2
100006ea:	f89c 1007 	ldrb.w	r1, [ip, #7]
100006ee:	f8dc 2008 	ldr.w	r2, [ip, #8]
100006f2:	71d9      	strb	r1, [r3, #7]
100006f4:	609a      	str	r2, [r3, #8]
100006f6:	f99c 2006 	ldrsb.w	r2, [ip, #6]
100006fa:	0061      	lsls	r1, r4, #1
100006fc:	2a00      	cmp	r2, #0
100006fe:	719a      	strb	r2, [r3, #6]
10000700:	db3d      	blt.n	1000077e <irq_remove_handler+0x1a6>
10000702:	f8bc e004 	ldrh.w	lr, [ip, #4]
10000706:	ea5f 5e4e 	movs.w	lr, lr, lsl #21
1000070a:	d505      	bpl.n	10000718 <irq_remove_handler+0x140>
1000070c:	f50e 1eff 	add.w	lr, lr, #2088960	@ 0x1fe000
10000710:	f50e 5eff 	add.w	lr, lr, #8160	@ 0x1fe0
10000714:	f10e 0e1f 	add.w	lr, lr, #31
10000718:	f06f 0c07 	mvn.w	ip, #7
1000071c:	190a      	adds	r2, r1, r4
1000071e:	ea4f 5e6e 	mov.w	lr, lr, asr #21
10000722:	0092      	lsls	r2, r2, #2
10000724:	eb02 024e 	add.w	r2, r2, lr, lsl #1
10000728:	3208      	adds	r2, #8
1000072a:	443a      	add	r2, r7
1000072c:	ebac 0c03 	sub.w	ip, ip, r3
10000730:	4462      	add	r2, ip
10000732:	f3c2 024a 	ubfx	r2, r2, #1, #11
10000736:	ea6f 42c2 	mvn.w	r2, r2, lsl #19
1000073a:	ea6f 42d2 	mvn.w	r2, r2, lsr #19
1000073e:	809a      	strh	r2, [r3, #4]
10000740:	4b1e      	ldr	r3, [pc, #120]	@ (100007bc <irq_remove_handler+0x1e4>)
10000742:	4421      	add	r1, r4
10000744:	781a      	ldrb	r2, [r3, #0]
10000746:	eb07 0181 	add.w	r1, r7, r1, lsl #2
1000074a:	701c      	strb	r4, [r3, #0]
1000074c:	718a      	strb	r2, [r1, #6]
1000074e:	e79d      	b.n	1000068c <irq_remove_handler+0xb4>
10000750:	4673      	mov	r3, lr
10000752:	b9d9      	cbnz	r1, 1000078c <irq_remove_handler+0x1b4>
10000754:	22ff      	movs	r2, #255	@ 0xff
10000756:	f88e 2006 	strb.w	r2, [lr, #6]
1000075a:	f64b 5201 	movw	r2, #48385	@ 0xbd01
1000075e:	f8ae 2004 	strh.w	r2, [lr, #4]
10000762:	4c16      	ldr	r4, [pc, #88]	@ (100007bc <irq_remove_handler+0x1e4>)
10000764:	f64a 22aa 	movw	r2, #43690	@ 0xaaaa
10000768:	f894 c000 	ldrb.w	ip, [r4]
1000076c:	4619      	mov	r1, r3
1000076e:	1bc9      	subs	r1, r1, r7
10000770:	4149      	adcs	r1, r1
10000772:	434a      	muls	r2, r1
10000774:	0d12      	lsrs	r2, r2, #20
10000776:	f883 c006 	strb.w	ip, [r3, #6]
1000077a:	7022      	strb	r2, [r4, #0]
1000077c:	e786      	b.n	1000068c <irq_remove_handler+0xb4>
1000077e:	4a10      	ldr	r2, [pc, #64]	@ (100007c0 <irq_remove_handler+0x1e8>)
10000780:	e7dd      	b.n	1000073e <irq_remove_handler+0x166>
10000782:	f99e 4006 	ldrsb.w	r4, [lr, #6]
10000786:	4673      	mov	r3, lr
10000788:	2c00      	cmp	r4, #0
1000078a:	daaa      	bge.n	100006e2 <irq_remove_handler+0x10a>
1000078c:	4a0d      	ldr	r2, [pc, #52]	@ (100007c4 <irq_remove_handler+0x1ec>)
1000078e:	4c0e      	ldr	r4, [pc, #56]	@ (100007c8 <irq_remove_handler+0x1f0>)
10000790:	1ad2      	subs	r2, r2, r3
10000792:	3a08      	subs	r2, #8
10000794:	f3c2 310a 	ubfx	r1, r2, #12, #11
10000798:	ea6f 5101 	mvn.w	r1, r1, lsl #20
1000079c:	ea6f 5111 	mvn.w	r1, r1, lsr #20
100007a0:	ea44 0252 	orr.w	r2, r4, r2, lsr #1
100007a4:	80da      	strh	r2, [r3, #6]
100007a6:	8099      	strh	r1, [r3, #4]
100007a8:	e770      	b.n	1000068c <irq_remove_handler+0xb4>
100007aa:	bf00      	nop
100007ac:	200007b9 	.word	0x200007b9
100007b0:	e000ed00 	.word	0xe000ed00
100007b4:	10000111 	.word	0x10000111
100007b8:	200005ac 	.word	0x200005ac
100007bc:	2000085c 	.word	0x2000085c
100007c0:	ffffbd01 	.word	0xffffbd01
100007c4:	200005e6 	.word	0x200005e6
100007c8:	fffff800 	.word	0xfffff800

100007cc <irq_add_tail_to_free_list>:
100007cc:	b5f0      	push	{r4, r5, r6, r7, lr}
100007ce:	f3ef 8505 	mrs	r5, IPSR
100007d2:	b2ed      	uxtb	r5, r5
100007d4:	f3ef 8c10 	mrs	ip, PRIMASK
100007d8:	b672      	cpsid	i
100007da:	4926      	ldr	r1, [pc, #152]	@ (10000874 <irq_add_tail_to_free_list+0xa8>)
100007dc:	e8d1 2fcf 	ldaexb	r2, [r1]
100007e0:	2301      	movs	r3, #1
100007e2:	2a00      	cmp	r2, #0
100007e4:	d1fa      	bne.n	100007dc <irq_add_tail_to_free_list+0x10>
100007e6:	e8c1 3f42 	strexb	r2, r3, [r1]
100007ea:	2a00      	cmp	r2, #0
100007ec:	d1f6      	bne.n	100007dc <irq_add_tail_to_free_list+0x10>
100007ee:	f3bf 8f5f 	dmb	sy
100007f2:	4e21      	ldr	r6, [pc, #132]	@ (10000878 <irq_add_tail_to_free_list+0xac>)
100007f4:	f040 0e01 	orr.w	lr, r0, #1
100007f8:	68b4      	ldr	r4, [r6, #8]
100007fa:	f64a 23aa 	movw	r3, #43690	@ 0xaaaa
100007fe:	f854 7025 	ldr.w	r7, [r4, r5, lsl #2]
10000802:	4a1e      	ldr	r2, [pc, #120]	@ (1000087c <irq_add_tail_to_free_list+0xb0>)
10000804:	4604      	mov	r4, r0
10000806:	1aa4      	subs	r4, r4, r2
10000808:	4164      	adcs	r4, r4
1000080a:	4363      	muls	r3, r4
1000080c:	0d1b      	lsrs	r3, r3, #20
1000080e:	4577      	cmp	r7, lr
10000810:	b25b      	sxtb	r3, r3
10000812:	d01b      	beq.n	1000084c <irq_add_tail_to_free_list+0x80>
10000814:	f992 4006 	ldrsb.w	r4, [r2, #6]
10000818:	429c      	cmp	r4, r3
1000081a:	d01c      	beq.n	10000856 <irq_add_tail_to_free_list+0x8a>
1000081c:	f992 4012 	ldrsb.w	r4, [r2, #18]
10000820:	429c      	cmp	r4, r3
10000822:	d023      	beq.n	1000086c <irq_add_tail_to_free_list+0xa0>
10000824:	f992 401e 	ldrsb.w	r4, [r2, #30]
10000828:	429c      	cmp	r4, r3
1000082a:	d021      	beq.n	10000870 <irq_add_tail_to_free_list+0xa4>
1000082c:	f992 402a 	ldrsb.w	r4, [r2, #42]	@ 0x2a
10000830:	429c      	cmp	r4, r3
10000832:	bf08      	it	eq
10000834:	2403      	moveq	r4, #3
10000836:	d00f      	beq.n	10000858 <irq_add_tail_to_free_list+0x8c>
10000838:	4a11      	ldr	r2, [pc, #68]	@ (10000880 <irq_add_tail_to_free_list+0xb4>)
1000083a:	2400      	movs	r4, #0
1000083c:	7815      	ldrb	r5, [r2, #0]
1000083e:	7013      	strb	r3, [r2, #0]
10000840:	7185      	strb	r5, [r0, #6]
10000842:	e8c1 4f8f 	stlb	r4, [r1]
10000846:	f38c 8810 	msr	PRIMASK, ip
1000084a:	bdf0      	pop	{r4, r5, r6, r7, pc}
1000084c:	68b2      	ldr	r2, [r6, #8]
1000084e:	4c0d      	ldr	r4, [pc, #52]	@ (10000884 <irq_add_tail_to_free_list+0xb8>)
10000850:	f842 4025 	str.w	r4, [r2, r5, lsl #2]
10000854:	e7f0      	b.n	10000838 <irq_add_tail_to_free_list+0x6c>
10000856:	2400      	movs	r4, #0
10000858:	eb04 0444 	add.w	r4, r4, r4, lsl #1
1000085c:	eb02 0284 	add.w	r2, r2, r4, lsl #2
10000860:	24ff      	movs	r4, #255	@ 0xff
10000862:	7194      	strb	r4, [r2, #6]
10000864:	f64b 5401 	movw	r4, #48385	@ 0xbd01
10000868:	8094      	strh	r4, [r2, #4]
1000086a:	e7e5      	b.n	10000838 <irq_add_tail_to_free_list+0x6c>
1000086c:	2401      	movs	r4, #1
1000086e:	e7f3      	b.n	10000858 <irq_add_tail_to_free_list+0x8c>
10000870:	2402      	movs	r4, #2
10000872:	e7f1      	b.n	10000858 <irq_add_tail_to_free_list+0x8c>
10000874:	200007b9 	.word	0x200007b9
10000878:	e000ed00 	.word	0xe000ed00
1000087c:	200005ac 	.word	0x200005ac
10000880:	2000085c 	.word	0x2000085c
10000884:	10000111 	.word	0x10000111

10000888 <lock_init>:
10000888:	4b01      	ldr	r3, [pc, #4]	@ (10000890 <lock_init+0x8>)
1000088a:	440b      	add	r3, r1
1000088c:	6003      	str	r3, [r0, #0]
1000088e:	4770      	bx	lr
10000890:	200007b0 	.word	0x200007b0

10000894 <runtime_init_mutex>:
10000894:	b570      	push	{r4, r5, r6, lr}
10000896:	4c10      	ldr	r4, [pc, #64]	@ (100008d8 <runtime_init_mutex+0x44>)
10000898:	4d10      	ldr	r5, [pc, #64]	@ (100008dc <runtime_init_mutex+0x48>)
1000089a:	42ac      	cmp	r4, r5
1000089c:	d20e      	bcs.n	100008bc <runtime_init_mutex+0x28>
1000089e:	26ff      	movs	r6, #255	@ 0xff
100008a0:	6823      	ldr	r3, [r4, #0]
100008a2:	b163      	cbz	r3, 100008be <runtime_init_mutex+0x2a>
100008a4:	f7ff fe12 	bl	100004cc <next_striped_spin_lock_num>
100008a8:	4601      	mov	r1, r0
100008aa:	4620      	mov	r0, r4
100008ac:	f7ff ffec 	bl	10000888 <lock_init>
100008b0:	80a6      	strh	r6, [r4, #4]
100008b2:	f3bf 8f5f 	dmb	sy
100008b6:	3408      	adds	r4, #8
100008b8:	42ac      	cmp	r4, r5
100008ba:	d3f1      	bcc.n	100008a0 <runtime_init_mutex+0xc>
100008bc:	bd70      	pop	{r4, r5, r6, pc}
100008be:	f7ff fe05 	bl	100004cc <next_striped_spin_lock_num>
100008c2:	4601      	mov	r1, r0
100008c4:	4620      	mov	r0, r4
100008c6:	f7ff ffdf 	bl	10000888 <lock_init>
100008ca:	7126      	strb	r6, [r4, #4]
100008cc:	f3bf 8f5f 	dmb	sy
100008d0:	3408      	adds	r4, #8
100008d2:	42ac      	cmp	r4, r5
100008d4:	d3e4      	bcc.n	100008a0 <runtime_init_mutex+0xc>
100008d6:	bd70      	pop	{r4, r5, r6, pc}
100008d8:	20000624 	.word	0x20000624
100008dc:	2000062c 	.word	0x2000062c

100008e0 <sleep_until_callback>:
100008e0:	4b0d      	ldr	r3, [pc, #52]	@ (10000918 <sleep_until_callback+0x38>)
100008e2:	681a      	ldr	r2, [r3, #0]
100008e4:	f3ef 8110 	mrs	r1, PRIMASK
100008e8:	b672      	cpsid	i
100008ea:	e8d2 cfcf 	ldaexb	ip, [r2]
100008ee:	2001      	movs	r0, #1
100008f0:	f1bc 0f00 	cmp.w	ip, #0
100008f4:	d1f9      	bne.n	100008ea <sleep_until_callback+0xa>
100008f6:	e8c2 0f4c 	strexb	ip, r0, [r2]
100008fa:	f1bc 0f00 	cmp.w	ip, #0
100008fe:	d1f4      	bne.n	100008ea <sleep_until_callback+0xa>
10000900:	f3bf 8f5f 	dmb	sy
10000904:	2200      	movs	r2, #0
10000906:	681b      	ldr	r3, [r3, #0]
10000908:	e8c3 2f8f 	stlb	r2, [r3]
1000090c:	f381 8810 	msr	PRIMASK, r1
10000910:	bf40      	sev
10000912:	2000      	movs	r0, #0
10000914:	2100      	movs	r1, #0
10000916:	4770      	bx	lr
10000918:	20000850 	.word	0x20000850
1000091c:	00000000 	.word	0x00000000

10000920 <alarm_pool_irq_handler>:
10000920:	e92d 4ff0 	stmdb	sp!, {r4, r5, r6, r7, r8, r9, sl, fp, lr}
10000924:	ed2d 8b02 	vpush	{d8}
10000928:	b085      	sub	sp, #20
1000092a:	f3ef 8305 	mrs	r3, IPSR
1000092e:	b2db      	uxtb	r3, r3
10000930:	3b10      	subs	r3, #16
10000932:	089a      	lsrs	r2, r3, #2
10000934:	bf18      	it	ne
10000936:	2201      	movne	r2, #1
10000938:	f04f 0101 	mov.w	r1, #1
1000093c:	f003 0b03 	and.w	fp, r3, #3
10000940:	bf18      	it	ne
10000942:	4daf      	ldrne	r5, [pc, #700]	@ (10000c00 <alarm_pool_irq_handler+0x2e0>)
10000944:	4baf      	ldr	r3, [pc, #700]	@ (10000c04 <alarm_pool_irq_handler+0x2e4>)
10000946:	bf08      	it	eq
10000948:	4daf      	ldreq	r5, [pc, #700]	@ (10000c08 <alarm_pool_irq_handler+0x2e8>)
1000094a:	eb0b 0282 	add.w	r2, fp, r2, lsl #2
1000094e:	f853 6022 	ldr.w	r6, [r3, r2, lsl #2]
10000952:	fa01 f20b 	lsl.w	r2, r1, fp
10000956:	f505 5341 	add.w	r3, r5, #12352	@ 0x3040
1000095a:	ed9f 8ba7 	vldr	d8, [pc, #668]	@ 10000bf8 <alarm_pool_irq_handler+0x2d8>
1000095e:	9201      	str	r2, [sp, #4]
10000960:	605a      	str	r2, [r3, #4]
10000962:	e02f      	b.n	100009c4 <alarm_pool_irq_handler+0xa4>
10000964:	88b3      	ldrh	r3, [r6, #4]
10000966:	041c      	lsls	r4, r3, #16
10000968:	f140 8093 	bpl.w	10000a92 <alarm_pool_irq_handler+0x172>
1000096c:	79b3      	ldrb	r3, [r6, #6]
1000096e:	2b00      	cmp	r3, #0
10000970:	f040 80dd 	bne.w	10000b2e <alarm_pool_irq_handler+0x20e>
10000974:	f9b6 2008 	ldrsh.w	r2, [r6, #8]
10000978:	2a00      	cmp	r2, #0
1000097a:	f2c0 811e 	blt.w	10000bba <alarm_pool_irq_handler+0x29a>
1000097e:	6973      	ldr	r3, [r6, #20]
10000980:	eb02 0242 	add.w	r2, r2, r2, lsl #1
10000984:	eb03 03c2 	add.w	r3, r3, r2, lsl #3
10000988:	e9d3 4702 	ldrd	r4, r7, [r3, #8]
1000098c:	f1b7 3fff 	cmp.w	r7, #4294967295
10000990:	bf08      	it	eq
10000992:	f1b4 3fff 	cmpeq.w	r4, #4294967295
10000996:	d00e      	beq.n	100009b6 <alarm_pool_irq_handler+0x96>
10000998:	eb05 018b 	add.w	r1, r5, fp, lsl #2
1000099c:	6aab      	ldr	r3, [r5, #40]	@ 0x28
1000099e:	690a      	ldr	r2, [r1, #16]
100009a0:	1ad2      	subs	r2, r2, r3
100009a2:	1ae3      	subs	r3, r4, r3
100009a4:	4293      	cmp	r3, r2
100009a6:	d305      	bcc.n	100009b4 <alarm_pool_irq_handler+0x94>
100009a8:	2301      	movs	r3, #1
100009aa:	6a2a      	ldr	r2, [r5, #32]
100009ac:	fa03 f30b 	lsl.w	r3, r3, fp
100009b0:	4213      	tst	r3, r2
100009b2:	d100      	bne.n	100009b6 <alarm_pool_irq_handler+0x96>
100009b4:	610c      	str	r4, [r1, #16]
100009b6:	4628      	mov	r0, r5
100009b8:	f000 fb38 	bl	1000102c <timer_time_us_64>
100009bc:	42a0      	cmp	r0, r4
100009be:	41b9      	sbcs	r1, r7
100009c0:	f2c0 80fb 	blt.w	10000bba <alarm_pool_irq_handler+0x29a>
100009c4:	f9b6 3008 	ldrsh.w	r3, [r6, #8]
100009c8:	9a01      	ldr	r2, [sp, #4]
100009ca:	2b00      	cmp	r3, #0
100009cc:	9300      	str	r3, [sp, #0]
100009ce:	63ea      	str	r2, [r5, #60]	@ 0x3c
100009d0:	dbc8      	blt.n	10000964 <alarm_pool_irq_handler+0x44>
100009d2:	f8d6 8014 	ldr.w	r8, [r6, #20]
100009d6:	eb03 0943 	add.w	r9, r3, r3, lsl #1
100009da:	4628      	mov	r0, r5
100009dc:	eb08 07c9 	add.w	r7, r8, r9, lsl #3
100009e0:	e9d7 4a02 	ldrd	r4, sl, [r7, #8]
100009e4:	f000 fb22 	bl	1000102c <timer_time_us_64>
100009e8:	42a0      	cmp	r0, r4
100009ea:	eb71 010a 	sbcs.w	r1, r1, sl
100009ee:	dbb9      	blt.n	10000964 <alarm_pool_irq_handler+0x44>
100009f0:	f1ba 0f00 	cmp.w	sl, #0
100009f4:	f2c0 80c3 	blt.w	10000b7e <alarm_pool_irq_handler+0x25e>
100009f8:	e9d7 3104 	ldrd	r3, r1, [r7, #16]
100009fc:	4a83      	ldr	r2, [pc, #524]	@ (10000c0c <alarm_pool_irq_handler+0x2ec>)
100009fe:	4293      	cmp	r3, r2
10000a00:	f000 80ed 	beq.w	10000bde <alarm_pool_irq_handler+0x2be>
10000a04:	887a      	ldrh	r2, [r7, #2]
10000a06:	f9b6 0008 	ldrsh.w	r0, [r6, #8]
10000a0a:	b292      	uxth	r2, r2
10000a0c:	ea42 4000 	orr.w	r0, r2, r0, lsl #16
10000a10:	4798      	blx	r3
10000a12:	4602      	mov	r2, r0
10000a14:	460b      	mov	r3, r1
10000a16:	ea52 0103 	orrs.w	r1, r2, r3
10000a1a:	f000 80b0 	beq.w	10000b7e <alarm_pool_irq_handler+0x25e>
10000a1e:	2b00      	cmp	r3, #0
10000a20:	f280 80d1 	bge.w	10000bc6 <alarm_pool_irq_handler+0x2a6>
10000a24:	ebb4 0e02 	subs.w	lr, r4, r2
10000a28:	eb6a 0a03 	sbc.w	sl, sl, r3
10000a2c:	f938 3039 	ldrsh.w	r3, [r8, r9, lsl #3]
10000a30:	e9c7 ea02 	strd	lr, sl, [r7, #8]
10000a34:	2b00      	cmp	r3, #0
10000a36:	db95      	blt.n	10000964 <alarm_pool_irq_handler+0x44>
10000a38:	6971      	ldr	r1, [r6, #20]
10000a3a:	eb03 0243 	add.w	r2, r3, r3, lsl #1
10000a3e:	eb01 02c2 	add.w	r2, r1, r2, lsl #3
10000a42:	e9d2 7002 	ldrd	r7, r0, [r2, #8]
10000a46:	45be      	cmp	lr, r7
10000a48:	eb7a 0c00 	sbcs.w	ip, sl, r0
10000a4c:	ea4f 0243 	mov.w	r2, r3, lsl #1
10000a50:	db88      	blt.n	10000964 <alarm_pool_irq_handler+0x44>
10000a52:	46b4      	mov	ip, r6
10000a54:	f82c 3f08 	strh.w	r3, [ip, #8]!
10000a58:	e006      	b.n	10000a68 <alarm_pool_irq_handler+0x148>
10000a5a:	eb03 0043 	add.w	r0, r3, r3, lsl #1
10000a5e:	eb01 00c0 	add.w	r0, r1, r0, lsl #3
10000a62:	005a      	lsls	r2, r3, #1
10000a64:	e9d0 7002 	ldrd	r7, r0, [r0, #8]
10000a68:	45be      	cmp	lr, r7
10000a6a:	441a      	add	r2, r3
10000a6c:	eb7a 0000 	sbcs.w	r0, sl, r0
10000a70:	eb01 04c2 	add.w	r4, r1, r2, lsl #3
10000a74:	db04      	blt.n	10000a80 <alarm_pool_irq_handler+0x160>
10000a76:	f931 3032 	ldrsh.w	r3, [r1, r2, lsl #3]
10000a7a:	46a4      	mov	ip, r4
10000a7c:	2b00      	cmp	r3, #0
10000a7e:	daec      	bge.n	10000a5a <alarm_pool_irq_handler+0x13a>
10000a80:	f828 3039 	strh.w	r3, [r8, r9, lsl #3]
10000a84:	9b00      	ldr	r3, [sp, #0]
10000a86:	f8ac 3000 	strh.w	r3, [ip]
10000a8a:	88b3      	ldrh	r3, [r6, #4]
10000a8c:	041c      	lsls	r4, r3, #16
10000a8e:	f53f af6d 	bmi.w	1000096c <alarm_pool_irq_handler+0x4c>
10000a92:	6933      	ldr	r3, [r6, #16]
10000a94:	f3ef 8210 	mrs	r2, PRIMASK
10000a98:	b672      	cpsid	i
10000a9a:	e8d3 0fcf 	ldaexb	r0, [r3]
10000a9e:	2101      	movs	r1, #1
10000aa0:	2800      	cmp	r0, #0
10000aa2:	d1fa      	bne.n	10000a9a <alarm_pool_irq_handler+0x17a>
10000aa4:	e8c3 1f40 	strexb	r0, r1, [r3]
10000aa8:	2800      	cmp	r0, #0
10000aaa:	d1f6      	bne.n	10000a9a <alarm_pool_irq_handler+0x17a>
10000aac:	f3bf 8f5f 	dmb	sy
10000ab0:	f64f 74ff 	movw	r4, #65535	@ 0xffff
10000ab4:	88b0      	ldrh	r0, [r6, #4]
10000ab6:	2300      	movs	r3, #0
10000ab8:	6931      	ldr	r1, [r6, #16]
10000aba:	b200      	sxth	r0, r0
10000abc:	80b4      	strh	r4, [r6, #4]
10000abe:	e8c1 3f8f 	stlb	r3, [r1]
10000ac2:	f382 8810 	msr	PRIMASK, r2
10000ac6:	4298      	cmp	r0, r3
10000ac8:	f6ff af50 	blt.w	1000096c <alarm_pool_irq_handler+0x4c>
10000acc:	4607      	mov	r7, r0
10000ace:	46a9      	mov	r9, r5
10000ad0:	6974      	ldr	r4, [r6, #20]
10000ad2:	f106 0808 	add.w	r8, r6, #8
10000ad6:	eb07 0e47 	add.w	lr, r7, r7, lsl #1
10000ada:	eb04 03ce 	add.w	r3, r4, lr, lsl #3
10000ade:	e9d3 5002 	ldrd	r5, r0, [r3, #8]
10000ae2:	f9b6 3008 	ldrsh.w	r3, [r6, #8]
10000ae6:	46c4      	mov	ip, r8
10000ae8:	2b00      	cmp	r3, #0
10000aea:	db13      	blt.n	10000b14 <alarm_pool_irq_handler+0x1f4>
10000aec:	46b2      	mov	sl, r6
10000aee:	9700      	str	r7, [sp, #0]
10000af0:	e004      	b.n	10000afc <alarm_pool_irq_handler+0x1dc>
10000af2:	f934 3036 	ldrsh.w	r3, [r4, r6, lsl #3]
10000af6:	4694      	mov	ip, r2
10000af8:	2b00      	cmp	r3, #0
10000afa:	db09      	blt.n	10000b10 <alarm_pool_irq_handler+0x1f0>
10000afc:	eb03 0643 	add.w	r6, r3, r3, lsl #1
10000b00:	eb04 02c6 	add.w	r2, r4, r6, lsl #3
10000b04:	e9d2 7102 	ldrd	r7, r1, [r2, #8]
10000b08:	42bd      	cmp	r5, r7
10000b0a:	eb70 0101 	sbcs.w	r1, r0, r1
10000b0e:	daf0      	bge.n	10000af2 <alarm_pool_irq_handler+0x1d2>
10000b10:	4656      	mov	r6, sl
10000b12:	9f00      	ldr	r7, [sp, #0]
10000b14:	f8ac 7000 	strh.w	r7, [ip]
10000b18:	f934 703e 	ldrsh.w	r7, [r4, lr, lsl #3]
10000b1c:	f824 303e 	strh.w	r3, [r4, lr, lsl #3]
10000b20:	2f00      	cmp	r7, #0
10000b22:	dad8      	bge.n	10000ad6 <alarm_pool_irq_handler+0x1b6>
10000b24:	79b3      	ldrb	r3, [r6, #6]
10000b26:	464d      	mov	r5, r9
10000b28:	2b00      	cmp	r3, #0
10000b2a:	f43f af23 	beq.w	10000974 <alarm_pool_irq_handler+0x54>
10000b2e:	2300      	movs	r3, #0
10000b30:	71b3      	strb	r3, [r6, #6]
10000b32:	f9b6 3008 	ldrsh.w	r3, [r6, #8]
10000b36:	f106 0808 	add.w	r8, r6, #8
10000b3a:	1c58      	adds	r0, r3, #1
10000b3c:	d03d      	beq.n	10000bba <alarm_pool_irq_handler+0x29a>
10000b3e:	461a      	mov	r2, r3
10000b40:	6977      	ldr	r7, [r6, #20]
10000b42:	e003      	b.n	10000b4c <alarm_pool_irq_handler+0x22c>
10000b44:	4680      	mov	r8, r0
10000b46:	1c59      	adds	r1, r3, #1
10000b48:	f43f af16 	beq.w	10000978 <alarm_pool_irq_handler+0x58>
10000b4c:	eb03 0143 	add.w	r1, r3, r3, lsl #1
10000b50:	eb07 00c1 	add.w	r0, r7, r1, lsl #3
10000b54:	f8b0 c002 	ldrh.w	ip, [r0, #2]
10000b58:	461c      	mov	r4, r3
10000b5a:	f41c 4f00 	tst.w	ip, #32768	@ 0x8000
10000b5e:	469e      	mov	lr, r3
10000b60:	f937 3031 	ldrsh.w	r3, [r7, r1, lsl #3]
10000b64:	d0ee      	beq.n	10000b44 <alarm_pool_irq_handler+0x224>
10000b66:	4294      	cmp	r4, r2
10000b68:	ed80 8b02 	vstr	d8, [r0, #8]
10000b6c:	d005      	beq.n	10000b7a <alarm_pool_irq_handler+0x25a>
10000b6e:	f8a8 3000 	strh.w	r3, [r8]
10000b72:	8932      	ldrh	r2, [r6, #8]
10000b74:	f827 2031 	strh.w	r2, [r7, r1, lsl #3]
10000b78:	8134      	strh	r4, [r6, #8]
10000b7a:	4672      	mov	r2, lr
10000b7c:	e7e3      	b.n	10000b46 <alarm_pool_irq_handler+0x226>
10000b7e:	f838 3039 	ldrh.w	r3, [r8, r9, lsl #3]
10000b82:	8133      	strh	r3, [r6, #8]
10000b84:	6933      	ldr	r3, [r6, #16]
10000b86:	f3ef 8210 	mrs	r2, PRIMASK
10000b8a:	b672      	cpsid	i
10000b8c:	e8d3 0fcf 	ldaexb	r0, [r3]
10000b90:	2101      	movs	r1, #1
10000b92:	2800      	cmp	r0, #0
10000b94:	d1fa      	bne.n	10000b8c <alarm_pool_irq_handler+0x26c>
10000b96:	e8c3 1f40 	strexb	r0, r1, [r3]
10000b9a:	2800      	cmp	r0, #0
10000b9c:	d1f6      	bne.n	10000b8c <alarm_pool_irq_handler+0x26c>
10000b9e:	f3bf 8f5f 	dmb	sy
10000ba2:	8873      	ldrh	r3, [r6, #2]
10000ba4:	6931      	ldr	r1, [r6, #16]
10000ba6:	f828 3039 	strh.w	r3, [r8, r9, lsl #3]
10000baa:	9b00      	ldr	r3, [sp, #0]
10000bac:	8073      	strh	r3, [r6, #2]
10000bae:	2300      	movs	r3, #0
10000bb0:	e8c1 3f8f 	stlb	r3, [r1]
10000bb4:	f382 8810 	msr	PRIMASK, r2
10000bb8:	e6d4      	b.n	10000964 <alarm_pool_irq_handler+0x44>
10000bba:	bf40      	sev
10000bbc:	b005      	add	sp, #20
10000bbe:	ecbd 8b02 	vpop	{d8}
10000bc2:	e8bd 8ff0 	ldmia.w	sp!, {r4, r5, r6, r7, r8, r9, sl, fp, pc}
10000bc6:	4628      	mov	r0, r5
10000bc8:	e9cd 2302 	strd	r2, r3, [sp, #8]
10000bcc:	f000 fa2e 	bl	1000102c <timer_time_us_64>
10000bd0:	9a02      	ldr	r2, [sp, #8]
10000bd2:	9b03      	ldr	r3, [sp, #12]
10000bd4:	eb10 0e02 	adds.w	lr, r0, r2
10000bd8:	eb43 0a01 	adc.w	sl, r3, r1
10000bdc:	e726      	b.n	10000a2c <alarm_pool_irq_handler+0x10c>
10000bde:	4608      	mov	r0, r1
10000be0:	690b      	ldr	r3, [r1, #16]
10000be2:	9102      	str	r1, [sp, #8]
10000be4:	4798      	blx	r3
10000be6:	2800      	cmp	r0, #0
10000be8:	d0c9      	beq.n	10000b7e <alarm_pool_irq_handler+0x25e>
10000bea:	9902      	ldr	r1, [sp, #8]
10000bec:	e9d1 2300 	ldrd	r2, r3, [r1]
10000bf0:	e711      	b.n	10000a16 <alarm_pool_irq_handler+0xf6>
10000bf2:	bf00      	nop
10000bf4:	f3af 8000 	nop.w
10000bf8:	ffffffff 	.word	0xffffffff
10000bfc:	ffffffff 	.word	0xffffffff
10000c00:	400b8000 	.word	0x400b8000
10000c04:	20000828 	.word	0x20000828
10000c08:	400b0000 	.word	0x400b0000
10000c0c:	10000921 	.word	0x10000921

10000c10 <runtime_init_default_alarm_pool>:
10000c10:	e92d 4ff8 	stmdb	sp!, {r3, r4, r5, r6, r7, r8, r9, sl, fp, lr}
10000c14:	4c36      	ldr	r4, [pc, #216]	@ (10000cf0 <runtime_init_default_alarm_pool+0xe0>)
10000c16:	6925      	ldr	r5, [r4, #16]
10000c18:	b12d      	cbz	r5, 10000c26 <runtime_init_default_alarm_pool+0x16>
10000c1a:	e8bd 4ff8 	ldmia.w	sp!, {r3, r4, r5, r6, r7, r8, r9, sl, fp, lr}
10000c1e:	210a      	movs	r1, #10
10000c20:	4834      	ldr	r0, [pc, #208]	@ (10000cf4 <runtime_init_default_alarm_pool+0xe4>)
10000c22:	f7ff be31 	b.w	10000888 <lock_init>
10000c26:	f8df 80e4 	ldr.w	r8, [pc, #228]	@ 10000d0c <runtime_init_default_alarm_pool+0xfc>
10000c2a:	2103      	movs	r1, #3
10000c2c:	4640      	mov	r0, r8
10000c2e:	f000 f9eb 	bl	10001008 <timer_hardware_alarm_claim>
10000c32:	2603      	movs	r6, #3
10000c34:	f8c4 800c 	str.w	r8, [r4, #12]
10000c38:	f7ff fc48 	bl	100004cc <next_striped_spin_lock_num>
10000c3c:	f04f 4c50 	mov.w	ip, #3489660928	@ 0xd0000000
10000c40:	4b2d      	ldr	r3, [pc, #180]	@ (10000cf8 <runtime_init_default_alarm_pool+0xe8>)
10000c42:	7026      	strb	r6, [r4, #0]
10000c44:	4403      	add	r3, r0
10000c46:	6123      	str	r3, [r4, #16]
10000c48:	f8dc 3000 	ldr.w	r3, [ip]
10000c4c:	210f      	movs	r1, #15
10000c4e:	7063      	strb	r3, [r4, #1]
10000c50:	6963      	ldr	r3, [r4, #20]
10000c52:	8061      	strh	r1, [r4, #2]
10000c54:	831d      	strh	r5, [r3, #24]
10000c56:	f04f 0504 	mov.w	r5, #4
10000c5a:	f8a3 5078 	strh.w	r5, [r3, #120]	@ 0x78
10000c5e:	f04f 0505 	mov.w	r5, #5
10000c62:	f8a3 5090 	strh.w	r5, [r3, #144]	@ 0x90
10000c66:	f04f 0506 	mov.w	r5, #6
10000c6a:	f8a3 50a8 	strh.w	r5, [r3, #168]	@ 0xa8
10000c6e:	f04f 0507 	mov.w	r5, #7
10000c72:	210e      	movs	r1, #14
10000c74:	f64f 72ff 	movw	r2, #65535	@ 0xffff
10000c78:	2708      	movs	r7, #8
10000c7a:	f04f 0e0a 	mov.w	lr, #10
10000c7e:	f8a3 50c0 	strh.w	r5, [r3, #192]	@ 0xc0
10000c82:	f04f 0901 	mov.w	r9, #1
10000c86:	f04f 0c0c 	mov.w	ip, #12
10000c8a:	f04f 0b02 	mov.w	fp, #2
10000c8e:	f04f 0a09 	mov.w	sl, #9
10000c92:	200d      	movs	r0, #13
10000c94:	f04f 050b 	mov.w	r5, #11
10000c98:	f8a3 1168 	strh.w	r1, [r3, #360]	@ 0x168
10000c9c:	4917      	ldr	r1, [pc, #92]	@ (10000cfc <runtime_init_default_alarm_pool+0xec>)
10000c9e:	80a2      	strh	r2, [r4, #4]
10000ca0:	f8a3 e108 	strh.w	lr, [r3, #264]	@ 0x108
10000ca4:	60a1      	str	r1, [r4, #8]
10000ca6:	f8a3 b048 	strh.w	fp, [r3, #72]	@ 0x48
10000caa:	f8a3 a0f0 	strh.w	sl, [r3, #240]	@ 0xf0
10000cae:	f8a3 5120 	strh.w	r5, [r3, #288]	@ 0x120
10000cb2:	f8a3 c138 	strh.w	ip, [r3, #312]	@ 0x138
10000cb6:	f8a3 0150 	strh.w	r0, [r3, #336]	@ 0x150
10000cba:	f8a3 9030 	strh.w	r9, [r3, #48]	@ 0x30
10000cbe:	f8a3 6060 	strh.w	r6, [r3, #96]	@ 0x60
10000cc2:	f8a3 70d8 	strh.w	r7, [r3, #216]	@ 0xd8
10000cc6:	801a      	strh	r2, [r3, #0]
10000cc8:	4b0d      	ldr	r3, [pc, #52]	@ (10000d00 <runtime_init_default_alarm_pool+0xf0>)
10000cca:	4630      	mov	r0, r6
10000ccc:	f8c8 7020 	str.w	r7, [r8, #32]
10000cd0:	490c      	ldr	r1, [pc, #48]	@ (10000d04 <runtime_init_default_alarm_pool+0xf4>)
10000cd2:	60dc      	str	r4, [r3, #12]
10000cd4:	f7ff fc50 	bl	10000578 <irq_set_exclusive_handler>
10000cd8:	4649      	mov	r1, r9
10000cda:	4630      	mov	r0, r6
10000cdc:	f7ff fc36 	bl	1000054c <irq_set_enabled>
10000ce0:	4b09      	ldr	r3, [pc, #36]	@ (10000d08 <runtime_init_default_alarm_pool+0xf8>)
10000ce2:	210a      	movs	r1, #10
10000ce4:	641f      	str	r7, [r3, #64]	@ 0x40
10000ce6:	4803      	ldr	r0, [pc, #12]	@ (10000cf4 <runtime_init_default_alarm_pool+0xe4>)
10000ce8:	e8bd 4ff8 	ldmia.w	sp!, {r3, r4, r5, r6, r7, r8, r9, sl, fp, lr}
10000cec:	f7ff bdcc 	b.w	10000888 <lock_init>
10000cf0:	200005f4 	.word	0x200005f4
10000cf4:	20000850 	.word	0x20000850
10000cf8:	200007b0 	.word	0x200007b0
10000cfc:	0010ffff 	.word	0x0010ffff
10000d00:	20000828 	.word	0x20000828
10000d04:	10000921 	.word	0x10000921
10000d08:	400b2000 	.word	0x400b2000
10000d0c:	400b0000 	.word	0x400b0000

10000d10 <alarm_pool_add_alarm_at_force_in_context>:
10000d10:	4601      	mov	r1, r0
10000d12:	b5f0      	push	{r4, r5, r6, r7, lr}
10000d14:	6900      	ldr	r0, [r0, #16]
10000d16:	f3ef 8710 	mrs	r7, PRIMASK
10000d1a:	b672      	cpsid	i
10000d1c:	e8d0 5fcf 	ldaexb	r5, [r0]
10000d20:	2401      	movs	r4, #1
10000d22:	2d00      	cmp	r5, #0
10000d24:	d1fa      	bne.n	10000d1c <alarm_pool_add_alarm_at_force_in_context+0xc>
10000d26:	e8c0 4f45 	strexb	r5, r4, [r0]
10000d2a:	2d00      	cmp	r5, #0
10000d2c:	d1f6      	bne.n	10000d1c <alarm_pool_add_alarm_at_force_in_context+0xc>
10000d2e:	f3bf 8f5f 	dmb	sy
10000d32:	f9b1 e002 	ldrsh.w	lr, [r1, #2]
10000d36:	694c      	ldr	r4, [r1, #20]
10000d38:	eb0e 0c4e 	add.w	ip, lr, lr, lsl #1
10000d3c:	f1be 0f00 	cmp.w	lr, #0
10000d40:	ea4f 05cc 	mov.w	r5, ip, lsl #3
10000d44:	6908      	ldr	r0, [r1, #16]
10000d46:	eb04 0ccc 	add.w	ip, r4, ip, lsl #3
10000d4a:	db3c      	blt.n	10000dc6 <alarm_pool_add_alarm_at_force_in_context+0xb6>
10000d4c:	5b66      	ldrh	r6, [r4, r5]
10000d4e:	804e      	strh	r6, [r1, #2]
10000d50:	2600      	movs	r6, #0
10000d52:	e8c0 6f8f 	stlb	r6, [r0]
10000d56:	f387 8810 	msr	PRIMASK, r7
10000d5a:	f8bc 0002 	ldrh.w	r0, [ip, #2]
10000d5e:	e9cc 2302 	strd	r2, r3, [ip, #8]
10000d62:	3001      	adds	r0, #1
10000d64:	f3c0 000e 	ubfx	r0, r0, #0, #15
10000d68:	2801      	cmp	r0, #1
10000d6a:	bf38      	it	cc
10000d6c:	2001      	movcc	r0, #1
10000d6e:	9b05      	ldr	r3, [sp, #20]
10000d70:	f8ac 0002 	strh.w	r0, [ip, #2]
10000d74:	f8cc 3010 	str.w	r3, [ip, #16]
10000d78:	9b06      	ldr	r3, [sp, #24]
10000d7a:	ea40 400e 	orr.w	r0, r0, lr, lsl #16
10000d7e:	f8cc 3014 	str.w	r3, [ip, #20]
10000d82:	690b      	ldr	r3, [r1, #16]
10000d84:	f3ef 8210 	mrs	r2, PRIMASK
10000d88:	b672      	cpsid	i
10000d8a:	e8d3 cfcf 	ldaexb	ip, [r3]
10000d8e:	2701      	movs	r7, #1
10000d90:	f1bc 0f00 	cmp.w	ip, #0
10000d94:	d1f9      	bne.n	10000d8a <alarm_pool_add_alarm_at_force_in_context+0x7a>
10000d96:	e8c3 7f4c 	strexb	ip, r7, [r3]
10000d9a:	f1bc 0f00 	cmp.w	ip, #0
10000d9e:	d1f4      	bne.n	10000d8a <alarm_pool_add_alarm_at_force_in_context+0x7a>
10000da0:	f3bf 8f5f 	dmb	sy
10000da4:	888b      	ldrh	r3, [r1, #4]
10000da6:	5363      	strh	r3, [r4, r5]
10000da8:	f8a1 e004 	strh.w	lr, [r1, #4]
10000dac:	690b      	ldr	r3, [r1, #16]
10000dae:	e8c3 6f8f 	stlb	r6, [r3]
10000db2:	f382 8810 	msr	PRIMASK, r2
10000db6:	2201      	movs	r2, #1
10000db8:	68cb      	ldr	r3, [r1, #12]
10000dba:	7809      	ldrb	r1, [r1, #0]
10000dbc:	f503 5301 	add.w	r3, r3, #8256	@ 0x2040
10000dc0:	408a      	lsls	r2, r1
10000dc2:	605a      	str	r2, [r3, #4]
10000dc4:	bdf0      	pop	{r4, r5, r6, r7, pc}
10000dc6:	2300      	movs	r3, #0
10000dc8:	e8c0 3f8f 	stlb	r3, [r0]
10000dcc:	f387 8810 	msr	PRIMASK, r7
10000dd0:	f04f 30ff 	mov.w	r0, #4294967295
10000dd4:	bdf0      	pop	{r4, r5, r6, r7, pc}
10000dd6:	bf00      	nop

10000dd8 <alarm_pool_cancel_alarm>:
10000dd8:	4603      	mov	r3, r0
10000dda:	8940      	ldrh	r0, [r0, #10]
10000ddc:	ebb0 4f21 	cmp.w	r0, r1, asr #16
10000de0:	dd37      	ble.n	10000e52 <alarm_pool_cancel_alarm+0x7a>
10000de2:	6958      	ldr	r0, [r3, #20]
10000de4:	140a      	asrs	r2, r1, #16
10000de6:	eb02 0242 	add.w	r2, r2, r2, lsl #1
10000dea:	b510      	push	{r4, lr}
10000dec:	eb00 00c2 	add.w	r0, r0, r2, lsl #3
10000df0:	691c      	ldr	r4, [r3, #16]
10000df2:	f3ef 8c10 	mrs	ip, PRIMASK
10000df6:	b672      	cpsid	i
10000df8:	e8d4 efcf 	ldaexb	lr, [r4]
10000dfc:	2201      	movs	r2, #1
10000dfe:	f1be 0f00 	cmp.w	lr, #0
10000e02:	d1f9      	bne.n	10000df8 <alarm_pool_cancel_alarm+0x20>
10000e04:	e8c4 2f4e 	strexb	lr, r2, [r4]
10000e08:	f1be 0f00 	cmp.w	lr, #0
10000e0c:	d1f4      	bne.n	10000df8 <alarm_pool_cancel_alarm+0x20>
10000e0e:	f3bf 8f5f 	dmb	sy
10000e12:	8842      	ldrh	r2, [r0, #2]
10000e14:	b289      	uxth	r1, r1
10000e16:	b292      	uxth	r2, r2
10000e18:	428a      	cmp	r2, r1
10000e1a:	d007      	beq.n	10000e2c <alarm_pool_cancel_alarm+0x54>
10000e1c:	2200      	movs	r2, #0
10000e1e:	691b      	ldr	r3, [r3, #16]
10000e20:	e8c3 2f8f 	stlb	r2, [r3]
10000e24:	f38c 8810 	msr	PRIMASK, ip
10000e28:	2000      	movs	r0, #0
10000e2a:	bd10      	pop	{r4, pc}
10000e2c:	f442 4200 	orr.w	r2, r2, #32768	@ 0x8000
10000e30:	8042      	strh	r2, [r0, #2]
10000e32:	2101      	movs	r1, #1
10000e34:	2200      	movs	r2, #0
10000e36:	6918      	ldr	r0, [r3, #16]
10000e38:	7199      	strb	r1, [r3, #6]
10000e3a:	e8c0 2f8f 	stlb	r2, [r0]
10000e3e:	f38c 8810 	msr	PRIMASK, ip
10000e42:	781c      	ldrb	r4, [r3, #0]
10000e44:	68da      	ldr	r2, [r3, #12]
10000e46:	4608      	mov	r0, r1
10000e48:	f502 5301 	add.w	r3, r2, #8256	@ 0x2040
10000e4c:	40a1      	lsls	r1, r4
10000e4e:	6059      	str	r1, [r3, #4]
10000e50:	bd10      	pop	{r4, pc}
10000e52:	2000      	movs	r0, #0
10000e54:	4770      	bx	lr
10000e56:	bf00      	nop

10000e58 <sleep_ms>:
10000e58:	e92d 41f0 	stmdb	sp!, {r4, r5, r6, r7, r8, lr}
10000e5c:	b082      	sub	sp, #8
10000e5e:	4606      	mov	r6, r0
10000e60:	f000 f8ec 	bl	1000103c <time_us_64>
10000e64:	f44f 737a 	mov.w	r3, #1000	@ 0x3e8
10000e68:	4604      	mov	r4, r0
10000e6a:	f04f 30ff 	mov.w	r0, #4294967295
10000e6e:	f06f 4200 	mvn.w	r2, #2147483648	@ 0x80000000
10000e72:	fbe6 4103 	umlal	r4, r1, r6, r3
10000e76:	42a0      	cmp	r0, r4
10000e78:	eb72 0301 	sbcs.w	r3, r2, r1
10000e7c:	bf3a      	itte	cc
10000e7e:	4604      	movcc	r4, r0
10000e80:	4615      	movcc	r5, r2
10000e82:	460d      	movcs	r5, r1
10000e84:	1fa6      	subs	r6, r4, #6
10000e86:	f145 37ff 	adc.w	r7, r5, #4294967295
10000e8a:	42b4      	cmp	r4, r6
10000e8c:	eb75 0307 	sbcs.w	r3, r5, r7
10000e90:	bf3c      	itt	cc
10000e92:	2600      	movcc	r6, #0
10000e94:	4637      	movcc	r7, r6
10000e96:	f000 f8d1 	bl	1000103c <time_us_64>
10000e9a:	1a30      	subs	r0, r6, r0
10000e9c:	eb67 0101 	sbc.w	r1, r7, r1
10000ea0:	2801      	cmp	r0, #1
10000ea2:	f171 0100 	sbcs.w	r1, r1, #0
10000ea6:	da06      	bge.n	10000eb6 <sleep_ms+0x5e>
10000ea8:	4620      	mov	r0, r4
10000eaa:	4629      	mov	r1, r5
10000eac:	b002      	add	sp, #8
10000eae:	e8bd 41f0 	ldmia.w	sp!, {r4, r5, r6, r7, r8, lr}
10000eb2:	f000 b8fb 	b.w	100010ac <busy_wait_until>
10000eb6:	f000 f8c1 	bl	1000103c <time_us_64>
10000eba:	4286      	cmp	r6, r0
10000ebc:	eb67 0101 	sbc.w	r1, r7, r1
10000ec0:	2900      	cmp	r1, #0
10000ec2:	db0a      	blt.n	10000eda <sleep_ms+0x82>
10000ec4:	2100      	movs	r1, #0
10000ec6:	4b17      	ldr	r3, [pc, #92]	@ (10000f24 <sleep_ms+0xcc>)
10000ec8:	4632      	mov	r2, r6
10000eca:	9300      	str	r3, [sp, #0]
10000ecc:	4816      	ldr	r0, [pc, #88]	@ (10000f28 <sleep_ms+0xd0>)
10000ece:	463b      	mov	r3, r7
10000ed0:	9101      	str	r1, [sp, #4]
10000ed2:	f7ff ff1d 	bl	10000d10 <alarm_pool_add_alarm_at_force_in_context>
10000ed6:	3001      	adds	r0, #1
10000ed8:	d0e6      	beq.n	10000ea8 <sleep_ms+0x50>
10000eda:	f04f 0c00 	mov.w	ip, #0
10000ede:	4a13      	ldr	r2, [pc, #76]	@ (10000f2c <sleep_ms+0xd4>)
10000ee0:	4913      	ldr	r1, [pc, #76]	@ (10000f30 <sleep_ms+0xd8>)
10000ee2:	6a53      	ldr	r3, [r2, #36]	@ 0x24
10000ee4:	429f      	cmp	r7, r3
10000ee6:	d804      	bhi.n	10000ef2 <sleep_ms+0x9a>
10000ee8:	6a90      	ldr	r0, [r2, #40]	@ 0x28
10000eea:	42b0      	cmp	r0, r6
10000eec:	d2dc      	bcs.n	10000ea8 <sleep_ms+0x50>
10000eee:	429f      	cmp	r7, r3
10000ef0:	d1da      	bne.n	10000ea8 <sleep_ms+0x50>
10000ef2:	680b      	ldr	r3, [r1, #0]
10000ef4:	f3ef 8010 	mrs	r0, PRIMASK
10000ef8:	b672      	cpsid	i
10000efa:	e8d3 8fcf 	ldaexb	r8, [r3]
10000efe:	f05f 0e01 	movs.w	lr, #1
10000f02:	f1b8 0f00 	cmp.w	r8, #0
10000f06:	d1f8      	bne.n	10000efa <sleep_ms+0xa2>
10000f08:	e8c3 ef48 	strexb	r8, lr, [r3]
10000f0c:	f1b8 0f00 	cmp.w	r8, #0
10000f10:	d1f3      	bne.n	10000efa <sleep_ms+0xa2>
10000f12:	f3bf 8f5f 	dmb	sy
10000f16:	680b      	ldr	r3, [r1, #0]
10000f18:	e8c3 cf8f 	stlb	ip, [r3]
10000f1c:	f380 8810 	msr	PRIMASK, r0
10000f20:	bf20      	wfe
10000f22:	e7de      	b.n	10000ee2 <sleep_ms+0x8a>
10000f24:	100008e1 	.word	0x100008e1
10000f28:	200005f4 	.word	0x200005f4
10000f2c:	400b0000 	.word	0x400b0000
10000f30:	20000850 	.word	0x20000850

10000f34 <best_effort_wfe_or_timeout>:
10000f34:	e92d 43f0 	stmdb	sp!, {r4, r5, r6, r7, r8, r9, lr}
10000f38:	4606      	mov	r6, r0
10000f3a:	460d      	mov	r5, r1
10000f3c:	b083      	sub	sp, #12
10000f3e:	f3ef 8405 	mrs	r4, IPSR
10000f42:	b2e4      	uxtb	r4, r4
10000f44:	b13c      	cbz	r4, 10000f56 <best_effort_wfe_or_timeout+0x22>
10000f46:	4b2d      	ldr	r3, [pc, #180]	@ (10000ffc <best_effort_wfe_or_timeout+0xc8>)
10000f48:	6a5a      	ldr	r2, [r3, #36]	@ 0x24
10000f4a:	42aa      	cmp	r2, r5
10000f4c:	d21c      	bcs.n	10000f88 <best_effort_wfe_or_timeout+0x54>
10000f4e:	2000      	movs	r0, #0
10000f50:	b003      	add	sp, #12
10000f52:	e8bd 83f0 	ldmia.w	sp!, {r4, r5, r6, r7, r8, r9, pc}
10000f56:	4f2a      	ldr	r7, [pc, #168]	@ (10001000 <best_effort_wfe_or_timeout+0xcc>)
10000f58:	f8d7 900c 	ldr.w	r9, [r7, #12]
10000f5c:	f897 8000 	ldrb.w	r8, [r7]
10000f60:	4648      	mov	r0, r9
10000f62:	f000 f863 	bl	1000102c <timer_time_us_64>
10000f66:	f108 0804 	add.w	r8, r8, #4
10000f6a:	f859 3028 	ldr.w	r3, [r9, r8, lsl #2]
10000f6e:	1a1b      	subs	r3, r3, r0
10000f70:	1a30      	subs	r0, r6, r0
10000f72:	eb65 0101 	sbc.w	r1, r5, r1
10000f76:	4298      	cmp	r0, r3
10000f78:	f171 0100 	sbcs.w	r1, r1, #0
10000f7c:	db10      	blt.n	10000fa0 <best_effort_wfe_or_timeout+0x6c>
10000f7e:	bf20      	wfe
10000f80:	4b1e      	ldr	r3, [pc, #120]	@ (10000ffc <best_effort_wfe_or_timeout+0xc8>)
10000f82:	6a5a      	ldr	r2, [r3, #36]	@ 0x24
10000f84:	42aa      	cmp	r2, r5
10000f86:	d3e2      	bcc.n	10000f4e <best_effort_wfe_or_timeout+0x1a>
10000f88:	bf14      	ite	ne
10000f8a:	2401      	movne	r4, #1
10000f8c:	2400      	moveq	r4, #0
10000f8e:	6a9b      	ldr	r3, [r3, #40]	@ 0x28
10000f90:	42b3      	cmp	r3, r6
10000f92:	bf34      	ite	cc
10000f94:	4620      	movcc	r0, r4
10000f96:	f044 0001 	orrcs.w	r0, r4, #1
10000f9a:	b003      	add	sp, #12
10000f9c:	e8bd 83f0 	ldmia.w	sp!, {r4, r5, r6, r7, r8, r9, pc}
10000fa0:	f000 f84c 	bl	1000103c <time_us_64>
10000fa4:	4286      	cmp	r6, r0
10000fa6:	eb65 0101 	sbc.w	r1, r5, r1
10000faa:	2900      	cmp	r1, #0
10000fac:	db14      	blt.n	10000fd8 <best_effort_wfe_or_timeout+0xa4>
10000fae:	4b15      	ldr	r3, [pc, #84]	@ (10001004 <best_effort_wfe_or_timeout+0xd0>)
10000fb0:	4638      	mov	r0, r7
10000fb2:	e9cd 3400 	strd	r3, r4, [sp]
10000fb6:	4632      	mov	r2, r6
10000fb8:	462b      	mov	r3, r5
10000fba:	f7ff fea9 	bl	10000d10 <alarm_pool_add_alarm_at_force_in_context>
10000fbe:	1e01      	subs	r1, r0, #0
10000fc0:	dd0a      	ble.n	10000fd8 <best_effort_wfe_or_timeout+0xa4>
10000fc2:	4b0e      	ldr	r3, [pc, #56]	@ (10000ffc <best_effort_wfe_or_timeout+0xc8>)
10000fc4:	6a5a      	ldr	r2, [r3, #36]	@ 0x24
10000fc6:	42aa      	cmp	r2, r5
10000fc8:	d316      	bcc.n	10000ff8 <best_effort_wfe_or_timeout+0xc4>
10000fca:	6a9b      	ldr	r3, [r3, #40]	@ 0x28
10000fcc:	42b3      	cmp	r3, r6
10000fce:	d311      	bcc.n	10000ff4 <best_effort_wfe_or_timeout+0xc0>
10000fd0:	480b      	ldr	r0, [pc, #44]	@ (10001000 <best_effort_wfe_or_timeout+0xcc>)
10000fd2:	f7ff ff01 	bl	10000dd8 <alarm_pool_cancel_alarm>
10000fd6:	e7b6      	b.n	10000f46 <best_effort_wfe_or_timeout+0x12>
10000fd8:	4b08      	ldr	r3, [pc, #32]	@ (10000ffc <best_effort_wfe_or_timeout+0xc8>)
10000fda:	6a5c      	ldr	r4, [r3, #36]	@ 0x24
10000fdc:	42ac      	cmp	r4, r5
10000fde:	d3b6      	bcc.n	10000f4e <best_effort_wfe_or_timeout+0x1a>
10000fe0:	1b64      	subs	r4, r4, r5
10000fe2:	bf18      	it	ne
10000fe4:	2401      	movne	r4, #1
10000fe6:	6a9b      	ldr	r3, [r3, #40]	@ 0x28
10000fe8:	42b3      	cmp	r3, r6
10000fea:	bf34      	ite	cc
10000fec:	4620      	movcc	r0, r4
10000fee:	f044 0001 	orrcs.w	r0, r4, #1
10000ff2:	e7ad      	b.n	10000f50 <best_effort_wfe_or_timeout+0x1c>
10000ff4:	42aa      	cmp	r2, r5
10000ff6:	d1eb      	bne.n	10000fd0 <best_effort_wfe_or_timeout+0x9c>
10000ff8:	bf20      	wfe
10000ffa:	e7e9      	b.n	10000fd0 <best_effort_wfe_or_timeout+0x9c>
10000ffc:	400b0000 	.word	0x400b0000
10001000:	200005f4 	.word	0x200005f4
10001004:	100008e1 	.word	0x100008e1

10001008 <timer_hardware_alarm_claim>:
10001008:	b410      	push	{r4}
1000100a:	4b05      	ldr	r3, [pc, #20]	@ (10001020 <timer_hardware_alarm_claim+0x18>)
1000100c:	4c05      	ldr	r4, [pc, #20]	@ (10001024 <timer_hardware_alarm_claim+0x1c>)
1000100e:	4a06      	ldr	r2, [pc, #24]	@ (10001028 <timer_hardware_alarm_claim+0x20>)
10001010:	42a0      	cmp	r0, r4
10001012:	bf14      	ite	ne
10001014:	4618      	movne	r0, r3
10001016:	1c58      	addeq	r0, r3, #1
10001018:	f85d 4b04 	ldr.w	r4, [sp], #4
1000101c:	f7ff ba2a 	b.w	10000474 <hw_claim_or_assert>
10001020:	200007d8 	.word	0x200007d8
10001024:	400b8000 	.word	0x400b8000
10001028:	100037e0 	.word	0x100037e0

1000102c <timer_time_us_64>:
1000102c:	4603      	mov	r3, r0
1000102e:	6a41      	ldr	r1, [r0, #36]	@ 0x24
10001030:	460a      	mov	r2, r1
10001032:	6a98      	ldr	r0, [r3, #40]	@ 0x28
10001034:	6a59      	ldr	r1, [r3, #36]	@ 0x24
10001036:	428a      	cmp	r2, r1
10001038:	d1fa      	bne.n	10001030 <timer_time_us_64+0x4>
1000103a:	4770      	bx	lr

1000103c <time_us_64>:
1000103c:	4b03      	ldr	r3, [pc, #12]	@ (1000104c <time_us_64+0x10>)
1000103e:	6a59      	ldr	r1, [r3, #36]	@ 0x24
10001040:	460a      	mov	r2, r1
10001042:	6a98      	ldr	r0, [r3, #40]	@ 0x28
10001044:	6a59      	ldr	r1, [r3, #36]	@ 0x24
10001046:	4291      	cmp	r1, r2
10001048:	d1fa      	bne.n	10001040 <time_us_64+0x4>
1000104a:	4770      	bx	lr
1000104c:	400b0000 	.word	0x400b0000

10001050 <busy_wait_us>:
10001050:	b430      	push	{r4, r5}
10001052:	4a15      	ldr	r2, [pc, #84]	@ (100010a8 <busy_wait_us+0x58>)
10001054:	6a53      	ldr	r3, [r2, #36]	@ 0x24
10001056:	469c      	mov	ip, r3
10001058:	6a94      	ldr	r4, [r2, #40]	@ 0x28
1000105a:	6a53      	ldr	r3, [r2, #36]	@ 0x24
1000105c:	4563      	cmp	r3, ip
1000105e:	d1fa      	bne.n	10001056 <busy_wait_us+0x6>
10001060:	1902      	adds	r2, r0, r4
10001062:	4159      	adcs	r1, r3
10001064:	f04f 0500 	mov.w	r5, #0
10001068:	bf28      	it	cs
1000106a:	2501      	movcs	r5, #1
1000106c:	4b0e      	ldr	r3, [pc, #56]	@ (100010a8 <busy_wait_us+0x58>)
1000106e:	6a5b      	ldr	r3, [r3, #36]	@ 0x24
10001070:	b1b5      	cbz	r5, 100010a0 <busy_wait_us+0x50>
10001072:	1c5a      	adds	r2, r3, #1
10001074:	bf08      	it	eq
10001076:	461a      	moveq	r2, r3
10001078:	d008      	beq.n	1000108c <busy_wait_us+0x3c>
1000107a:	f04f 31ff 	mov.w	r1, #4294967295
1000107e:	460a      	mov	r2, r1
10001080:	4809      	ldr	r0, [pc, #36]	@ (100010a8 <busy_wait_us+0x58>)
10001082:	6a43      	ldr	r3, [r0, #36]	@ 0x24
10001084:	428b      	cmp	r3, r1
10001086:	d3fc      	bcc.n	10001082 <busy_wait_us+0x32>
10001088:	428b      	cmp	r3, r1
1000108a:	d107      	bne.n	1000109c <busy_wait_us+0x4c>
1000108c:	4906      	ldr	r1, [pc, #24]	@ (100010a8 <busy_wait_us+0x58>)
1000108e:	e002      	b.n	10001096 <busy_wait_us+0x46>
10001090:	6a48      	ldr	r0, [r1, #36]	@ 0x24
10001092:	4298      	cmp	r0, r3
10001094:	d102      	bne.n	1000109c <busy_wait_us+0x4c>
10001096:	6a88      	ldr	r0, [r1, #40]	@ 0x28
10001098:	4290      	cmp	r0, r2
1000109a:	d3f9      	bcc.n	10001090 <busy_wait_us+0x40>
1000109c:	bc30      	pop	{r4, r5}
1000109e:	4770      	bx	lr
100010a0:	4299      	cmp	r1, r3
100010a2:	d8ed      	bhi.n	10001080 <busy_wait_us+0x30>
100010a4:	e7f0      	b.n	10001088 <busy_wait_us+0x38>
100010a6:	bf00      	nop
100010a8:	400b0000 	.word	0x400b0000

100010ac <busy_wait_until>:
100010ac:	4a07      	ldr	r2, [pc, #28]	@ (100010cc <busy_wait_until+0x20>)
100010ae:	6a53      	ldr	r3, [r2, #36]	@ 0x24
100010b0:	4299      	cmp	r1, r3
100010b2:	d8fc      	bhi.n	100010ae <busy_wait_until+0x2>
100010b4:	4299      	cmp	r1, r3
100010b6:	d107      	bne.n	100010c8 <busy_wait_until+0x1c>
100010b8:	4b04      	ldr	r3, [pc, #16]	@ (100010cc <busy_wait_until+0x20>)
100010ba:	e002      	b.n	100010c2 <busy_wait_until+0x16>
100010bc:	6a5a      	ldr	r2, [r3, #36]	@ 0x24
100010be:	4291      	cmp	r1, r2
100010c0:	d102      	bne.n	100010c8 <busy_wait_until+0x1c>
100010c2:	6a9a      	ldr	r2, [r3, #40]	@ 0x28
100010c4:	4290      	cmp	r0, r2
100010c6:	d8f9      	bhi.n	100010bc <busy_wait_until+0x10>
100010c8:	4770      	bx	lr
100010ca:	bf00      	nop
100010cc:	400b0000 	.word	0x400b0000

100010d0 <uart_init>:
100010d0:	b5f8      	push	{r3, r4, r5, r6, r7, lr}
100010d2:	4605      	mov	r5, r0
100010d4:	2006      	movs	r0, #6
100010d6:	460e      	mov	r6, r1
100010d8:	f000 f8e4 	bl	100012a4 <clock_get_hz>
100010dc:	2800      	cmp	r0, #0
100010de:	d042      	beq.n	10001166 <uart_init+0x96>
100010e0:	4a35      	ldr	r2, [pc, #212]	@ (100011b8 <uart_init+0xe8>)
100010e2:	4836      	ldr	r0, [pc, #216]	@ (100011bc <uart_init+0xec>)
100010e4:	4295      	cmp	r5, r2
100010e6:	bf14      	ite	ne
100010e8:	f04f 6280 	movne.w	r2, #67108864	@ 0x4000000
100010ec:	f04f 6200 	moveq.w	r2, #134217728	@ 0x8000000
100010f0:	4b33      	ldr	r3, [pc, #204]	@ (100011c0 <uart_init+0xf0>)
100010f2:	4934      	ldr	r1, [pc, #208]	@ (100011c4 <uart_init+0xf4>)
100010f4:	6002      	str	r2, [r0, #0]
100010f6:	601a      	str	r2, [r3, #0]
100010f8:	688c      	ldr	r4, [r1, #8]
100010fa:	ea32 0404 	bics.w	r4, r2, r4
100010fe:	d1fb      	bne.n	100010f8 <uart_init+0x28>
10001100:	4b2d      	ldr	r3, [pc, #180]	@ (100011b8 <uart_init+0xe8>)
10001102:	f44f 7180 	mov.w	r1, #256	@ 0x100
10001106:	1aeb      	subs	r3, r5, r3
10001108:	fab3 f383 	clz	r3, r3
1000110c:	4a2e      	ldr	r2, [pc, #184]	@ (100011c8 <uart_init+0xf8>)
1000110e:	095b      	lsrs	r3, r3, #5
10001110:	2006      	movs	r0, #6
10001112:	f822 1013 	strh.w	r1, [r2, r3, lsl #1]
10001116:	f000 f8c5 	bl	100012a4 <clock_get_hz>
1000111a:	00c3      	lsls	r3, r0, #3
1000111c:	fbb3 f3f6 	udiv	r3, r3, r6
10001120:	3301      	adds	r3, #1
10001122:	09da      	lsrs	r2, r3, #7
10001124:	d120      	bne.n	10001168 <uart_init+0x98>
10001126:	2640      	movs	r6, #64	@ 0x40
10001128:	2101      	movs	r1, #1
1000112a:	6269      	str	r1, [r5, #36]	@ 0x24
1000112c:	62aa      	str	r2, [r5, #40]	@ 0x28
1000112e:	6b2f      	ldr	r7, [r5, #48]	@ 0x30
10001130:	07fb      	lsls	r3, r7, #31
10001132:	d422      	bmi.n	1000117a <uart_init+0xaa>
10001134:	462b      	mov	r3, r5
10001136:	2200      	movs	r2, #0
10001138:	f853 1f2c 	ldr.w	r1, [r3, #44]!
1000113c:	2006      	movs	r0, #6
1000113e:	f503 5480 	add.w	r4, r3, #4096	@ 0x1000
10001142:	6022      	str	r2, [r4, #0]
10001144:	632f      	str	r7, [r5, #48]	@ 0x30
10001146:	f000 f8ad 	bl	100012a4 <clock_get_hz>
1000114a:	f240 3101 	movw	r1, #769	@ 0x301
1000114e:	2203      	movs	r2, #3
10001150:	0080      	lsls	r0, r0, #2
10001152:	fbb0 f0f6 	udiv	r0, r0, r6
10001156:	6aeb      	ldr	r3, [r5, #44]	@ 0x2c
10001158:	f083 0370 	eor.w	r3, r3, #112	@ 0x70
1000115c:	f003 037e 	and.w	r3, r3, #126	@ 0x7e
10001160:	6023      	str	r3, [r4, #0]
10001162:	6329      	str	r1, [r5, #48]	@ 0x30
10001164:	64aa      	str	r2, [r5, #72]	@ 0x48
10001166:	bdf8      	pop	{r3, r4, r5, r6, r7, pc}
10001168:	f64f 71fe 	movw	r1, #65534	@ 0xfffe
1000116c:	428a      	cmp	r2, r1
1000116e:	d91b      	bls.n	100011a8 <uart_init+0xd8>
10001170:	4622      	mov	r2, r4
10001172:	f64f 71ff 	movw	r1, #65535	@ 0xffff
10001176:	4e15      	ldr	r6, [pc, #84]	@ (100011cc <uart_init+0xfc>)
10001178:	e7d7      	b.n	1000112a <uart_init+0x5a>
1000117a:	f240 3201 	movw	r2, #769	@ 0x301
1000117e:	f505 5340 	add.w	r3, r5, #12288	@ 0x3000
10001182:	631a      	str	r2, [r3, #48]	@ 0x30
10001184:	6a6b      	ldr	r3, [r5, #36]	@ 0x24
10001186:	6aac      	ldr	r4, [r5, #40]	@ 0x28
10001188:	2006      	movs	r0, #6
1000118a:	eb04 1483 	add.w	r4, r4, r3, lsl #6
1000118e:	f000 f889 	bl	100012a4 <clock_get_hz>
10001192:	4b0f      	ldr	r3, [pc, #60]	@ (100011d0 <uart_init+0x100>)
10001194:	02a4      	lsls	r4, r4, #10
10001196:	fba3 2300 	umull	r2, r3, r3, r0
1000119a:	0adb      	lsrs	r3, r3, #11
1000119c:	2100      	movs	r1, #0
1000119e:	fbb4 f0f3 	udiv	r0, r4, r3
100011a2:	f7ff ff55 	bl	10001050 <busy_wait_us>
100011a6:	e7c5      	b.n	10001134 <uart_init+0x64>
100011a8:	f3c3 0345 	ubfx	r3, r3, #1, #6
100011ac:	4611      	mov	r1, r2
100011ae:	eb03 1682 	add.w	r6, r3, r2, lsl #6
100011b2:	461a      	mov	r2, r3
100011b4:	e7b9      	b.n	1000112a <uart_init+0x5a>
100011b6:	bf00      	nop
100011b8:	40078000 	.word	0x40078000
100011bc:	40022000 	.word	0x40022000
100011c0:	40023000 	.word	0x40023000
100011c4:	40020000 	.word	0x40020000
100011c8:	20000854 	.word	0x20000854
100011cc:	003fffc0 	.word	0x003fffc0
100011d0:	8f2b7b75 	.word	0x8f2b7b75

100011d4 <clock_configure_undivided>:
100011d4:	eb00 0c40 	add.w	ip, r0, r0, lsl #1
100011d8:	ea4f 0c8c 	mov.w	ip, ip, lsl #2
100011dc:	f10c 4c80 	add.w	ip, ip, #1073741824	@ 0x40000000
100011e0:	f50c 3c80 	add.w	ip, ip, #65536	@ 0x10000
100011e4:	b5f0      	push	{r4, r5, r6, r7, lr}
100011e6:	4616      	mov	r6, r2
100011e8:	f8dc 2004 	ldr.w	r2, [ip, #4]
100011ec:	1f05      	subs	r5, r0, #4
100011ee:	f5b2 3f80 	cmp.w	r2, #65536	@ 0x10000
100011f2:	bf38      	it	cc
100011f4:	f44f 3280 	movcc.w	r2, #65536	@ 0x10000
100011f8:	b2ed      	uxtb	r5, r5
100011fa:	bf38      	it	cc
100011fc:	f8cc 2004 	strcc.w	r2, [ip, #4]
10001200:	2d01      	cmp	r5, #1
10001202:	d92a      	bls.n	1000125a <clock_configure_undivided+0x86>
10001204:	f44f 6700 	mov.w	r7, #2048	@ 0x800
10001208:	4c25      	ldr	r4, [pc, #148]	@ (100012a0 <clock_configure_undivided+0xcc>)
1000120a:	f50c 5240 	add.w	r2, ip, #12288	@ 0x3000
1000120e:	6017      	str	r7, [r2, #0]
10001210:	f854 2020 	ldr.w	r2, [r4, r0, lsl #2]
10001214:	b9b2      	cbnz	r2, 10001244 <clock_configure_undivided+0x70>
10001216:	f8dc 2000 	ldr.w	r2, [ip]
1000121a:	2d01      	cmp	r5, #1
1000121c:	ea82 1246 	eor.w	r2, r2, r6, lsl #5
10001220:	f002 02e0 	and.w	r2, r2, #224	@ 0xe0
10001224:	f50c 5680 	add.w	r6, ip, #4096	@ 0x1000
10001228:	6032      	str	r2, [r6, #0]
1000122a:	d92a      	bls.n	10001282 <clock_configure_undivided+0xae>
1000122c:	f44f 6100 	mov.w	r1, #2048	@ 0x800
10001230:	f844 3020 	str.w	r3, [r4, r0, lsl #2]
10001234:	f44f 3380 	mov.w	r3, #65536	@ 0x10000
10001238:	f50c 5200 	add.w	r2, ip, #8192	@ 0x2000
1000123c:	6011      	str	r1, [r2, #0]
1000123e:	f8cc 3004 	str.w	r3, [ip, #4]
10001242:	bdf0      	pop	{r4, r5, r6, r7, pc}
10001244:	6967      	ldr	r7, [r4, #20]
10001246:	fbb7 fef2 	udiv	lr, r7, r2
1000124a:	f10e 0e01 	add.w	lr, lr, #1
1000124e:	eb0e 0e4e 	add.w	lr, lr, lr, lsl #1
10001252:	f1be 0e03 	subs.w	lr, lr, #3
10001256:	d2fc      	bcs.n	10001252 <clock_configure_undivided+0x7e>
10001258:	e7dd      	b.n	10001216 <clock_configure_undivided+0x42>
1000125a:	2901      	cmp	r1, #1
1000125c:	d1d2      	bne.n	10001204 <clock_configure_undivided+0x30>
1000125e:	2403      	movs	r4, #3
10001260:	f50c 5240 	add.w	r2, ip, #12288	@ 0x3000
10001264:	6014      	str	r4, [r2, #0]
10001266:	f8dc 2008 	ldr.w	r2, [ip, #8]
1000126a:	07d2      	lsls	r2, r2, #31
1000126c:	d5fb      	bpl.n	10001266 <clock_configure_undivided+0x92>
1000126e:	f8dc 2000 	ldr.w	r2, [ip]
10001272:	4c0b      	ldr	r4, [pc, #44]	@ (100012a0 <clock_configure_undivided+0xcc>)
10001274:	ea82 1246 	eor.w	r2, r2, r6, lsl #5
10001278:	f002 02e0 	and.w	r2, r2, #224	@ 0xe0
1000127c:	f50c 5680 	add.w	r6, ip, #4096	@ 0x1000
10001280:	6032      	str	r2, [r6, #0]
10001282:	2201      	movs	r2, #1
10001284:	f8dc 5000 	ldr.w	r5, [ip]
10001288:	404d      	eors	r5, r1
1000128a:	f005 0503 	and.w	r5, r5, #3
1000128e:	6035      	str	r5, [r6, #0]
10001290:	fa02 f101 	lsl.w	r1, r2, r1
10001294:	f8dc 2008 	ldr.w	r2, [ip, #8]
10001298:	420a      	tst	r2, r1
1000129a:	d0fb      	beq.n	10001294 <clock_configure_undivided+0xc0>
1000129c:	e7c6      	b.n	1000122c <clock_configure_undivided+0x58>
1000129e:	bf00      	nop
100012a0:	200007dc 	.word	0x200007dc

100012a4 <clock_get_hz>:
100012a4:	4b01      	ldr	r3, [pc, #4]	@ (100012ac <clock_get_hz+0x8>)
100012a6:	f853 0020 	ldr.w	r0, [r3, r0, lsl #2]
100012aa:	4770      	bx	lr
100012ac:	200007dc 	.word	0x200007dc

100012b0 <pll_init>:
100012b0:	b470      	push	{r4, r5, r6}
100012b2:	9d03      	ldr	r5, [sp, #12]
100012b4:	6804      	ldr	r4, [r0, #0]
100012b6:	032d      	lsls	r5, r5, #12
100012b8:	ea45 4503 	orr.w	r5, r5, r3, lsl #16
100012bc:	4b1b      	ldr	r3, [pc, #108]	@ (1000132c <pll_init+0x7c>)
100012be:	2c00      	cmp	r4, #0
100012c0:	fbb3 f3f1 	udiv	r3, r3, r1
100012c4:	fbb2 f6f3 	udiv	r6, r2, r3
100012c8:	db1f      	blt.n	1000130a <pll_init+0x5a>
100012ca:	4a19      	ldr	r2, [pc, #100]	@ (10001330 <pll_init+0x80>)
100012cc:	4b19      	ldr	r3, [pc, #100]	@ (10001334 <pll_init+0x84>)
100012ce:	4290      	cmp	r0, r2
100012d0:	bf14      	ite	ne
100012d2:	f44f 4280 	movne.w	r2, #16384	@ 0x4000
100012d6:	f44f 4200 	moveq.w	r2, #32768	@ 0x8000
100012da:	4c17      	ldr	r4, [pc, #92]	@ (10001338 <pll_init+0x88>)
100012dc:	601a      	str	r2, [r3, #0]
100012de:	f503 5380 	add.w	r3, r3, #4096	@ 0x1000
100012e2:	601a      	str	r2, [r3, #0]
100012e4:	68a3      	ldr	r3, [r4, #8]
100012e6:	ea32 0303 	bics.w	r3, r2, r3
100012ea:	d1fb      	bne.n	100012e4 <pll_init+0x34>
100012ec:	2221      	movs	r2, #33	@ 0x21
100012ee:	f500 5340 	add.w	r3, r0, #12288	@ 0x3000
100012f2:	3304      	adds	r3, #4
100012f4:	6001      	str	r1, [r0, #0]
100012f6:	6086      	str	r6, [r0, #8]
100012f8:	601a      	str	r2, [r3, #0]
100012fa:	6802      	ldr	r2, [r0, #0]
100012fc:	2a00      	cmp	r2, #0
100012fe:	dafc      	bge.n	100012fa <pll_init+0x4a>
10001300:	2208      	movs	r2, #8
10001302:	60c5      	str	r5, [r0, #12]
10001304:	601a      	str	r2, [r3, #0]
10001306:	bc70      	pop	{r4, r5, r6}
10001308:	4770      	bx	lr
1000130a:	6803      	ldr	r3, [r0, #0]
1000130c:	f003 033f 	and.w	r3, r3, #63	@ 0x3f
10001310:	428b      	cmp	r3, r1
10001312:	d1da      	bne.n	100012ca <pll_init+0x1a>
10001314:	6883      	ldr	r3, [r0, #8]
10001316:	f3c3 030b 	ubfx	r3, r3, #0, #12
1000131a:	42b3      	cmp	r3, r6
1000131c:	d1d5      	bne.n	100012ca <pll_init+0x1a>
1000131e:	68c3      	ldr	r3, [r0, #12]
10001320:	f403 23ee 	and.w	r3, r3, #487424	@ 0x77000
10001324:	42ab      	cmp	r3, r5
10001326:	d1d0      	bne.n	100012ca <pll_init+0x1a>
10001328:	e7ed      	b.n	10001306 <pll_init+0x56>
1000132a:	bf00      	nop
1000132c:	00b71b00 	.word	0x00b71b00
10001330:	40058000 	.word	0x40058000
10001334:	40022000 	.word	0x40022000
10001338:	40020000 	.word	0x40020000

1000133c <tick_start>:
1000133c:	2301      	movs	r3, #1
1000133e:	eb00 0040 	add.w	r0, r0, r0, lsl #1
10001342:	0080      	lsls	r0, r0, #2
10001344:	f100 4080 	add.w	r0, r0, #1073741824	@ 0x40000000
10001348:	f500 1084 	add.w	r0, r0, #1081344	@ 0x108000
1000134c:	6041      	str	r1, [r0, #4]
1000134e:	6003      	str	r3, [r0, #0]
10001350:	4770      	bx	lr
10001352:	bf00      	nop

10001354 <rom_func_lookup>:
10001354:	2300      	movs	r3, #0
10001356:	8adb      	ldrh	r3, [r3, #22]
10001358:	2200      	movs	r2, #0
1000135a:	e842 f200 	tt	r2, r2
1000135e:	0252      	lsls	r2, r2, #9
10001360:	d401      	bmi.n	10001366 <rom_func_lookup+0x12>
10001362:	2110      	movs	r1, #16
10001364:	4718      	bx	r3
10001366:	2104      	movs	r1, #4
10001368:	4718      	bx	r3
1000136a:	bf00      	nop

1000136c <runtime_init_bootrom_locking_enable>:
1000136c:	4a03      	ldr	r2, [pc, #12]	@ (1000137c <runtime_init_bootrom_locking_enable+0x10>)
1000136e:	f8d2 3828 	ldr.w	r3, [r2, #2088]	@ 0x828
10001372:	2b00      	cmp	r3, #0
10001374:	d0fb      	beq.n	1000136e <runtime_init_bootrom_locking_enable+0x2>
10001376:	f3bf 8f5f 	dmb	sy
1000137a:	4770      	bx	lr
1000137c:	400e0000 	.word	0x400e0000

10001380 <runtime_init_boot_locks_reset>:
10001380:	2100      	movs	r1, #0
10001382:	4b04      	ldr	r3, [pc, #16]	@ (10001394 <runtime_init_boot_locks_reset+0x14>)
10001384:	4a04      	ldr	r2, [pc, #16]	@ (10001398 <runtime_init_boot_locks_reset+0x18>)
10001386:	f3bf 8f5f 	dmb	sy
1000138a:	f843 1b04 	str.w	r1, [r3], #4
1000138e:	4293      	cmp	r3, r2
10001390:	d1f9      	bne.n	10001386 <runtime_init_boot_locks_reset+0x6>
10001392:	4770      	bx	lr
10001394:	400e080c 	.word	0x400e080c
10001398:	400e082c 	.word	0x400e082c

1000139c <xosc_init>:
1000139c:	b410      	push	{r4}
1000139e:	f44f 708d 	mov.w	r0, #282	@ 0x11a
100013a2:	f44f 642a 	mov.w	r4, #2720	@ 0xaa0
100013a6:	4a06      	ldr	r2, [pc, #24]	@ (100013c0 <xosc_init+0x24>)
100013a8:	4b06      	ldr	r3, [pc, #24]	@ (100013c4 <xosc_init+0x28>)
100013aa:	4907      	ldr	r1, [pc, #28]	@ (100013c8 <xosc_init+0x2c>)
100013ac:	6014      	str	r4, [r2, #0]
100013ae:	60d0      	str	r0, [r2, #12]
100013b0:	6019      	str	r1, [r3, #0]
100013b2:	6853      	ldr	r3, [r2, #4]
100013b4:	2b00      	cmp	r3, #0
100013b6:	dafc      	bge.n	100013b2 <xosc_init+0x16>
100013b8:	f85d 4b04 	ldr.w	r4, [sp], #4
100013bc:	4770      	bx	lr
100013be:	bf00      	nop
100013c0:	40048000 	.word	0x40048000
100013c4:	4004a000 	.word	0x4004a000
100013c8:	00fab000 	.word	0x00fab000

100013cc <first_per_core_initializer>:
100013cc:	4770      	bx	lr
100013ce:	bf00      	nop

100013d0 <hard_assertion_failure>:
100013d0:	b508      	push	{r3, lr}
100013d2:	4801      	ldr	r0, [pc, #4]	@ (100013d8 <hard_assertion_failure+0x8>)
100013d4:	f7ff f836 	bl	10000444 <panic>
100013d8:	10003804 	.word	0x10003804

100013dc <runtime_run_initializers>:
100013dc:	b538      	push	{r3, r4, r5, lr}
100013de:	4c05      	ldr	r4, [pc, #20]	@ (100013f4 <runtime_run_initializers+0x18>)
100013e0:	4d05      	ldr	r5, [pc, #20]	@ (100013f8 <runtime_run_initializers+0x1c>)
100013e2:	42ac      	cmp	r4, r5
100013e4:	d204      	bcs.n	100013f0 <runtime_run_initializers+0x14>
100013e6:	f854 3b04 	ldr.w	r3, [r4], #4
100013ea:	4798      	blx	r3
100013ec:	42ac      	cmp	r4, r5
100013ee:	d3fa      	bcc.n	100013e6 <runtime_run_initializers+0xa>
100013f0:	bd38      	pop	{r3, r4, r5, pc}
100013f2:	bf00      	nop
100013f4:	10003718 	.word	0x10003718
100013f8:	10003758 	.word	0x10003758

100013fc <runtime_init_early_resets>:
100013fc:	b410      	push	{r4}
100013fe:	4807      	ldr	r0, [pc, #28]	@ (1000141c <runtime_init_early_resets+0x20>)
10001400:	4c07      	ldr	r4, [pc, #28]	@ (10001420 <runtime_init_early_resets+0x24>)
10001402:	4b08      	ldr	r3, [pc, #32]	@ (10001424 <runtime_init_early_resets+0x28>)
10001404:	4a08      	ldr	r2, [pc, #32]	@ (10001428 <runtime_init_early_resets+0x2c>)
10001406:	4909      	ldr	r1, [pc, #36]	@ (1000142c <runtime_init_early_resets+0x30>)
10001408:	6004      	str	r4, [r0, #0]
1000140a:	601a      	str	r2, [r3, #0]
1000140c:	688b      	ldr	r3, [r1, #8]
1000140e:	ea32 0303 	bics.w	r3, r2, r3
10001412:	d1fb      	bne.n	1000140c <runtime_init_early_resets+0x10>
10001414:	f85d 4b04 	ldr.w	r4, [sp], #4
10001418:	4770      	bx	lr
1000141a:	bf00      	nop
1000141c:	40022000 	.word	0x40022000
10001420:	efef3b7f 	.word	0xefef3b7f
10001424:	40023000 	.word	0x40023000
10001428:	03f3fff6 	.word	0x03f3fff6
1000142c:	40020000 	.word	0x40020000

10001430 <runtime_init_usb_power_down>:
10001430:	4b04      	ldr	r3, [pc, #16]	@ (10001444 <runtime_init_usb_power_down+0x14>)
10001432:	6cdb      	ldr	r3, [r3, #76]	@ 0x4c
10001434:	f5b3 4f00 	cmp.w	r3, #32768	@ 0x8000
10001438:	d103      	bne.n	10001442 <runtime_init_usb_power_down+0x12>
1000143a:	f44f 2280 	mov.w	r2, #262144	@ 0x40000
1000143e:	4b02      	ldr	r3, [pc, #8]	@ (10001448 <runtime_init_usb_power_down+0x18>)
10001440:	64da      	str	r2, [r3, #76]	@ 0x4c
10001442:	4770      	bx	lr
10001444:	50110000 	.word	0x50110000
10001448:	50112000 	.word	0x50112000

1000144c <runtime_init_per_core_enable_coprocessors>:
1000144c:	f04f 22e0 	mov.w	r2, #3758153728	@ 0xe000e000
10001450:	4b04      	ldr	r3, [pc, #16]	@ (10001464 <runtime_init_per_core_enable_coprocessors+0x18>)
10001452:	f8d2 1d88 	ldr.w	r1, [r2, #3464]	@ 0xd88
10001456:	430b      	orrs	r3, r1
10001458:	f8c2 3d88 	str.w	r3, [r2, #3464]	@ 0xd88
1000145c:	ee10 0430 			dcp_rcmp r0
10001460:	4770      	bx	lr
10001462:	bf00      	nop
10001464:	00300303 	.word	0x00300303

10001468 <runtime_init_post_clock_resets>:
10001468:	f06f 4160 	mvn.w	r1, #3758096384	@ 0xe0000000
1000146c:	4b04      	ldr	r3, [pc, #16]	@ (10001480 <runtime_init_post_clock_resets+0x18>)
1000146e:	4a05      	ldr	r2, [pc, #20]	@ (10001484 <runtime_init_post_clock_resets+0x1c>)
10001470:	6019      	str	r1, [r3, #0]
10001472:	6893      	ldr	r3, [r2, #8]
10001474:	43db      	mvns	r3, r3
10001476:	f033 4360 	bics.w	r3, r3, #3758096384	@ 0xe0000000
1000147a:	d1fa      	bne.n	10001472 <runtime_init_post_clock_resets+0xa>
1000147c:	4770      	bx	lr
1000147e:	bf00      	nop
10001480:	40023000 	.word	0x40023000
10001484:	40020000 	.word	0x40020000

10001488 <runtime_init_bootrom_reset>:
10001488:	b510      	push	{r4, lr}
1000148a:	f245 2053 	movw	r0, #21075	@ 0x5253
1000148e:	f7ff ff61 	bl	10001354 <rom_func_lookup>
10001492:	e8bd 4010 	ldmia.w	sp!, {r4, lr}
10001496:	4603      	mov	r3, r0
10001498:	2004      	movs	r0, #4
1000149a:	4718      	bx	r3

1000149c <runtime_init_per_core_bootrom_reset>:
1000149c:	b510      	push	{r4, lr}
1000149e:	f245 2053 	movw	r0, #21075	@ 0x5253
100014a2:	f7ff ff57 	bl	10001354 <rom_func_lookup>
100014a6:	e8bd 4010 	ldmia.w	sp!, {r4, lr}
100014aa:	4603      	mov	r3, r0
100014ac:	2001      	movs	r0, #1
100014ae:	4718      	bx	r3

100014b0 <runtime_init_spin_locks_reset>:
100014b0:	f7ff b820 	b.w	100004f4 <spin_locks_reset>

100014b4 <runtime_init_install_ram_vector_table>:
100014b4:	4914      	ldr	r1, [pc, #80]	@ (10001508 <runtime_init_install_ram_vector_table+0x54>)
100014b6:	4b15      	ldr	r3, [pc, #84]	@ (1000150c <runtime_init_install_ram_vector_table+0x58>)
100014b8:	b570      	push	{r4, r5, r6, lr}
100014ba:	1a5c      	subs	r4, r3, r1
100014bc:	10a6      	asrs	r6, r4, #2
100014be:	2e44      	cmp	r6, #68	@ 0x44
100014c0:	4632      	mov	r2, r6
100014c2:	bf28      	it	cs
100014c4:	2244      	movcs	r2, #68	@ 0x44
100014c6:	4d12      	ldr	r5, [pc, #72]	@ (10001510 <runtime_init_install_ram_vector_table+0x5c>)
100014c8:	0092      	lsls	r2, r2, #2
100014ca:	4628      	mov	r0, r5
100014cc:	f002 f872 	bl	100035b4 <memcpy>
100014d0:	f5b4 7f86 	cmp.w	r4, #268	@ 0x10c
100014d4:	d813      	bhi.n	100014fe <runtime_init_install_ram_vector_table+0x4a>
100014d6:	4a0f      	ldr	r2, [pc, #60]	@ (10001514 <runtime_init_install_ram_vector_table+0x60>)
100014d8:	f1c6 0044 	rsb	r0, r6, #68	@ 0x44
100014dc:	d012      	beq.n	10001504 <runtime_init_install_ram_vector_table+0x50>
100014de:	192b      	adds	r3, r5, r4
100014e0:	0841      	lsrs	r1, r0, #1
100014e2:	eb03 01c1 	add.w	r1, r3, r1, lsl #3
100014e6:	e9c3 2200 	strd	r2, r2, [r3]
100014ea:	3308      	adds	r3, #8
100014ec:	428b      	cmp	r3, r1
100014ee:	d1fa      	bne.n	100014e6 <runtime_init_install_ram_vector_table+0x32>
100014f0:	07c3      	lsls	r3, r0, #31
100014f2:	d504      	bpl.n	100014fe <runtime_init_install_ram_vector_table+0x4a>
100014f4:	f020 0001 	bic.w	r0, r0, #1
100014f8:	4430      	add	r0, r6
100014fa:	f845 2020 	str.w	r2, [r5, r0, lsl #2]
100014fe:	4b06      	ldr	r3, [pc, #24]	@ (10001518 <runtime_init_install_ram_vector_table+0x64>)
10001500:	609d      	str	r5, [r3, #8]
10001502:	bd70      	pop	{r4, r5, r6, pc}
10001504:	2043      	movs	r0, #67	@ 0x43
10001506:	e7f8      	b.n	100014fa <runtime_init_install_ram_vector_table+0x46>
10001508:	10000000 	.word	0x10000000
1000150c:	10000110 	.word	0x10000110
10001510:	20000000 	.word	0x20000000
10001514:	10000111 	.word	0x10000111
10001518:	e000ed00 	.word	0xe000ed00

1000151c <runtime_init_clocks>:
1000151c:	2300      	movs	r3, #0
1000151e:	b570      	push	{r4, r5, r6, lr}
10001520:	4c2b      	ldr	r4, [pc, #172]	@ (100015d0 <runtime_init_clocks+0xb4>)
10001522:	b082      	sub	sp, #8
10001524:	f8c4 3084 	str.w	r3, [r4, #132]	@ 0x84
10001528:	f7ff ff38 	bl	1000139c <xosc_init>
1000152c:	2201      	movs	r2, #1
1000152e:	4b29      	ldr	r3, [pc, #164]	@ (100015d4 <runtime_init_clocks+0xb8>)
10001530:	63da      	str	r2, [r3, #60]	@ 0x3c
10001532:	6c63      	ldr	r3, [r4, #68]	@ 0x44
10001534:	2b01      	cmp	r3, #1
10001536:	d1fc      	bne.n	10001532 <runtime_init_clocks+0x16>
10001538:	2103      	movs	r1, #3
1000153a:	4a26      	ldr	r2, [pc, #152]	@ (100015d4 <runtime_init_clocks+0xb8>)
1000153c:	4b24      	ldr	r3, [pc, #144]	@ (100015d0 <runtime_init_clocks+0xb4>)
1000153e:	6311      	str	r1, [r2, #48]	@ 0x30
10001540:	6b9c      	ldr	r4, [r3, #56]	@ 0x38
10001542:	2c01      	cmp	r4, #1
10001544:	d1fc      	bne.n	10001540 <runtime_init_clocks+0x24>
10001546:	2602      	movs	r6, #2
10001548:	2505      	movs	r5, #5
1000154a:	4621      	mov	r1, r4
1000154c:	2305      	movs	r3, #5
1000154e:	4a22      	ldr	r2, [pc, #136]	@ (100015d8 <runtime_init_clocks+0xbc>)
10001550:	4822      	ldr	r0, [pc, #136]	@ (100015dc <runtime_init_clocks+0xc0>)
10001552:	9600      	str	r6, [sp, #0]
10001554:	f7ff feac 	bl	100012b0 <pll_init>
10001558:	4621      	mov	r1, r4
1000155a:	462b      	mov	r3, r5
1000155c:	4a20      	ldr	r2, [pc, #128]	@ (100015e0 <runtime_init_clocks+0xc4>)
1000155e:	4821      	ldr	r0, [pc, #132]	@ (100015e4 <runtime_init_clocks+0xc8>)
10001560:	9500      	str	r5, [sp, #0]
10001562:	f7ff fea5 	bl	100012b0 <pll_init>
10001566:	2200      	movs	r2, #0
10001568:	2004      	movs	r0, #4
1000156a:	4631      	mov	r1, r6
1000156c:	4b1e      	ldr	r3, [pc, #120]	@ (100015e8 <runtime_init_clocks+0xcc>)
1000156e:	f7ff fe31 	bl	100011d4 <clock_configure_undivided>
10001572:	4621      	mov	r1, r4
10001574:	4628      	mov	r0, r5
10001576:	2200      	movs	r2, #0
10001578:	4b1c      	ldr	r3, [pc, #112]	@ (100015ec <runtime_init_clocks+0xd0>)
1000157a:	f7ff fe2b 	bl	100011d4 <clock_configure_undivided>
1000157e:	2200      	movs	r2, #0
10001580:	2008      	movs	r0, #8
10001582:	4611      	mov	r1, r2
10001584:	4b1a      	ldr	r3, [pc, #104]	@ (100015f0 <runtime_init_clocks+0xd4>)
10001586:	f7ff fe25 	bl	100011d4 <clock_configure_undivided>
1000158a:	2200      	movs	r2, #0
1000158c:	2009      	movs	r0, #9
1000158e:	4611      	mov	r1, r2
10001590:	4b17      	ldr	r3, [pc, #92]	@ (100015f0 <runtime_init_clocks+0xd4>)
10001592:	f7ff fe1f 	bl	100011d4 <clock_configure_undivided>
10001596:	2200      	movs	r2, #0
10001598:	2006      	movs	r0, #6
1000159a:	4611      	mov	r1, r2
1000159c:	4b13      	ldr	r3, [pc, #76]	@ (100015ec <runtime_init_clocks+0xd0>)
1000159e:	f7ff fe19 	bl	100011d4 <clock_configure_undivided>
100015a2:	2200      	movs	r2, #0
100015a4:	4b11      	ldr	r3, [pc, #68]	@ (100015ec <runtime_init_clocks+0xd0>)
100015a6:	2007      	movs	r0, #7
100015a8:	4611      	mov	r1, r2
100015aa:	f7ff fe13 	bl	100011d4 <clock_configure_undivided>
100015ae:	2004      	movs	r0, #4
100015b0:	f7ff fe78 	bl	100012a4 <clock_get_hz>
100015b4:	2400      	movs	r4, #0
100015b6:	4b0f      	ldr	r3, [pc, #60]	@ (100015f4 <runtime_init_clocks+0xd8>)
100015b8:	fba3 3500 	umull	r3, r5, r3, r0
100015bc:	0cad      	lsrs	r5, r5, #18
100015be:	b2e0      	uxtb	r0, r4
100015c0:	4629      	mov	r1, r5
100015c2:	3401      	adds	r4, #1
100015c4:	f7ff feba 	bl	1000133c <tick_start>
100015c8:	2c06      	cmp	r4, #6
100015ca:	d1f8      	bne.n	100015be <runtime_init_clocks+0xa2>
100015cc:	b002      	add	sp, #8
100015ce:	bd70      	pop	{r4, r5, r6, pc}
100015d0:	40010000 	.word	0x40010000
100015d4:	40013000 	.word	0x40013000
100015d8:	59682f00 	.word	0x59682f00
100015dc:	40050000 	.word	0x40050000
100015e0:	47868c00 	.word	0x47868c00
100015e4:	40058000 	.word	0x40058000
100015e8:	00b71b00 	.word	0x00b71b00
100015ec:	08f0d180 	.word	0x08f0d180
100015f0:	02dc6c00 	.word	0x02dc6c00
100015f4:	431bde83 	.word	0x431bde83

100015f8 <generic_save_state>:
100015f8:	b086      	sub	sp, #24
100015fa:	b403      	push	{r0, r1}
100015fc:	fc51 0408 	dcp_pxmd r0, r1
10001600:	e9cd 0102 	strd	r0, r1, [sp, #8]
10001604:	fc51 0409 	dcp_pymd r0, r1
10001608:	e9cd 0104 	strd	r0, r1, [sp, #16]
1000160c:	ec51 040a 	dcp_refd r0, r1
10001610:	e9cd 0106 	strd	r0, r1, [sp, #24]
10001614:	bc03      	pop	{r0, r1}
10001616:	47f0      	blx	lr

10001618 <generic_restore_state>:
10001618:	e8bd 5000 	ldmia.w	sp!, {ip, lr}
1000161c:	ec4e c400 	dcp_wxmd ip, lr
10001620:	e8bd 5000 	ldmia.w	sp!, {ip, lr}
10001624:	ec4e c401 	dcp_wymd ip, lr
10001628:	e8bd 5000 	ldmia.w	sp!, {ip, lr}
1000162c:	ec4e c402 	dcp_wefd ip, lr
10001630:	bd00      	pop	{pc}
10001632:	0000      	movs	r0, r0
10001634:	b500      	push	{lr}
10001636:	f7ff ffdf 	bl	100015f8 <generic_save_state>
1000163a:	e002      	b.n	10001642 <__wrap___aeabi_dadd+0x6>

1000163c <__wrap___aeabi_dadd>:
1000163c:	fe10 f430 	dcp_pcmp APSR_nzcv
10001640:	d4f8      	bmi.n	10001634 <generic_restore_state+0x1c>
10001642:	ec41 0410 	dcp_wxup r0, r1
10001646:	ec43 2411 	dcp_wyup r2, r3
1000164a:	ee00 0401 			dcp_add0
1000164e:	ee10 0401 			dcp_add1
10001652:	ee80 0420 			dcp_nrdd
10001656:	ec51 0410 	dcp_rdda r0, r1
1000165a:	4770      	bx	lr
1000165c:	b500      	push	{lr}
1000165e:	f7ff ffcb 	bl	100015f8 <generic_save_state>
10001662:	e002      	b.n	1000166a <__wrap___aeabi_dsub+0x6>

10001664 <__wrap___aeabi_dsub>:
10001664:	fe10 f430 	dcp_pcmp APSR_nzcv
10001668:	d4f8      	bmi.n	1000165c <__wrap___aeabi_dadd+0x20>
1000166a:	ec41 0410 	dcp_wxup r0, r1
1000166e:	ec43 2411 	dcp_wyup r2, r3
10001672:	ee00 0401 			dcp_add0
10001676:	ee10 0421 			dcp_sub1
1000167a:	ee80 0420 			dcp_nrdd
1000167e:	ec51 0430 	dcp_rdds r0, r1
10001682:	4770      	bx	lr
10001684:	b500      	push	{lr}
10001686:	f7ff ffb7 	bl	100015f8 <generic_save_state>
1000168a:	e002      	b.n	10001692 <__wrap___aeabi_dmul+0x6>

1000168c <__wrap___aeabi_dmul>:
1000168c:	fe10 f430 	dcp_pcmp APSR_nzcv
10001690:	d4f8      	bmi.n	10001684 <__wrap___aeabi_dsub+0x20>
10001692:	b510      	push	{r4, lr}
10001694:	ec41 0410 	dcp_wxup r0, r1
10001698:	ec43 2411 	dcp_wyup r2, r3
1000169c:	ec51 0404 	dcp_rxms r0, r1, #0x0
100016a0:	ec53 2405 	dcp_ryms r2, r3, #0x0
100016a4:	fba0 4c02 	umull	r4, ip, r0, r2
100016a8:	f05f 0e00 	movs.w	lr, #0
100016ac:	fbe0 ce03 	umlal	ip, lr, r0, r3
100016b0:	fbe1 ce02 	umlal	ip, lr, r1, r2
100016b4:	ec4c 4420 	dcp_wxms r4, ip
100016b8:	2400      	movs	r4, #0
100016ba:	fbe1 e403 	umlal	lr, r4, r1, r3
100016be:	ec44 e430 	dcp_wxmo lr, r4
100016c2:	ee80 0420 			dcp_nrdd
100016c6:	ec51 0450 	dcp_rddm r0, r1
100016ca:	e8bd 4010 	ldmia.w	sp!, {r4, lr}
100016ce:	4770      	bx	lr
100016d0:	b500      	push	{lr}
100016d2:	f7ff ff91 	bl	100015f8 <generic_save_state>
100016d6:	e002      	b.n	100016de <__wrap___aeabi_ddiv+0x6>

100016d8 <__wrap___aeabi_ddiv>:
100016d8:	fe10 f430 	dcp_pcmp APSR_nzcv
100016dc:	d4f8      	bmi.n	100016d0 <__wrap___aeabi_dmul+0x44>
100016de:	ec41 0410 	dcp_wxup r0, r1
100016e2:	ec43 2411 	dcp_wyup r2, r3
100016e6:	ec51 0421 	dcp_rymr r0, r1
100016ea:	fba0 1201 	umull	r1, r2, r0, r1
100016ee:	ea6f 0282 	mvn.w	r2, r2, lsl #2
100016f2:	fb52 0010 	smmlar	r0, r2, r0, r0
100016f6:	fb52 f212 	smmulr	r2, r2, r2
100016fa:	fb52 0010 	smmlar	r0, r2, r0, r0
100016fe:	eba0 7cd0 	sub.w	ip, r0, r0, lsr #31
10001702:	ec53 2404 	dcp_rxms r2, r3, #0x0
10001706:	fb5c f113 	smmulr	r1, ip, r3
1000170a:	ec53 2415 	dcp_ryms r2, r3, #0x1
1000170e:	fba1 2002 	umull	r2, r0, r1, r2
10001712:	fb01 0003 	mla	r0, r1, r3, r0
10001716:	ec53 2444 	dcp_rxms r2, r3, #0x4
1000171a:	eba2 0000 	sub.w	r0, r2, r0
1000171e:	fb50 f21c 	smmulr	r2, r0, ip
10001722:	ea4f 1311 	mov.w	r3, r1, lsr #4
10001726:	eb12 7001 	adds.w	r0, r2, r1, lsl #28
1000172a:	eb43 71e2 	adc.w	r1, r3, r2, asr #31
1000172e:	ea40 5051 	orr.w	r0, r0, r1, lsr #21
10001732:	ea20 5091 	bic.w	r0, r0, r1, lsr #22
10001736:	f020 0007 	bic.w	r0, r0, #7
1000173a:	ec53 2475 	dcp_ryms r2, r3, #0x7
1000173e:	fba0 3c02 	umull	r3, ip, r0, r2
10001742:	ec53 2475 	dcp_ryms r2, r3, #0x7
10001746:	fb00 cc03 	mla	ip, r0, r3, ip
1000174a:	fb01 cc02 	mla	ip, r1, r2, ip
1000174e:	ec53 2404 	dcp_rxms r2, r3, #0x0
10001752:	ebac 4c82 	sub.w	ip, ip, r2, lsl #18
10001756:	ea40 705c 	orr.w	r0, r0, ip, lsr #29
1000175a:	f1a0 0001 	sub.w	r0, r0, #1
1000175e:	ec41 0440 	dcp_wxdd r0, r1
10001762:	ee80 0420 			dcp_nrdd
10001766:	ec51 0470 	dcp_rddd r0, r1
1000176a:	4770      	bx	lr
1000176c:	b500      	push	{lr}
1000176e:	f7ff ff43 	bl	100015f8 <generic_save_state>
10001772:	e002      	b.n	1000177a <__wrap___aeabi_i2d+0x6>

10001774 <__wrap___aeabi_i2d>:
10001774:	fe10 f430 	dcp_pcmp APSR_nzcv
10001778:	d4f8      	bmi.n	1000176c <__wrap___aeabi_ddiv+0x94>
1000177a:	ec40 0470 	dcp_wxic r0, r0
1000177e:	ee00 0401 			dcp_add0
10001782:	ee10 0421 			dcp_sub1
10001786:	ee80 0420 			dcp_nrdd
1000178a:	ec51 0430 	dcp_rdds r0, r1
1000178e:	4770      	bx	lr
10001790:	b500      	push	{lr}
10001792:	f7ff ff31 	bl	100015f8 <generic_save_state>
10001796:	e002      	b.n	1000179e <__wrap___aeabi_ui2d+0x6>

10001798 <__wrap___aeabi_ui2d>:
10001798:	fe10 f430 	dcp_pcmp APSR_nzcv
1000179c:	d4f8      	bmi.n	10001790 <__wrap___aeabi_i2d+0x1c>
1000179e:	ec40 0460 	dcp_wxuc r0, r0
100017a2:	ee00 0401 			dcp_add0
100017a6:	ee10 0421 			dcp_sub1
100017aa:	ee80 0420 			dcp_nrdd
100017ae:	ec51 0430 	dcp_rdds r0, r1
100017b2:	4770      	bx	lr
100017b4:	b500      	push	{lr}
100017b6:	f7ff ff1f 	bl	100015f8 <generic_save_state>
100017ba:	e002      	b.n	100017c2 <double2int_z_entry>

100017bc <__wrap___aeabi_d2iz>:
100017bc:	fe10 f430 	dcp_pcmp APSR_nzcv
100017c0:	d4f8      	bmi.n	100017b4 <__wrap___aeabi_ui2d+0x1c>

100017c2 <double2int_z_entry>:
100017c2:	ec41 0480 	dcp_wxdc r0, r1
100017c6:	ee00 0401 			dcp_add0
100017ca:	ee10 0401 			dcp_add1
100017ce:	ee80 0440 			dcp_ntdc
100017d2:	ee10 0413 			dcp_rdic r0
100017d6:	4770      	bx	lr
100017d8:	b500      	push	{lr}
100017da:	f7ff ff0d 	bl	100015f8 <generic_save_state>
100017de:	e002      	b.n	100017e6 <double2uint_z_entry>

100017e0 <__wrap___aeabi_d2uiz>:
100017e0:	fe10 f430 	dcp_pcmp APSR_nzcv
100017e4:	d4f8      	bmi.n	100017d8 <double2int_z_entry+0x16>

100017e6 <double2uint_z_entry>:
100017e6:	ec41 0480 	dcp_wxdc r0, r1
100017ea:	ee00 0401 			dcp_add0
100017ee:	ee10 0401 			dcp_add1
100017f2:	ee80 0440 			dcp_ntdc
100017f6:	ee10 0433 			dcp_rduc r0
100017fa:	4770      	bx	lr
100017fc:	b500      	push	{lr}
100017fe:	f7ff fefb 	bl	100015f8 <generic_save_state>
10001802:	e002      	b.n	1000180a <__wrap___aeabi_dcmpun+0x6>

10001804 <__wrap___aeabi_dcmpun>:
10001804:	fe10 f430 	dcp_pcmp APSR_nzcv
10001808:	d4f8      	bmi.n	100017fc <double2uint_z_entry+0x16>
1000180a:	ec41 0410 	dcp_wxup r0, r1
1000180e:	ec43 2411 	dcp_wyup r2, r3
10001812:	ee00 0401 			dcp_add0
10001816:	ee10 0430 			dcp_rcmp r0
1000181a:	f3c0 7000 	ubfx	r0, r0, #28, #1
1000181e:	4770      	bx	lr
10001820:	b500      	push	{lr}
10001822:	f7ff fee9 	bl	100015f8 <generic_save_state>
10001826:	e002      	b.n	1000182e <__wrap___aeabi_dcmplt+0x6>

10001828 <__wrap___aeabi_dcmplt>:
10001828:	fe10 f430 	dcp_pcmp APSR_nzcv
1000182c:	d4f8      	bmi.n	10001820 <__wrap___aeabi_dcmpun+0x1c>
1000182e:	ec43 2410 	dcp_wxup r2, r3
10001832:	ec41 0411 	dcp_wyup r0, r1
10001836:	ee00 0401 			dcp_add0
1000183a:	ee10 f430 			dcp_rcmp APSR_nzcv
1000183e:	bf8c      	ite	hi
10001840:	2001      	movhi	r0, #1
10001842:	2000      	movls	r0, #0
10001844:	4770      	bx	lr
10001846:	bf00      	nop
10001848:	b500      	push	{lr}
1000184a:	f7ff fed5 	bl	100015f8 <generic_save_state>
1000184e:	e002      	b.n	10001856 <__wrap___aeabi_dcmple+0x6>

10001850 <__wrap___aeabi_dcmple>:
10001850:	fe10 f430 	dcp_pcmp APSR_nzcv
10001854:	d4f8      	bmi.n	10001848 <__wrap___aeabi_dcmplt+0x20>
10001856:	ec43 2410 	dcp_wxup r2, r3
1000185a:	ec41 0411 	dcp_wyup r0, r1
1000185e:	ee00 0401 			dcp_add0
10001862:	ee10 f430 			dcp_rcmp APSR_nzcv
10001866:	bf2c      	ite	cs
10001868:	2001      	movcs	r0, #1
1000186a:	2000      	movcc	r0, #0
1000186c:	4770      	bx	lr
1000186e:	bf00      	nop
10001870:	b500      	push	{lr}
10001872:	f7ff fec1 	bl	100015f8 <generic_save_state>
10001876:	e002      	b.n	1000187e <__wrap___aeabi_dcmpge+0x6>

10001878 <__wrap___aeabi_dcmpge>:
10001878:	fe10 f430 	dcp_pcmp APSR_nzcv
1000187c:	d4f8      	bmi.n	10001870 <__wrap___aeabi_dcmple+0x20>
1000187e:	ec41 0410 	dcp_wxup r0, r1
10001882:	ec43 2411 	dcp_wyup r2, r3
10001886:	ee00 0401 			dcp_add0
1000188a:	ee10 f430 			dcp_rcmp APSR_nzcv
1000188e:	bf2c      	ite	cs
10001890:	2001      	movcs	r0, #1
10001892:	2000      	movcc	r0, #0
10001894:	4770      	bx	lr
10001896:	bf00      	nop
10001898:	b500      	push	{lr}
1000189a:	f7ff fead 	bl	100015f8 <generic_save_state>
1000189e:	e002      	b.n	100018a6 <__wrap___aeabi_dcmpgt+0x6>

100018a0 <__wrap___aeabi_dcmpgt>:
100018a0:	fe10 f430 	dcp_pcmp APSR_nzcv
100018a4:	d4f8      	bmi.n	10001898 <__wrap___aeabi_dcmpge+0x20>
100018a6:	ec41 0410 	dcp_wxup r0, r1
100018aa:	ec43 2411 	dcp_wyup r2, r3
100018ae:	ee00 0401 			dcp_add0
100018b2:	ee10 f430 			dcp_rcmp APSR_nzcv
100018b6:	bf8c      	ite	hi
100018b8:	2001      	movhi	r0, #1
100018ba:	2000      	movls	r0, #0
100018bc:	4770      	bx	lr
100018be:	bf00      	nop

100018c0 <_out_null>:
100018c0:	4770      	bx	lr
100018c2:	bf00      	nop

100018c4 <_out_rev>:
100018c4:	e92d 4ff0 	stmdb	sp!, {r4, r5, r6, r7, r8, r9, sl, fp, lr}
100018c8:	b083      	sub	sp, #12
100018ca:	4699      	mov	r9, r3
100018cc:	e9dd ab0d 	ldrd	sl, fp, [sp, #52]	@ 0x34
100018d0:	9b0f      	ldr	r3, [sp, #60]	@ 0x3c
100018d2:	4688      	mov	r8, r1
100018d4:	4611      	mov	r1, r2
100018d6:	079a      	lsls	r2, r3, #30
100018d8:	4607      	mov	r7, r0
100018da:	d116      	bne.n	1000190a <_out_rev+0x46>
100018dc:	45da      	cmp	sl, fp
100018de:	d23a      	bcs.n	10001956 <_out_rev+0x92>
100018e0:	460c      	mov	r4, r1
100018e2:	460d      	mov	r5, r1
100018e4:	ebab 060a 	sub.w	r6, fp, sl
100018e8:	440e      	add	r6, r1
100018ea:	4622      	mov	r2, r4
100018ec:	464b      	mov	r3, r9
100018ee:	4641      	mov	r1, r8
100018f0:	2020      	movs	r0, #32
100018f2:	3401      	adds	r4, #1
100018f4:	47b8      	blx	r7
100018f6:	42b4      	cmp	r4, r6
100018f8:	d1f7      	bne.n	100018ea <_out_rev+0x26>
100018fa:	4629      	mov	r1, r5
100018fc:	f1ba 0f00 	cmp.w	sl, #0
10001900:	d108      	bne.n	10001914 <_out_rev+0x50>
10001902:	4620      	mov	r0, r4
10001904:	b003      	add	sp, #12
10001906:	e8bd 8ff0 	ldmia.w	sp!, {r4, r5, r6, r7, r8, r9, sl, fp, pc}
1000190a:	460c      	mov	r4, r1
1000190c:	f1ba 0f00 	cmp.w	sl, #0
10001910:	d010      	beq.n	10001934 <_out_rev+0x70>
10001912:	460e      	mov	r6, r1
10001914:	4655      	mov	r5, sl
10001916:	9b0c      	ldr	r3, [sp, #48]	@ 0x30
10001918:	442e      	add	r6, r5
1000191a:	449a      	add	sl, r3
1000191c:	9101      	str	r1, [sp, #4]
1000191e:	1b72      	subs	r2, r6, r5
10001920:	464b      	mov	r3, r9
10001922:	3d01      	subs	r5, #1
10001924:	4641      	mov	r1, r8
10001926:	f81a 0d01 	ldrb.w	r0, [sl, #-1]!
1000192a:	4634      	mov	r4, r6
1000192c:	47b8      	blx	r7
1000192e:	2d00      	cmp	r5, #0
10001930:	d1f5      	bne.n	1000191e <_out_rev+0x5a>
10001932:	9901      	ldr	r1, [sp, #4]
10001934:	9b0f      	ldr	r3, [sp, #60]	@ 0x3c
10001936:	079b      	lsls	r3, r3, #30
10001938:	d5e3      	bpl.n	10001902 <_out_rev+0x3e>
1000193a:	1a65      	subs	r5, r4, r1
1000193c:	45ab      	cmp	fp, r5
1000193e:	d9e0      	bls.n	10001902 <_out_rev+0x3e>
10001940:	4622      	mov	r2, r4
10001942:	464b      	mov	r3, r9
10001944:	4641      	mov	r1, r8
10001946:	2020      	movs	r0, #32
10001948:	3501      	adds	r5, #1
1000194a:	47b8      	blx	r7
1000194c:	455d      	cmp	r5, fp
1000194e:	f104 0401 	add.w	r4, r4, #1
10001952:	d3f5      	bcc.n	10001940 <_out_rev+0x7c>
10001954:	e7d5      	b.n	10001902 <_out_rev+0x3e>
10001956:	460c      	mov	r4, r1
10001958:	f1ba 0f00 	cmp.w	sl, #0
1000195c:	d1d9      	bne.n	10001912 <_out_rev+0x4e>
1000195e:	e7d0      	b.n	10001902 <_out_rev+0x3e>

10001960 <_ntoa_format>:
10001960:	e92d 4ff0 	stmdb	sp!, {r4, r5, r6, r7, r8, r9, sl, fp, lr}
10001964:	9f0f      	ldr	r7, [sp, #60]	@ 0x3c
10001966:	f8dd 8024 	ldr.w	r8, [sp, #36]	@ 0x24
1000196a:	f017 0f02 	tst.w	r7, #2
1000196e:	9c0a      	ldr	r4, [sp, #40]	@ 0x28
10001970:	f89d a02c 	ldrb.w	sl, [sp, #44]	@ 0x2c
10001974:	9d0e      	ldr	r5, [sp, #56]	@ 0x38
10001976:	e9dd 960c 	ldrd	r9, r6, [sp, #48]	@ 0x30
1000197a:	d144      	bne.n	10001a06 <_ntoa_format+0xa6>
1000197c:	bbf5      	cbnz	r5, 100019fc <_ntoa_format+0x9c>
1000197e:	42b4      	cmp	r4, r6
10001980:	d241      	bcs.n	10001a06 <_ntoa_format+0xa6>
10001982:	f007 0b01 	and.w	fp, r7, #1
10001986:	f104 3cff 	add.w	ip, r4, #4294967295
1000198a:	f04f 0e30 	mov.w	lr, #48	@ 0x30
1000198e:	44c4      	add	ip, r8
10001990:	e004      	b.n	1000199c <_ntoa_format+0x3c>
10001992:	3401      	adds	r4, #1
10001994:	42a6      	cmp	r6, r4
10001996:	f80c ef01 	strb.w	lr, [ip, #1]!
1000199a:	d901      	bls.n	100019a0 <_ntoa_format+0x40>
1000199c:	2c20      	cmp	r4, #32
1000199e:	d1f8      	bne.n	10001992 <_ntoa_format+0x32>
100019a0:	f1bb 0f00 	cmp.w	fp, #0
100019a4:	f000 8088 	beq.w	10001ab8 <_ntoa_format+0x158>
100019a8:	42a5      	cmp	r5, r4
100019aa:	d92c      	bls.n	10001a06 <_ntoa_format+0xa6>
100019ac:	f104 3cff 	add.w	ip, r4, #4294967295
100019b0:	f04f 0e30 	mov.w	lr, #48	@ 0x30
100019b4:	44c4      	add	ip, r8
100019b6:	e004      	b.n	100019c2 <_ntoa_format+0x62>
100019b8:	3401      	adds	r4, #1
100019ba:	42ac      	cmp	r4, r5
100019bc:	f80c ef01 	strb.w	lr, [ip, #1]!
100019c0:	d021      	beq.n	10001a06 <_ntoa_format+0xa6>
100019c2:	2c20      	cmp	r4, #32
100019c4:	d1f8      	bne.n	100019b8 <_ntoa_format+0x58>
100019c6:	f017 0f10 	tst.w	r7, #16
100019ca:	d00e      	beq.n	100019ea <_ntoa_format+0x8a>
100019cc:	f417 6f80 	tst.w	r7, #1024	@ 0x400
100019d0:	d154      	bne.n	10001a7c <_ntoa_format+0x11c>
100019d2:	42a6      	cmp	r6, r4
100019d4:	d063      	beq.n	10001a9e <_ntoa_format+0x13e>
100019d6:	42a5      	cmp	r5, r4
100019d8:	d061      	beq.n	10001a9e <_ntoa_format+0x13e>
100019da:	f1b9 0f10 	cmp.w	r9, #16
100019de:	d050      	beq.n	10001a82 <_ntoa_format+0x122>
100019e0:	f1b9 0f02 	cmp.w	r9, #2
100019e4:	d056      	beq.n	10001a94 <_ntoa_format+0x134>
100019e6:	2c20      	cmp	r4, #32
100019e8:	d129      	bne.n	10001a3e <_ntoa_format+0xde>
100019ea:	2420      	movs	r4, #32
100019ec:	e9cd 570b 	strd	r5, r7, [sp, #44]	@ 0x2c
100019f0:	e9cd 8409 	strd	r8, r4, [sp, #36]	@ 0x24
100019f4:	e8bd 4ff0 	ldmia.w	sp!, {r4, r5, r6, r7, r8, r9, sl, fp, lr}
100019f8:	f7ff bf64 	b.w	100018c4 <_out_rev>
100019fc:	f017 0b01 	ands.w	fp, r7, #1
10001a00:	d134      	bne.n	10001a6c <_ntoa_format+0x10c>
10001a02:	42b4      	cmp	r4, r6
10001a04:	d3bf      	bcc.n	10001986 <_ntoa_format+0x26>
10001a06:	f017 0f10 	tst.w	r7, #16
10001a0a:	d01e      	beq.n	10001a4a <_ntoa_format+0xea>
10001a0c:	f417 6f80 	tst.w	r7, #1024	@ 0x400
10001a10:	d1e3      	bne.n	100019da <_ntoa_format+0x7a>
10001a12:	2c00      	cmp	r4, #0
10001a14:	d1dd      	bne.n	100019d2 <_ntoa_format+0x72>
10001a16:	f1b9 0f10 	cmp.w	r9, #16
10001a1a:	d063      	beq.n	10001ae4 <_ntoa_format+0x184>
10001a1c:	f1b9 0f02 	cmp.w	r9, #2
10001a20:	d077      	beq.n	10001b12 <_ntoa_format+0x1b2>
10001a22:	2430      	movs	r4, #48	@ 0x30
10001a24:	f888 4000 	strb.w	r4, [r8]
10001a28:	2401      	movs	r4, #1
10001a2a:	f1ba 0f00 	cmp.w	sl, #0
10001a2e:	d111      	bne.n	10001a54 <_ntoa_format+0xf4>
10001a30:	077e      	lsls	r6, r7, #29
10001a32:	d548      	bpl.n	10001ac6 <_ntoa_format+0x166>
10001a34:	262b      	movs	r6, #43	@ 0x2b
10001a36:	f808 6004 	strb.w	r6, [r8, r4]
10001a3a:	3401      	adds	r4, #1
10001a3c:	e7d6      	b.n	100019ec <_ntoa_format+0x8c>
10001a3e:	4626      	mov	r6, r4
10001a40:	3401      	adds	r4, #1
10001a42:	f04f 0c30 	mov.w	ip, #48	@ 0x30
10001a46:	f808 c006 	strb.w	ip, [r8, r6]
10001a4a:	2c20      	cmp	r4, #32
10001a4c:	d0cd      	beq.n	100019ea <_ntoa_format+0x8a>
10001a4e:	f1ba 0f00 	cmp.w	sl, #0
10001a52:	d0ed      	beq.n	10001a30 <_ntoa_format+0xd0>
10001a54:	262d      	movs	r6, #45	@ 0x2d
10001a56:	f808 6004 	strb.w	r6, [r8, r4]
10001a5a:	3401      	adds	r4, #1
10001a5c:	e9cd 570b 	strd	r5, r7, [sp, #44]	@ 0x2c
10001a60:	e9cd 8409 	strd	r8, r4, [sp, #36]	@ 0x24
10001a64:	e8bd 4ff0 	ldmia.w	sp!, {r4, r5, r6, r7, r8, r9, sl, fp, lr}
10001a68:	f7ff bf2c 	b.w	100018c4 <_out_rev>
10001a6c:	f1ba 0f00 	cmp.w	sl, #0
10001a70:	d030      	beq.n	10001ad4 <_ntoa_format+0x174>
10001a72:	42b4      	cmp	r4, r6
10001a74:	f105 35ff 	add.w	r5, r5, #4294967295
10001a78:	d385      	bcc.n	10001986 <_ntoa_format+0x26>
10001a7a:	e795      	b.n	100019a8 <_ntoa_format+0x48>
10001a7c:	f1b9 0f10 	cmp.w	r9, #16
10001a80:	d1b3      	bne.n	100019ea <_ntoa_format+0x8a>
10001a82:	06be      	lsls	r6, r7, #26
10001a84:	d53b      	bpl.n	10001afe <_ntoa_format+0x19e>
10001a86:	2c20      	cmp	r4, #32
10001a88:	d0af      	beq.n	100019ea <_ntoa_format+0x8a>
10001a8a:	2658      	movs	r6, #88	@ 0x58
10001a8c:	f808 6004 	strb.w	r6, [r8, r4]
10001a90:	3401      	adds	r4, #1
10001a92:	e7a8      	b.n	100019e6 <_ntoa_format+0x86>
10001a94:	2c20      	cmp	r4, #32
10001a96:	d0a8      	beq.n	100019ea <_ntoa_format+0x8a>
10001a98:	4626      	mov	r6, r4
10001a9a:	3401      	adds	r4, #1
10001a9c:	e007      	b.n	10001aae <_ntoa_format+0x14e>
10001a9e:	1e66      	subs	r6, r4, #1
10001aa0:	d0b9      	beq.n	10001a16 <_ntoa_format+0xb6>
10001aa2:	f1b9 0f10 	cmp.w	r9, #16
10001aa6:	d036      	beq.n	10001b16 <_ntoa_format+0x1b6>
10001aa8:	f1b9 0f02 	cmp.w	r9, #2
10001aac:	d1c9      	bne.n	10001a42 <_ntoa_format+0xe2>
10001aae:	f04f 0c62 	mov.w	ip, #98	@ 0x62
10001ab2:	f808 c006 	strb.w	ip, [r8, r6]
10001ab6:	e796      	b.n	100019e6 <_ntoa_format+0x86>
10001ab8:	f017 0f10 	tst.w	r7, #16
10001abc:	d0c5      	beq.n	10001a4a <_ntoa_format+0xea>
10001abe:	f417 6f80 	tst.w	r7, #1024	@ 0x400
10001ac2:	d086      	beq.n	100019d2 <_ntoa_format+0x72>
10001ac4:	e789      	b.n	100019da <_ntoa_format+0x7a>
10001ac6:	073e      	lsls	r6, r7, #28
10001ac8:	d590      	bpl.n	100019ec <_ntoa_format+0x8c>
10001aca:	2620      	movs	r6, #32
10001acc:	f808 6004 	strb.w	r6, [r8, r4]
10001ad0:	3401      	adds	r4, #1
10001ad2:	e78b      	b.n	100019ec <_ntoa_format+0x8c>
10001ad4:	f017 0f0c 	tst.w	r7, #12
10001ad8:	d000      	beq.n	10001adc <_ntoa_format+0x17c>
10001ada:	3d01      	subs	r5, #1
10001adc:	42b4      	cmp	r4, r6
10001ade:	f4ff af52 	bcc.w	10001986 <_ntoa_format+0x26>
10001ae2:	e761      	b.n	100019a8 <_ntoa_format+0x48>
10001ae4:	06bc      	lsls	r4, r7, #26
10001ae6:	d412      	bmi.n	10001b0e <_ntoa_format+0x1ae>
10001ae8:	2478      	movs	r4, #120	@ 0x78
10001aea:	f888 4000 	strb.w	r4, [r8]
10001aee:	2430      	movs	r4, #48	@ 0x30
10001af0:	f888 4001 	strb.w	r4, [r8, #1]
10001af4:	2402      	movs	r4, #2
10001af6:	f1ba 0f00 	cmp.w	sl, #0
10001afa:	d099      	beq.n	10001a30 <_ntoa_format+0xd0>
10001afc:	e7aa      	b.n	10001a54 <_ntoa_format+0xf4>
10001afe:	2c20      	cmp	r4, #32
10001b00:	f43f af73 	beq.w	100019ea <_ntoa_format+0x8a>
10001b04:	2678      	movs	r6, #120	@ 0x78
10001b06:	f808 6004 	strb.w	r6, [r8, r4]
10001b0a:	3401      	adds	r4, #1
10001b0c:	e76b      	b.n	100019e6 <_ntoa_format+0x86>
10001b0e:	2458      	movs	r4, #88	@ 0x58
10001b10:	e7eb      	b.n	10001aea <_ntoa_format+0x18a>
10001b12:	2462      	movs	r4, #98	@ 0x62
10001b14:	e7e9      	b.n	10001aea <_ntoa_format+0x18a>
10001b16:	f017 0f20 	tst.w	r7, #32
10001b1a:	f1a4 0c02 	sub.w	ip, r4, #2
10001b1e:	d004      	beq.n	10001b2a <_ntoa_format+0x1ca>
10001b20:	f04f 0e58 	mov.w	lr, #88	@ 0x58
10001b24:	f808 e00c 	strb.w	lr, [r8, ip]
10001b28:	e78b      	b.n	10001a42 <_ntoa_format+0xe2>
10001b2a:	f04f 0e78 	mov.w	lr, #120	@ 0x78
10001b2e:	f808 e00c 	strb.w	lr, [r8, ip]
10001b32:	e786      	b.n	10001a42 <_ntoa_format+0xe2>

10001b34 <_out_char>:
10001b34:	b900      	cbnz	r0, 10001b38 <_out_char+0x4>
10001b36:	4770      	bx	lr
10001b38:	f001 bb72 	b.w	10003220 <__wrap_putchar>

10001b3c <_out_fct>:
10001b3c:	b110      	cbz	r0, 10001b44 <_out_fct+0x8>
10001b3e:	e9d1 3100 	ldrd	r3, r1, [r1]
10001b42:	4718      	bx	r3
10001b44:	4770      	bx	lr
10001b46:	bf00      	nop

10001b48 <_ftoa>:
10001b48:	e92d 4ff0 	stmdb	sp!, {r4, r5, r6, r7, r8, r9, sl, fp, lr}
10001b4c:	b097      	sub	sp, #92	@ 0x5c
10001b4e:	ed9d 7b20 	vldr	d7, [sp, #128]	@ 0x80
10001b52:	e9dd 5b22 	ldrd	r5, fp, [sp, #136]	@ 0x88
10001b56:	4607      	mov	r7, r0
10001b58:	4688      	mov	r8, r1
10001b5a:	ec51 0b17 	vmov	r0, r1, d7
10001b5e:	9c24      	ldr	r4, [sp, #144]	@ 0x90
10001b60:	4699      	mov	r9, r3
10001b62:	920c      	str	r2, [sp, #48]	@ 0x30
10001b64:	460b      	mov	r3, r1
10001b66:	4602      	mov	r2, r0
10001b68:	ed8d 7b04 	vstr	d7, [sp, #16]
10001b6c:	9407      	str	r4, [sp, #28]
10001b6e:	f7ff fe49 	bl	10001804 <__wrap___aeabi_dcmpun>
10001b72:	2800      	cmp	r0, #0
10001b74:	f040 81f4 	bne.w	10001f60 <_ftoa+0x418>
10001b78:	e9dd 0104 	ldrd	r0, r1, [sp, #16]
10001b7c:	f04f 32ff 	mov.w	r2, #4294967295
10001b80:	f46f 1380 	mvn.w	r3, #1048576	@ 0x100000
10001b84:	f7ff fe50 	bl	10001828 <__wrap___aeabi_dcmplt>
10001b88:	2800      	cmp	r0, #0
10001b8a:	f040 811b 	bne.w	10001dc4 <_ftoa+0x27c>
10001b8e:	e9dd 0104 	ldrd	r0, r1, [sp, #16]
10001b92:	f04f 32ff 	mov.w	r2, #4294967295
10001b96:	4bac      	ldr	r3, [pc, #688]	@ (10001e48 <_ftoa+0x300>)
10001b98:	f7ff fe82 	bl	100018a0 <__wrap___aeabi_dcmpgt>
10001b9c:	2800      	cmp	r0, #0
10001b9e:	f040 80ee 	bne.w	10001d7e <_ftoa+0x236>
10001ba2:	e9dd 0104 	ldrd	r0, r1, [sp, #16]
10001ba6:	a3a4      	add	r3, pc, #656	@ (adr r3, 10001e38 <_ftoa+0x2f0>)
10001ba8:	e9d3 2300 	ldrd	r2, r3, [r3]
10001bac:	f7ff fe78 	bl	100018a0 <__wrap___aeabi_dcmpgt>
10001bb0:	2800      	cmp	r0, #0
10001bb2:	f040 80d3 	bne.w	10001d5c <_ftoa+0x214>
10001bb6:	e9dd 0104 	ldrd	r0, r1, [sp, #16]
10001bba:	a3a1      	add	r3, pc, #644	@ (adr r3, 10001e40 <_ftoa+0x2f8>)
10001bbc:	e9d3 2300 	ldrd	r2, r3, [r3]
10001bc0:	f7ff fe32 	bl	10001828 <__wrap___aeabi_dcmplt>
10001bc4:	2800      	cmp	r0, #0
10001bc6:	f040 80c9 	bne.w	10001d5c <_ftoa+0x214>
10001bca:	e9dd 0104 	ldrd	r0, r1, [sp, #16]
10001bce:	2200      	movs	r2, #0
10001bd0:	2300      	movs	r3, #0
10001bd2:	f7ff fe29 	bl	10001828 <__wrap___aeabi_dcmplt>
10001bd6:	2800      	cmp	r0, #0
10001bd8:	f040 80e8 	bne.w	10001dac <_ftoa+0x264>
10001bdc:	4623      	mov	r3, r4
10001bde:	900d      	str	r0, [sp, #52]	@ 0x34
10001be0:	f413 6f80 	tst.w	r3, #1024	@ 0x400
10001be4:	bf08      	it	eq
10001be6:	2506      	moveq	r5, #6
10001be8:	2130      	movs	r1, #48	@ 0x30
10001bea:	462b      	mov	r3, r5
10001bec:	aa0e      	add	r2, sp, #56	@ 0x38
10001bee:	f1a5 0620 	sub.w	r6, r5, #32
10001bf2:	e005      	b.n	10001c00 <_ftoa+0xb8>
10001bf4:	3b01      	subs	r3, #1
10001bf6:	42b3      	cmp	r3, r6
10001bf8:	f802 1b01 	strb.w	r1, [r2], #1
10001bfc:	f000 8193 	beq.w	10001f26 <_ftoa+0x3de>
10001c00:	2b09      	cmp	r3, #9
10001c02:	d8f7      	bhi.n	10001bf4 <_ftoa+0xac>
10001c04:	461e      	mov	r6, r3
10001c06:	1aed      	subs	r5, r5, r3
10001c08:	e9dd 0104 	ldrd	r0, r1, [sp, #16]
10001c0c:	f7ff fdd6 	bl	100017bc <__wrap___aeabi_d2iz>
10001c10:	4b8e      	ldr	r3, [pc, #568]	@ (10001e4c <_ftoa+0x304>)
10001c12:	4604      	mov	r4, r0
10001c14:	eb03 03c6 	add.w	r3, r3, r6, lsl #3
10001c18:	ed93 7b00 	vldr	d7, [r3]
10001c1c:	ed8d 7b08 	vstr	d7, [sp, #32]
10001c20:	f7ff fda8 	bl	10001774 <__wrap___aeabi_i2d>
10001c24:	4602      	mov	r2, r0
10001c26:	460b      	mov	r3, r1
10001c28:	e9dd 0104 	ldrd	r0, r1, [sp, #16]
10001c2c:	f7ff fd1a 	bl	10001664 <__wrap___aeabi_dsub>
10001c30:	e9dd 2308 	ldrd	r2, r3, [sp, #32]
10001c34:	f7ff fd2a 	bl	1000168c <__wrap___aeabi_dmul>
10001c38:	4602      	mov	r2, r0
10001c3a:	460b      	mov	r3, r1
10001c3c:	e9cd 230a 	strd	r2, r3, [sp, #40]	@ 0x28
10001c40:	f7ff fdce 	bl	100017e0 <__wrap___aeabi_d2uiz>
10001c44:	4682      	mov	sl, r0
10001c46:	f7ff fda7 	bl	10001798 <__wrap___aeabi_ui2d>
10001c4a:	4602      	mov	r2, r0
10001c4c:	460b      	mov	r3, r1
10001c4e:	e9dd 010a 	ldrd	r0, r1, [sp, #40]	@ 0x28
10001c52:	f7ff fd07 	bl	10001664 <__wrap___aeabi_dsub>
10001c56:	4602      	mov	r2, r0
10001c58:	460b      	mov	r3, r1
10001c5a:	e9cd 230a 	strd	r2, r3, [sp, #40]	@ 0x28
10001c5e:	2200      	movs	r2, #0
10001c60:	4b7b      	ldr	r3, [pc, #492]	@ (10001e50 <_ftoa+0x308>)
10001c62:	f7ff fe1d 	bl	100018a0 <__wrap___aeabi_dcmpgt>
10001c66:	2800      	cmp	r0, #0
10001c68:	f000 80fe 	beq.w	10001e68 <_ftoa+0x320>
10001c6c:	f10a 0a01 	add.w	sl, sl, #1
10001c70:	4650      	mov	r0, sl
10001c72:	f7ff fd91 	bl	10001798 <__wrap___aeabi_ui2d>
10001c76:	4602      	mov	r2, r0
10001c78:	460b      	mov	r3, r1
10001c7a:	e9dd 0108 	ldrd	r0, r1, [sp, #32]
10001c7e:	f7ff fde7 	bl	10001850 <__wrap___aeabi_dcmple>
10001c82:	b110      	cbz	r0, 10001c8a <_ftoa+0x142>
10001c84:	f04f 0a00 	mov.w	sl, #0
10001c88:	3401      	adds	r4, #1
10001c8a:	2e00      	cmp	r6, #0
10001c8c:	f000 80fd 	beq.w	10001e8a <_ftoa+0x342>
10001c90:	1e68      	subs	r0, r5, #1
10001c92:	ab0e      	add	r3, sp, #56	@ 0x38
10001c94:	f8df c1cc 	ldr.w	ip, [pc, #460]	@ 10001e64 <_ftoa+0x31c>
10001c98:	4418      	add	r0, r3
10001c9a:	e00f      	b.n	10001cbc <_ftoa+0x174>
10001c9c:	fbac 210a 	umull	r2, r1, ip, sl
10001ca0:	08c9      	lsrs	r1, r1, #3
10001ca2:	eb01 0281 	add.w	r2, r1, r1, lsl #2
10001ca6:	ebaa 0242 	sub.w	r2, sl, r2, lsl #1
10001caa:	3230      	adds	r2, #48	@ 0x30
10001cac:	f1ba 0f09 	cmp.w	sl, #9
10001cb0:	f800 2f01 	strb.w	r2, [r0, #1]!
10001cb4:	f240 811c 	bls.w	10001ef0 <_ftoa+0x3a8>
10001cb8:	468a      	mov	sl, r1
10001cba:	461d      	mov	r5, r3
10001cbc:	2d20      	cmp	r5, #32
10001cbe:	f105 0301 	add.w	r3, r5, #1
10001cc2:	f106 36ff 	add.w	r6, r6, #4294967295
10001cc6:	d1e9      	bne.n	10001c9c <_ftoa+0x154>
10001cc8:	2520      	movs	r5, #32
10001cca:	1e69      	subs	r1, r5, #1
10001ccc:	ab0e      	add	r3, sp, #56	@ 0x38
10001cce:	4861      	ldr	r0, [pc, #388]	@ (10001e54 <_ftoa+0x30c>)
10001cd0:	4419      	add	r1, r3
10001cd2:	e010      	b.n	10001cf6 <_ftoa+0x1ae>
10001cd4:	fb80 6204 	smull	r6, r2, r0, r4
10001cd8:	ebc3 03a2 	rsb	r3, r3, r2, asr #2
10001cdc:	eb03 0283 	add.w	r2, r3, r3, lsl #2
10001ce0:	eba4 0442 	sub.w	r4, r4, r2, lsl #1
10001ce4:	f104 0230 	add.w	r2, r4, #48	@ 0x30
10001ce8:	3501      	adds	r5, #1
10001cea:	461c      	mov	r4, r3
10001cec:	f801 2f01 	strb.w	r2, [r1, #1]!
10001cf0:	2b00      	cmp	r3, #0
10001cf2:	f000 80eb 	beq.w	10001ecc <_ftoa+0x384>
10001cf6:	2d20      	cmp	r5, #32
10001cf8:	ea4f 73e4 	mov.w	r3, r4, asr #31
10001cfc:	d1ea      	bne.n	10001cd4 <_ftoa+0x18c>
10001cfe:	9b07      	ldr	r3, [sp, #28]
10001d00:	f003 0303 	and.w	r3, r3, #3
10001d04:	2b01      	cmp	r3, #1
10001d06:	d118      	bne.n	10001d3a <_ftoa+0x1f2>
10001d08:	f1bb 0f00 	cmp.w	fp, #0
10001d0c:	d015      	beq.n	10001d3a <_ftoa+0x1f2>
10001d0e:	9b0d      	ldr	r3, [sp, #52]	@ 0x34
10001d10:	2b00      	cmp	r3, #0
10001d12:	f000 810a 	beq.w	10001f2a <_ftoa+0x3e2>
10001d16:	f10b 3bff 	add.w	fp, fp, #4294967295
10001d1a:	f1bb 0f20 	cmp.w	fp, #32
10001d1e:	d90c      	bls.n	10001d3a <_ftoa+0x1f2>
10001d20:	1e6b      	subs	r3, r5, #1
10001d22:	a90e      	add	r1, sp, #56	@ 0x38
10001d24:	2230      	movs	r2, #48	@ 0x30
10001d26:	440b      	add	r3, r1
10001d28:	e005      	b.n	10001d36 <_ftoa+0x1ee>
10001d2a:	3501      	adds	r5, #1
10001d2c:	455d      	cmp	r5, fp
10001d2e:	f803 2f01 	strb.w	r2, [r3, #1]!
10001d32:	f080 80d1 	bcs.w	10001ed8 <_ftoa+0x390>
10001d36:	2d20      	cmp	r5, #32
10001d38:	d1f7      	bne.n	10001d2a <_ftoa+0x1e2>
10001d3a:	9b07      	ldr	r3, [sp, #28]
10001d3c:	ac0e      	add	r4, sp, #56	@ 0x38
10001d3e:	e9cd b302 	strd	fp, r3, [sp, #8]
10001d42:	4641      	mov	r1, r8
10001d44:	464b      	mov	r3, r9
10001d46:	4638      	mov	r0, r7
10001d48:	9a0c      	ldr	r2, [sp, #48]	@ 0x30
10001d4a:	9501      	str	r5, [sp, #4]
10001d4c:	9400      	str	r4, [sp, #0]
10001d4e:	f7ff fdb9 	bl	100018c4 <_out_rev>
10001d52:	4682      	mov	sl, r0
10001d54:	4650      	mov	r0, sl
10001d56:	b017      	add	sp, #92	@ 0x5c
10001d58:	e8bd 8ff0 	ldmia.w	sp!, {r4, r5, r6, r7, r8, r9, sl, fp, pc}
10001d5c:	9b07      	ldr	r3, [sp, #28]
10001d5e:	ed9d 7b04 	vldr	d7, [sp, #16]
10001d62:	e9cd b323 	strd	fp, r3, [sp, #140]	@ 0x8c
10001d66:	4641      	mov	r1, r8
10001d68:	464b      	mov	r3, r9
10001d6a:	4638      	mov	r0, r7
10001d6c:	9a0c      	ldr	r2, [sp, #48]	@ 0x30
10001d6e:	ed8d 7b20 	vstr	d7, [sp, #128]	@ 0x80
10001d72:	9522      	str	r5, [sp, #136]	@ 0x88
10001d74:	b017      	add	sp, #92	@ 0x5c
10001d76:	e8bd 4ff0 	ldmia.w	sp!, {r4, r5, r6, r7, r8, r9, sl, fp, lr}
10001d7a:	f000 b945 	b.w	10002008 <_etoa>
10001d7e:	0761      	lsls	r1, r4, #29
10001d80:	4623      	mov	r3, r4
10001d82:	bf4c      	ite	mi
10001d84:	2304      	movmi	r3, #4
10001d86:	2303      	movpl	r3, #3
10001d88:	4641      	mov	r1, r8
10001d8a:	9321      	str	r3, [sp, #132]	@ 0x84
10001d8c:	4638      	mov	r0, r7
10001d8e:	464b      	mov	r3, r9
10001d90:	9a07      	ldr	r2, [sp, #28]
10001d92:	bf48      	it	mi
10001d94:	4c30      	ldrmi	r4, [pc, #192]	@ (10001e58 <_ftoa+0x310>)
10001d96:	e9cd b222 	strd	fp, r2, [sp, #136]	@ 0x88
10001d9a:	bf58      	it	pl
10001d9c:	4c2f      	ldrpl	r4, [pc, #188]	@ (10001e5c <_ftoa+0x314>)
10001d9e:	9a0c      	ldr	r2, [sp, #48]	@ 0x30
10001da0:	9420      	str	r4, [sp, #128]	@ 0x80
10001da2:	b017      	add	sp, #92	@ 0x5c
10001da4:	e8bd 4ff0 	ldmia.w	sp!, {r4, r5, r6, r7, r8, r9, sl, fp, lr}
10001da8:	f7ff bd8c 	b.w	100018c4 <_out_rev>
10001dac:	e9dd 2304 	ldrd	r2, r3, [sp, #16]
10001db0:	2000      	movs	r0, #0
10001db2:	2100      	movs	r1, #0
10001db4:	f7ff fc56 	bl	10001664 <__wrap___aeabi_dsub>
10001db8:	2301      	movs	r3, #1
10001dba:	e9cd 0104 	strd	r0, r1, [sp, #16]
10001dbe:	930d      	str	r3, [sp, #52]	@ 0x34
10001dc0:	4623      	mov	r3, r4
10001dc2:	e70d      	b.n	10001be0 <_ftoa+0x98>
10001dc4:	4623      	mov	r3, r4
10001dc6:	079c      	lsls	r4, r3, #30
10001dc8:	f040 80aa 	bne.w	10001f20 <_ftoa+0x3d8>
10001dcc:	f1bb 0f04 	cmp.w	fp, #4
10001dd0:	f240 80a6 	bls.w	10001f20 <_ftoa+0x3d8>
10001dd4:	9b0c      	ldr	r3, [sp, #48]	@ 0x30
10001dd6:	461d      	mov	r5, r3
10001dd8:	1f1c      	subs	r4, r3, #4
10001dda:	eb04 0a0b 	add.w	sl, r4, fp
10001dde:	462a      	mov	r2, r5
10001de0:	464b      	mov	r3, r9
10001de2:	4641      	mov	r1, r8
10001de4:	2020      	movs	r0, #32
10001de6:	3501      	adds	r5, #1
10001de8:	47b8      	blx	r7
10001dea:	45aa      	cmp	sl, r5
10001dec:	d1f7      	bne.n	10001dde <_ftoa+0x296>
10001dee:	4655      	mov	r5, sl
10001df0:	4c1b      	ldr	r4, [pc, #108]	@ (10001e60 <_ftoa+0x318>)
10001df2:	1f26      	subs	r6, r4, #4
10001df4:	f814 0d01 	ldrb.w	r0, [r4, #-1]!
10001df8:	462a      	mov	r2, r5
10001dfa:	464b      	mov	r3, r9
10001dfc:	4641      	mov	r1, r8
10001dfe:	47b8      	blx	r7
10001e00:	42b4      	cmp	r4, r6
10001e02:	f105 0501 	add.w	r5, r5, #1
10001e06:	d1f5      	bne.n	10001df4 <_ftoa+0x2ac>
10001e08:	9b07      	ldr	r3, [sp, #28]
10001e0a:	f10a 0a04 	add.w	sl, sl, #4
10001e0e:	0798      	lsls	r0, r3, #30
10001e10:	d5a0      	bpl.n	10001d54 <_ftoa+0x20c>
10001e12:	9c0c      	ldr	r4, [sp, #48]	@ 0x30
10001e14:	ebaa 0304 	sub.w	r3, sl, r4
10001e18:	459b      	cmp	fp, r3
10001e1a:	d99b      	bls.n	10001d54 <_ftoa+0x20c>
10001e1c:	4652      	mov	r2, sl
10001e1e:	464b      	mov	r3, r9
10001e20:	4641      	mov	r1, r8
10001e22:	2020      	movs	r0, #32
10001e24:	f10a 0a01 	add.w	sl, sl, #1
10001e28:	47b8      	blx	r7
10001e2a:	ebaa 0304 	sub.w	r3, sl, r4
10001e2e:	455b      	cmp	r3, fp
10001e30:	d3f4      	bcc.n	10001e1c <_ftoa+0x2d4>
10001e32:	e78f      	b.n	10001d54 <_ftoa+0x20c>
10001e34:	f3af 8000 	nop.w
10001e38:	00000000 	.word	0x00000000
10001e3c:	41cdcd65 	.word	0x41cdcd65
10001e40:	00000000 	.word	0x00000000
10001e44:	c1cdcd65 	.word	0xc1cdcd65
10001e48:	7fefffff 	.word	0x7fefffff
10001e4c:	100038f8 	.word	0x100038f8
10001e50:	3fe00000 	.word	0x3fe00000
10001e54:	66666667 	.word	0x66666667
10001e58:	10003854 	.word	0x10003854
10001e5c:	1000385c 	.word	0x1000385c
10001e60:	10003868 	.word	0x10003868
10001e64:	cccccccd 	.word	0xcccccccd
10001e68:	2200      	movs	r2, #0
10001e6a:	e9dd 010a 	ldrd	r0, r1, [sp, #40]	@ 0x28
10001e6e:	4b63      	ldr	r3, [pc, #396]	@ (10001ffc <_ftoa+0x4b4>)
10001e70:	f7ff fcda 	bl	10001828 <__wrap___aeabi_dcmplt>
10001e74:	2800      	cmp	r0, #0
10001e76:	f47f af08 	bne.w	10001c8a <_ftoa+0x142>
10001e7a:	f1ba 0f00 	cmp.w	sl, #0
10001e7e:	d16a      	bne.n	10001f56 <_ftoa+0x40e>
10001e80:	f10a 0a01 	add.w	sl, sl, #1
10001e84:	2e00      	cmp	r6, #0
10001e86:	f47f af03 	bne.w	10001c90 <_ftoa+0x148>
10001e8a:	4620      	mov	r0, r4
10001e8c:	f7ff fc72 	bl	10001774 <__wrap___aeabi_i2d>
10001e90:	4602      	mov	r2, r0
10001e92:	460b      	mov	r3, r1
10001e94:	e9dd 0104 	ldrd	r0, r1, [sp, #16]
10001e98:	f7ff fbe4 	bl	10001664 <__wrap___aeabi_dsub>
10001e9c:	4602      	mov	r2, r0
10001e9e:	460b      	mov	r3, r1
10001ea0:	e9cd 2304 	strd	r2, r3, [sp, #16]
10001ea4:	2200      	movs	r2, #0
10001ea6:	4b55      	ldr	r3, [pc, #340]	@ (10001ffc <_ftoa+0x4b4>)
10001ea8:	f7ff fcbe 	bl	10001828 <__wrap___aeabi_dcmplt>
10001eac:	2800      	cmp	r0, #0
10001eae:	f47f af0c 	bne.w	10001cca <_ftoa+0x182>
10001eb2:	e9dd 0104 	ldrd	r0, r1, [sp, #16]
10001eb6:	2200      	movs	r2, #0
10001eb8:	4b50      	ldr	r3, [pc, #320]	@ (10001ffc <_ftoa+0x4b4>)
10001eba:	f7ff fcf1 	bl	100018a0 <__wrap___aeabi_dcmpgt>
10001ebe:	2800      	cmp	r0, #0
10001ec0:	f47f af03 	bne.w	10001cca <_ftoa+0x182>
10001ec4:	3401      	adds	r4, #1
10001ec6:	f024 0401 	bic.w	r4, r4, #1
10001eca:	e6fe      	b.n	10001cca <_ftoa+0x182>
10001ecc:	9b07      	ldr	r3, [sp, #28]
10001ece:	f003 0303 	and.w	r3, r3, #3
10001ed2:	2b01      	cmp	r3, #1
10001ed4:	f000 8082 	beq.w	10001fdc <_ftoa+0x494>
10001ed8:	2d20      	cmp	r5, #32
10001eda:	f43f af2e 	beq.w	10001d3a <_ftoa+0x1f2>
10001ede:	9b0d      	ldr	r3, [sp, #52]	@ 0x34
10001ee0:	b37b      	cbz	r3, 10001f42 <_ftoa+0x3fa>
10001ee2:	222d      	movs	r2, #45	@ 0x2d
10001ee4:	eb0d 0305 	add.w	r3, sp, r5
10001ee8:	f883 2038 	strb.w	r2, [r3, #56]	@ 0x38
10001eec:	3501      	adds	r5, #1
10001eee:	e724      	b.n	10001d3a <_ftoa+0x1f2>
10001ef0:	2b20      	cmp	r3, #32
10001ef2:	f43f aee9 	beq.w	10001cc8 <_ftoa+0x180>
10001ef6:	aa0e      	add	r2, sp, #56	@ 0x38
10001ef8:	4415      	add	r5, r2
10001efa:	441e      	add	r6, r3
10001efc:	2230      	movs	r2, #48	@ 0x30
10001efe:	e004      	b.n	10001f0a <_ftoa+0x3c2>
10001f00:	2b20      	cmp	r3, #32
10001f02:	f805 2f01 	strb.w	r2, [r5, #1]!
10001f06:	f43f aedf 	beq.w	10001cc8 <_ftoa+0x180>
10001f0a:	429e      	cmp	r6, r3
10001f0c:	f103 0301 	add.w	r3, r3, #1
10001f10:	d1f6      	bne.n	10001f00 <_ftoa+0x3b8>
10001f12:	222e      	movs	r2, #46	@ 0x2e
10001f14:	eb0d 0306 	add.w	r3, sp, r6
10001f18:	f883 2038 	strb.w	r2, [r3, #56]	@ 0x38
10001f1c:	1c75      	adds	r5, r6, #1
10001f1e:	e6d4      	b.n	10001cca <_ftoa+0x182>
10001f20:	f8dd a030 	ldr.w	sl, [sp, #48]	@ 0x30
10001f24:	e763      	b.n	10001dee <_ftoa+0x2a6>
10001f26:	2520      	movs	r5, #32
10001f28:	e66e      	b.n	10001c08 <_ftoa+0xc0>
10001f2a:	9b07      	ldr	r3, [sp, #28]
10001f2c:	f013 0f0c 	tst.w	r3, #12
10001f30:	d050      	beq.n	10001fd4 <_ftoa+0x48c>
10001f32:	f10b 3bff 	add.w	fp, fp, #4294967295
10001f36:	45ab      	cmp	fp, r5
10001f38:	f63f aef2 	bhi.w	10001d20 <_ftoa+0x1d8>
10001f3c:	2d20      	cmp	r5, #32
10001f3e:	f43f aefc 	beq.w	10001d3a <_ftoa+0x1f2>
10001f42:	9b07      	ldr	r3, [sp, #28]
10001f44:	075a      	lsls	r2, r3, #29
10001f46:	d501      	bpl.n	10001f4c <_ftoa+0x404>
10001f48:	222b      	movs	r2, #43	@ 0x2b
10001f4a:	e7cb      	b.n	10001ee4 <_ftoa+0x39c>
10001f4c:	071b      	lsls	r3, r3, #28
10001f4e:	f57f aef4 	bpl.w	10001d3a <_ftoa+0x1f2>
10001f52:	2220      	movs	r2, #32
10001f54:	e7c6      	b.n	10001ee4 <_ftoa+0x39c>
10001f56:	f01a 0f01 	tst.w	sl, #1
10001f5a:	f43f ae96 	beq.w	10001c8a <_ftoa+0x142>
10001f5e:	e78f      	b.n	10001e80 <_ftoa+0x338>
10001f60:	07a6      	lsls	r6, r4, #30
10001f62:	d134      	bne.n	10001fce <_ftoa+0x486>
10001f64:	f1bb 0f03 	cmp.w	fp, #3
10001f68:	d931      	bls.n	10001fce <_ftoa+0x486>
10001f6a:	9b0c      	ldr	r3, [sp, #48]	@ 0x30
10001f6c:	461d      	mov	r5, r3
10001f6e:	1edc      	subs	r4, r3, #3
10001f70:	eb04 0a0b 	add.w	sl, r4, fp
10001f74:	462a      	mov	r2, r5
10001f76:	464b      	mov	r3, r9
10001f78:	4641      	mov	r1, r8
10001f7a:	2020      	movs	r0, #32
10001f7c:	3501      	adds	r5, #1
10001f7e:	47b8      	blx	r7
10001f80:	4555      	cmp	r5, sl
10001f82:	d1f7      	bne.n	10001f74 <_ftoa+0x42c>
10001f84:	4655      	mov	r5, sl
10001f86:	4c1e      	ldr	r4, [pc, #120]	@ (10002000 <_ftoa+0x4b8>)
10001f88:	1ee6      	subs	r6, r4, #3
10001f8a:	f814 0d01 	ldrb.w	r0, [r4, #-1]!
10001f8e:	462a      	mov	r2, r5
10001f90:	464b      	mov	r3, r9
10001f92:	4641      	mov	r1, r8
10001f94:	47b8      	blx	r7
10001f96:	42a6      	cmp	r6, r4
10001f98:	f105 0501 	add.w	r5, r5, #1
10001f9c:	d1f5      	bne.n	10001f8a <_ftoa+0x442>
10001f9e:	9b07      	ldr	r3, [sp, #28]
10001fa0:	f10a 0a03 	add.w	sl, sl, #3
10001fa4:	079d      	lsls	r5, r3, #30
10001fa6:	f57f aed5 	bpl.w	10001d54 <_ftoa+0x20c>
10001faa:	9c0c      	ldr	r4, [sp, #48]	@ 0x30
10001fac:	ebaa 0304 	sub.w	r3, sl, r4
10001fb0:	459b      	cmp	fp, r3
10001fb2:	f67f aecf 	bls.w	10001d54 <_ftoa+0x20c>
10001fb6:	4652      	mov	r2, sl
10001fb8:	464b      	mov	r3, r9
10001fba:	4641      	mov	r1, r8
10001fbc:	2020      	movs	r0, #32
10001fbe:	f10a 0a01 	add.w	sl, sl, #1
10001fc2:	47b8      	blx	r7
10001fc4:	ebaa 0304 	sub.w	r3, sl, r4
10001fc8:	459b      	cmp	fp, r3
10001fca:	d8f4      	bhi.n	10001fb6 <_ftoa+0x46e>
10001fcc:	e6c2      	b.n	10001d54 <_ftoa+0x20c>
10001fce:	f8dd a030 	ldr.w	sl, [sp, #48]	@ 0x30
10001fd2:	e7d7      	b.n	10001f84 <_ftoa+0x43c>
10001fd4:	45ab      	cmp	fp, r5
10001fd6:	f63f aea3 	bhi.w	10001d20 <_ftoa+0x1d8>
10001fda:	e6ae      	b.n	10001d3a <_ftoa+0x1f2>
10001fdc:	f1bb 0f00 	cmp.w	fp, #0
10001fe0:	f43f af7a 	beq.w	10001ed8 <_ftoa+0x390>
10001fe4:	9b0d      	ldr	r3, [sp, #52]	@ 0x34
10001fe6:	2b00      	cmp	r3, #0
10001fe8:	d09f      	beq.n	10001f2a <_ftoa+0x3e2>
10001fea:	f10b 3bff 	add.w	fp, fp, #4294967295
10001fee:	455d      	cmp	r5, fp
10001ff0:	f4ff ae96 	bcc.w	10001d20 <_ftoa+0x1d8>
10001ff4:	2d20      	cmp	r5, #32
10001ff6:	f47f af74 	bne.w	10001ee2 <_ftoa+0x39a>
10001ffa:	e69e      	b.n	10001d3a <_ftoa+0x1f2>
10001ffc:	3fe00000 	.word	0x3fe00000
10002000:	10003863 	.word	0x10003863
10002004:	00000000 	.word	0x00000000

10002008 <_etoa>:
10002008:	e92d 4ff0 	stmdb	sp!, {r4, r5, r6, r7, r8, r9, sl, fp, lr}
1000200c:	b09f      	sub	sp, #124	@ 0x7c
1000200e:	9e2a      	ldr	r6, [sp, #168]	@ 0xa8
10002010:	e9dd 4528 	ldrd	r4, r5, [sp, #160]	@ 0xa0
10002014:	4607      	mov	r7, r0
10002016:	4693      	mov	fp, r2
10002018:	9108      	str	r1, [sp, #32]
1000201a:	9309      	str	r3, [sp, #36]	@ 0x24
1000201c:	4622      	mov	r2, r4
1000201e:	462b      	mov	r3, r5
10002020:	4620      	mov	r0, r4
10002022:	4629      	mov	r1, r5
10002024:	960e      	str	r6, [sp, #56]	@ 0x38
10002026:	e9dd a62b 	ldrd	sl, r6, [sp, #172]	@ 0xac
1000202a:	f7ff fbeb 	bl	10001804 <__wrap___aeabi_dcmpun>
1000202e:	2800      	cmp	r0, #0
10002030:	f040 80be 	bne.w	100021b0 <_etoa+0x1a8>
10002034:	4620      	mov	r0, r4
10002036:	4629      	mov	r1, r5
10002038:	f04f 32ff 	mov.w	r2, #4294967295
1000203c:	4b78      	ldr	r3, [pc, #480]	@ (10002220 <_etoa+0x218>)
1000203e:	f7ff fc2f 	bl	100018a0 <__wrap___aeabi_dcmpgt>
10002042:	2800      	cmp	r0, #0
10002044:	f040 80b4 	bne.w	100021b0 <_etoa+0x1a8>
10002048:	4620      	mov	r0, r4
1000204a:	4629      	mov	r1, r5
1000204c:	f04f 32ff 	mov.w	r2, #4294967295
10002050:	f46f 1380 	mvn.w	r3, #1048576	@ 0x100000
10002054:	f7ff fbe8 	bl	10001828 <__wrap___aeabi_dcmplt>
10002058:	2800      	cmp	r0, #0
1000205a:	f040 80a9 	bne.w	100021b0 <_etoa+0x1a8>
1000205e:	4620      	mov	r0, r4
10002060:	4629      	mov	r1, r5
10002062:	2200      	movs	r2, #0
10002064:	2300      	movs	r3, #0
10002066:	f7ff fbdf 	bl	10001828 <__wrap___aeabi_dcmplt>
1000206a:	2800      	cmp	r0, #0
1000206c:	f040 81d5 	bne.w	1000241a <_etoa+0x412>
10002070:	e9cd 450a 	strd	r4, r5, [sp, #40]	@ 0x28
10002074:	e9dd 230a 	ldrd	r2, r3, [sp, #40]	@ 0x28
10002078:	4690      	mov	r8, r2
1000207a:	4699      	mov	r9, r3
1000207c:	f406 6200 	and.w	r2, r6, #2048	@ 0x800
10002080:	f416 6380 	ands.w	r3, r6, #1024	@ 0x400
10002084:	920f      	str	r2, [sp, #60]	@ 0x3c
10002086:	9313      	str	r3, [sp, #76]	@ 0x4c
10002088:	f040 80a1 	bne.w	100021ce <_etoa+0x1c6>
1000208c:	ea58 0309 	orrs.w	r3, r8, r9
10002090:	f040 80ca 	bne.w	10002228 <_etoa+0x220>
10002094:	2a00      	cmp	r2, #0
10002096:	f040 81e3 	bne.w	10002460 <_etoa+0x458>
1000209a:	2306      	movs	r3, #6
1000209c:	930e      	str	r3, [sp, #56]	@ 0x38
1000209e:	f016 0202 	ands.w	r2, r6, #2
100020a2:	9210      	str	r2, [sp, #64]	@ 0x40
100020a4:	f040 81d4 	bne.w	10002450 <_etoa+0x448>
100020a8:	4653      	mov	r3, sl
100020aa:	2b04      	cmp	r3, #4
100020ac:	bf38      	it	cc
100020ae:	2304      	movcc	r3, #4
100020b0:	920c      	str	r2, [sp, #48]	@ 0x30
100020b2:	2204      	movs	r2, #4
100020b4:	3b04      	subs	r3, #4
100020b6:	9212      	str	r2, [sp, #72]	@ 0x48
100020b8:	930f      	str	r3, [sp, #60]	@ 0x3c
100020ba:	4620      	mov	r0, r4
100020bc:	4629      	mov	r1, r5
100020be:	2200      	movs	r2, #0
100020c0:	2300      	movs	r3, #0
100020c2:	f7ff fbb1 	bl	10001828 <__wrap___aeabi_dcmplt>
100020c6:	2800      	cmp	r0, #0
100020c8:	f040 81f3 	bne.w	100024b2 <_etoa+0x4aa>
100020cc:	ed9d 7b0a 	vldr	d7, [sp, #40]	@ 0x28
100020d0:	9b0f      	ldr	r3, [sp, #60]	@ 0x3c
100020d2:	465a      	mov	r2, fp
100020d4:	9303      	str	r3, [sp, #12]
100020d6:	9b0e      	ldr	r3, [sp, #56]	@ 0x38
100020d8:	ed8d 7b00 	vstr	d7, [sp]
100020dc:	9302      	str	r3, [sp, #8]
100020de:	f426 6300 	bic.w	r3, r6, #2048	@ 0x800
100020e2:	9304      	str	r3, [sp, #16]
100020e4:	4638      	mov	r0, r7
100020e6:	9b09      	ldr	r3, [sp, #36]	@ 0x24
100020e8:	9908      	ldr	r1, [sp, #32]
100020ea:	f7ff fd2d 	bl	10001b48 <_ftoa>
100020ee:	4602      	mov	r2, r0
100020f0:	f016 0f20 	tst.w	r6, #32
100020f4:	9b09      	ldr	r3, [sp, #36]	@ 0x24
100020f6:	9908      	ldr	r1, [sp, #32]
100020f8:	bf0c      	ite	eq
100020fa:	2065      	moveq	r0, #101	@ 0x65
100020fc:	2045      	movne	r0, #69	@ 0x45
100020fe:	f102 0801 	add.w	r8, r2, #1
10002102:	47b8      	blx	r7
10002104:	9a0c      	ldr	r2, [sp, #48]	@ 0x30
10002106:	9b12      	ldr	r3, [sp, #72]	@ 0x48
10002108:	ac16      	add	r4, sp, #88	@ 0x58
1000210a:	1e5d      	subs	r5, r3, #1
1000210c:	ea82 73e2 	eor.w	r3, r2, r2, asr #31
10002110:	eba3 73e2 	sub.w	r3, r3, r2, asr #31
10002114:	0fd1      	lsrs	r1, r2, #31
10002116:	2600      	movs	r6, #0
10002118:	4622      	mov	r2, r4
1000211a:	4699      	mov	r9, r3
1000211c:	f8df c104 	ldr.w	ip, [pc, #260]	@ 10002224 <_etoa+0x21c>
10002120:	e001      	b.n	10002126 <_etoa+0x11e>
10002122:	2e20      	cmp	r6, #32
10002124:	d010      	beq.n	10002148 <_etoa+0x140>
10002126:	46ce      	mov	lr, r9
10002128:	fbac 3009 	umull	r3, r0, ip, r9
1000212c:	08c0      	lsrs	r0, r0, #3
1000212e:	eb00 0380 	add.w	r3, r0, r0, lsl #2
10002132:	eba9 0343 	sub.w	r3, r9, r3, lsl #1
10002136:	3330      	adds	r3, #48	@ 0x30
10002138:	f1be 0f09 	cmp.w	lr, #9
1000213c:	4681      	mov	r9, r0
1000213e:	f106 0601 	add.w	r6, r6, #1
10002142:	f802 3b01 	strb.w	r3, [r2], #1
10002146:	d8ec      	bhi.n	10002122 <_etoa+0x11a>
10002148:	2305      	movs	r3, #5
1000214a:	2000      	movs	r0, #0
1000214c:	9306      	str	r3, [sp, #24]
1000214e:	230a      	movs	r3, #10
10002150:	9505      	str	r5, [sp, #20]
10002152:	9400      	str	r4, [sp, #0]
10002154:	9d09      	ldr	r5, [sp, #36]	@ 0x24
10002156:	9c08      	ldr	r4, [sp, #32]
10002158:	4642      	mov	r2, r8
1000215a:	e9cd 3003 	strd	r3, r0, [sp, #12]
1000215e:	e9cd 6101 	strd	r6, r1, [sp, #4]
10002162:	462b      	mov	r3, r5
10002164:	4621      	mov	r1, r4
10002166:	4638      	mov	r0, r7
10002168:	f7ff fbfa 	bl	10001960 <_ntoa_format>
1000216c:	9a10      	ldr	r2, [sp, #64]	@ 0x40
1000216e:	4680      	mov	r8, r0
10002170:	b1d2      	cbz	r2, 100021a8 <_etoa+0x1a0>
10002172:	eba0 060b 	sub.w	r6, r0, fp
10002176:	45b2      	cmp	sl, r6
10002178:	d916      	bls.n	100021a8 <_etoa+0x1a0>
1000217a:	eb0b 0206 	add.w	r2, fp, r6
1000217e:	462b      	mov	r3, r5
10002180:	4621      	mov	r1, r4
10002182:	2020      	movs	r0, #32
10002184:	3601      	adds	r6, #1
10002186:	47b8      	blx	r7
10002188:	45b2      	cmp	sl, r6
1000218a:	d8f6      	bhi.n	1000217a <_etoa+0x172>
1000218c:	f10b 33ff 	add.w	r3, fp, #4294967295
10002190:	4453      	add	r3, sl
10002192:	f1cb 0201 	rsb	r2, fp, #1
10002196:	eba3 0308 	sub.w	r3, r3, r8
1000219a:	4442      	add	r2, r8
1000219c:	4592      	cmp	sl, r2
1000219e:	bf38      	it	cc
100021a0:	2300      	movcc	r3, #0
100021a2:	f108 0801 	add.w	r8, r8, #1
100021a6:	4498      	add	r8, r3
100021a8:	4640      	mov	r0, r8
100021aa:	b01f      	add	sp, #124	@ 0x7c
100021ac:	e8bd 8ff0 	ldmia.w	sp!, {r4, r5, r6, r7, r8, r9, sl, fp, pc}
100021b0:	465a      	mov	r2, fp
100021b2:	4638      	mov	r0, r7
100021b4:	e9cd 4528 	strd	r4, r5, [sp, #160]	@ 0xa0
100021b8:	e9cd a62b 	strd	sl, r6, [sp, #172]	@ 0xac
100021bc:	9c0e      	ldr	r4, [sp, #56]	@ 0x38
100021be:	9b09      	ldr	r3, [sp, #36]	@ 0x24
100021c0:	9908      	ldr	r1, [sp, #32]
100021c2:	942a      	str	r4, [sp, #168]	@ 0xa8
100021c4:	b01f      	add	sp, #124	@ 0x7c
100021c6:	e8bd 4ff0 	ldmia.w	sp!, {r4, r5, r6, r7, r8, r9, sl, fp, lr}
100021ca:	f7ff bcbd 	b.w	10001b48 <_ftoa>
100021ce:	ea58 0309 	orrs.w	r3, r8, r9
100021d2:	d12b      	bne.n	1000222c <_etoa+0x224>
100021d4:	2a00      	cmp	r2, #0
100021d6:	f43f af62 	beq.w	1000209e <_etoa+0x96>
100021da:	2300      	movs	r3, #0
100021dc:	930c      	str	r3, [sp, #48]	@ 0x30
100021de:	9b0e      	ldr	r3, [sp, #56]	@ 0x38
100021e0:	9a0c      	ldr	r2, [sp, #48]	@ 0x30
100021e2:	4293      	cmp	r3, r2
100021e4:	f300 81b9 	bgt.w	1000255a <_etoa+0x552>
100021e8:	f04f 0800 	mov.w	r8, #0
100021ec:	4620      	mov	r0, r4
100021ee:	4629      	mov	r1, r5
100021f0:	2200      	movs	r2, #0
100021f2:	2300      	movs	r3, #0
100021f4:	f7ff fb18 	bl	10001828 <__wrap___aeabi_dcmplt>
100021f8:	2800      	cmp	r0, #0
100021fa:	f040 8113 	bne.w	10002424 <_etoa+0x41c>
100021fe:	ed9d 7b0a 	vldr	d7, [sp, #40]	@ 0x28
10002202:	f426 6600 	bic.w	r6, r6, #2048	@ 0x800
10002206:	f446 6680 	orr.w	r6, r6, #1024	@ 0x400
1000220a:	ed8d 7b28 	vstr	d7, [sp, #160]	@ 0xa0
1000220e:	465a      	mov	r2, fp
10002210:	4638      	mov	r0, r7
10002212:	e9cd 8a2a 	strd	r8, sl, [sp, #168]	@ 0xa8
10002216:	9b09      	ldr	r3, [sp, #36]	@ 0x24
10002218:	9908      	ldr	r1, [sp, #32]
1000221a:	962c      	str	r6, [sp, #176]	@ 0xb0
1000221c:	e7d2      	b.n	100021c4 <_etoa+0x1bc>
1000221e:	bf00      	nop
10002220:	7fefffff 	.word	0x7fefffff
10002224:	cccccccd 	.word	0xcccccccd
10002228:	2306      	movs	r3, #6
1000222a:	930e      	str	r3, [sp, #56]	@ 0x38
1000222c:	f3c9 500a 	ubfx	r0, r9, #20, #11
10002230:	f2a0 30ff 	subw	r0, r0, #1023	@ 0x3ff
10002234:	f7ff fa9e 	bl	10001774 <__wrap___aeabi_i2d>
10002238:	a3c1      	add	r3, pc, #772	@ (adr r3, 10002540 <_etoa+0x538>)
1000223a:	e9d3 2300 	ldrd	r2, r3, [r3]
1000223e:	f7ff fa25 	bl	1000168c <__wrap___aeabi_dmul>
10002242:	a3c1      	add	r3, pc, #772	@ (adr r3, 10002548 <_etoa+0x540>)
10002244:	e9d3 2300 	ldrd	r2, r3, [r3]
10002248:	f7ff f9f8 	bl	1000163c <__wrap___aeabi_dadd>
1000224c:	f3c9 0913 	ubfx	r9, r9, #0, #20
10002250:	e9cd 010c 	strd	r0, r1, [sp, #48]	@ 0x30
10002254:	f049 517f 	orr.w	r1, r9, #1069547520	@ 0x3fc00000
10002258:	4640      	mov	r0, r8
1000225a:	2200      	movs	r2, #0
1000225c:	4bb2      	ldr	r3, [pc, #712]	@ (10002528 <_etoa+0x520>)
1000225e:	f441 1140 	orr.w	r1, r1, #3145728	@ 0x300000
10002262:	f7ff f9ff 	bl	10001664 <__wrap___aeabi_dsub>
10002266:	a3a4      	add	r3, pc, #656	@ (adr r3, 100024f8 <_etoa+0x4f0>)
10002268:	e9d3 2300 	ldrd	r2, r3, [r3]
1000226c:	f7ff fa0e 	bl	1000168c <__wrap___aeabi_dmul>
10002270:	4602      	mov	r2, r0
10002272:	460b      	mov	r3, r1
10002274:	e9dd 010c 	ldrd	r0, r1, [sp, #48]	@ 0x30
10002278:	f7ff f9e0 	bl	1000163c <__wrap___aeabi_dadd>
1000227c:	f7ff fa9e 	bl	100017bc <__wrap___aeabi_d2iz>
10002280:	900c      	str	r0, [sp, #48]	@ 0x30
10002282:	f7ff fa77 	bl	10001774 <__wrap___aeabi_i2d>
10002286:	a39e      	add	r3, pc, #632	@ (adr r3, 10002500 <_etoa+0x4f8>)
10002288:	e9d3 2300 	ldrd	r2, r3, [r3]
1000228c:	4680      	mov	r8, r0
1000228e:	4689      	mov	r9, r1
10002290:	f7ff f9fc 	bl	1000168c <__wrap___aeabi_dmul>
10002294:	2200      	movs	r2, #0
10002296:	4ba5      	ldr	r3, [pc, #660]	@ (1000252c <_etoa+0x524>)
10002298:	f7ff f9d0 	bl	1000163c <__wrap___aeabi_dadd>
1000229c:	f7ff fa8e 	bl	100017bc <__wrap___aeabi_d2iz>
100022a0:	4603      	mov	r3, r0
100022a2:	4649      	mov	r1, r9
100022a4:	4640      	mov	r0, r8
100022a6:	9312      	str	r3, [sp, #72]	@ 0x48
100022a8:	a397      	add	r3, pc, #604	@ (adr r3, 10002508 <_etoa+0x500>)
100022aa:	e9d3 2300 	ldrd	r2, r3, [r3]
100022ae:	f7ff f9ed 	bl	1000168c <__wrap___aeabi_dmul>
100022b2:	4680      	mov	r8, r0
100022b4:	9812      	ldr	r0, [sp, #72]	@ 0x48
100022b6:	4689      	mov	r9, r1
100022b8:	f7ff fa5c 	bl	10001774 <__wrap___aeabi_i2d>
100022bc:	a394      	add	r3, pc, #592	@ (adr r3, 10002510 <_etoa+0x508>)
100022be:	e9d3 2300 	ldrd	r2, r3, [r3]
100022c2:	f7ff f9e3 	bl	1000168c <__wrap___aeabi_dmul>
100022c6:	4602      	mov	r2, r0
100022c8:	460b      	mov	r3, r1
100022ca:	4640      	mov	r0, r8
100022cc:	4649      	mov	r1, r9
100022ce:	f7ff f9c9 	bl	10001664 <__wrap___aeabi_dsub>
100022d2:	4602      	mov	r2, r0
100022d4:	460b      	mov	r3, r1
100022d6:	4680      	mov	r8, r0
100022d8:	4689      	mov	r9, r1
100022da:	f7ff f9d7 	bl	1000168c <__wrap___aeabi_dmul>
100022de:	4642      	mov	r2, r8
100022e0:	464b      	mov	r3, r9
100022e2:	e9cd 0110 	strd	r0, r1, [sp, #64]	@ 0x40
100022e6:	4640      	mov	r0, r8
100022e8:	4649      	mov	r1, r9
100022ea:	f7ff f9a7 	bl	1000163c <__wrap___aeabi_dadd>
100022ee:	2200      	movs	r2, #0
100022f0:	e9cd 0114 	strd	r0, r1, [sp, #80]	@ 0x50
100022f4:	e9dd 0110 	ldrd	r0, r1, [sp, #64]	@ 0x40
100022f8:	4b8d      	ldr	r3, [pc, #564]	@ (10002530 <_etoa+0x528>)
100022fa:	f7ff f9ed 	bl	100016d8 <__wrap___aeabi_ddiv>
100022fe:	2200      	movs	r2, #0
10002300:	4b8c      	ldr	r3, [pc, #560]	@ (10002534 <_etoa+0x52c>)
10002302:	f7ff f99b 	bl	1000163c <__wrap___aeabi_dadd>
10002306:	4602      	mov	r2, r0
10002308:	460b      	mov	r3, r1
1000230a:	e9dd 0110 	ldrd	r0, r1, [sp, #64]	@ 0x40
1000230e:	f7ff f9e3 	bl	100016d8 <__wrap___aeabi_ddiv>
10002312:	2200      	movs	r2, #0
10002314:	4b88      	ldr	r3, [pc, #544]	@ (10002538 <_etoa+0x530>)
10002316:	f7ff f991 	bl	1000163c <__wrap___aeabi_dadd>
1000231a:	4602      	mov	r2, r0
1000231c:	460b      	mov	r3, r1
1000231e:	e9dd 0110 	ldrd	r0, r1, [sp, #64]	@ 0x40
10002322:	f7ff f9d9 	bl	100016d8 <__wrap___aeabi_ddiv>
10002326:	4642      	mov	r2, r8
10002328:	464b      	mov	r3, r9
1000232a:	4680      	mov	r8, r0
1000232c:	4689      	mov	r9, r1
1000232e:	2000      	movs	r0, #0
10002330:	f04f 4180 	mov.w	r1, #1073741824	@ 0x40000000
10002334:	f7ff f996 	bl	10001664 <__wrap___aeabi_dsub>
10002338:	4602      	mov	r2, r0
1000233a:	460b      	mov	r3, r1
1000233c:	4640      	mov	r0, r8
1000233e:	4649      	mov	r1, r9
10002340:	f7ff f97c 	bl	1000163c <__wrap___aeabi_dadd>
10002344:	4602      	mov	r2, r0
10002346:	460b      	mov	r3, r1
10002348:	e9dd 0114 	ldrd	r0, r1, [sp, #80]	@ 0x50
1000234c:	f7ff f9c4 	bl	100016d8 <__wrap___aeabi_ddiv>
10002350:	2200      	movs	r2, #0
10002352:	4b7a      	ldr	r3, [pc, #488]	@ (1000253c <_etoa+0x534>)
10002354:	f7ff f972 	bl	1000163c <__wrap___aeabi_dadd>
10002358:	9b12      	ldr	r3, [sp, #72]	@ 0x48
1000235a:	2200      	movs	r2, #0
1000235c:	f203 3cff 	addw	ip, r3, #1023	@ 0x3ff
10002360:	ea4f 530c 	mov.w	r3, ip, lsl #20
10002364:	f7ff f992 	bl	1000168c <__wrap___aeabi_dmul>
10002368:	4680      	mov	r8, r0
1000236a:	4689      	mov	r9, r1
1000236c:	e9dd 010a 	ldrd	r0, r1, [sp, #40]	@ 0x28
10002370:	4642      	mov	r2, r8
10002372:	464b      	mov	r3, r9
10002374:	f7ff fa58 	bl	10001828 <__wrap___aeabi_dcmplt>
10002378:	b150      	cbz	r0, 10002390 <_etoa+0x388>
1000237a:	9b0c      	ldr	r3, [sp, #48]	@ 0x30
1000237c:	4640      	mov	r0, r8
1000237e:	3b01      	subs	r3, #1
10002380:	4649      	mov	r1, r9
10002382:	930c      	str	r3, [sp, #48]	@ 0x30
10002384:	2200      	movs	r2, #0
10002386:	4b6b      	ldr	r3, [pc, #428]	@ (10002534 <_etoa+0x52c>)
10002388:	f7ff f9a6 	bl	100016d8 <__wrap___aeabi_ddiv>
1000238c:	4680      	mov	r8, r0
1000238e:	4689      	mov	r9, r1
10002390:	9a0c      	ldr	r2, [sp, #48]	@ 0x30
10002392:	4643      	mov	r3, r8
10002394:	3263      	adds	r2, #99	@ 0x63
10002396:	2ac6      	cmp	r2, #198	@ 0xc6
10002398:	f006 0202 	and.w	r2, r6, #2
1000239c:	9210      	str	r2, [sp, #64]	@ 0x40
1000239e:	4649      	mov	r1, r9
100023a0:	9a0f      	ldr	r2, [sp, #60]	@ 0x3c
100023a2:	d82c      	bhi.n	100023fe <_etoa+0x3f6>
100023a4:	2a00      	cmp	r2, #0
100023a6:	d05e      	beq.n	10002466 <_etoa+0x45e>
100023a8:	2204      	movs	r2, #4
100023aa:	9212      	str	r2, [sp, #72]	@ 0x48
100023ac:	430b      	orrs	r3, r1
100023ae:	f43f af16 	beq.w	100021de <_etoa+0x1d6>
100023b2:	e9dd 010a 	ldrd	r0, r1, [sp, #40]	@ 0x28
100023b6:	a358      	add	r3, pc, #352	@ (adr r3, 10002518 <_etoa+0x510>)
100023b8:	e9d3 2300 	ldrd	r2, r3, [r3]
100023bc:	f7ff fa5c 	bl	10001878 <__wrap___aeabi_dcmpge>
100023c0:	b148      	cbz	r0, 100023d6 <_etoa+0x3ce>
100023c2:	e9dd 010a 	ldrd	r0, r1, [sp, #40]	@ 0x28
100023c6:	a356      	add	r3, pc, #344	@ (adr r3, 10002520 <_etoa+0x518>)
100023c8:	e9d3 2300 	ldrd	r2, r3, [r3]
100023cc:	f7ff fa2c 	bl	10001828 <__wrap___aeabi_dcmplt>
100023d0:	2800      	cmp	r0, #0
100023d2:	f47f af04 	bne.w	100021de <_etoa+0x1d6>
100023d6:	9b0e      	ldr	r3, [sp, #56]	@ 0x38
100023d8:	2b00      	cmp	r3, #0
100023da:	d050      	beq.n	1000247e <_etoa+0x476>
100023dc:	9a13      	ldr	r2, [sp, #76]	@ 0x4c
100023de:	2a00      	cmp	r2, #0
100023e0:	d07d      	beq.n	100024de <_etoa+0x4d6>
100023e2:	3b01      	subs	r3, #1
100023e4:	930e      	str	r3, [sp, #56]	@ 0x38
100023e6:	9b12      	ldr	r3, [sp, #72]	@ 0x48
100023e8:	459a      	cmp	sl, r3
100023ea:	d905      	bls.n	100023f8 <_etoa+0x3f0>
100023ec:	9b10      	ldr	r3, [sp, #64]	@ 0x40
100023ee:	2b00      	cmp	r3, #0
100023f0:	f000 80ae 	beq.w	10002550 <_etoa+0x548>
100023f4:	2302      	movs	r3, #2
100023f6:	9310      	str	r3, [sp, #64]	@ 0x40
100023f8:	2300      	movs	r3, #0
100023fa:	930f      	str	r3, [sp, #60]	@ 0x3c
100023fc:	e044      	b.n	10002488 <_etoa+0x480>
100023fe:	bb22      	cbnz	r2, 1000244a <_etoa+0x442>
10002400:	f1ba 0f05 	cmp.w	sl, #5
10002404:	d94f      	bls.n	100024a6 <_etoa+0x49e>
10002406:	f006 0302 	and.w	r3, r6, #2
1000240a:	2b00      	cmp	r3, #0
1000240c:	d149      	bne.n	100024a2 <_etoa+0x49a>
1000240e:	2305      	movs	r3, #5
10002410:	9312      	str	r3, [sp, #72]	@ 0x48
10002412:	f1aa 0305 	sub.w	r3, sl, #5
10002416:	930f      	str	r3, [sp, #60]	@ 0x3c
10002418:	e03a      	b.n	10002490 <_etoa+0x488>
1000241a:	f105 4300 	add.w	r3, r5, #2147483648	@ 0x80000000
1000241e:	940a      	str	r4, [sp, #40]	@ 0x28
10002420:	930b      	str	r3, [sp, #44]	@ 0x2c
10002422:	e627      	b.n	10002074 <_etoa+0x6c>
10002424:	f426 6600 	bic.w	r6, r6, #2048	@ 0x800
10002428:	f446 6680 	orr.w	r6, r6, #1024	@ 0x400
1000242c:	4638      	mov	r0, r7
1000242e:	962c      	str	r6, [sp, #176]	@ 0xb0
10002430:	e9dd 670a 	ldrd	r6, r7, [sp, #40]	@ 0x28
10002434:	4634      	mov	r4, r6
10002436:	f107 4500 	add.w	r5, r7, #2147483648	@ 0x80000000
1000243a:	465a      	mov	r2, fp
1000243c:	e9cd 8a2a 	strd	r8, sl, [sp, #168]	@ 0xa8
10002440:	e9cd 4528 	strd	r4, r5, [sp, #160]	@ 0xa0
10002444:	9b09      	ldr	r3, [sp, #36]	@ 0x24
10002446:	9908      	ldr	r1, [sp, #32]
10002448:	e6bc      	b.n	100021c4 <_etoa+0x1bc>
1000244a:	2205      	movs	r2, #5
1000244c:	9212      	str	r2, [sp, #72]	@ 0x48
1000244e:	e7ad      	b.n	100023ac <_etoa+0x3a4>
10002450:	2300      	movs	r3, #0
10002452:	2202      	movs	r2, #2
10002454:	e9cd 320f 	strd	r3, r2, [sp, #60]	@ 0x3c
10002458:	2204      	movs	r2, #4
1000245a:	930c      	str	r3, [sp, #48]	@ 0x30
1000245c:	9212      	str	r2, [sp, #72]	@ 0x48
1000245e:	e62c      	b.n	100020ba <_etoa+0xb2>
10002460:	f04f 0805 	mov.w	r8, #5
10002464:	e6c2      	b.n	100021ec <_etoa+0x1e4>
10002466:	f1ba 0f04 	cmp.w	sl, #4
1000246a:	d91f      	bls.n	100024ac <_etoa+0x4a4>
1000246c:	9b10      	ldr	r3, [sp, #64]	@ 0x40
1000246e:	2b00      	cmp	r3, #0
10002470:	d178      	bne.n	10002564 <_etoa+0x55c>
10002472:	2304      	movs	r3, #4
10002474:	9312      	str	r3, [sp, #72]	@ 0x48
10002476:	f1aa 0304 	sub.w	r3, sl, #4
1000247a:	930f      	str	r3, [sp, #60]	@ 0x3c
1000247c:	e004      	b.n	10002488 <_etoa+0x480>
1000247e:	9b12      	ldr	r3, [sp, #72]	@ 0x48
10002480:	459a      	cmp	sl, r3
10002482:	d831      	bhi.n	100024e8 <_etoa+0x4e0>
10002484:	9b0e      	ldr	r3, [sp, #56]	@ 0x38
10002486:	930f      	str	r3, [sp, #60]	@ 0x3c
10002488:	9b0c      	ldr	r3, [sp, #48]	@ 0x30
1000248a:	2b00      	cmp	r3, #0
1000248c:	f43f ae15 	beq.w	100020ba <_etoa+0xb2>
10002490:	e9dd 010a 	ldrd	r0, r1, [sp, #40]	@ 0x28
10002494:	4642      	mov	r2, r8
10002496:	464b      	mov	r3, r9
10002498:	f7ff f91e 	bl	100016d8 <__wrap___aeabi_ddiv>
1000249c:	e9cd 010a 	strd	r0, r1, [sp, #40]	@ 0x28
100024a0:	e60b      	b.n	100020ba <_etoa+0xb2>
100024a2:	2302      	movs	r3, #2
100024a4:	9310      	str	r3, [sp, #64]	@ 0x40
100024a6:	2305      	movs	r3, #5
100024a8:	9312      	str	r3, [sp, #72]	@ 0x48
100024aa:	e7f1      	b.n	10002490 <_etoa+0x488>
100024ac:	2304      	movs	r3, #4
100024ae:	9312      	str	r3, [sp, #72]	@ 0x48
100024b0:	e7ea      	b.n	10002488 <_etoa+0x480>
100024b2:	e9dd 450a 	ldrd	r4, r5, [sp, #40]	@ 0x28
100024b6:	46a0      	mov	r8, r4
100024b8:	9b0f      	ldr	r3, [sp, #60]	@ 0x3c
100024ba:	f105 4900 	add.w	r9, r5, #2147483648	@ 0x80000000
100024be:	9303      	str	r3, [sp, #12]
100024c0:	9b0e      	ldr	r3, [sp, #56]	@ 0x38
100024c2:	465a      	mov	r2, fp
100024c4:	9302      	str	r3, [sp, #8]
100024c6:	f426 6300 	bic.w	r3, r6, #2048	@ 0x800
100024ca:	9304      	str	r3, [sp, #16]
100024cc:	4638      	mov	r0, r7
100024ce:	e9cd 8900 	strd	r8, r9, [sp]
100024d2:	9b09      	ldr	r3, [sp, #36]	@ 0x24
100024d4:	9908      	ldr	r1, [sp, #32]
100024d6:	f7ff fb37 	bl	10001b48 <_ftoa>
100024da:	4602      	mov	r2, r0
100024dc:	e608      	b.n	100020f0 <_etoa+0xe8>
100024de:	9b12      	ldr	r3, [sp, #72]	@ 0x48
100024e0:	459a      	cmp	sl, r3
100024e2:	d844      	bhi.n	1000256e <_etoa+0x566>
100024e4:	920f      	str	r2, [sp, #60]	@ 0x3c
100024e6:	e7cf      	b.n	10002488 <_etoa+0x480>
100024e8:	9b10      	ldr	r3, [sp, #64]	@ 0x40
100024ea:	b38b      	cbz	r3, 10002550 <_etoa+0x548>
100024ec:	9b0e      	ldr	r3, [sp, #56]	@ 0x38
100024ee:	930f      	str	r3, [sp, #60]	@ 0x3c
100024f0:	2302      	movs	r3, #2
100024f2:	9310      	str	r3, [sp, #64]	@ 0x40
100024f4:	e7c8      	b.n	10002488 <_etoa+0x480>
100024f6:	bf00      	nop
100024f8:	636f4361 	.word	0x636f4361
100024fc:	3fd287a7 	.word	0x3fd287a7
10002500:	0979a371 	.word	0x0979a371
10002504:	400a934f 	.word	0x400a934f
10002508:	bbb55516 	.word	0xbbb55516
1000250c:	40026bb1 	.word	0x40026bb1
10002510:	fefa39ef 	.word	0xfefa39ef
10002514:	3fe62e42 	.word	0x3fe62e42
10002518:	eb1c432d 	.word	0xeb1c432d
1000251c:	3f1a36e2 	.word	0x3f1a36e2
10002520:	00000000 	.word	0x00000000
10002524:	412e8480 	.word	0x412e8480
10002528:	3ff80000 	.word	0x3ff80000
1000252c:	3fe00000 	.word	0x3fe00000
10002530:	402c0000 	.word	0x402c0000
10002534:	40240000 	.word	0x40240000
10002538:	40180000 	.word	0x40180000
1000253c:	3ff00000 	.word	0x3ff00000
10002540:	509f79fb 	.word	0x509f79fb
10002544:	3fd34413 	.word	0x3fd34413
10002548:	8b60c8b3 	.word	0x8b60c8b3
1000254c:	3fc68a28 	.word	0x3fc68a28
10002550:	9b12      	ldr	r3, [sp, #72]	@ 0x48
10002552:	ebaa 0303 	sub.w	r3, sl, r3
10002556:	930f      	str	r3, [sp, #60]	@ 0x3c
10002558:	e796      	b.n	10002488 <_etoa+0x480>
1000255a:	eba3 0802 	sub.w	r8, r3, r2
1000255e:	f108 38ff 	add.w	r8, r8, #4294967295
10002562:	e643      	b.n	100021ec <_etoa+0x1e4>
10002564:	2304      	movs	r3, #4
10002566:	9312      	str	r3, [sp, #72]	@ 0x48
10002568:	2302      	movs	r3, #2
1000256a:	9310      	str	r3, [sp, #64]	@ 0x40
1000256c:	e78c      	b.n	10002488 <_etoa+0x480>
1000256e:	9b10      	ldr	r3, [sp, #64]	@ 0x40
10002570:	2b00      	cmp	r3, #0
10002572:	d0ed      	beq.n	10002550 <_etoa+0x548>
10002574:	2302      	movs	r3, #2
10002576:	920f      	str	r2, [sp, #60]	@ 0x3c
10002578:	9310      	str	r3, [sp, #64]	@ 0x40
1000257a:	e785      	b.n	10002488 <_etoa+0x480>

1000257c <_vsnprintf>:
1000257c:	e92d 4ff0 	stmdb	sp!, {r4, r5, r6, r7, r8, r9, sl, fp, lr}
10002580:	b09b      	sub	sp, #108	@ 0x6c
10002582:	9c24      	ldr	r4, [sp, #144]	@ 0x90
10002584:	4d95      	ldr	r5, [pc, #596]	@ (100027dc <_vsnprintf+0x260>)
10002586:	940a      	str	r4, [sp, #40]	@ 0x28
10002588:	4c95      	ldr	r4, [pc, #596]	@ (100027e0 <_vsnprintf+0x264>)
1000258a:	f1b1 0a00 	subs.w	sl, r1, #0
1000258e:	bf18      	it	ne
10002590:	4683      	movne	fp, r0
10002592:	6025      	str	r5, [r4, #0]
10002594:	7818      	ldrb	r0, [r3, #0]
10002596:	4c93      	ldr	r4, [pc, #588]	@ (100027e4 <_vsnprintf+0x268>)
10002598:	4691      	mov	r9, r2
1000259a:	bf08      	it	eq
1000259c:	46a3      	moveq	fp, r4
1000259e:	9309      	str	r3, [sp, #36]	@ 0x24
100025a0:	2800      	cmp	r0, #0
100025a2:	f000 8293 	beq.w	10002acc <_vsnprintf+0x550>
100025a6:	f04f 0800 	mov.w	r8, #0
100025aa:	e00a      	b.n	100025c2 <_vsnprintf+0x46>
100025ac:	4642      	mov	r2, r8
100025ae:	464b      	mov	r3, r9
100025b0:	4651      	mov	r1, sl
100025b2:	f108 0801 	add.w	r8, r8, #1
100025b6:	47d8      	blx	fp
100025b8:	9b09      	ldr	r3, [sp, #36]	@ 0x24
100025ba:	7818      	ldrb	r0, [r3, #0]
100025bc:	2800      	cmp	r0, #0
100025be:	f000 80ce 	beq.w	1000275e <_vsnprintf+0x1e2>
100025c2:	9b09      	ldr	r3, [sp, #36]	@ 0x24
100025c4:	2825      	cmp	r0, #37	@ 0x25
100025c6:	f103 0301 	add.w	r3, r3, #1
100025ca:	9309      	str	r3, [sp, #36]	@ 0x24
100025cc:	d1ee      	bne.n	100025ac <_vsnprintf+0x30>
100025ce:	461c      	mov	r4, r3
100025d0:	2300      	movs	r3, #0
100025d2:	4622      	mov	r2, r4
100025d4:	f812 0b01 	ldrb.w	r0, [r2], #1
100025d8:	f1a0 0120 	sub.w	r1, r0, #32
100025dc:	2910      	cmp	r1, #16
100025de:	d80a      	bhi.n	100025f6 <_vsnprintf+0x7a>
100025e0:	e8df f001 	tbb	[pc, r1]
100025e4:	3c090940 	.word	0x3c090940
100025e8:	09090909 	.word	0x09090909
100025ec:	38090909 	.word	0x38090909
100025f0:	09093409 	.word	0x09093409
100025f4:	30          	.byte	0x30
100025f5:	00          	.byte	0x00
100025f6:	f1a0 0130 	sub.w	r1, r0, #48	@ 0x30
100025fa:	2909      	cmp	r1, #9
100025fc:	9409      	str	r4, [sp, #36]	@ 0x24
100025fe:	f240 808a 	bls.w	10002716 <_vsnprintf+0x19a>
10002602:	282a      	cmp	r0, #42	@ 0x2a
10002604:	f000 80f0 	beq.w	100027e8 <_vsnprintf+0x26c>
10002608:	2500      	movs	r5, #0
1000260a:	282e      	cmp	r0, #46	@ 0x2e
1000260c:	f000 8096 	beq.w	1000273c <_vsnprintf+0x1c0>
10002610:	2600      	movs	r6, #0
10002612:	f1a0 0168 	sub.w	r1, r0, #104	@ 0x68
10002616:	2912      	cmp	r1, #18
10002618:	d82d      	bhi.n	10002676 <_vsnprintf+0xfa>
1000261a:	e8df f011 	tbh	[pc, r1, lsl #1]
1000261e:	0149      	.short	0x0149
10002620:	0143002c 	.word	0x0143002c
10002624:	0138002c 	.word	0x0138002c
10002628:	002c002c 	.word	0x002c002c
1000262c:	002c002c 	.word	0x002c002c
10002630:	002c002c 	.word	0x002c002c
10002634:	0027002c 	.word	0x0027002c
10002638:	002c002c 	.word	0x002c002c
1000263c:	002c002c 	.word	0x002c002c
10002640:	0027002c 	.word	0x0027002c
10002644:	4614      	mov	r4, r2
10002646:	f043 0301 	orr.w	r3, r3, #1
1000264a:	e7c2      	b.n	100025d2 <_vsnprintf+0x56>
1000264c:	4614      	mov	r4, r2
1000264e:	f043 0302 	orr.w	r3, r3, #2
10002652:	e7be      	b.n	100025d2 <_vsnprintf+0x56>
10002654:	4614      	mov	r4, r2
10002656:	f043 0304 	orr.w	r3, r3, #4
1000265a:	e7ba      	b.n	100025d2 <_vsnprintf+0x56>
1000265c:	4614      	mov	r4, r2
1000265e:	f043 0310 	orr.w	r3, r3, #16
10002662:	e7b6      	b.n	100025d2 <_vsnprintf+0x56>
10002664:	4614      	mov	r4, r2
10002666:	f043 0308 	orr.w	r3, r3, #8
1000266a:	e7b2      	b.n	100025d2 <_vsnprintf+0x56>
1000266c:	9909      	ldr	r1, [sp, #36]	@ 0x24
1000266e:	7848      	ldrb	r0, [r1, #1]
10002670:	f443 7380 	orr.w	r3, r3, #256	@ 0x100
10002674:	3201      	adds	r2, #1
10002676:	2867      	cmp	r0, #103	@ 0x67
10002678:	9209      	str	r2, [sp, #36]	@ 0x24
1000267a:	d87e      	bhi.n	1000277a <_vsnprintf+0x1fe>
1000267c:	2824      	cmp	r0, #36	@ 0x24
1000267e:	f240 80c1 	bls.w	10002804 <_vsnprintf+0x288>
10002682:	f1a0 0225 	sub.w	r2, r0, #37	@ 0x25
10002686:	2a42      	cmp	r2, #66	@ 0x42
10002688:	f200 80bc 	bhi.w	10002804 <_vsnprintf+0x288>
1000268c:	e8df f012 	tbh	[pc, r2, lsl #1]
10002690:	00ba0150 	.word	0x00ba0150
10002694:	00ba00ba 	.word	0x00ba00ba
10002698:	00ba00ba 	.word	0x00ba00ba
1000269c:	00ba00ba 	.word	0x00ba00ba
100026a0:	00ba00ba 	.word	0x00ba00ba
100026a4:	00ba00ba 	.word	0x00ba00ba
100026a8:	00ba00ba 	.word	0x00ba00ba
100026ac:	00ba00ba 	.word	0x00ba00ba
100026b0:	00ba00ba 	.word	0x00ba00ba
100026b4:	00ba00ba 	.word	0x00ba00ba
100026b8:	00ba00ba 	.word	0x00ba00ba
100026bc:	00ba00ba 	.word	0x00ba00ba
100026c0:	00ba00ba 	.word	0x00ba00ba
100026c4:	00ba00ba 	.word	0x00ba00ba
100026c8:	00ba00ba 	.word	0x00ba00ba
100026cc:	00ba00ba 	.word	0x00ba00ba
100026d0:	01370119 	.word	0x01370119
100026d4:	00ba0119 	.word	0x00ba0119
100026d8:	00ba00ba 	.word	0x00ba00ba
100026dc:	00ba00ba 	.word	0x00ba00ba
100026e0:	00ba00ba 	.word	0x00ba00ba
100026e4:	00ba00ba 	.word	0x00ba00ba
100026e8:	00ba00ba 	.word	0x00ba00ba
100026ec:	00ba00ba 	.word	0x00ba00ba
100026f0:	00ba00ba 	.word	0x00ba00ba
100026f4:	01bc00ba 	.word	0x01bc00ba
100026f8:	00ba00ba 	.word	0x00ba00ba
100026fc:	00ba00ba 	.word	0x00ba00ba
10002700:	00ba00ba 	.word	0x00ba00ba
10002704:	00ba00ba 	.word	0x00ba00ba
10002708:	01bc00ba 	.word	0x01bc00ba
1000270c:	01bc0158 	.word	0x01bc0158
10002710:	01370119 	.word	0x01370119
10002714:	0119      	.short	0x0119
10002716:	2500      	movs	r5, #0
10002718:	e000      	b.n	1000271c <_vsnprintf+0x1a0>
1000271a:	3201      	adds	r2, #1
1000271c:	eb05 0585 	add.w	r5, r5, r5, lsl #2
10002720:	eb00 0545 	add.w	r5, r0, r5, lsl #1
10002724:	7810      	ldrb	r0, [r2, #0]
10002726:	3d30      	subs	r5, #48	@ 0x30
10002728:	f1a0 0130 	sub.w	r1, r0, #48	@ 0x30
1000272c:	2909      	cmp	r1, #9
1000272e:	d9f4      	bls.n	1000271a <_vsnprintf+0x19e>
10002730:	282e      	cmp	r0, #46	@ 0x2e
10002732:	9209      	str	r2, [sp, #36]	@ 0x24
10002734:	f102 0201 	add.w	r2, r2, #1
10002738:	f47f af6a 	bne.w	10002610 <_vsnprintf+0x94>
1000273c:	9909      	ldr	r1, [sp, #36]	@ 0x24
1000273e:	f443 6380 	orr.w	r3, r3, #1024	@ 0x400
10002742:	7848      	ldrb	r0, [r1, #1]
10002744:	4611      	mov	r1, r2
10002746:	f1a0 0630 	sub.w	r6, r0, #48	@ 0x30
1000274a:	2e09      	cmp	r6, #9
1000274c:	f240 8121 	bls.w	10002992 <_vsnprintf+0x416>
10002750:	282a      	cmp	r0, #42	@ 0x2a
10002752:	f000 812f 	beq.w	100029b4 <_vsnprintf+0x438>
10002756:	9209      	str	r2, [sp, #36]	@ 0x24
10002758:	2600      	movs	r6, #0
1000275a:	3201      	adds	r2, #1
1000275c:	e759      	b.n	10002612 <_vsnprintf+0x96>
1000275e:	4644      	mov	r4, r8
10002760:	45c1      	cmp	r9, r8
10002762:	d801      	bhi.n	10002768 <_vsnprintf+0x1ec>
10002764:	f109 38ff 	add.w	r8, r9, #4294967295
10002768:	464b      	mov	r3, r9
1000276a:	4642      	mov	r2, r8
1000276c:	4651      	mov	r1, sl
1000276e:	2000      	movs	r0, #0
10002770:	47d8      	blx	fp
10002772:	4620      	mov	r0, r4
10002774:	b01b      	add	sp, #108	@ 0x6c
10002776:	e8bd 8ff0 	ldmia.w	sp!, {r4, r5, r6, r7, r8, r9, sl, fp, pc}
1000277a:	f1a0 0269 	sub.w	r2, r0, #105	@ 0x69
1000277e:	b2d2      	uxtb	r2, r2
10002780:	2a0f      	cmp	r2, #15
10002782:	d83f      	bhi.n	10002804 <_vsnprintf+0x288>
10002784:	2101      	movs	r1, #1
10002786:	f249 0741 	movw	r7, #36929	@ 0x9041
1000278a:	4091      	lsls	r1, r2
1000278c:	4039      	ands	r1, r7
1000278e:	f040 80f3 	bne.w	10002978 <_vsnprintf+0x3fc>
10002792:	2a0a      	cmp	r2, #10
10002794:	d03d      	beq.n	10002812 <_vsnprintf+0x296>
10002796:	2a07      	cmp	r2, #7
10002798:	d134      	bne.n	10002804 <_vsnprintf+0x288>
1000279a:	9d0a      	ldr	r5, [sp, #40]	@ 0x28
1000279c:	f855 2b04 	ldr.w	r2, [r5], #4
100027a0:	2a00      	cmp	r2, #0
100027a2:	f000 8113 	beq.w	100029cc <_vsnprintf+0x450>
100027a6:	f043 0021 	orr.w	r0, r3, #33	@ 0x21
100027aa:	ab12      	add	r3, sp, #72	@ 0x48
100027ac:	461f      	mov	r7, r3
100027ae:	930b      	str	r3, [sp, #44]	@ 0x2c
100027b0:	e003      	b.n	100027ba <_vsnprintf+0x23e>
100027b2:	2920      	cmp	r1, #32
100027b4:	f000 8114 	beq.w	100029e0 <_vsnprintf+0x464>
100027b8:	461a      	mov	r2, r3
100027ba:	f002 040f 	and.w	r4, r2, #15
100027be:	4623      	mov	r3, r4
100027c0:	2c09      	cmp	r4, #9
100027c2:	bf94      	ite	ls
100027c4:	3330      	addls	r3, #48	@ 0x30
100027c6:	3337      	addhi	r3, #55	@ 0x37
100027c8:	2a0f      	cmp	r2, #15
100027ca:	f807 3b01 	strb.w	r3, [r7], #1
100027ce:	f101 0101 	add.w	r1, r1, #1
100027d2:	ea4f 1312 	mov.w	r3, r2, lsr #4
100027d6:	d8ec      	bhi.n	100027b2 <_vsnprintf+0x236>
100027d8:	e102      	b.n	100029e0 <_vsnprintf+0x464>
100027da:	bf00      	nop
100027dc:	1000257d 	.word	0x1000257d
100027e0:	2000080c 	.word	0x2000080c
100027e4:	100018c1 	.word	0x100018c1
100027e8:	990a      	ldr	r1, [sp, #40]	@ 0x28
100027ea:	9809      	ldr	r0, [sp, #36]	@ 0x24
100027ec:	f851 5b04 	ldr.w	r5, [r1], #4
100027f0:	7840      	ldrb	r0, [r0, #1]
100027f2:	2d00      	cmp	r5, #0
100027f4:	e9cd 2109 	strd	r2, r1, [sp, #36]	@ 0x24
100027f8:	bfbc      	itt	lt
100027fa:	f043 0302 	orrlt.w	r3, r3, #2
100027fe:	426d      	neglt	r5, r5
10002800:	3201      	adds	r2, #1
10002802:	e702      	b.n	1000260a <_vsnprintf+0x8e>
10002804:	4642      	mov	r2, r8
10002806:	464b      	mov	r3, r9
10002808:	4651      	mov	r1, sl
1000280a:	f108 0801 	add.w	r8, r8, #1
1000280e:	47d8      	blx	fp
10002810:	e6d2      	b.n	100025b8 <_vsnprintf+0x3c>
10002812:	990a      	ldr	r1, [sp, #40]	@ 0x28
10002814:	2e00      	cmp	r6, #0
10002816:	f851 7b04 	ldr.w	r7, [r1], #4
1000281a:	bf18      	it	ne
1000281c:	4632      	movne	r2, r6
1000281e:	7838      	ldrb	r0, [r7, #0]
10002820:	bf08      	it	eq
10002822:	f04f 32ff 	moveq.w	r2, #4294967295
10002826:	2800      	cmp	r0, #0
10002828:	f000 837b 	beq.w	10002f22 <_vsnprintf+0x9a6>
1000282c:	18bc      	adds	r4, r7, r2
1000282e:	46a4      	mov	ip, r4
10002830:	463a      	mov	r2, r7
10002832:	e004      	b.n	1000283e <_vsnprintf+0x2c2>
10002834:	f812 4f01 	ldrb.w	r4, [r2, #1]!
10002838:	2c00      	cmp	r4, #0
1000283a:	f000 813f 	beq.w	10002abc <_vsnprintf+0x540>
1000283e:	4594      	cmp	ip, r2
10002840:	d1f8      	bne.n	10002834 <_vsnprintf+0x2b8>
10002842:	4664      	mov	r4, ip
10002844:	1be4      	subs	r4, r4, r7
10002846:	055a      	lsls	r2, r3, #21
10002848:	f140 8122 	bpl.w	10002a90 <_vsnprintf+0x514>
1000284c:	42b4      	cmp	r4, r6
1000284e:	bf28      	it	cs
10002850:	4634      	movcs	r4, r6
10002852:	f013 0302 	ands.w	r3, r3, #2
10002856:	f000 8288 	beq.w	10002d6a <_vsnprintf+0x7ee>
1000285a:	2302      	movs	r3, #2
1000285c:	e9cd 510a 	strd	r5, r1, [sp, #40]	@ 0x28
10002860:	4642      	mov	r2, r8
10002862:	461d      	mov	r5, r3
10002864:	4446      	add	r6, r8
10002866:	e008      	b.n	1000287a <_vsnprintf+0x2fe>
10002868:	464b      	mov	r3, r9
1000286a:	4651      	mov	r1, sl
1000286c:	47d8      	blx	fp
1000286e:	f817 0f01 	ldrb.w	r0, [r7, #1]!
10002872:	f108 0801 	add.w	r8, r8, #1
10002876:	b110      	cbz	r0, 1000287e <_vsnprintf+0x302>
10002878:	4642      	mov	r2, r8
1000287a:	4546      	cmp	r6, r8
1000287c:	d1f4      	bne.n	10002868 <_vsnprintf+0x2ec>
1000287e:	462b      	mov	r3, r5
10002880:	990b      	ldr	r1, [sp, #44]	@ 0x2c
10002882:	9d0a      	ldr	r5, [sp, #40]	@ 0x28
10002884:	2b00      	cmp	r3, #0
10002886:	f040 8141 	bne.w	10002b0c <_vsnprintf+0x590>
1000288a:	910a      	str	r1, [sp, #40]	@ 0x28
1000288c:	e694      	b.n	100025b8 <_vsnprintf+0x3c>
1000288e:	9909      	ldr	r1, [sp, #36]	@ 0x24
10002890:	7848      	ldrb	r0, [r1, #1]
10002892:	286c      	cmp	r0, #108	@ 0x6c
10002894:	f47f aeec 	bne.w	10002670 <_vsnprintf+0xf4>
10002898:	460a      	mov	r2, r1
1000289a:	7888      	ldrb	r0, [r1, #2]
1000289c:	f443 7340 	orr.w	r3, r3, #768	@ 0x300
100028a0:	3203      	adds	r2, #3
100028a2:	e6e8      	b.n	10002676 <_vsnprintf+0xfa>
100028a4:	9909      	ldr	r1, [sp, #36]	@ 0x24
100028a6:	f443 7300 	orr.w	r3, r3, #512	@ 0x200
100028aa:	7848      	ldrb	r0, [r1, #1]
100028ac:	3201      	adds	r2, #1
100028ae:	e6e2      	b.n	10002676 <_vsnprintf+0xfa>
100028b0:	9909      	ldr	r1, [sp, #36]	@ 0x24
100028b2:	7848      	ldrb	r0, [r1, #1]
100028b4:	2868      	cmp	r0, #104	@ 0x68
100028b6:	f000 8103 	beq.w	10002ac0 <_vsnprintf+0x544>
100028ba:	f043 0380 	orr.w	r3, r3, #128	@ 0x80
100028be:	3201      	adds	r2, #1
100028c0:	e6d9      	b.n	10002676 <_vsnprintf+0xfa>
100028c2:	2867      	cmp	r0, #103	@ 0x67
100028c4:	f000 80d9 	beq.w	10002a7a <_vsnprintf+0x4fe>
100028c8:	2847      	cmp	r0, #71	@ 0x47
100028ca:	f000 80dc 	beq.w	10002a86 <_vsnprintf+0x50a>
100028ce:	2845      	cmp	r0, #69	@ 0x45
100028d0:	f000 80db 	beq.w	10002a8a <_vsnprintf+0x50e>
100028d4:	e9cd 5303 	strd	r5, r3, [sp, #12]
100028d8:	9b0a      	ldr	r3, [sp, #40]	@ 0x28
100028da:	9602      	str	r6, [sp, #8]
100028dc:	3307      	adds	r3, #7
100028de:	f023 0307 	bic.w	r3, r3, #7
100028e2:	461c      	mov	r4, r3
100028e4:	4642      	mov	r2, r8
100028e6:	e8f4 6702 	ldrd	r6, r7, [r4], #8
100028ea:	464b      	mov	r3, r9
100028ec:	4651      	mov	r1, sl
100028ee:	4658      	mov	r0, fp
100028f0:	e9cd 6700 	strd	r6, r7, [sp]
100028f4:	940a      	str	r4, [sp, #40]	@ 0x28
100028f6:	f7ff fb87 	bl	10002008 <_etoa>
100028fa:	4680      	mov	r8, r0
100028fc:	e65c      	b.n	100025b8 <_vsnprintf+0x3c>
100028fe:	2846      	cmp	r0, #70	@ 0x46
10002900:	bf08      	it	eq
10002902:	f043 0320 	orreq.w	r3, r3, #32
10002906:	e9cd 5303 	strd	r5, r3, [sp, #12]
1000290a:	9b0a      	ldr	r3, [sp, #40]	@ 0x28
1000290c:	9602      	str	r6, [sp, #8]
1000290e:	3307      	adds	r3, #7
10002910:	f023 0307 	bic.w	r3, r3, #7
10002914:	461c      	mov	r4, r3
10002916:	4642      	mov	r2, r8
10002918:	e8f4 6702 	ldrd	r6, r7, [r4], #8
1000291c:	464b      	mov	r3, r9
1000291e:	4651      	mov	r1, sl
10002920:	4658      	mov	r0, fp
10002922:	e9cd 6700 	strd	r6, r7, [sp]
10002926:	940a      	str	r4, [sp, #40]	@ 0x28
10002928:	f7ff f90e 	bl	10001b48 <_ftoa>
1000292c:	4680      	mov	r8, r0
1000292e:	e643      	b.n	100025b8 <_vsnprintf+0x3c>
10002930:	4642      	mov	r2, r8
10002932:	464b      	mov	r3, r9
10002934:	4651      	mov	r1, sl
10002936:	2025      	movs	r0, #37	@ 0x25
10002938:	f108 0801 	add.w	r8, r8, #1
1000293c:	47d8      	blx	fp
1000293e:	e63b      	b.n	100025b8 <_vsnprintf+0x3c>
10002940:	9a0a      	ldr	r2, [sp, #40]	@ 0x28
10002942:	0799      	lsls	r1, r3, #30
10002944:	f102 0404 	add.w	r4, r2, #4
10002948:	f108 0601 	add.w	r6, r8, #1
1000294c:	f140 80c6 	bpl.w	10002adc <_vsnprintf+0x560>
10002950:	7810      	ldrb	r0, [r2, #0]
10002952:	464b      	mov	r3, r9
10002954:	4642      	mov	r2, r8
10002956:	4651      	mov	r1, sl
10002958:	47d8      	blx	fp
1000295a:	2d01      	cmp	r5, #1
1000295c:	bf88      	it	hi
1000295e:	44a8      	addhi	r8, r5
10002960:	f240 81bd 	bls.w	10002cde <_vsnprintf+0x762>
10002964:	4632      	mov	r2, r6
10002966:	464b      	mov	r3, r9
10002968:	4651      	mov	r1, sl
1000296a:	2020      	movs	r0, #32
1000296c:	3601      	adds	r6, #1
1000296e:	47d8      	blx	fp
10002970:	4546      	cmp	r6, r8
10002972:	d1f7      	bne.n	10002964 <_vsnprintf+0x3e8>
10002974:	940a      	str	r4, [sp, #40]	@ 0x28
10002976:	e61f      	b.n	100025b8 <_vsnprintf+0x3c>
10002978:	286f      	cmp	r0, #111	@ 0x6f
1000297a:	f000 8081 	beq.w	10002a80 <_vsnprintf+0x504>
1000297e:	f240 8248 	bls.w	10002e12 <_vsnprintf+0x896>
10002982:	2878      	cmp	r0, #120	@ 0x78
10002984:	f000 8190 	beq.w	10002ca8 <_vsnprintf+0x72c>
10002988:	270a      	movs	r7, #10
1000298a:	f023 0310 	bic.w	r3, r3, #16
1000298e:	46bc      	mov	ip, r7
10002990:	e041      	b.n	10002a16 <_vsnprintf+0x49a>
10002992:	2600      	movs	r6, #0
10002994:	eb06 0686 	add.w	r6, r6, r6, lsl #2
10002998:	eb00 0046 	add.w	r0, r0, r6, lsl #1
1000299c:	f1a0 0630 	sub.w	r6, r0, #48	@ 0x30
100029a0:	f811 0f01 	ldrb.w	r0, [r1, #1]!
100029a4:	f1a0 0230 	sub.w	r2, r0, #48	@ 0x30
100029a8:	2a09      	cmp	r2, #9
100029aa:	d9f3      	bls.n	10002994 <_vsnprintf+0x418>
100029ac:	460a      	mov	r2, r1
100029ae:	9109      	str	r1, [sp, #36]	@ 0x24
100029b0:	3201      	adds	r2, #1
100029b2:	e62e      	b.n	10002612 <_vsnprintf+0x96>
100029b4:	e9dd 2109 	ldrd	r2, r1, [sp, #36]	@ 0x24
100029b8:	f851 6b04 	ldr.w	r6, [r1], #4
100029bc:	7890      	ldrb	r0, [r2, #2]
100029be:	3202      	adds	r2, #2
100029c0:	9209      	str	r2, [sp, #36]	@ 0x24
100029c2:	910a      	str	r1, [sp, #40]	@ 0x28
100029c4:	3201      	adds	r2, #1
100029c6:	ea26 76e6 	bic.w	r6, r6, r6, asr #31
100029ca:	e622      	b.n	10002612 <_vsnprintf+0x96>
100029cc:	f023 0010 	bic.w	r0, r3, #16
100029d0:	f413 6280 	ands.w	r2, r3, #1024	@ 0x400
100029d4:	f040 0021 	orr.w	r0, r0, #33	@ 0x21
100029d8:	f43f aee7 	beq.w	100027aa <_vsnprintf+0x22e>
100029dc:	ab12      	add	r3, sp, #72	@ 0x48
100029de:	930b      	str	r3, [sp, #44]	@ 0x2c
100029e0:	9b0b      	ldr	r3, [sp, #44]	@ 0x2c
100029e2:	9006      	str	r0, [sp, #24]
100029e4:	9300      	str	r3, [sp, #0]
100029e6:	2308      	movs	r3, #8
100029e8:	2010      	movs	r0, #16
100029ea:	9305      	str	r3, [sp, #20]
100029ec:	2300      	movs	r3, #0
100029ee:	4642      	mov	r2, r8
100029f0:	e9cd 3002 	strd	r3, r0, [sp, #8]
100029f4:	9101      	str	r1, [sp, #4]
100029f6:	464b      	mov	r3, r9
100029f8:	4651      	mov	r1, sl
100029fa:	4658      	mov	r0, fp
100029fc:	9604      	str	r6, [sp, #16]
100029fe:	f7fe ffaf 	bl	10001960 <_ntoa_format>
10002a02:	950a      	str	r5, [sp, #40]	@ 0x28
10002a04:	4680      	mov	r8, r0
10002a06:	e5d7      	b.n	100025b8 <_vsnprintf+0x3c>
10002a08:	2858      	cmp	r0, #88	@ 0x58
10002a0a:	d062      	beq.n	10002ad2 <_vsnprintf+0x556>
10002a0c:	2862      	cmp	r0, #98	@ 0x62
10002a0e:	f040 808f 	bne.w	10002b30 <_vsnprintf+0x5b4>
10002a12:	2702      	movs	r7, #2
10002a14:	46bc      	mov	ip, r7
10002a16:	f413 6080 	ands.w	r0, r3, #1024	@ 0x400
10002a1a:	f000 80dd 	beq.w	10002bd8 <_vsnprintf+0x65c>
10002a1e:	f023 030d 	bic.w	r3, r3, #13
10002a22:	f413 7200 	ands.w	r2, r3, #512	@ 0x200
10002a26:	f040 8181 	bne.w	10002d2c <_vsnprintf+0x7b0>
10002a2a:	990a      	ldr	r1, [sp, #40]	@ 0x28
10002a2c:	1d0f      	adds	r7, r1, #4
10002a2e:	f413 7180 	ands.w	r1, r3, #256	@ 0x100
10002a32:	f040 8237 	bne.w	10002ea4 <_vsnprintf+0x928>
10002a36:	065c      	lsls	r4, r3, #25
10002a38:	9a0a      	ldr	r2, [sp, #40]	@ 0x28
10002a3a:	f140 813b 	bpl.w	10002cb4 <_vsnprintf+0x738>
10002a3e:	7812      	ldrb	r2, [r2, #0]
10002a40:	2a00      	cmp	r2, #0
10002a42:	f040 814e 	bne.w	10002ce2 <_vsnprintf+0x766>
10002a46:	f023 0310 	bic.w	r3, r3, #16
10002a4a:	2800      	cmp	r0, #0
10002a4c:	f000 8149 	beq.w	10002ce2 <_vsnprintf+0x766>
10002a50:	4611      	mov	r1, r2
10002a52:	aa12      	add	r2, sp, #72	@ 0x48
10002a54:	920b      	str	r2, [sp, #44]	@ 0x2c
10002a56:	e9cd 5305 	strd	r5, r3, [sp, #20]
10002a5a:	e9cd c603 	strd	ip, r6, [sp, #12]
10002a5e:	9101      	str	r1, [sp, #4]
10002a60:	9b0b      	ldr	r3, [sp, #44]	@ 0x2c
10002a62:	4642      	mov	r2, r8
10002a64:	9300      	str	r3, [sp, #0]
10002a66:	2300      	movs	r3, #0
10002a68:	4651      	mov	r1, sl
10002a6a:	9302      	str	r3, [sp, #8]
10002a6c:	4658      	mov	r0, fp
10002a6e:	464b      	mov	r3, r9
10002a70:	f7fe ff76 	bl	10001960 <_ntoa_format>
10002a74:	970a      	str	r7, [sp, #40]	@ 0x28
10002a76:	4680      	mov	r8, r0
10002a78:	e59e      	b.n	100025b8 <_vsnprintf+0x3c>
10002a7a:	f443 6300 	orr.w	r3, r3, #2048	@ 0x800
10002a7e:	e729      	b.n	100028d4 <_vsnprintf+0x358>
10002a80:	2708      	movs	r7, #8
10002a82:	46bc      	mov	ip, r7
10002a84:	e7c7      	b.n	10002a16 <_vsnprintf+0x49a>
10002a86:	f443 6300 	orr.w	r3, r3, #2048	@ 0x800
10002a8a:	f043 0320 	orr.w	r3, r3, #32
10002a8e:	e721      	b.n	100028d4 <_vsnprintf+0x358>
10002a90:	f013 0302 	ands.w	r3, r3, #2
10002a94:	f000 818e 	beq.w	10002db4 <_vsnprintf+0x838>
10002a98:	2302      	movs	r3, #2
10002a9a:	950a      	str	r5, [sp, #40]	@ 0x28
10002a9c:	461e      	mov	r6, r3
10002a9e:	460d      	mov	r5, r1
10002aa0:	4642      	mov	r2, r8
10002aa2:	464b      	mov	r3, r9
10002aa4:	4651      	mov	r1, sl
10002aa6:	47d8      	blx	fp
10002aa8:	f817 0f01 	ldrb.w	r0, [r7, #1]!
10002aac:	f108 0801 	add.w	r8, r8, #1
10002ab0:	2800      	cmp	r0, #0
10002ab2:	d1f5      	bne.n	10002aa0 <_vsnprintf+0x524>
10002ab4:	4629      	mov	r1, r5
10002ab6:	4633      	mov	r3, r6
10002ab8:	9d0a      	ldr	r5, [sp, #40]	@ 0x28
10002aba:	e6e3      	b.n	10002884 <_vsnprintf+0x308>
10002abc:	1bd4      	subs	r4, r2, r7
10002abe:	e6c2      	b.n	10002846 <_vsnprintf+0x2ca>
10002ac0:	460a      	mov	r2, r1
10002ac2:	7888      	ldrb	r0, [r1, #2]
10002ac4:	f043 03c0 	orr.w	r3, r3, #192	@ 0xc0
10002ac8:	3203      	adds	r2, #3
10002aca:	e5d4      	b.n	10002676 <_vsnprintf+0xfa>
10002acc:	4604      	mov	r4, r0
10002ace:	4680      	mov	r8, r0
10002ad0:	e646      	b.n	10002760 <_vsnprintf+0x1e4>
10002ad2:	2710      	movs	r7, #16
10002ad4:	f043 0320 	orr.w	r3, r3, #32
10002ad8:	46bc      	mov	ip, r7
10002ada:	e79c      	b.n	10002a16 <_vsnprintf+0x49a>
10002adc:	2d01      	cmp	r5, #1
10002ade:	f240 80f8 	bls.w	10002cd2 <_vsnprintf+0x756>
10002ae2:	4646      	mov	r6, r8
10002ae4:	f108 37ff 	add.w	r7, r8, #4294967295
10002ae8:	442f      	add	r7, r5
10002aea:	4632      	mov	r2, r6
10002aec:	464b      	mov	r3, r9
10002aee:	4651      	mov	r1, sl
10002af0:	2020      	movs	r0, #32
10002af2:	3601      	adds	r6, #1
10002af4:	47d8      	blx	fp
10002af6:	42be      	cmp	r6, r7
10002af8:	d1f7      	bne.n	10002aea <_vsnprintf+0x56e>
10002afa:	9b0a      	ldr	r3, [sp, #40]	@ 0x28
10002afc:	4632      	mov	r2, r6
10002afe:	7818      	ldrb	r0, [r3, #0]
10002b00:	4651      	mov	r1, sl
10002b02:	464b      	mov	r3, r9
10002b04:	47d8      	blx	fp
10002b06:	44a8      	add	r8, r5
10002b08:	940a      	str	r4, [sp, #40]	@ 0x28
10002b0a:	e555      	b.n	100025b8 <_vsnprintf+0x3c>
10002b0c:	4646      	mov	r6, r8
10002b0e:	42a5      	cmp	r5, r4
10002b10:	f67f aebb 	bls.w	1000288a <_vsnprintf+0x30e>
10002b14:	44a8      	add	r8, r5
10002b16:	eba8 0804 	sub.w	r8, r8, r4
10002b1a:	460c      	mov	r4, r1
10002b1c:	4632      	mov	r2, r6
10002b1e:	464b      	mov	r3, r9
10002b20:	4651      	mov	r1, sl
10002b22:	2020      	movs	r0, #32
10002b24:	3601      	adds	r6, #1
10002b26:	47d8      	blx	fp
10002b28:	4546      	cmp	r6, r8
10002b2a:	d1f7      	bne.n	10002b1c <_vsnprintf+0x5a0>
10002b2c:	4621      	mov	r1, r4
10002b2e:	e6ac      	b.n	1000288a <_vsnprintf+0x30e>
10002b30:	f413 6280 	ands.w	r2, r3, #1024	@ 0x400
10002b34:	f000 80bb 	beq.w	10002cae <_vsnprintf+0x732>
10002b38:	f44f 6280 	mov.w	r2, #1024	@ 0x400
10002b3c:	f023 0c11 	bic.w	ip, r3, #17
10002b40:	f41c 7700 	ands.w	r7, ip, #512	@ 0x200
10002b44:	9b0a      	ldr	r3, [sp, #40]	@ 0x28
10002b46:	d14a      	bne.n	10002bde <_vsnprintf+0x662>
10002b48:	f41c 7080 	ands.w	r0, ip, #256	@ 0x100
10002b4c:	f103 0404 	add.w	r4, r3, #4
10002b50:	f040 8134 	bne.w	10002dbc <_vsnprintf+0x840>
10002b54:	f01c 0f40 	tst.w	ip, #64	@ 0x40
10002b58:	f040 80a3 	bne.w	10002ca2 <_vsnprintf+0x726>
10002b5c:	f01c 0f80 	tst.w	ip, #128	@ 0x80
10002b60:	f000 81d3 	beq.w	10002f0a <_vsnprintf+0x98e>
10002b64:	f9b3 1000 	ldrsh.w	r1, [r3]
10002b68:	ea81 77e1 	eor.w	r7, r1, r1, asr #31
10002b6c:	eba7 77e1 	sub.w	r7, r7, r1, asr #31
10002b70:	b2bf      	uxth	r7, r7
10002b72:	0fcb      	lsrs	r3, r1, #31
10002b74:	2900      	cmp	r1, #0
10002b76:	f000 8156 	beq.w	10002e26 <_vsnprintf+0x8aa>
10002b7a:	463a      	mov	r2, r7
10002b7c:	a912      	add	r1, sp, #72	@ 0x48
10002b7e:	460f      	mov	r7, r1
10002b80:	f8df e3d8 	ldr.w	lr, [pc, #984]	@ 10002f5c <_vsnprintf+0x9e0>
10002b84:	910b      	str	r1, [sp, #44]	@ 0x2c
10002b86:	930a      	str	r3, [sp, #40]	@ 0x28
10002b88:	950c      	str	r5, [sp, #48]	@ 0x30
10002b8a:	e001      	b.n	10002b90 <_vsnprintf+0x614>
10002b8c:	2820      	cmp	r0, #32
10002b8e:	d00f      	beq.n	10002bb0 <_vsnprintf+0x634>
10002b90:	4615      	mov	r5, r2
10002b92:	fbae 1302 	umull	r1, r3, lr, r2
10002b96:	08db      	lsrs	r3, r3, #3
10002b98:	eb03 0183 	add.w	r1, r3, r3, lsl #2
10002b9c:	eba2 0141 	sub.w	r1, r2, r1, lsl #1
10002ba0:	3130      	adds	r1, #48	@ 0x30
10002ba2:	2d09      	cmp	r5, #9
10002ba4:	461a      	mov	r2, r3
10002ba6:	f100 0001 	add.w	r0, r0, #1
10002baa:	f807 1b01 	strb.w	r1, [r7], #1
10002bae:	d8ed      	bhi.n	10002b8c <_vsnprintf+0x610>
10002bb0:	9b0a      	ldr	r3, [sp, #40]	@ 0x28
10002bb2:	9d0c      	ldr	r5, [sp, #48]	@ 0x30
10002bb4:	e9cd 5c05 	strd	r5, ip, [sp, #20]
10002bb8:	e9cd 0301 	strd	r0, r3, [sp, #4]
10002bbc:	9604      	str	r6, [sp, #16]
10002bbe:	9b0b      	ldr	r3, [sp, #44]	@ 0x2c
10002bc0:	4642      	mov	r2, r8
10002bc2:	9300      	str	r3, [sp, #0]
10002bc4:	230a      	movs	r3, #10
10002bc6:	4651      	mov	r1, sl
10002bc8:	9303      	str	r3, [sp, #12]
10002bca:	4658      	mov	r0, fp
10002bcc:	464b      	mov	r3, r9
10002bce:	f7fe fec7 	bl	10001960 <_ntoa_format>
10002bd2:	940a      	str	r4, [sp, #40]	@ 0x28
10002bd4:	4680      	mov	r8, r0
10002bd6:	e4ef      	b.n	100025b8 <_vsnprintf+0x3c>
10002bd8:	f023 030c 	bic.w	r3, r3, #12
10002bdc:	e721      	b.n	10002a22 <_vsnprintf+0x4a6>
10002bde:	3307      	adds	r3, #7
10002be0:	f023 0307 	bic.w	r3, r3, #7
10002be4:	4619      	mov	r1, r3
10002be6:	4608      	mov	r0, r1
10002be8:	685b      	ldr	r3, [r3, #4]
10002bea:	f850 1b08 	ldr.w	r1, [r0], #8
10002bee:	0fdf      	lsrs	r7, r3, #31
10002bf0:	900a      	str	r0, [sp, #40]	@ 0x28
10002bf2:	ea51 0003 	orrs.w	r0, r1, r3
10002bf6:	d162      	bne.n	10002cbe <_vsnprintf+0x742>
10002bf8:	2a00      	cmp	r2, #0
10002bfa:	f040 819f 	bne.w	10002f3c <_vsnprintf+0x9c0>
10002bfe:	4613      	mov	r3, r2
10002c00:	4611      	mov	r1, r2
10002c02:	aa12      	add	r2, sp, #72	@ 0x48
10002c04:	e9cd 750c 	strd	r7, r5, [sp, #48]	@ 0x30
10002c08:	2000      	movs	r0, #0
10002c0a:	4615      	mov	r5, r2
10002c0c:	e9cd 680e 	strd	r6, r8, [sp, #56]	@ 0x38
10002c10:	f8df e348 	ldr.w	lr, [pc, #840]	@ 10002f5c <_vsnprintf+0x9e0>
10002c14:	920b      	str	r2, [sp, #44]	@ 0x2c
10002c16:	e001      	b.n	10002c1c <_vsnprintf+0x6a0>
10002c18:	2820      	cmp	r0, #32
10002c1a:	d02d      	beq.n	10002c78 <_vsnprintf+0x6fc>
10002c1c:	185a      	adds	r2, r3, r1
10002c1e:	f142 0200 	adc.w	r2, r2, #0
10002c22:	fbae 7802 	umull	r7, r8, lr, r2
10002c26:	f028 0703 	bic.w	r7, r8, #3
10002c2a:	eb07 0798 	add.w	r7, r7, r8, lsr #2
10002c2e:	1bd2      	subs	r2, r2, r7
10002c30:	461e      	mov	r6, r3
10002c32:	1a9b      	subs	r3, r3, r2
10002c34:	f161 0700 	sbc.w	r7, r1, #0
10002c38:	460c      	mov	r4, r1
10002c3a:	f04f 31cc 	mov.w	r1, #3435973836	@ 0xcccccccc
10002c3e:	fb01 f103 	mul.w	r1, r1, r3
10002c42:	fb0e 1107 	mla	r1, lr, r7, r1
10002c46:	fba3 730e 	umull	r7, r3, r3, lr
10002c4a:	4419      	add	r1, r3
10002c4c:	2305      	movs	r3, #5
10002c4e:	f007 0801 	and.w	r8, r7, #1
10002c52:	fba8 3803 	umull	r3, r8, r8, r3
10002c56:	189b      	adds	r3, r3, r2
10002c58:	2e0a      	cmp	r6, #10
10002c5a:	f103 0330 	add.w	r3, r3, #48	@ 0x30
10002c5e:	ea4f 0757 	mov.w	r7, r7, lsr #1
10002c62:	f174 0400 	sbcs.w	r4, r4, #0
10002c66:	f805 3b01 	strb.w	r3, [r5], #1
10002c6a:	f100 0001 	add.w	r0, r0, #1
10002c6e:	ea47 73c1 	orr.w	r3, r7, r1, lsl #31
10002c72:	ea4f 0151 	mov.w	r1, r1, lsr #1
10002c76:	d2cf      	bcs.n	10002c18 <_vsnprintf+0x69c>
10002c78:	e9dd 750c 	ldrd	r7, r5, [sp, #48]	@ 0x30
10002c7c:	e9dd 680e 	ldrd	r6, r8, [sp, #56]	@ 0x38
10002c80:	9b0b      	ldr	r3, [sp, #44]	@ 0x2c
10002c82:	4642      	mov	r2, r8
10002c84:	9300      	str	r3, [sp, #0]
10002c86:	230a      	movs	r3, #10
10002c88:	e9cd 5c05 	strd	r5, ip, [sp, #20]
10002c8c:	e9cd 0701 	strd	r0, r7, [sp, #4]
10002c90:	9604      	str	r6, [sp, #16]
10002c92:	9303      	str	r3, [sp, #12]
10002c94:	464b      	mov	r3, r9
10002c96:	4651      	mov	r1, sl
10002c98:	4658      	mov	r0, fp
10002c9a:	f7fe fe61 	bl	10001960 <_ntoa_format>
10002c9e:	4680      	mov	r8, r0
10002ca0:	e48a      	b.n	100025b8 <_vsnprintf+0x3c>
10002ca2:	7819      	ldrb	r1, [r3, #0]
10002ca4:	460f      	mov	r7, r1
10002ca6:	e764      	b.n	10002b72 <_vsnprintf+0x5f6>
10002ca8:	2710      	movs	r7, #16
10002caa:	46bc      	mov	ip, r7
10002cac:	e6b3      	b.n	10002a16 <_vsnprintf+0x49a>
10002cae:	f023 0c10 	bic.w	ip, r3, #16
10002cb2:	e745      	b.n	10002b40 <_vsnprintf+0x5c4>
10002cb4:	061c      	lsls	r4, r3, #24
10002cb6:	bf4c      	ite	mi
10002cb8:	8812      	ldrhmi	r2, [r2, #0]
10002cba:	6812      	ldrpl	r2, [r2, #0]
10002cbc:	e6c0      	b.n	10002a40 <_vsnprintf+0x4c4>
10002cbe:	460a      	mov	r2, r1
10002cc0:	1e19      	subs	r1, r3, #0
10002cc2:	db01      	blt.n	10002cc8 <_vsnprintf+0x74c>
10002cc4:	4613      	mov	r3, r2
10002cc6:	e79c      	b.n	10002c02 <_vsnprintf+0x686>
10002cc8:	4252      	negs	r2, r2
10002cca:	4613      	mov	r3, r2
10002ccc:	eb61 0141 	sbc.w	r1, r1, r1, lsl #1
10002cd0:	e797      	b.n	10002c02 <_vsnprintf+0x686>
10002cd2:	4613      	mov	r3, r2
10002cd4:	4651      	mov	r1, sl
10002cd6:	7818      	ldrb	r0, [r3, #0]
10002cd8:	4642      	mov	r2, r8
10002cda:	464b      	mov	r3, r9
10002cdc:	47d8      	blx	fp
10002cde:	46b0      	mov	r8, r6
10002ce0:	e648      	b.n	10002974 <_vsnprintf+0x3f8>
10002ce2:	f013 0f20 	tst.w	r3, #32
10002ce6:	bf14      	ite	ne
10002ce8:	2041      	movne	r0, #65	@ 0x41
10002cea:	2061      	moveq	r0, #97	@ 0x61
10002cec:	ac12      	add	r4, sp, #72	@ 0x48
10002cee:	46a6      	mov	lr, r4
10002cf0:	940b      	str	r4, [sp, #44]	@ 0x2c
10002cf2:	930a      	str	r3, [sp, #40]	@ 0x28
10002cf4:	f1a0 040a 	sub.w	r4, r0, #10
10002cf8:	950c      	str	r5, [sp, #48]	@ 0x30
10002cfa:	e002      	b.n	10002d02 <_vsnprintf+0x786>
10002cfc:	2920      	cmp	r1, #32
10002cfe:	d012      	beq.n	10002d26 <_vsnprintf+0x7aa>
10002d00:	462a      	mov	r2, r5
10002d02:	fbb2 f5fc 	udiv	r5, r2, ip
10002d06:	fb0c 2015 	mls	r0, ip, r5, r2
10002d0a:	b2c3      	uxtb	r3, r0
10002d0c:	2809      	cmp	r0, #9
10002d0e:	f103 0030 	add.w	r0, r3, #48	@ 0x30
10002d12:	bf8a      	itet	hi
10002d14:	191b      	addhi	r3, r3, r4
10002d16:	b2c3      	uxtbls	r3, r0
10002d18:	b2db      	uxtbhi	r3, r3
10002d1a:	4562      	cmp	r2, ip
10002d1c:	f80e 3b01 	strb.w	r3, [lr], #1
10002d20:	f101 0101 	add.w	r1, r1, #1
10002d24:	d2ea      	bcs.n	10002cfc <_vsnprintf+0x780>
10002d26:	9b0a      	ldr	r3, [sp, #40]	@ 0x28
10002d28:	9d0c      	ldr	r5, [sp, #48]	@ 0x30
10002d2a:	e694      	b.n	10002a56 <_vsnprintf+0x4da>
10002d2c:	9a0a      	ldr	r2, [sp, #40]	@ 0x28
10002d2e:	3207      	adds	r2, #7
10002d30:	f022 0207 	bic.w	r2, r2, #7
10002d34:	6851      	ldr	r1, [r2, #4]
10002d36:	f852 4b08 	ldr.w	r4, [r2], #8
10002d3a:	468e      	mov	lr, r1
10002d3c:	920a      	str	r2, [sp, #40]	@ 0x28
10002d3e:	ea54 0201 	orrs.w	r2, r4, r1
10002d42:	d176      	bne.n	10002e32 <_vsnprintf+0x8b6>
10002d44:	f023 0310 	bic.w	r3, r3, #16
10002d48:	2800      	cmp	r0, #0
10002d4a:	d072      	beq.n	10002e32 <_vsnprintf+0x8b6>
10002d4c:	2200      	movs	r2, #0
10002d4e:	4611      	mov	r1, r2
10002d50:	aa12      	add	r2, sp, #72	@ 0x48
10002d52:	920b      	str	r2, [sp, #44]	@ 0x2c
10002d54:	e9cd 5305 	strd	r5, r3, [sp, #20]
10002d58:	9b0b      	ldr	r3, [sp, #44]	@ 0x2c
10002d5a:	4642      	mov	r2, r8
10002d5c:	9300      	str	r3, [sp, #0]
10002d5e:	2300      	movs	r3, #0
10002d60:	e9cd c603 	strd	ip, r6, [sp, #12]
10002d64:	9101      	str	r1, [sp, #4]
10002d66:	9302      	str	r3, [sp, #8]
10002d68:	e794      	b.n	10002c94 <_vsnprintf+0x718>
10002d6a:	42a5      	cmp	r5, r4
10002d6c:	bf98      	it	ls
10002d6e:	3401      	addls	r4, #1
10002d70:	f67f ad74 	bls.w	1000285c <_vsnprintf+0x2e0>
10002d74:	f44f 6380 	mov.w	r3, #1024	@ 0x400
10002d78:	e9cd 750a 	strd	r7, r5, [sp, #40]	@ 0x28
10002d7c:	eb05 0208 	add.w	r2, r5, r8
10002d80:	461f      	mov	r7, r3
10002d82:	460d      	mov	r5, r1
10002d84:	1b14      	subs	r4, r2, r4
10002d86:	4642      	mov	r2, r8
10002d88:	464b      	mov	r3, r9
10002d8a:	4651      	mov	r1, sl
10002d8c:	2020      	movs	r0, #32
10002d8e:	f108 0801 	add.w	r8, r8, #1
10002d92:	47d8      	blx	fp
10002d94:	45a0      	cmp	r8, r4
10002d96:	d1f6      	bne.n	10002d86 <_vsnprintf+0x80a>
10002d98:	463b      	mov	r3, r7
10002d9a:	9f0a      	ldr	r7, [sp, #40]	@ 0x28
10002d9c:	4629      	mov	r1, r5
10002d9e:	7838      	ldrb	r0, [r7, #0]
10002da0:	9d0b      	ldr	r5, [sp, #44]	@ 0x2c
10002da2:	1c6c      	adds	r4, r5, #1
10002da4:	2800      	cmp	r0, #0
10002da6:	f43f ad70 	beq.w	1000288a <_vsnprintf+0x30e>
10002daa:	2b00      	cmp	r3, #0
10002dac:	f43f ae75 	beq.w	10002a9a <_vsnprintf+0x51e>
10002db0:	2300      	movs	r3, #0
10002db2:	e553      	b.n	1000285c <_vsnprintf+0x2e0>
10002db4:	42a5      	cmp	r5, r4
10002db6:	d8df      	bhi.n	10002d78 <_vsnprintf+0x7fc>
10002db8:	3401      	adds	r4, #1
10002dba:	e66e      	b.n	10002a9a <_vsnprintf+0x51e>
10002dbc:	6819      	ldr	r1, [r3, #0]
10002dbe:	0fcb      	lsrs	r3, r1, #31
10002dc0:	2900      	cmp	r1, #0
10002dc2:	f000 80a8 	beq.w	10002f16 <_vsnprintf+0x99a>
10002dc6:	ea81 72e1 	eor.w	r2, r1, r1, asr #31
10002dca:	eba2 72e1 	sub.w	r2, r2, r1, asr #31
10002dce:	a912      	add	r1, sp, #72	@ 0x48
10002dd0:	4608      	mov	r0, r1
10002dd2:	f8df e188 	ldr.w	lr, [pc, #392]	@ 10002f5c <_vsnprintf+0x9e0>
10002dd6:	910b      	str	r1, [sp, #44]	@ 0x2c
10002dd8:	930a      	str	r3, [sp, #40]	@ 0x28
10002dda:	950c      	str	r5, [sp, #48]	@ 0x30
10002ddc:	e001      	b.n	10002de2 <_vsnprintf+0x866>
10002dde:	2f20      	cmp	r7, #32
10002de0:	d00f      	beq.n	10002e02 <_vsnprintf+0x886>
10002de2:	4615      	mov	r5, r2
10002de4:	fbae 1302 	umull	r1, r3, lr, r2
10002de8:	08db      	lsrs	r3, r3, #3
10002dea:	eb03 0183 	add.w	r1, r3, r3, lsl #2
10002dee:	eba2 0141 	sub.w	r1, r2, r1, lsl #1
10002df2:	3130      	adds	r1, #48	@ 0x30
10002df4:	2d09      	cmp	r5, #9
10002df6:	461a      	mov	r2, r3
10002df8:	f107 0701 	add.w	r7, r7, #1
10002dfc:	f800 1b01 	strb.w	r1, [r0], #1
10002e00:	d8ed      	bhi.n	10002dde <_vsnprintf+0x862>
10002e02:	9b0a      	ldr	r3, [sp, #40]	@ 0x28
10002e04:	9d0c      	ldr	r5, [sp, #48]	@ 0x30
10002e06:	e9cd 5c05 	strd	r5, ip, [sp, #20]
10002e0a:	e9cd 7301 	strd	r7, r3, [sp, #4]
10002e0e:	9604      	str	r6, [sp, #16]
10002e10:	e6d5      	b.n	10002bbe <_vsnprintf+0x642>
10002e12:	2869      	cmp	r0, #105	@ 0x69
10002e14:	f023 0c10 	bic.w	ip, r3, #16
10002e18:	f040 808c 	bne.w	10002f34 <_vsnprintf+0x9b8>
10002e1c:	f413 6280 	ands.w	r2, r3, #1024	@ 0x400
10002e20:	f43f ae8e 	beq.w	10002b40 <_vsnprintf+0x5c4>
10002e24:	e688      	b.n	10002b38 <_vsnprintf+0x5bc>
10002e26:	2a00      	cmp	r2, #0
10002e28:	f43f aea8 	beq.w	10002b7c <_vsnprintf+0x600>
10002e2c:	aa12      	add	r2, sp, #72	@ 0x48
10002e2e:	920b      	str	r2, [sp, #44]	@ 0x2c
10002e30:	e6c0      	b.n	10002bb4 <_vsnprintf+0x638>
10002e32:	f013 0f20 	tst.w	r3, #32
10002e36:	bf14      	ite	ne
10002e38:	2241      	movne	r2, #65	@ 0x41
10002e3a:	2261      	moveq	r2, #97	@ 0x61
10002e3c:	2000      	movs	r0, #0
10002e3e:	a912      	add	r1, sp, #72	@ 0x48
10002e40:	3a0a      	subs	r2, #10
10002e42:	e9cd 680e 	strd	r6, r8, [sp, #56]	@ 0x38
10002e46:	e9cd 350c 	strd	r3, r5, [sp, #48]	@ 0x30
10002e4a:	f8cd b044 	str.w	fp, [sp, #68]	@ 0x44
10002e4e:	4606      	mov	r6, r0
10002e50:	4688      	mov	r8, r1
10002e52:	4675      	mov	r5, lr
10002e54:	4693      	mov	fp, r2
10002e56:	910b      	str	r1, [sp, #44]	@ 0x2c
10002e58:	f8cd c040 	str.w	ip, [sp, #64]	@ 0x40
10002e5c:	e003      	b.n	10002e66 <_vsnprintf+0x8ea>
10002e5e:	2e20      	cmp	r6, #32
10002e60:	d017      	beq.n	10002e92 <_vsnprintf+0x916>
10002e62:	4604      	mov	r4, r0
10002e64:	460d      	mov	r5, r1
10002e66:	4629      	mov	r1, r5
10002e68:	463a      	mov	r2, r7
10002e6a:	2300      	movs	r3, #0
10002e6c:	4620      	mov	r0, r4
10002e6e:	f000 fc47 	bl	10003700 <____aeabi_uldivmod_veneer>
10002e72:	b2d2      	uxtb	r2, r2
10002e74:	2a09      	cmp	r2, #9
10002e76:	f102 0330 	add.w	r3, r2, #48	@ 0x30
10002e7a:	bf88      	it	hi
10002e7c:	eb02 030b 	addhi.w	r3, r2, fp
10002e80:	42bc      	cmp	r4, r7
10002e82:	b2db      	uxtb	r3, r3
10002e84:	f175 0500 	sbcs.w	r5, r5, #0
10002e88:	f808 3b01 	strb.w	r3, [r8], #1
10002e8c:	f106 0601 	add.w	r6, r6, #1
10002e90:	d2e5      	bcs.n	10002e5e <_vsnprintf+0x8e2>
10002e92:	4631      	mov	r1, r6
10002e94:	e9dd 350c 	ldrd	r3, r5, [sp, #48]	@ 0x30
10002e98:	e9dd cb10 	ldrd	ip, fp, [sp, #64]	@ 0x40
10002e9c:	f8dd 803c 	ldr.w	r8, [sp, #60]	@ 0x3c
10002ea0:	9e0e      	ldr	r6, [sp, #56]	@ 0x38
10002ea2:	e757      	b.n	10002d54 <_vsnprintf+0x7d8>
10002ea4:	990a      	ldr	r1, [sp, #40]	@ 0x28
10002ea6:	6809      	ldr	r1, [r1, #0]
10002ea8:	b951      	cbnz	r1, 10002ec0 <_vsnprintf+0x944>
10002eaa:	f023 0310 	bic.w	r3, r3, #16
10002eae:	b138      	cbz	r0, 10002ec0 <_vsnprintf+0x944>
10002eb0:	a912      	add	r1, sp, #72	@ 0x48
10002eb2:	910b      	str	r1, [sp, #44]	@ 0x2c
10002eb4:	e9cd 5305 	strd	r5, r3, [sp, #20]
10002eb8:	e9cd c603 	strd	ip, r6, [sp, #12]
10002ebc:	9201      	str	r2, [sp, #4]
10002ebe:	e5cf      	b.n	10002a60 <_vsnprintf+0x4e4>
10002ec0:	f013 0f20 	tst.w	r3, #32
10002ec4:	bf14      	ite	ne
10002ec6:	2041      	movne	r0, #65	@ 0x41
10002ec8:	2061      	moveq	r0, #97	@ 0x61
10002eca:	ac12      	add	r4, sp, #72	@ 0x48
10002ecc:	46a6      	mov	lr, r4
10002ece:	940b      	str	r4, [sp, #44]	@ 0x2c
10002ed0:	930a      	str	r3, [sp, #40]	@ 0x28
10002ed2:	f1a0 040a 	sub.w	r4, r0, #10
10002ed6:	950c      	str	r5, [sp, #48]	@ 0x30
10002ed8:	e002      	b.n	10002ee0 <_vsnprintf+0x964>
10002eda:	2a20      	cmp	r2, #32
10002edc:	d012      	beq.n	10002f04 <_vsnprintf+0x988>
10002ede:	4629      	mov	r1, r5
10002ee0:	fbb1 f5fc 	udiv	r5, r1, ip
10002ee4:	fb0c 1015 	mls	r0, ip, r5, r1
10002ee8:	b2c3      	uxtb	r3, r0
10002eea:	2809      	cmp	r0, #9
10002eec:	f103 0030 	add.w	r0, r3, #48	@ 0x30
10002ef0:	bf8a      	itet	hi
10002ef2:	191b      	addhi	r3, r3, r4
10002ef4:	b2c3      	uxtbls	r3, r0
10002ef6:	b2db      	uxtbhi	r3, r3
10002ef8:	4561      	cmp	r1, ip
10002efa:	f80e 3b01 	strb.w	r3, [lr], #1
10002efe:	f102 0201 	add.w	r2, r2, #1
10002f02:	d2ea      	bcs.n	10002eda <_vsnprintf+0x95e>
10002f04:	9b0a      	ldr	r3, [sp, #40]	@ 0x28
10002f06:	9d0c      	ldr	r5, [sp, #48]	@ 0x30
10002f08:	e7d4      	b.n	10002eb4 <_vsnprintf+0x938>
10002f0a:	6819      	ldr	r1, [r3, #0]
10002f0c:	ea81 77e1 	eor.w	r7, r1, r1, asr #31
10002f10:	eba7 77e1 	sub.w	r7, r7, r1, asr #31
10002f14:	e62d      	b.n	10002b72 <_vsnprintf+0x5f6>
10002f16:	2a00      	cmp	r2, #0
10002f18:	f43f af59 	beq.w	10002dce <_vsnprintf+0x852>
10002f1c:	aa12      	add	r2, sp, #72	@ 0x48
10002f1e:	920b      	str	r2, [sp, #44]	@ 0x2c
10002f20:	e771      	b.n	10002e06 <_vsnprintf+0x88a>
10002f22:	f413 6480 	ands.w	r4, r3, #1024	@ 0x400
10002f26:	d00d      	beq.n	10002f44 <_vsnprintf+0x9c8>
10002f28:	f013 0402 	ands.w	r4, r3, #2
10002f2c:	d012      	beq.n	10002f54 <_vsnprintf+0x9d8>
10002f2e:	4604      	mov	r4, r0
10002f30:	4646      	mov	r6, r8
10002f32:	e5ec      	b.n	10002b0e <_vsnprintf+0x592>
10002f34:	270a      	movs	r7, #10
10002f36:	4663      	mov	r3, ip
10002f38:	46bc      	mov	ip, r7
10002f3a:	e56c      	b.n	10002a16 <_vsnprintf+0x49a>
10002f3c:	ab12      	add	r3, sp, #72	@ 0x48
10002f3e:	2000      	movs	r0, #0
10002f40:	930b      	str	r3, [sp, #44]	@ 0x2c
10002f42:	e69d      	b.n	10002c80 <_vsnprintf+0x704>
10002f44:	f013 0302 	ands.w	r3, r3, #2
10002f48:	f47f ade0 	bne.w	10002b0c <_vsnprintf+0x590>
10002f4c:	2d00      	cmp	r5, #0
10002f4e:	f47f af13 	bne.w	10002d78 <_vsnprintf+0x7fc>
10002f52:	e49a      	b.n	1000288a <_vsnprintf+0x30e>
10002f54:	2d00      	cmp	r5, #0
10002f56:	f47f af0d 	bne.w	10002d74 <_vsnprintf+0x7f8>
10002f5a:	e496      	b.n	1000288a <_vsnprintf+0x30e>
10002f5c:	cccccccd 	.word	0xcccccccd

10002f60 <vfctprintf>:
10002f60:	b570      	push	{r4, r5, r6, lr}
10002f62:	4694      	mov	ip, r2
10002f64:	461e      	mov	r6, r3
10002f66:	4605      	mov	r5, r0
10002f68:	460c      	mov	r4, r1
10002f6a:	b084      	sub	sp, #16
10002f6c:	f04f 32ff 	mov.w	r2, #4294967295
10002f70:	4663      	mov	r3, ip
10002f72:	a902      	add	r1, sp, #8
10002f74:	9600      	str	r6, [sp, #0]
10002f76:	4803      	ldr	r0, [pc, #12]	@ (10002f84 <vfctprintf+0x24>)
10002f78:	e9cd 5402 	strd	r5, r4, [sp, #8]
10002f7c:	f7ff fafe 	bl	1000257c <_vsnprintf>
10002f80:	b004      	add	sp, #16
10002f82:	bd70      	pop	{r4, r5, r6, pc}
10002f84:	10001b3d 	.word	0x10001b3d

10002f88 <weak_raw_vprintf>:
10002f88:	b510      	push	{r4, lr}
10002f8a:	4b09      	ldr	r3, [pc, #36]	@ (10002fb0 <weak_raw_vprintf+0x28>)
10002f8c:	b084      	sub	sp, #16
10002f8e:	681c      	ldr	r4, [r3, #0]
10002f90:	b14c      	cbz	r4, 10002fa6 <weak_raw_vprintf+0x1e>
10002f92:	4603      	mov	r3, r0
10002f94:	9100      	str	r1, [sp, #0]
10002f96:	f04f 32ff 	mov.w	r2, #4294967295
10002f9a:	a903      	add	r1, sp, #12
10002f9c:	4805      	ldr	r0, [pc, #20]	@ (10002fb4 <weak_raw_vprintf+0x2c>)
10002f9e:	47a0      	blx	r4
10002fa0:	2001      	movs	r0, #1
10002fa2:	b004      	add	sp, #16
10002fa4:	bd10      	pop	{r4, pc}
10002fa6:	f000 f97d 	bl	100032a4 <__wrap_puts>
10002faa:	4620      	mov	r0, r4
10002fac:	b004      	add	sp, #16
10002fae:	bd10      	pop	{r4, pc}
10002fb0:	2000080c 	.word	0x2000080c
10002fb4:	10001b35 	.word	0x10001b35

10002fb8 <_exit>:
10002fb8:	be00      	bkpt	0x0000
10002fba:	e7fd      	b.n	10002fb8 <_exit>

10002fbc <exit>:
10002fbc:	b508      	push	{r3, lr}
10002fbe:	f7ff fffb 	bl	10002fb8 <_exit>
10002fc2:	bf00      	nop

10002fc4 <runtime_init>:
10002fc4:	b538      	push	{r3, r4, r5, lr}
10002fc6:	4c06      	ldr	r4, [pc, #24]	@ (10002fe0 <runtime_init+0x1c>)
10002fc8:	4d06      	ldr	r5, [pc, #24]	@ (10002fe4 <runtime_init+0x20>)
10002fca:	f7fe fa07 	bl	100013dc <runtime_run_initializers>
10002fce:	42ac      	cmp	r4, r5
10002fd0:	d204      	bcs.n	10002fdc <runtime_init+0x18>
10002fd2:	f854 3b04 	ldr.w	r3, [r4], #4
10002fd6:	4798      	blx	r3
10002fd8:	42ac      	cmp	r4, r5
10002fda:	d3fa      	bcc.n	10002fd2 <runtime_init+0xe>
10002fdc:	bd38      	pop	{r3, r4, r5, pc}
10002fde:	bf00      	nop
10002fe0:	10003758 	.word	0x10003758
10002fe4:	1000375c 	.word	0x1000375c

10002fe8 <stdio_out_chars_no_crlf>:
10002fe8:	6803      	ldr	r3, [r0, #0]
10002fea:	4608      	mov	r0, r1
10002fec:	4611      	mov	r1, r2
10002fee:	4718      	bx	r3

10002ff0 <stdio_out_chars_crlf>:
10002ff0:	e92d 41f0 	stmdb	sp!, {r4, r5, r6, r7, r8, lr}
10002ff4:	4615      	mov	r5, r2
10002ff6:	7d42      	ldrb	r2, [r0, #21]
10002ff8:	4607      	mov	r7, r0
10002ffa:	4688      	mov	r8, r1
10002ffc:	2a00      	cmp	r2, #0
10002ffe:	d046      	beq.n	1000308e <stdio_out_chars_crlf+0x9e>
10003000:	2d00      	cmp	r5, #0
10003002:	dd1d      	ble.n	10003040 <stdio_out_chars_crlf+0x50>
10003004:	780b      	ldrb	r3, [r1, #0]
10003006:	2b0a      	cmp	r3, #10
10003008:	d023      	beq.n	10003052 <stdio_out_chars_crlf+0x62>
1000300a:	2d01      	cmp	r5, #1
1000300c:	f04f 0c00 	mov.w	ip, #0
10003010:	d018      	beq.n	10003044 <stdio_out_chars_crlf+0x54>
10003012:	4646      	mov	r6, r8
10003014:	2401      	movs	r4, #1
10003016:	f816 2f01 	ldrb.w	r2, [r6, #1]!
1000301a:	4621      	mov	r1, r4
1000301c:	2a0a      	cmp	r2, #10
1000301e:	f104 0401 	add.w	r4, r4, #1
10003022:	d022      	beq.n	1000306a <stdio_out_chars_crlf+0x7a>
10003024:	42a5      	cmp	r5, r4
10003026:	d1f6      	bne.n	10003016 <stdio_out_chars_crlf+0x26>
10003028:	4565      	cmp	r5, ip
1000302a:	dc0b      	bgt.n	10003044 <stdio_out_chars_crlf+0x54>
1000302c:	eb08 0305 	add.w	r3, r8, r5
10003030:	f813 3c01 	ldrb.w	r3, [r3, #-1]
10003034:	f1a3 030d 	sub.w	r3, r3, #13
10003038:	fab3 f383 	clz	r3, r3
1000303c:	095b      	lsrs	r3, r3, #5
1000303e:	753b      	strb	r3, [r7, #20]
10003040:	e8bd 81f0 	ldmia.w	sp!, {r4, r5, r6, r7, r8, pc}
10003044:	683b      	ldr	r3, [r7, #0]
10003046:	eba5 010c 	sub.w	r1, r5, ip
1000304a:	eb08 000c 	add.w	r0, r8, ip
1000304e:	4798      	blx	r3
10003050:	e7ec      	b.n	1000302c <stdio_out_chars_crlf+0x3c>
10003052:	7d03      	ldrb	r3, [r0, #20]
10003054:	2b00      	cmp	r3, #0
10003056:	d1d8      	bne.n	1000300a <stdio_out_chars_crlf+0x1a>
10003058:	6803      	ldr	r3, [r0, #0]
1000305a:	2102      	movs	r1, #2
1000305c:	480f      	ldr	r0, [pc, #60]	@ (1000309c <stdio_out_chars_crlf+0xac>)
1000305e:	4798      	blx	r3
10003060:	2d01      	cmp	r5, #1
10003062:	d0e3      	beq.n	1000302c <stdio_out_chars_crlf+0x3c>
10003064:	f04f 0c01 	mov.w	ip, #1
10003068:	e7d3      	b.n	10003012 <stdio_out_chars_crlf+0x22>
1000306a:	f816 3c01 	ldrb.w	r3, [r6, #-1]
1000306e:	2b0d      	cmp	r3, #13
10003070:	d0d8      	beq.n	10003024 <stdio_out_chars_crlf+0x34>
10003072:	458c      	cmp	ip, r1
10003074:	eb08 000c 	add.w	r0, r8, ip
10003078:	eba1 010c 	sub.w	r1, r1, ip
1000307c:	da01      	bge.n	10003082 <stdio_out_chars_crlf+0x92>
1000307e:	683b      	ldr	r3, [r7, #0]
10003080:	4798      	blx	r3
10003082:	2102      	movs	r1, #2
10003084:	4805      	ldr	r0, [pc, #20]	@ (1000309c <stdio_out_chars_crlf+0xac>)
10003086:	683b      	ldr	r3, [r7, #0]
10003088:	4798      	blx	r3
1000308a:	46a4      	mov	ip, r4
1000308c:	e7ca      	b.n	10003024 <stdio_out_chars_crlf+0x34>
1000308e:	4629      	mov	r1, r5
10003090:	4640      	mov	r0, r8
10003092:	683b      	ldr	r3, [r7, #0]
10003094:	e8bd 41f0 	ldmia.w	sp!, {r4, r5, r6, r7, r8, lr}
10003098:	4718      	bx	r3
1000309a:	bf00      	nop
1000309c:	10003948 	.word	0x10003948

100030a0 <stdio_buffered_printer>:
100030a0:	680b      	ldr	r3, [r1, #0]
100030a2:	e92d 41f0 	stmdb	sp!, {r4, r5, r6, r7, r8, lr}
100030a6:	2b80      	cmp	r3, #128	@ 0x80
100030a8:	460d      	mov	r5, r1
100030aa:	4606      	mov	r6, r0
100030ac:	d005      	beq.n	100030ba <stdio_buffered_printer+0x1a>
100030ae:	1c5a      	adds	r2, r3, #1
100030b0:	442b      	add	r3, r5
100030b2:	602a      	str	r2, [r5, #0]
100030b4:	711e      	strb	r6, [r3, #4]
100030b6:	e8bd 81f0 	ldmia.w	sp!, {r4, r5, r6, r7, r8, pc}
100030ba:	4b0f      	ldr	r3, [pc, #60]	@ (100030f8 <stdio_buffered_printer+0x58>)
100030bc:	681c      	ldr	r4, [r3, #0]
100030be:	b1a4      	cbz	r4, 100030ea <stdio_buffered_printer+0x4a>
100030c0:	4f0e      	ldr	r7, [pc, #56]	@ (100030fc <stdio_buffered_printer+0x5c>)
100030c2:	f101 0804 	add.w	r8, r1, #4
100030c6:	e001      	b.n	100030cc <stdio_buffered_printer+0x2c>
100030c8:	6924      	ldr	r4, [r4, #16]
100030ca:	b174      	cbz	r4, 100030ea <stdio_buffered_printer+0x4a>
100030cc:	6823      	ldr	r3, [r4, #0]
100030ce:	2b00      	cmp	r3, #0
100030d0:	d0fa      	beq.n	100030c8 <stdio_buffered_printer+0x28>
100030d2:	683b      	ldr	r3, [r7, #0]
100030d4:	b10b      	cbz	r3, 100030da <stdio_buffered_printer+0x3a>
100030d6:	42a3      	cmp	r3, r4
100030d8:	d1f6      	bne.n	100030c8 <stdio_buffered_printer+0x28>
100030da:	4620      	mov	r0, r4
100030dc:	4641      	mov	r1, r8
100030de:	682a      	ldr	r2, [r5, #0]
100030e0:	f7ff ff86 	bl	10002ff0 <stdio_out_chars_crlf>
100030e4:	6924      	ldr	r4, [r4, #16]
100030e6:	2c00      	cmp	r4, #0
100030e8:	d1f0      	bne.n	100030cc <stdio_buffered_printer+0x2c>
100030ea:	2300      	movs	r3, #0
100030ec:	2201      	movs	r2, #1
100030ee:	442b      	add	r3, r5
100030f0:	602a      	str	r2, [r5, #0]
100030f2:	711e      	strb	r6, [r3, #4]
100030f4:	e8bd 81f0 	ldmia.w	sp!, {r4, r5, r6, r7, r8, pc}
100030f8:	20000804 	.word	0x20000804
100030fc:	20000808 	.word	0x20000808

10003100 <stdio_put_string>:
10003100:	e92d 47f0 	stmdb	sp!, {r4, r5, r6, r7, r8, r9, sl, lr}
10003104:	b082      	sub	sp, #8
10003106:	460d      	mov	r5, r1
10003108:	4691      	mov	r9, r2
1000310a:	461c      	mov	r4, r3
1000310c:	4606      	mov	r6, r0
1000310e:	f7fd ff95 	bl	1000103c <time_us_64>
10003112:	f04f 3cff 	mov.w	ip, #4294967295
10003116:	f06f 4700 	mvn.w	r7, #2147483648	@ 0x80000000
1000311a:	4a2e      	ldr	r2, [pc, #184]	@ (100031d4 <stdio_put_string+0xd4>)
1000311c:	1882      	adds	r2, r0, r2
1000311e:	f141 0300 	adc.w	r3, r1, #0
10003122:	4594      	cmp	ip, r2
10003124:	eb77 0103 	sbcs.w	r1, r7, r3
10003128:	bf3c      	itt	cc
1000312a:	4662      	movcc	r2, ip
1000312c:	463b      	movcc	r3, r7
1000312e:	482a      	ldr	r0, [pc, #168]	@ (100031d8 <stdio_put_string+0xd8>)
10003130:	f000 faee 	bl	10003710 <__mutex_try_enter_block_until_veneer>
10003134:	1c6b      	adds	r3, r5, #1
10003136:	4680      	mov	r8, r0
10003138:	d040      	beq.n	100031bc <stdio_put_string+0xbc>
1000313a:	b30c      	cbz	r4, 10003180 <stdio_put_string+0x80>
1000313c:	4f27      	ldr	r7, [pc, #156]	@ (100031dc <stdio_put_string+0xdc>)
1000313e:	4b28      	ldr	r3, [pc, #160]	@ (100031e0 <stdio_put_string+0xe0>)
10003140:	681c      	ldr	r4, [r3, #0]
10003142:	b1b4      	cbz	r4, 10003172 <stdio_put_string+0x72>
10003144:	f1b9 0f00 	cmp.w	r9, #0
10003148:	d11c      	bne.n	10003184 <stdio_put_string+0x84>
1000314a:	f8df 909c 	ldr.w	r9, [pc, #156]	@ 100031e8 <stdio_put_string+0xe8>
1000314e:	e001      	b.n	10003154 <stdio_put_string+0x54>
10003150:	6924      	ldr	r4, [r4, #16]
10003152:	b174      	cbz	r4, 10003172 <stdio_put_string+0x72>
10003154:	6823      	ldr	r3, [r4, #0]
10003156:	2b00      	cmp	r3, #0
10003158:	d0fa      	beq.n	10003150 <stdio_put_string+0x50>
1000315a:	f8d9 3000 	ldr.w	r3, [r9]
1000315e:	b10b      	cbz	r3, 10003164 <stdio_put_string+0x64>
10003160:	429c      	cmp	r4, r3
10003162:	d1f5      	bne.n	10003150 <stdio_put_string+0x50>
10003164:	4620      	mov	r0, r4
10003166:	462a      	mov	r2, r5
10003168:	4631      	mov	r1, r6
1000316a:	47b8      	blx	r7
1000316c:	6924      	ldr	r4, [r4, #16]
1000316e:	2c00      	cmp	r4, #0
10003170:	d1f0      	bne.n	10003154 <stdio_put_string+0x54>
10003172:	f1b8 0f00 	cmp.w	r8, #0
10003176:	d126      	bne.n	100031c6 <stdio_put_string+0xc6>
10003178:	4628      	mov	r0, r5
1000317a:	b002      	add	sp, #8
1000317c:	e8bd 87f0 	ldmia.w	sp!, {r4, r5, r6, r7, r8, r9, sl, pc}
10003180:	4f18      	ldr	r7, [pc, #96]	@ (100031e4 <stdio_put_string+0xe4>)
10003182:	e7dc      	b.n	1000313e <stdio_put_string+0x3e>
10003184:	f04f 0a0a 	mov.w	sl, #10
10003188:	f8df 905c 	ldr.w	r9, [pc, #92]	@ 100031e8 <stdio_put_string+0xe8>
1000318c:	e002      	b.n	10003194 <stdio_put_string+0x94>
1000318e:	6924      	ldr	r4, [r4, #16]
10003190:	2c00      	cmp	r4, #0
10003192:	d0ee      	beq.n	10003172 <stdio_put_string+0x72>
10003194:	6823      	ldr	r3, [r4, #0]
10003196:	2b00      	cmp	r3, #0
10003198:	d0f9      	beq.n	1000318e <stdio_put_string+0x8e>
1000319a:	f8d9 3000 	ldr.w	r3, [r9]
1000319e:	b10b      	cbz	r3, 100031a4 <stdio_put_string+0xa4>
100031a0:	42a3      	cmp	r3, r4
100031a2:	d1f4      	bne.n	1000318e <stdio_put_string+0x8e>
100031a4:	462a      	mov	r2, r5
100031a6:	4631      	mov	r1, r6
100031a8:	4620      	mov	r0, r4
100031aa:	47b8      	blx	r7
100031ac:	2201      	movs	r2, #1
100031ae:	4620      	mov	r0, r4
100031b0:	f10d 0107 	add.w	r1, sp, #7
100031b4:	f88d a007 	strb.w	sl, [sp, #7]
100031b8:	47b8      	blx	r7
100031ba:	e7e8      	b.n	1000318e <stdio_put_string+0x8e>
100031bc:	4630      	mov	r0, r6
100031be:	f000 fa6f 	bl	100036a0 <strlen>
100031c2:	4605      	mov	r5, r0
100031c4:	e7b9      	b.n	1000313a <stdio_put_string+0x3a>
100031c6:	4804      	ldr	r0, [pc, #16]	@ (100031d8 <stdio_put_string+0xd8>)
100031c8:	f000 fa9e 	bl	10003708 <__mutex_exit_veneer>
100031cc:	4628      	mov	r0, r5
100031ce:	b002      	add	sp, #8
100031d0:	e8bd 87f0 	ldmia.w	sp!, {r4, r5, r6, r7, r8, r9, sl, pc}
100031d4:	000f4240 	.word	0x000f4240
100031d8:	20000624 	.word	0x20000624
100031dc:	10002ff1 	.word	0x10002ff1
100031e0:	20000804 	.word	0x20000804
100031e4:	10002fe9 	.word	0x10002fe9
100031e8:	20000808 	.word	0x20000808

100031ec <stdio_set_driver_enabled>:
100031ec:	4a08      	ldr	r2, [pc, #32]	@ (10003210 <stdio_set_driver_enabled+0x24>)
100031ee:	6813      	ldr	r3, [r2, #0]
100031f0:	b923      	cbnz	r3, 100031fc <stdio_set_driver_enabled+0x10>
100031f2:	e00a      	b.n	1000320a <stdio_set_driver_enabled+0x1e>
100031f4:	f103 0210 	add.w	r2, r3, #16
100031f8:	691b      	ldr	r3, [r3, #16]
100031fa:	b133      	cbz	r3, 1000320a <stdio_set_driver_enabled+0x1e>
100031fc:	4283      	cmp	r3, r0
100031fe:	d1f9      	bne.n	100031f4 <stdio_set_driver_enabled+0x8>
10003200:	b929      	cbnz	r1, 1000320e <stdio_set_driver_enabled+0x22>
10003202:	6918      	ldr	r0, [r3, #16]
10003204:	6010      	str	r0, [r2, #0]
10003206:	6119      	str	r1, [r3, #16]
10003208:	4770      	bx	lr
1000320a:	b101      	cbz	r1, 1000320e <stdio_set_driver_enabled+0x22>
1000320c:	6010      	str	r0, [r2, #0]
1000320e:	4770      	bx	lr
10003210:	20000804 	.word	0x20000804

10003214 <stdio_init_all>:
10003214:	b508      	push	{r3, lr}
10003216:	f000 f9a3 	bl	10003560 <stdio_uart_init>
1000321a:	2001      	movs	r0, #1
1000321c:	bd08      	pop	{r3, pc}
1000321e:	bf00      	nop

10003220 <__wrap_putchar>:
10003220:	b5f0      	push	{r4, r5, r6, r7, lr}
10003222:	b083      	sub	sp, #12
10003224:	4606      	mov	r6, r0
10003226:	f88d 0007 	strb.w	r0, [sp, #7]
1000322a:	f7fd ff07 	bl	1000103c <time_us_64>
1000322e:	f04f 35ff 	mov.w	r5, #4294967295
10003232:	f06f 4400 	mvn.w	r4, #2147483648	@ 0x80000000
10003236:	4a17      	ldr	r2, [pc, #92]	@ (10003294 <__wrap_putchar+0x74>)
10003238:	1882      	adds	r2, r0, r2
1000323a:	f141 0300 	adc.w	r3, r1, #0
1000323e:	4295      	cmp	r5, r2
10003240:	eb74 0103 	sbcs.w	r1, r4, r3
10003244:	bf3c      	itt	cc
10003246:	4623      	movcc	r3, r4
10003248:	462a      	movcc	r2, r5
1000324a:	4813      	ldr	r0, [pc, #76]	@ (10003298 <__wrap_putchar+0x78>)
1000324c:	f000 fa60 	bl	10003710 <__mutex_try_enter_block_until_veneer>
10003250:	4b12      	ldr	r3, [pc, #72]	@ (1000329c <__wrap_putchar+0x7c>)
10003252:	4607      	mov	r7, r0
10003254:	681c      	ldr	r4, [r3, #0]
10003256:	b19c      	cbz	r4, 10003280 <__wrap_putchar+0x60>
10003258:	4d11      	ldr	r5, [pc, #68]	@ (100032a0 <__wrap_putchar+0x80>)
1000325a:	e001      	b.n	10003260 <__wrap_putchar+0x40>
1000325c:	6924      	ldr	r4, [r4, #16]
1000325e:	b17c      	cbz	r4, 10003280 <__wrap_putchar+0x60>
10003260:	6823      	ldr	r3, [r4, #0]
10003262:	2b00      	cmp	r3, #0
10003264:	d0fa      	beq.n	1000325c <__wrap_putchar+0x3c>
10003266:	682b      	ldr	r3, [r5, #0]
10003268:	b10b      	cbz	r3, 1000326e <__wrap_putchar+0x4e>
1000326a:	429c      	cmp	r4, r3
1000326c:	d1f6      	bne.n	1000325c <__wrap_putchar+0x3c>
1000326e:	4620      	mov	r0, r4
10003270:	2201      	movs	r2, #1
10003272:	f10d 0107 	add.w	r1, sp, #7
10003276:	f7ff febb 	bl	10002ff0 <stdio_out_chars_crlf>
1000327a:	6924      	ldr	r4, [r4, #16]
1000327c:	2c00      	cmp	r4, #0
1000327e:	d1ef      	bne.n	10003260 <__wrap_putchar+0x40>
10003280:	b917      	cbnz	r7, 10003288 <__wrap_putchar+0x68>
10003282:	4630      	mov	r0, r6
10003284:	b003      	add	sp, #12
10003286:	bdf0      	pop	{r4, r5, r6, r7, pc}
10003288:	4803      	ldr	r0, [pc, #12]	@ (10003298 <__wrap_putchar+0x78>)
1000328a:	f000 fa3d 	bl	10003708 <__mutex_exit_veneer>
1000328e:	4630      	mov	r0, r6
10003290:	b003      	add	sp, #12
10003292:	bdf0      	pop	{r4, r5, r6, r7, pc}
10003294:	000f4240 	.word	0x000f4240
10003298:	20000624 	.word	0x20000624
1000329c:	20000804 	.word	0x20000804
100032a0:	20000808 	.word	0x20000808

100032a4 <__wrap_puts>:
100032a4:	b538      	push	{r3, r4, r5, lr}
100032a6:	4604      	mov	r4, r0
100032a8:	f000 f9fa 	bl	100036a0 <strlen>
100032ac:	2301      	movs	r3, #1
100032ae:	4605      	mov	r5, r0
100032b0:	461a      	mov	r2, r3
100032b2:	4620      	mov	r0, r4
100032b4:	4629      	mov	r1, r5
100032b6:	f7ff ff23 	bl	10003100 <stdio_put_string>
100032ba:	4b08      	ldr	r3, [pc, #32]	@ (100032dc <__wrap_puts+0x38>)
100032bc:	681c      	ldr	r4, [r3, #0]
100032be:	b12c      	cbz	r4, 100032cc <__wrap_puts+0x28>
100032c0:	6863      	ldr	r3, [r4, #4]
100032c2:	b12b      	cbz	r3, 100032d0 <__wrap_puts+0x2c>
100032c4:	4798      	blx	r3
100032c6:	6924      	ldr	r4, [r4, #16]
100032c8:	2c00      	cmp	r4, #0
100032ca:	d1f9      	bne.n	100032c0 <__wrap_puts+0x1c>
100032cc:	4628      	mov	r0, r5
100032ce:	bd38      	pop	{r3, r4, r5, pc}
100032d0:	6924      	ldr	r4, [r4, #16]
100032d2:	2c00      	cmp	r4, #0
100032d4:	d1f4      	bne.n	100032c0 <__wrap_puts+0x1c>
100032d6:	4628      	mov	r0, r5
100032d8:	bd38      	pop	{r3, r4, r5, pc}
100032da:	bf00      	nop
100032dc:	20000804 	.word	0x20000804

100032e0 <__wrap_vprintf>:
100032e0:	e92d 41f0 	stmdb	sp!, {r4, r5, r6, r7, r8, lr}
100032e4:	b0a2      	sub	sp, #136	@ 0x88
100032e6:	4604      	mov	r4, r0
100032e8:	460d      	mov	r5, r1
100032ea:	f7fd fea7 	bl	1000103c <time_us_64>
100032ee:	f04f 37ff 	mov.w	r7, #4294967295
100032f2:	f06f 4600 	mvn.w	r6, #2147483648	@ 0x80000000
100032f6:	4a26      	ldr	r2, [pc, #152]	@ (10003390 <__wrap_vprintf+0xb0>)
100032f8:	f8df 80a4 	ldr.w	r8, [pc, #164]	@ 100033a0 <__wrap_vprintf+0xc0>
100032fc:	1882      	adds	r2, r0, r2
100032fe:	f141 0300 	adc.w	r3, r1, #0
10003302:	4297      	cmp	r7, r2
10003304:	eb76 0103 	sbcs.w	r1, r6, r3
10003308:	bf3c      	itt	cc
1000330a:	463a      	movcc	r2, r7
1000330c:	4633      	movcc	r3, r6
1000330e:	4821      	ldr	r0, [pc, #132]	@ (10003394 <__wrap_vprintf+0xb4>)
10003310:	f000 f9fe 	bl	10003710 <__mutex_try_enter_block_until_veneer>
10003314:	2700      	movs	r7, #0
10003316:	462b      	mov	r3, r5
10003318:	4622      	mov	r2, r4
1000331a:	4606      	mov	r6, r0
1000331c:	a901      	add	r1, sp, #4
1000331e:	481e      	ldr	r0, [pc, #120]	@ (10003398 <__wrap_vprintf+0xb8>)
10003320:	9701      	str	r7, [sp, #4]
10003322:	f7ff fe1d 	bl	10002f60 <vfctprintf>
10003326:	9b01      	ldr	r3, [sp, #4]
10003328:	4605      	mov	r5, r0
1000332a:	f8d8 4000 	ldr.w	r4, [r8]
1000332e:	b1c3      	cbz	r3, 10003362 <__wrap_vprintf+0x82>
10003330:	2c00      	cmp	r4, #0
10003332:	d02b      	beq.n	1000338c <__wrap_vprintf+0xac>
10003334:	4f19      	ldr	r7, [pc, #100]	@ (1000339c <__wrap_vprintf+0xbc>)
10003336:	e001      	b.n	1000333c <__wrap_vprintf+0x5c>
10003338:	6924      	ldr	r4, [r4, #16]
1000333a:	b174      	cbz	r4, 1000335a <__wrap_vprintf+0x7a>
1000333c:	6823      	ldr	r3, [r4, #0]
1000333e:	2b00      	cmp	r3, #0
10003340:	d0fa      	beq.n	10003338 <__wrap_vprintf+0x58>
10003342:	683b      	ldr	r3, [r7, #0]
10003344:	b10b      	cbz	r3, 1000334a <__wrap_vprintf+0x6a>
10003346:	42a3      	cmp	r3, r4
10003348:	d1f6      	bne.n	10003338 <__wrap_vprintf+0x58>
1000334a:	4620      	mov	r0, r4
1000334c:	9a01      	ldr	r2, [sp, #4]
1000334e:	a902      	add	r1, sp, #8
10003350:	f7ff fe4e 	bl	10002ff0 <stdio_out_chars_crlf>
10003354:	6924      	ldr	r4, [r4, #16]
10003356:	2c00      	cmp	r4, #0
10003358:	d1f0      	bne.n	1000333c <__wrap_vprintf+0x5c>
1000335a:	2300      	movs	r3, #0
1000335c:	f8d8 4000 	ldr.w	r4, [r8]
10003360:	9301      	str	r3, [sp, #4]
10003362:	b12c      	cbz	r4, 10003370 <__wrap_vprintf+0x90>
10003364:	6863      	ldr	r3, [r4, #4]
10003366:	b143      	cbz	r3, 1000337a <__wrap_vprintf+0x9a>
10003368:	4798      	blx	r3
1000336a:	6924      	ldr	r4, [r4, #16]
1000336c:	2c00      	cmp	r4, #0
1000336e:	d1f9      	bne.n	10003364 <__wrap_vprintf+0x84>
10003370:	b92e      	cbnz	r6, 1000337e <__wrap_vprintf+0x9e>
10003372:	4628      	mov	r0, r5
10003374:	b022      	add	sp, #136	@ 0x88
10003376:	e8bd 81f0 	ldmia.w	sp!, {r4, r5, r6, r7, r8, pc}
1000337a:	6924      	ldr	r4, [r4, #16]
1000337c:	e7f1      	b.n	10003362 <__wrap_vprintf+0x82>
1000337e:	4805      	ldr	r0, [pc, #20]	@ (10003394 <__wrap_vprintf+0xb4>)
10003380:	f000 f9c2 	bl	10003708 <__mutex_exit_veneer>
10003384:	4628      	mov	r0, r5
10003386:	b022      	add	sp, #136	@ 0x88
10003388:	e8bd 81f0 	ldmia.w	sp!, {r4, r5, r6, r7, r8, pc}
1000338c:	9401      	str	r4, [sp, #4]
1000338e:	e7ef      	b.n	10003370 <__wrap_vprintf+0x90>
10003390:	000f4240 	.word	0x000f4240
10003394:	20000624 	.word	0x20000624
10003398:	100030a1 	.word	0x100030a1
1000339c:	20000808 	.word	0x20000808
100033a0:	20000804 	.word	0x20000804

100033a4 <__wrap_printf>:
100033a4:	b40f      	push	{r0, r1, r2, r3}
100033a6:	b500      	push	{lr}
100033a8:	b083      	sub	sp, #12
100033aa:	a904      	add	r1, sp, #16
100033ac:	f851 0b04 	ldr.w	r0, [r1], #4
100033b0:	9101      	str	r1, [sp, #4]
100033b2:	f7ff ff95 	bl	100032e0 <__wrap_vprintf>
100033b6:	b003      	add	sp, #12
100033b8:	f85d eb04 	ldr.w	lr, [sp], #4
100033bc:	b004      	add	sp, #16
100033be:	4770      	bx	lr

100033c0 <stdio_uart_out_chars>:
100033c0:	f1b1 0c00 	subs.w	ip, r1, #0
100033c4:	dd1d      	ble.n	10003402 <stdio_uart_out_chars+0x42>
100033c6:	4a0f      	ldr	r2, [pc, #60]	@ (10003404 <stdio_uart_out_chars+0x44>)
100033c8:	4b0f      	ldr	r3, [pc, #60]	@ (10003408 <stdio_uart_out_chars+0x48>)
100033ca:	6812      	ldr	r2, [r2, #0]
100033cc:	b530      	push	{r4, r5, lr}
100033ce:	1ad3      	subs	r3, r2, r3
100033d0:	fab3 f383 	clz	r3, r3
100033d4:	240d      	movs	r4, #13
100033d6:	4d0d      	ldr	r5, [pc, #52]	@ (1000340c <stdio_uart_out_chars+0x4c>)
100033d8:	095b      	lsrs	r3, r3, #5
100033da:	1e41      	subs	r1, r0, #1
100033dc:	f935 e013 	ldrsh.w	lr, [r5, r3, lsl #1]
100033e0:	448c      	add	ip, r1
100033e2:	f811 0f01 	ldrb.w	r0, [r1, #1]!
100033e6:	4586      	cmp	lr, r0
100033e8:	d006      	beq.n	100033f8 <stdio_uart_out_chars+0x38>
100033ea:	6993      	ldr	r3, [r2, #24]
100033ec:	069b      	lsls	r3, r3, #26
100033ee:	d4fc      	bmi.n	100033ea <stdio_uart_out_chars+0x2a>
100033f0:	4561      	cmp	r1, ip
100033f2:	6010      	str	r0, [r2, #0]
100033f4:	d1f5      	bne.n	100033e2 <stdio_uart_out_chars+0x22>
100033f6:	bd30      	pop	{r4, r5, pc}
100033f8:	6993      	ldr	r3, [r2, #24]
100033fa:	069d      	lsls	r5, r3, #26
100033fc:	d4fc      	bmi.n	100033f8 <stdio_uart_out_chars+0x38>
100033fe:	6014      	str	r4, [r2, #0]
10003400:	e7f3      	b.n	100033ea <stdio_uart_out_chars+0x2a>
10003402:	4770      	bx	lr
10003404:	20000858 	.word	0x20000858
10003408:	40078000 	.word	0x40078000
1000340c:	20000854 	.word	0x20000854

10003410 <stdio_uart_in_chars>:
10003410:	4b22      	ldr	r3, [pc, #136]	@ (1000349c <stdio_uart_in_chars+0x8c>)
10003412:	f1b1 0c00 	subs.w	ip, r1, #0
10003416:	b410      	push	{r4}
10003418:	681c      	ldr	r4, [r3, #0]
1000341a:	dd2e      	ble.n	1000347a <stdio_uart_in_chars+0x6a>
1000341c:	4603      	mov	r3, r0
1000341e:	2000      	movs	r0, #0
10003420:	4a1f      	ldr	r2, [pc, #124]	@ (100034a0 <stdio_uart_in_chars+0x90>)
10003422:	1e59      	subs	r1, r3, #1
10003424:	6812      	ldr	r2, [r2, #0]
10003426:	6993      	ldr	r3, [r2, #24]
10003428:	06db      	lsls	r3, r3, #27
1000342a:	d417      	bmi.n	1000345c <stdio_uart_in_chars+0x4c>
1000342c:	3001      	adds	r0, #1
1000342e:	6993      	ldr	r3, [r2, #24]
10003430:	06db      	lsls	r3, r3, #27
10003432:	d4fc      	bmi.n	1000342e <stdio_uart_in_chars+0x1e>
10003434:	6813      	ldr	r3, [r2, #0]
10003436:	4584      	cmp	ip, r0
10003438:	f801 3f01 	strb.w	r3, [r1, #1]!
1000343c:	d1f3      	bne.n	10003426 <stdio_uart_in_chars+0x16>
1000343e:	b14c      	cbz	r4, 10003454 <stdio_uart_in_chars+0x44>
10003440:	2150      	movs	r1, #80	@ 0x50
10003442:	4613      	mov	r3, r2
10003444:	6391      	str	r1, [r2, #56]	@ 0x38
10003446:	f853 2f34 	ldr.w	r2, [r3, #52]!
1000344a:	f002 0238 	and.w	r2, r2, #56	@ 0x38
1000344e:	f503 5380 	add.w	r3, r3, #4096	@ 0x1000
10003452:	601a      	str	r2, [r3, #0]
10003454:	4660      	mov	r0, ip
10003456:	f85d 4b04 	ldr.w	r4, [sp], #4
1000345a:	4770      	bx	lr
1000345c:	b14c      	cbz	r4, 10003472 <stdio_uart_in_chars+0x62>
1000345e:	2150      	movs	r1, #80	@ 0x50
10003460:	4613      	mov	r3, r2
10003462:	6391      	str	r1, [r2, #56]	@ 0x38
10003464:	f853 2f34 	ldr.w	r2, [r3, #52]!
10003468:	f002 0238 	and.w	r2, r2, #56	@ 0x38
1000346c:	f503 5380 	add.w	r3, r3, #4096	@ 0x1000
10003470:	601a      	str	r2, [r3, #0]
10003472:	b178      	cbz	r0, 10003494 <stdio_uart_in_chars+0x84>
10003474:	f85d 4b04 	ldr.w	r4, [sp], #4
10003478:	4770      	bx	lr
1000347a:	b15c      	cbz	r4, 10003494 <stdio_uart_in_chars+0x84>
1000347c:	4b08      	ldr	r3, [pc, #32]	@ (100034a0 <stdio_uart_in_chars+0x90>)
1000347e:	2150      	movs	r1, #80	@ 0x50
10003480:	681a      	ldr	r2, [r3, #0]
10003482:	4613      	mov	r3, r2
10003484:	6391      	str	r1, [r2, #56]	@ 0x38
10003486:	f853 2f34 	ldr.w	r2, [r3, #52]!
1000348a:	f002 0238 	and.w	r2, r2, #56	@ 0x38
1000348e:	f503 5380 	add.w	r3, r3, #4096	@ 0x1000
10003492:	601a      	str	r2, [r3, #0]
10003494:	f06f 0002 	mvn.w	r0, #2
10003498:	e7dd      	b.n	10003456 <stdio_uart_in_chars+0x46>
1000349a:	bf00      	nop
1000349c:	200007d0 	.word	0x200007d0
100034a0:	20000858 	.word	0x20000858

100034a4 <on_uart_rx>:
100034a4:	4b05      	ldr	r3, [pc, #20]	@ (100034bc <on_uart_rx+0x18>)
100034a6:	681b      	ldr	r3, [r3, #0]
100034a8:	b133      	cbz	r3, 100034b8 <on_uart_rx+0x14>
100034aa:	2100      	movs	r1, #0
100034ac:	4a04      	ldr	r2, [pc, #16]	@ (100034c0 <on_uart_rx+0x1c>)
100034ae:	4805      	ldr	r0, [pc, #20]	@ (100034c4 <on_uart_rx+0x20>)
100034b0:	6812      	ldr	r2, [r2, #0]
100034b2:	6800      	ldr	r0, [r0, #0]
100034b4:	6391      	str	r1, [r2, #56]	@ 0x38
100034b6:	4718      	bx	r3
100034b8:	4770      	bx	lr
100034ba:	bf00      	nop
100034bc:	200007d0 	.word	0x200007d0
100034c0:	20000858 	.word	0x20000858
100034c4:	200007d4 	.word	0x200007d4

100034c8 <stdio_uart_out_flush>:
100034c8:	4b02      	ldr	r3, [pc, #8]	@ (100034d4 <stdio_uart_out_flush+0xc>)
100034ca:	681a      	ldr	r2, [r3, #0]
100034cc:	6993      	ldr	r3, [r2, #24]
100034ce:	071b      	lsls	r3, r3, #28
100034d0:	d4fc      	bmi.n	100034cc <stdio_uart_out_flush+0x4>
100034d2:	4770      	bx	lr
100034d4:	20000858 	.word	0x20000858

100034d8 <stdio_uart_set_chars_available_callback>:
100034d8:	b5f8      	push	{r3, r4, r5, r6, r7, lr}
100034da:	4f1c      	ldr	r7, [pc, #112]	@ (1000354c <stdio_uart_set_chars_available_callback+0x74>)
100034dc:	4d1c      	ldr	r5, [pc, #112]	@ (10003550 <stdio_uart_set_chars_available_callback+0x78>)
100034de:	683a      	ldr	r2, [r7, #0]
100034e0:	4e1c      	ldr	r6, [pc, #112]	@ (10003554 <stdio_uart_set_chars_available_callback+0x7c>)
100034e2:	42aa      	cmp	r2, r5
100034e4:	bf14      	ite	ne
100034e6:	2521      	movne	r5, #33	@ 0x21
100034e8:	2522      	moveq	r5, #34	@ 0x22
100034ea:	4604      	mov	r4, r0
100034ec:	f8d6 c000 	ldr.w	ip, [r6]
100034f0:	b118      	cbz	r0, 100034fa <stdio_uart_set_chars_available_callback+0x22>
100034f2:	f1bc 0f00 	cmp.w	ip, #0
100034f6:	d010      	beq.n	1000351a <stdio_uart_set_chars_available_callback+0x42>
100034f8:	bdf8      	pop	{r3, r4, r5, r6, r7, pc}
100034fa:	f1bc 0f00 	cmp.w	ip, #0
100034fe:	d0fb      	beq.n	100034f8 <stdio_uart_set_chars_available_callback+0x20>
10003500:	4601      	mov	r1, r0
10003502:	6390      	str	r0, [r2, #56]	@ 0x38
10003504:	4628      	mov	r0, r5
10003506:	f7fd f821 	bl	1000054c <irq_set_enabled>
1000350a:	4628      	mov	r0, r5
1000350c:	4912      	ldr	r1, [pc, #72]	@ (10003558 <stdio_uart_set_chars_available_callback+0x80>)
1000350e:	f7fd f863 	bl	100005d8 <irq_remove_handler>
10003512:	4b12      	ldr	r3, [pc, #72]	@ (1000355c <stdio_uart_set_chars_available_callback+0x84>)
10003514:	6034      	str	r4, [r6, #0]
10003516:	601c      	str	r4, [r3, #0]
10003518:	bdf8      	pop	{r3, r4, r5, r6, r7, pc}
1000351a:	460b      	mov	r3, r1
1000351c:	4a0f      	ldr	r2, [pc, #60]	@ (1000355c <stdio_uart_set_chars_available_callback+0x84>)
1000351e:	490e      	ldr	r1, [pc, #56]	@ (10003558 <stdio_uart_set_chars_available_callback+0x80>)
10003520:	6030      	str	r0, [r6, #0]
10003522:	4628      	mov	r0, r5
10003524:	6013      	str	r3, [r2, #0]
10003526:	f7fd f827 	bl	10000578 <irq_set_exclusive_handler>
1000352a:	2101      	movs	r1, #1
1000352c:	4628      	mov	r0, r5
1000352e:	f7fd f80d 	bl	1000054c <irq_set_enabled>
10003532:	683a      	ldr	r2, [r7, #0]
10003534:	2150      	movs	r1, #80	@ 0x50
10003536:	4613      	mov	r3, r2
10003538:	6391      	str	r1, [r2, #56]	@ 0x38
1000353a:	f853 2f34 	ldr.w	r2, [r3, #52]!
1000353e:	f002 0238 	and.w	r2, r2, #56	@ 0x38
10003542:	f503 5380 	add.w	r3, r3, #4096	@ 0x1000
10003546:	601a      	str	r2, [r3, #0]
10003548:	bdf8      	pop	{r3, r4, r5, r6, r7, pc}
1000354a:	bf00      	nop
1000354c:	20000858 	.word	0x20000858
10003550:	40078000 	.word	0x40078000
10003554:	200007d0 	.word	0x200007d0
10003558:	100034a5 	.word	0x100034a5
1000355c:	200007d4 	.word	0x200007d4

10003560 <stdio_uart_init>:
10003560:	b510      	push	{r4, lr}
10003562:	490e      	ldr	r1, [pc, #56]	@ (1000359c <stdio_uart_init+0x3c>)
10003564:	4c0e      	ldr	r4, [pc, #56]	@ (100035a0 <stdio_uart_init+0x40>)
10003566:	480f      	ldr	r0, [pc, #60]	@ (100035a4 <stdio_uart_init+0x44>)
10003568:	4a0f      	ldr	r2, [pc, #60]	@ (100035a8 <stdio_uart_init+0x48>)
1000356a:	4b10      	ldr	r3, [pc, #64]	@ (100035ac <stdio_uart_init+0x4c>)
1000356c:	7800      	ldrb	r0, [r0, #0]
1000356e:	6021      	str	r1, [r4, #0]
10003570:	2000      	movs	r0, #0
10003572:	2102      	movs	r1, #2
10003574:	7812      	ldrb	r2, [r2, #0]
10003576:	781b      	ldrb	r3, [r3, #0]
10003578:	f7fc ff46 	bl	10000408 <gpio_set_function>
1000357c:	2102      	movs	r1, #2
1000357e:	2001      	movs	r0, #1
10003580:	f7fc ff42 	bl	10000408 <gpio_set_function>
10003584:	f44f 31e1 	mov.w	r1, #115200	@ 0x1c200
10003588:	6820      	ldr	r0, [r4, #0]
1000358a:	f7fd fda1 	bl	100010d0 <uart_init>
1000358e:	e8bd 4010 	ldmia.w	sp!, {r4, lr}
10003592:	2101      	movs	r1, #1
10003594:	4806      	ldr	r0, [pc, #24]	@ (100035b0 <stdio_uart_init+0x50>)
10003596:	f7ff be29 	b.w	100031ec <stdio_set_driver_enabled>
1000359a:	bf00      	nop
1000359c:	40070000 	.word	0x40070000
100035a0:	20000858 	.word	0x20000858
100035a4:	10003998 	.word	0x10003998
100035a8:	10003994 	.word	0x10003994
100035ac:	10003990 	.word	0x10003990
100035b0:	2000060c 	.word	0x2000060c

100035b4 <memcpy>:
100035b4:	4684      	mov	ip, r0
100035b6:	ea41 0300 	orr.w	r3, r1, r0
100035ba:	f013 0303 	ands.w	r3, r3, #3
100035be:	d149      	bne.n	10003654 <memcpy+0xa0>
100035c0:	3a40      	subs	r2, #64	@ 0x40
100035c2:	d323      	bcc.n	1000360c <memcpy+0x58>
100035c4:	680b      	ldr	r3, [r1, #0]
100035c6:	6003      	str	r3, [r0, #0]
100035c8:	684b      	ldr	r3, [r1, #4]
100035ca:	6043      	str	r3, [r0, #4]
100035cc:	688b      	ldr	r3, [r1, #8]
100035ce:	6083      	str	r3, [r0, #8]
100035d0:	68cb      	ldr	r3, [r1, #12]
100035d2:	60c3      	str	r3, [r0, #12]
100035d4:	690b      	ldr	r3, [r1, #16]
100035d6:	6103      	str	r3, [r0, #16]
100035d8:	694b      	ldr	r3, [r1, #20]
100035da:	6143      	str	r3, [r0, #20]
100035dc:	698b      	ldr	r3, [r1, #24]
100035de:	6183      	str	r3, [r0, #24]
100035e0:	69cb      	ldr	r3, [r1, #28]
100035e2:	61c3      	str	r3, [r0, #28]
100035e4:	6a0b      	ldr	r3, [r1, #32]
100035e6:	6203      	str	r3, [r0, #32]
100035e8:	6a4b      	ldr	r3, [r1, #36]	@ 0x24
100035ea:	6243      	str	r3, [r0, #36]	@ 0x24
100035ec:	6a8b      	ldr	r3, [r1, #40]	@ 0x28
100035ee:	6283      	str	r3, [r0, #40]	@ 0x28
100035f0:	6acb      	ldr	r3, [r1, #44]	@ 0x2c
100035f2:	62c3      	str	r3, [r0, #44]	@ 0x2c
100035f4:	6b0b      	ldr	r3, [r1, #48]	@ 0x30
100035f6:	6303      	str	r3, [r0, #48]	@ 0x30
100035f8:	6b4b      	ldr	r3, [r1, #52]	@ 0x34
100035fa:	6343      	str	r3, [r0, #52]	@ 0x34
100035fc:	6b8b      	ldr	r3, [r1, #56]	@ 0x38
100035fe:	6383      	str	r3, [r0, #56]	@ 0x38
10003600:	6bcb      	ldr	r3, [r1, #60]	@ 0x3c
10003602:	63c3      	str	r3, [r0, #60]	@ 0x3c
10003604:	3040      	adds	r0, #64	@ 0x40
10003606:	3140      	adds	r1, #64	@ 0x40
10003608:	3a40      	subs	r2, #64	@ 0x40
1000360a:	d2db      	bcs.n	100035c4 <memcpy+0x10>
1000360c:	3230      	adds	r2, #48	@ 0x30
1000360e:	d30b      	bcc.n	10003628 <memcpy+0x74>
10003610:	680b      	ldr	r3, [r1, #0]
10003612:	6003      	str	r3, [r0, #0]
10003614:	684b      	ldr	r3, [r1, #4]
10003616:	6043      	str	r3, [r0, #4]
10003618:	688b      	ldr	r3, [r1, #8]
1000361a:	6083      	str	r3, [r0, #8]
1000361c:	68cb      	ldr	r3, [r1, #12]
1000361e:	60c3      	str	r3, [r0, #12]
10003620:	3010      	adds	r0, #16
10003622:	3110      	adds	r1, #16
10003624:	3a10      	subs	r2, #16
10003626:	d2f3      	bcs.n	10003610 <memcpy+0x5c>
10003628:	320c      	adds	r2, #12
1000362a:	d305      	bcc.n	10003638 <memcpy+0x84>
1000362c:	f851 3b04 	ldr.w	r3, [r1], #4
10003630:	f840 3b04 	str.w	r3, [r0], #4
10003634:	3a04      	subs	r2, #4
10003636:	d2f9      	bcs.n	1000362c <memcpy+0x78>
10003638:	3204      	adds	r2, #4
1000363a:	d008      	beq.n	1000364e <memcpy+0x9a>
1000363c:	07d2      	lsls	r2, r2, #31
1000363e:	bf1c      	itt	ne
10003640:	f811 3b01 	ldrbne.w	r3, [r1], #1
10003644:	f800 3b01 	strbne.w	r3, [r0], #1
10003648:	d301      	bcc.n	1000364e <memcpy+0x9a>
1000364a:	880b      	ldrh	r3, [r1, #0]
1000364c:	8003      	strh	r3, [r0, #0]
1000364e:	4660      	mov	r0, ip
10003650:	4770      	bx	lr
10003652:	bf00      	nop
10003654:	2a08      	cmp	r2, #8
10003656:	d313      	bcc.n	10003680 <memcpy+0xcc>
10003658:	078b      	lsls	r3, r1, #30
1000365a:	d0b1      	beq.n	100035c0 <memcpy+0xc>
1000365c:	f010 0303 	ands.w	r3, r0, #3
10003660:	d0ae      	beq.n	100035c0 <memcpy+0xc>
10003662:	f1c3 0304 	rsb	r3, r3, #4
10003666:	1ad2      	subs	r2, r2, r3
10003668:	07db      	lsls	r3, r3, #31
1000366a:	bf1c      	itt	ne
1000366c:	f811 3b01 	ldrbne.w	r3, [r1], #1
10003670:	f800 3b01 	strbne.w	r3, [r0], #1
10003674:	d3a4      	bcc.n	100035c0 <memcpy+0xc>
10003676:	f831 3b02 	ldrh.w	r3, [r1], #2
1000367a:	f820 3b02 	strh.w	r3, [r0], #2
1000367e:	e79f      	b.n	100035c0 <memcpy+0xc>
10003680:	3a04      	subs	r2, #4
10003682:	d3d9      	bcc.n	10003638 <memcpy+0x84>
10003684:	3a01      	subs	r2, #1
10003686:	f811 3b01 	ldrb.w	r3, [r1], #1
1000368a:	f800 3b01 	strb.w	r3, [r0], #1
1000368e:	d2f9      	bcs.n	10003684 <memcpy+0xd0>
10003690:	780b      	ldrb	r3, [r1, #0]
10003692:	7003      	strb	r3, [r0, #0]
10003694:	784b      	ldrb	r3, [r1, #1]
10003696:	7043      	strb	r3, [r0, #1]
10003698:	788b      	ldrb	r3, [r1, #2]
1000369a:	7083      	strb	r3, [r0, #2]
1000369c:	4660      	mov	r0, ip
1000369e:	4770      	bx	lr

100036a0 <strlen>:
100036a0:	f020 0103 	bic.w	r1, r0, #3
100036a4:	f010 0003 	ands.w	r0, r0, #3
100036a8:	f1c0 0000 	rsb	r0, r0, #0
100036ac:	f851 3b04 	ldr.w	r3, [r1], #4
100036b0:	f100 0c04 	add.w	ip, r0, #4
100036b4:	ea4f 0ccc 	mov.w	ip, ip, lsl #3
100036b8:	f06f 0200 	mvn.w	r2, #0
100036bc:	bf1c      	itt	ne
100036be:	fa22 f20c 	lsrne.w	r2, r2, ip
100036c2:	4313      	orrne	r3, r2
100036c4:	f04f 0c01 	mov.w	ip, #1
100036c8:	ea4c 2c0c 	orr.w	ip, ip, ip, lsl #8
100036cc:	ea4c 4c0c 	orr.w	ip, ip, ip, lsl #16
100036d0:	eba3 020c 	sub.w	r2, r3, ip
100036d4:	ea22 0203 	bic.w	r2, r2, r3
100036d8:	ea12 12cc 	ands.w	r2, r2, ip, lsl #7
100036dc:	bf04      	itt	eq
100036de:	f851 3b04 	ldreq.w	r3, [r1], #4
100036e2:	3004      	addeq	r0, #4
100036e4:	d0f4      	beq.n	100036d0 <strlen+0x30>
100036e6:	f1c2 0100 	rsb	r1, r2, #0
100036ea:	ea02 0201 	and.w	r2, r2, r1
100036ee:	fab2 f282 	clz	r2, r2
100036f2:	f1c2 021f 	rsb	r2, r2, #31
100036f6:	eb00 00d2 	add.w	r0, r0, r2, lsr #3
100036fa:	4770      	bx	lr

100036fc <_fini>:
100036fc:	b5f8      	push	{r3, r4, r5, r6, r7, lr}
100036fe:	bf00      	nop

10003700 <____aeabi_uldivmod_veneer>:
10003700:	f85f f000 	ldr.w	pc, [pc]	@ 10003704 <____aeabi_uldivmod_veneer+0x4>
10003704:	20000221 	.word	0x20000221

10003708 <__mutex_exit_veneer>:
10003708:	f85f f000 	ldr.w	pc, [pc]	@ 1000370c <__mutex_exit_veneer+0x4>
1000370c:	200001e5 	.word	0x200001e5

10003710 <__mutex_try_enter_block_until_veneer>:
10003710:	f85f f000 	ldr.w	pc, [pc]	@ 10003714 <__mutex_try_enter_block_until_veneer+0x4>
10003714:	2000017d 	.word	0x2000017d

10003718 <__pre_init_runtime_init_bootrom_reset>:
10003718:	10001489                                ....

1000371c <__pre_init_runtime_init_early_resets>:
1000371c:	100013fd                                ....

10003720 <__pre_init_runtime_init_usb_power_down>:
10003720:	10001431                                1...

10003724 <__pre_init_runtime_init_clocks>:
10003724:	1000151d                                ....

10003728 <__pre_init_runtime_init_post_clock_resets>:
10003728:	10001469                                i...

1000372c <__pre_init_runtime_init_boot_locks_reset>:
1000372c:	10001381                                ....

10003730 <__pre_init_runtime_init_spin_locks_reset>:
10003730:	100014b1                                ....

10003734 <__pre_init_runtime_init_bootrom_locking_enable>:
10003734:	1000136d                                m...

10003738 <__pre_init_runtime_init_mutex>:
10003738:	10000895                                ....

1000373c <__pre_init_runtime_init_install_ram_vector_table>:
1000373c:	100014b5                                ....

10003740 <__pre_init_runtime_init_default_alarm_pool>:
10003740:	10000c11                                ....

10003744 <__pre_init_first_per_core_initializer>:
10003744:	100013cd                                ....

10003748 <__pre_init_runtime_init_per_core_bootrom_reset>:
10003748:	1000149d                                ....

1000374c <__pre_init_runtime_init_per_core_enable_coprocessors>:
1000374c:	1000144d                                M...

10003750 <__pre_init_spinlock_set_extexclall>:
10003750:	100004e5                                ....

10003754 <__pre_init_runtime_init_per_core_irq_priorities>:
10003754:	1000050d                                ....

10003758 <__frame_dummy_init_array_entry>:
10003758:	10000211                                ....

Disassembly of section .data:

20000110 <mutex_enter_block_until>:
20000110:	f04f 4150 	mov.w	r1, #3489660928	@ 0xd0000000
20000114:	e92d 41f0 	stmdb	sp!, {r4, r5, r6, r7, r8, lr}
20000118:	2700      	movs	r7, #0
2000011a:	4604      	mov	r4, r0
2000011c:	4616      	mov	r6, r2
2000011e:	461d      	mov	r5, r3
20000120:	f8d1 8000 	ldr.w	r8, [r1]
20000124:	e008      	b.n	20000138 <mutex_enter_block_until+0x28>
20000126:	e8c1 7f8f 	stlb	r7, [r1]
2000012a:	f38c 8810 	msr	PRIMASK, ip
2000012e:	4630      	mov	r0, r6
20000130:	4629      	mov	r1, r5
20000132:	f000 fa35 	bl	200005a0 <__best_effort_wfe_or_timeout_veneer>
20000136:	b9e8      	cbnz	r0, 20000174 <mutex_enter_block_until+0x64>
20000138:	6821      	ldr	r1, [r4, #0]
2000013a:	f3ef 8c10 	mrs	ip, PRIMASK
2000013e:	b672      	cpsid	i
20000140:	e8d1 2fcf 	ldaexb	r2, [r1]
20000144:	2301      	movs	r3, #1
20000146:	2a00      	cmp	r2, #0
20000148:	d1fa      	bne.n	20000140 <mutex_enter_block_until+0x30>
2000014a:	e8c1 3f42 	strexb	r2, r3, [r1]
2000014e:	2a00      	cmp	r2, #0
20000150:	d1f6      	bne.n	20000140 <mutex_enter_block_until+0x30>
20000152:	f3bf 8f5f 	dmb	sy
20000156:	f994 3004 	ldrsb.w	r3, [r4, #4]
2000015a:	6821      	ldr	r1, [r4, #0]
2000015c:	2b00      	cmp	r3, #0
2000015e:	dae2      	bge.n	20000126 <mutex_enter_block_until+0x16>
20000160:	2300      	movs	r3, #0
20000162:	f884 8004 	strb.w	r8, [r4, #4]
20000166:	e8c1 3f8f 	stlb	r3, [r1]
2000016a:	f38c 8810 	msr	PRIMASK, ip
2000016e:	2001      	movs	r0, #1
20000170:	e8bd 81f0 	ldmia.w	sp!, {r4, r5, r6, r7, r8, pc}
20000174:	2000      	movs	r0, #0
20000176:	e8bd 81f0 	ldmia.w	sp!, {r4, r5, r6, r7, r8, pc}
2000017a:	bf00      	nop

2000017c <mutex_try_enter_block_until>:
2000017c:	b530      	push	{r4, r5, lr}
2000017e:	6804      	ldr	r4, [r0, #0]
20000180:	f3ef 8c10 	mrs	ip, PRIMASK
20000184:	b672      	cpsid	i
20000186:	e8d4 efcf 	ldaexb	lr, [r4]
2000018a:	2501      	movs	r5, #1
2000018c:	f1be 0f00 	cmp.w	lr, #0
20000190:	d1f9      	bne.n	20000186 <mutex_try_enter_block_until+0xa>
20000192:	e8c4 5f4e 	strexb	lr, r5, [r4]
20000196:	f1be 0f00 	cmp.w	lr, #0
2000019a:	d1f4      	bne.n	20000186 <mutex_try_enter_block_until+0xa>
2000019c:	f3bf 8f5f 	dmb	sy
200001a0:	f990 4004 	ldrsb.w	r4, [r0, #4]
200001a4:	6805      	ldr	r5, [r0, #0]
200001a6:	2c00      	cmp	r4, #0
200001a8:	db10      	blt.n	200001cc <mutex_try_enter_block_until+0x50>
200001aa:	2100      	movs	r1, #0
200001ac:	e8c5 1f8f 	stlb	r1, [r5]
200001b0:	f38c 8810 	msr	PRIMASK, ip
200001b4:	f04f 4550 	mov.w	r5, #3489660928	@ 0xd0000000
200001b8:	f995 5000 	ldrsb.w	r5, [r5]
200001bc:	42a5      	cmp	r5, r4
200001be:	d101      	bne.n	200001c4 <mutex_try_enter_block_until+0x48>
200001c0:	4608      	mov	r0, r1
200001c2:	bd30      	pop	{r4, r5, pc}
200001c4:	e8bd 4030 	ldmia.w	sp!, {r4, r5, lr}
200001c8:	f7ff bfa2 	b.w	20000110 <mutex_enter_block_until>
200001cc:	f04f 4250 	mov.w	r2, #3489660928	@ 0xd0000000
200001d0:	6812      	ldr	r2, [r2, #0]
200001d2:	2300      	movs	r3, #0
200001d4:	7102      	strb	r2, [r0, #4]
200001d6:	e8c5 3f8f 	stlb	r3, [r5]
200001da:	f38c 8810 	msr	PRIMASK, ip
200001de:	2001      	movs	r0, #1
200001e0:	bd30      	pop	{r4, r5, pc}
200001e2:	bf00      	nop

200001e4 <mutex_exit>:
200001e4:	6803      	ldr	r3, [r0, #0]
200001e6:	f3ef 8210 	mrs	r2, PRIMASK
200001ea:	b672      	cpsid	i
200001ec:	e8d3 cfcf 	ldaexb	ip, [r3]
200001f0:	2101      	movs	r1, #1
200001f2:	f1bc 0f00 	cmp.w	ip, #0
200001f6:	d1f9      	bne.n	200001ec <mutex_exit+0x8>
200001f8:	e8c3 1f4c 	strexb	ip, r1, [r3]
200001fc:	f1bc 0f00 	cmp.w	ip, #0
20000200:	d1f4      	bne.n	200001ec <mutex_exit+0x8>
20000202:	f3bf 8f5f 	dmb	sy
20000206:	f04f 0cff 	mov.w	ip, #255	@ 0xff
2000020a:	2300      	movs	r3, #0
2000020c:	6801      	ldr	r1, [r0, #0]
2000020e:	f880 c004 	strb.w	ip, [r0, #4]
20000212:	e8c1 3f8f 	stlb	r3, [r1]
20000216:	f382 8810 	msr	PRIMASK, r2
2000021a:	bf40      	sev
2000021c:	4770      	bx	lr
2000021e:	bf00      	nop

20000220 <__aeabi_uldivmod>:
20000220:	b953      	cbnz	r3, 20000238 <__aeabi_uldivmod+0x18>
20000222:	b94a      	cbnz	r2, 20000238 <__aeabi_uldivmod+0x18>
20000224:	2900      	cmp	r1, #0
20000226:	bf08      	it	eq
20000228:	2800      	cmpeq	r0, #0
2000022a:	bf1c      	itt	ne
2000022c:	f04f 31ff 	movne.w	r1, #4294967295
20000230:	f04f 30ff 	movne.w	r0, #4294967295
20000234:	f000 b9b2 	b.w	2000059c <__aeabi_idiv0>
20000238:	f1ad 0c08 	sub.w	ip, sp, #8
2000023c:	e96d ce04 	strd	ip, lr, [sp, #-16]!
20000240:	f000 f806 	bl	20000250 <__udivmoddi4>
20000244:	f8dd e004 	ldr.w	lr, [sp, #4]
20000248:	e9dd 2302 	ldrd	r2, r3, [sp, #8]
2000024c:	b004      	add	sp, #16
2000024e:	4770      	bx	lr

20000250 <__udivmoddi4>:
20000250:	e92d 4ff0 	stmdb	sp!, {r4, r5, r6, r7, r8, r9, sl, fp, lr}
20000254:	468c      	mov	ip, r1
20000256:	9e09      	ldr	r6, [sp, #36]	@ 0x24
20000258:	4604      	mov	r4, r0
2000025a:	460f      	mov	r7, r1
2000025c:	2b00      	cmp	r3, #0
2000025e:	d148      	bne.n	200002f2 <__udivmoddi4+0xa2>
20000260:	428a      	cmp	r2, r1
20000262:	4615      	mov	r5, r2
20000264:	d95e      	bls.n	20000324 <__udivmoddi4+0xd4>
20000266:	fab2 f382 	clz	r3, r2
2000026a:	b13b      	cbz	r3, 2000027c <__udivmoddi4+0x2c>
2000026c:	f1c3 0220 	rsb	r2, r3, #32
20000270:	409f      	lsls	r7, r3
20000272:	409d      	lsls	r5, r3
20000274:	409c      	lsls	r4, r3
20000276:	fa20 f202 	lsr.w	r2, r0, r2
2000027a:	4317      	orrs	r7, r2
2000027c:	ea4f 4e15 	mov.w	lr, r5, lsr #16
20000280:	fa1f fc85 	uxth.w	ip, r5
20000284:	0c22      	lsrs	r2, r4, #16
20000286:	fbb7 f1fe 	udiv	r1, r7, lr
2000028a:	fb0e 7711 	mls	r7, lr, r1, r7
2000028e:	fb01 f00c 	mul.w	r0, r1, ip
20000292:	ea42 4207 	orr.w	r2, r2, r7, lsl #16
20000296:	4290      	cmp	r0, r2
20000298:	d907      	bls.n	200002aa <__udivmoddi4+0x5a>
2000029a:	18aa      	adds	r2, r5, r2
2000029c:	f101 37ff 	add.w	r7, r1, #4294967295
200002a0:	d202      	bcs.n	200002a8 <__udivmoddi4+0x58>
200002a2:	4290      	cmp	r0, r2
200002a4:	f200 8158 	bhi.w	20000558 <__udivmoddi4+0x308>
200002a8:	4639      	mov	r1, r7
200002aa:	1a12      	subs	r2, r2, r0
200002ac:	b2a4      	uxth	r4, r4
200002ae:	fbb2 f0fe 	udiv	r0, r2, lr
200002b2:	fb0e 2210 	mls	r2, lr, r0, r2
200002b6:	fb00 fc0c 	mul.w	ip, r0, ip
200002ba:	ea44 4402 	orr.w	r4, r4, r2, lsl #16
200002be:	45a4      	cmp	ip, r4
200002c0:	d90b      	bls.n	200002da <__udivmoddi4+0x8a>
200002c2:	192c      	adds	r4, r5, r4
200002c4:	f100 32ff 	add.w	r2, r0, #4294967295
200002c8:	bf2c      	ite	cs
200002ca:	2701      	movcs	r7, #1
200002cc:	2700      	movcc	r7, #0
200002ce:	45a4      	cmp	ip, r4
200002d0:	d902      	bls.n	200002d8 <__udivmoddi4+0x88>
200002d2:	2f00      	cmp	r7, #0
200002d4:	f000 8143 	beq.w	2000055e <__udivmoddi4+0x30e>
200002d8:	4610      	mov	r0, r2
200002da:	ea40 4001 	orr.w	r0, r0, r1, lsl #16
200002de:	eba4 040c 	sub.w	r4, r4, ip
200002e2:	2100      	movs	r1, #0
200002e4:	b11e      	cbz	r6, 200002ee <__udivmoddi4+0x9e>
200002e6:	40dc      	lsrs	r4, r3
200002e8:	2300      	movs	r3, #0
200002ea:	e9c6 4300 	strd	r4, r3, [r6]
200002ee:	e8bd 8ff0 	ldmia.w	sp!, {r4, r5, r6, r7, r8, r9, sl, fp, pc}
200002f2:	428b      	cmp	r3, r1
200002f4:	d906      	bls.n	20000304 <__udivmoddi4+0xb4>
200002f6:	b10e      	cbz	r6, 200002fc <__udivmoddi4+0xac>
200002f8:	e9c6 0100 	strd	r0, r1, [r6]
200002fc:	2100      	movs	r1, #0
200002fe:	4608      	mov	r0, r1
20000300:	e8bd 8ff0 	ldmia.w	sp!, {r4, r5, r6, r7, r8, r9, sl, fp, pc}
20000304:	fab3 f183 	clz	r1, r3
20000308:	2900      	cmp	r1, #0
2000030a:	d151      	bne.n	200003b0 <__udivmoddi4+0x160>
2000030c:	4563      	cmp	r3, ip
2000030e:	f0c0 8116 	bcc.w	2000053e <__udivmoddi4+0x2ee>
20000312:	4282      	cmp	r2, r0
20000314:	f240 8113 	bls.w	2000053e <__udivmoddi4+0x2ee>
20000318:	4608      	mov	r0, r1
2000031a:	2e00      	cmp	r6, #0
2000031c:	d0e7      	beq.n	200002ee <__udivmoddi4+0x9e>
2000031e:	e9c6 4700 	strd	r4, r7, [r6]
20000322:	e7e4      	b.n	200002ee <__udivmoddi4+0x9e>
20000324:	2a00      	cmp	r2, #0
20000326:	f000 80af 	beq.w	20000488 <__udivmoddi4+0x238>
2000032a:	fab2 f382 	clz	r3, r2
2000032e:	2b00      	cmp	r3, #0
20000330:	f040 80c2 	bne.w	200004b8 <__udivmoddi4+0x268>
20000334:	1a8a      	subs	r2, r1, r2
20000336:	ea4f 4e15 	mov.w	lr, r5, lsr #16
2000033a:	b2af      	uxth	r7, r5
2000033c:	2101      	movs	r1, #1
2000033e:	0c20      	lsrs	r0, r4, #16
20000340:	fbb2 fcfe 	udiv	ip, r2, lr
20000344:	fb0e 221c 	mls	r2, lr, ip, r2
20000348:	ea40 4202 	orr.w	r2, r0, r2, lsl #16
2000034c:	fb07 f00c 	mul.w	r0, r7, ip
20000350:	4290      	cmp	r0, r2
20000352:	d90e      	bls.n	20000372 <__udivmoddi4+0x122>
20000354:	18aa      	adds	r2, r5, r2
20000356:	f10c 38ff 	add.w	r8, ip, #4294967295
2000035a:	bf2c      	ite	cs
2000035c:	f04f 0901 	movcs.w	r9, #1
20000360:	f04f 0900 	movcc.w	r9, #0
20000364:	4290      	cmp	r0, r2
20000366:	d903      	bls.n	20000370 <__udivmoddi4+0x120>
20000368:	f1b9 0f00 	cmp.w	r9, #0
2000036c:	f000 80f0 	beq.w	20000550 <__udivmoddi4+0x300>
20000370:	46c4      	mov	ip, r8
20000372:	1a12      	subs	r2, r2, r0
20000374:	b2a4      	uxth	r4, r4
20000376:	fbb2 f0fe 	udiv	r0, r2, lr
2000037a:	fb0e 2210 	mls	r2, lr, r0, r2
2000037e:	fb00 f707 	mul.w	r7, r0, r7
20000382:	ea44 4402 	orr.w	r4, r4, r2, lsl #16
20000386:	42a7      	cmp	r7, r4
20000388:	d90e      	bls.n	200003a8 <__udivmoddi4+0x158>
2000038a:	192c      	adds	r4, r5, r4
2000038c:	f100 32ff 	add.w	r2, r0, #4294967295
20000390:	bf2c      	ite	cs
20000392:	f04f 0e01 	movcs.w	lr, #1
20000396:	f04f 0e00 	movcc.w	lr, #0
2000039a:	42a7      	cmp	r7, r4
2000039c:	d903      	bls.n	200003a6 <__udivmoddi4+0x156>
2000039e:	f1be 0f00 	cmp.w	lr, #0
200003a2:	f000 80d2 	beq.w	2000054a <__udivmoddi4+0x2fa>
200003a6:	4610      	mov	r0, r2
200003a8:	1be4      	subs	r4, r4, r7
200003aa:	ea40 400c 	orr.w	r0, r0, ip, lsl #16
200003ae:	e799      	b.n	200002e4 <__udivmoddi4+0x94>
200003b0:	f1c1 0520 	rsb	r5, r1, #32
200003b4:	408b      	lsls	r3, r1
200003b6:	fa0c f401 	lsl.w	r4, ip, r1
200003ba:	fa00 f901 	lsl.w	r9, r0, r1
200003be:	fa22 f705 	lsr.w	r7, r2, r5
200003c2:	fa2c fc05 	lsr.w	ip, ip, r5
200003c6:	408a      	lsls	r2, r1
200003c8:	431f      	orrs	r7, r3
200003ca:	fa20 f305 	lsr.w	r3, r0, r5
200003ce:	0c38      	lsrs	r0, r7, #16
200003d0:	4323      	orrs	r3, r4
200003d2:	fa1f fe87 	uxth.w	lr, r7
200003d6:	0c1c      	lsrs	r4, r3, #16
200003d8:	fbbc f8f0 	udiv	r8, ip, r0
200003dc:	fb00 cc18 	mls	ip, r0, r8, ip
200003e0:	ea44 440c 	orr.w	r4, r4, ip, lsl #16
200003e4:	fb08 fc0e 	mul.w	ip, r8, lr
200003e8:	45a4      	cmp	ip, r4
200003ea:	d90e      	bls.n	2000040a <__udivmoddi4+0x1ba>
200003ec:	193c      	adds	r4, r7, r4
200003ee:	f108 3aff 	add.w	sl, r8, #4294967295
200003f2:	bf2c      	ite	cs
200003f4:	f04f 0b01 	movcs.w	fp, #1
200003f8:	f04f 0b00 	movcc.w	fp, #0
200003fc:	45a4      	cmp	ip, r4
200003fe:	d903      	bls.n	20000408 <__udivmoddi4+0x1b8>
20000400:	f1bb 0f00 	cmp.w	fp, #0
20000404:	f000 80b8 	beq.w	20000578 <__udivmoddi4+0x328>
20000408:	46d0      	mov	r8, sl
2000040a:	eba4 040c 	sub.w	r4, r4, ip
2000040e:	fa1f fc83 	uxth.w	ip, r3
20000412:	fbb4 f3f0 	udiv	r3, r4, r0
20000416:	fb00 4413 	mls	r4, r0, r3, r4
2000041a:	fb03 fe0e 	mul.w	lr, r3, lr
2000041e:	ea4c 4404 	orr.w	r4, ip, r4, lsl #16
20000422:	45a6      	cmp	lr, r4
20000424:	d90e      	bls.n	20000444 <__udivmoddi4+0x1f4>
20000426:	193c      	adds	r4, r7, r4
20000428:	f103 30ff 	add.w	r0, r3, #4294967295
2000042c:	bf2c      	ite	cs
2000042e:	f04f 0c01 	movcs.w	ip, #1
20000432:	f04f 0c00 	movcc.w	ip, #0
20000436:	45a6      	cmp	lr, r4
20000438:	d903      	bls.n	20000442 <__udivmoddi4+0x1f2>
2000043a:	f1bc 0f00 	cmp.w	ip, #0
2000043e:	f000 809f 	beq.w	20000580 <__udivmoddi4+0x330>
20000442:	4603      	mov	r3, r0
20000444:	ea43 4008 	orr.w	r0, r3, r8, lsl #16
20000448:	eba4 040e 	sub.w	r4, r4, lr
2000044c:	fba0 ec02 	umull	lr, ip, r0, r2
20000450:	4564      	cmp	r4, ip
20000452:	4673      	mov	r3, lr
20000454:	46e0      	mov	r8, ip
20000456:	d302      	bcc.n	2000045e <__udivmoddi4+0x20e>
20000458:	d107      	bne.n	2000046a <__udivmoddi4+0x21a>
2000045a:	45f1      	cmp	r9, lr
2000045c:	d205      	bcs.n	2000046a <__udivmoddi4+0x21a>
2000045e:	ebbe 0302 	subs.w	r3, lr, r2
20000462:	eb6c 0c07 	sbc.w	ip, ip, r7
20000466:	3801      	subs	r0, #1
20000468:	46e0      	mov	r8, ip
2000046a:	b15e      	cbz	r6, 20000484 <__udivmoddi4+0x234>
2000046c:	ebb9 0203 	subs.w	r2, r9, r3
20000470:	eb64 0408 	sbc.w	r4, r4, r8
20000474:	fa04 f505 	lsl.w	r5, r4, r5
20000478:	fa22 f301 	lsr.w	r3, r2, r1
2000047c:	40cc      	lsrs	r4, r1
2000047e:	431d      	orrs	r5, r3
20000480:	e9c6 5400 	strd	r5, r4, [r6]
20000484:	2100      	movs	r1, #0
20000486:	e732      	b.n	200002ee <__udivmoddi4+0x9e>
20000488:	0842      	lsrs	r2, r0, #1
2000048a:	462f      	mov	r7, r5
2000048c:	084b      	lsrs	r3, r1, #1
2000048e:	46ac      	mov	ip, r5
20000490:	ea42 72c1 	orr.w	r2, r2, r1, lsl #31
20000494:	46ae      	mov	lr, r5
20000496:	07c4      	lsls	r4, r0, #31
20000498:	0c11      	lsrs	r1, r2, #16
2000049a:	b292      	uxth	r2, r2
2000049c:	ea41 4103 	orr.w	r1, r1, r3, lsl #16
200004a0:	ea42 4201 	orr.w	r2, r2, r1, lsl #16
200004a4:	fbb1 f1f5 	udiv	r1, r1, r5
200004a8:	fbb3 f0f5 	udiv	r0, r3, r5
200004ac:	231f      	movs	r3, #31
200004ae:	eba2 020c 	sub.w	r2, r2, ip
200004b2:	ea41 4100 	orr.w	r1, r1, r0, lsl #16
200004b6:	e742      	b.n	2000033e <__udivmoddi4+0xee>
200004b8:	409d      	lsls	r5, r3
200004ba:	f1c3 0220 	rsb	r2, r3, #32
200004be:	4099      	lsls	r1, r3
200004c0:	409c      	lsls	r4, r3
200004c2:	fa2c fc02 	lsr.w	ip, ip, r2
200004c6:	ea4f 4e15 	mov.w	lr, r5, lsr #16
200004ca:	fa20 f202 	lsr.w	r2, r0, r2
200004ce:	b2af      	uxth	r7, r5
200004d0:	fbbc f8fe 	udiv	r8, ip, lr
200004d4:	430a      	orrs	r2, r1
200004d6:	fb0e cc18 	mls	ip, lr, r8, ip
200004da:	0c11      	lsrs	r1, r2, #16
200004dc:	ea41 410c 	orr.w	r1, r1, ip, lsl #16
200004e0:	fb08 fc07 	mul.w	ip, r8, r7
200004e4:	458c      	cmp	ip, r1
200004e6:	d950      	bls.n	2000058a <__udivmoddi4+0x33a>
200004e8:	1869      	adds	r1, r5, r1
200004ea:	f108 30ff 	add.w	r0, r8, #4294967295
200004ee:	bf2c      	ite	cs
200004f0:	f04f 0901 	movcs.w	r9, #1
200004f4:	f04f 0900 	movcc.w	r9, #0
200004f8:	458c      	cmp	ip, r1
200004fa:	d902      	bls.n	20000502 <__udivmoddi4+0x2b2>
200004fc:	f1b9 0f00 	cmp.w	r9, #0
20000500:	d030      	beq.n	20000564 <__udivmoddi4+0x314>
20000502:	eba1 010c 	sub.w	r1, r1, ip
20000506:	fbb1 f8fe 	udiv	r8, r1, lr
2000050a:	fb08 fc07 	mul.w	ip, r8, r7
2000050e:	fb0e 1118 	mls	r1, lr, r8, r1
20000512:	b292      	uxth	r2, r2
20000514:	ea42 4201 	orr.w	r2, r2, r1, lsl #16
20000518:	4562      	cmp	r2, ip
2000051a:	d234      	bcs.n	20000586 <__udivmoddi4+0x336>
2000051c:	18aa      	adds	r2, r5, r2
2000051e:	f108 31ff 	add.w	r1, r8, #4294967295
20000522:	bf2c      	ite	cs
20000524:	f04f 0901 	movcs.w	r9, #1
20000528:	f04f 0900 	movcc.w	r9, #0
2000052c:	4562      	cmp	r2, ip
2000052e:	d2be      	bcs.n	200004ae <__udivmoddi4+0x25e>
20000530:	f1b9 0f00 	cmp.w	r9, #0
20000534:	d1bb      	bne.n	200004ae <__udivmoddi4+0x25e>
20000536:	f1a8 0102 	sub.w	r1, r8, #2
2000053a:	442a      	add	r2, r5
2000053c:	e7b7      	b.n	200004ae <__udivmoddi4+0x25e>
2000053e:	1a84      	subs	r4, r0, r2
20000540:	eb6c 0203 	sbc.w	r2, ip, r3
20000544:	2001      	movs	r0, #1
20000546:	4617      	mov	r7, r2
20000548:	e6e7      	b.n	2000031a <__udivmoddi4+0xca>
2000054a:	442c      	add	r4, r5
2000054c:	3802      	subs	r0, #2
2000054e:	e72b      	b.n	200003a8 <__udivmoddi4+0x158>
20000550:	f1ac 0c02 	sub.w	ip, ip, #2
20000554:	442a      	add	r2, r5
20000556:	e70c      	b.n	20000372 <__udivmoddi4+0x122>
20000558:	3902      	subs	r1, #2
2000055a:	442a      	add	r2, r5
2000055c:	e6a5      	b.n	200002aa <__udivmoddi4+0x5a>
2000055e:	442c      	add	r4, r5
20000560:	3802      	subs	r0, #2
20000562:	e6ba      	b.n	200002da <__udivmoddi4+0x8a>
20000564:	eba5 0c0c 	sub.w	ip, r5, ip
20000568:	f1a8 0002 	sub.w	r0, r8, #2
2000056c:	4461      	add	r1, ip
2000056e:	fbb1 f8fe 	udiv	r8, r1, lr
20000572:	fb08 fc07 	mul.w	ip, r8, r7
20000576:	e7ca      	b.n	2000050e <__udivmoddi4+0x2be>
20000578:	f1a8 0802 	sub.w	r8, r8, #2
2000057c:	443c      	add	r4, r7
2000057e:	e744      	b.n	2000040a <__udivmoddi4+0x1ba>
20000580:	3b02      	subs	r3, #2
20000582:	443c      	add	r4, r7
20000584:	e75e      	b.n	20000444 <__udivmoddi4+0x1f4>
20000586:	4641      	mov	r1, r8
20000588:	e791      	b.n	200004ae <__udivmoddi4+0x25e>
2000058a:	eba1 010c 	sub.w	r1, r1, ip
2000058e:	4640      	mov	r0, r8
20000590:	fbb1 f8fe 	udiv	r8, r1, lr
20000594:	fb08 fc07 	mul.w	ip, r8, r7
20000598:	e7b9      	b.n	2000050e <__udivmoddi4+0x2be>
2000059a:	bf00      	nop

2000059c <__aeabi_idiv0>:
2000059c:	4770      	bx	lr
2000059e:	bf00      	nop

200005a0 <__best_effort_wfe_or_timeout_veneer>:
200005a0:	f85f f000 	ldr.w	pc, [pc]	@ 200005a4 <__best_effort_wfe_or_timeout_veneer+0x4>
200005a4:	10000f35 	.word	0x10000f35

200005a8 <striped_spin_lock_num>:
200005a8:	00000010                                ....

200005ac <irq_handler_chain_slots>:
200005ac:	00000000 	.word	0x00000000
200005b0:	00010000 	.word	0x00010000
	...
200005bc:	00020000 	.word	0x00020000
	...
200005c8:	00030000 	.word	0x00030000
	...
200005d4:	00ff0000 	.word	0x00ff0000
200005d8:	00000000 	.word	0x00000000

200005dc <irq_handler_chain_first_slot>:
200005dc:	b501      	push	{r0, lr}
200005de:	6848      	ldr	r0, [r1, #4]
200005e0:	3101      	adds	r1, #1
200005e2:	468e      	mov	lr, r1
200005e4:	4700      	bx	r0

200005e6 <irq_handler_chain_remove_tail>:
200005e6:	4670      	mov	r0, lr
200005e8:	3809      	subs	r0, #9
200005ea:	4901      	ldr	r1, [pc, #4]	@ (200005f0 <irq_handler_chain_remove_tail+0xa>)
200005ec:	4788      	blx	r1
200005ee:	bd01      	pop	{r0, pc}
200005f0:	100007cd 	.word	0x100007cd

200005f4 <default_alarm_pool>:
	...
20000608:	20000630                                0.. 

2000060c <stdio_uart>:
2000060c:	100033c1 100034c9 10003411 100034d9     .3...4...4...4..
2000061c:	00000000 00000100                       ........

20000624 <print_mutex>:
	...
