
C:/Users/assem.KEVINTHOMAS/OneDrive/Documents/Embedded-Hacking/drivers/0x0e_watchdog/build/0x0e_watchdog.elf:     file format elf32-littlearm

Sections:
Idx Name          Size      VMA       LMA       File off  Algn
  0 .text         00001bfc  10000000  10000000  00001000  2**3
                  CONTENTS, ALLOC, LOAD, READONLY, CODE
  1 .rodata       000001bc  10001bfc  10001bfc  00002bfc  2**2
                  CONTENTS, ALLOC, LOAD, READONLY, DATA
  2 .ARM.exidx    00000008  10001db8  10001db8  00002db8  2**2
                  CONTENTS, ALLOC, LOAD, READONLY, DATA
  3 .binary_info  0000002c  10001dc0  10001dc0  00002dc0  2**2
                  CONTENTS, ALLOC, LOAD, READONLY, DATA
  4 .ram_vector_table 00000110  20000000  20000000  00004000  2**2
                  ALLOC
  5 .uninitialized_data 00000000  20000110  20000110  00003f9c  2**0
                  CONTENTS
  6 .data         0000019c  20000110  10001dec  00003110  2**3
                  CONTENTS, ALLOC, LOAD, READONLY, CODE
  7 .tdata        00000000  200002ac  200002ac  00003f9c  2**0
                  CONTENTS, ALLOC, LOAD, DATA, THREAD_LOCAL
  8 .tbss         00000000  200002ac  200002ac  00000000  2**0
                  ALLOC, THREAD_LOCAL
  9 .bss          0000022c  200002b0  10001f88  000042b0  2**3
                  ALLOC
 10 .heap         00000800  200004dc  10001f88  000044dc  2**2
                  ALLOC, READONLY
 11 .scratch_x    00000000  20080000  20080000  00003f9c  2**0
                  CONTENTS
 12 .scratch_y    00000000  20081000  20081000  00003f9c  2**0
                  CONTENTS
 13 .stack_dummy  00000800  20081000  20081000  00004000  2**5
                  ALLOC, READONLY
 14 .flash_end    00000014  10001f88  10001f88  00003f88  2**2
                  CONTENTS, ALLOC, LOAD, READONLY, DATA
 15 .ARM.attributes 00000034  00000000  00000000  00003f9c  2**0
                  CONTENTS, READONLY
 16 .comment      00000045  00000000  00000000  00003fd0  2**0
                  CONTENTS, READONLY
 17 .debug_info   0002149c  00000000  00000000  00004015  2**0
                  CONTENTS, READONLY, DEBUGGING, OCTETS
 18 .debug_abbrev 000059ee  00000000  00000000  000254b1  2**0
                  CONTENTS, READONLY, DEBUGGING, OCTETS
 19 .debug_aranges 00000b88  00000000  00000000  0002aea0  2**3
                  CONTENTS, READONLY, DEBUGGING, OCTETS
 20 .debug_rnglists 00003183  00000000  00000000  0002ba28  2**0
                  CONTENTS, READONLY, DEBUGGING, OCTETS
 21 .debug_line   00016c3d  00000000  00000000  0002ebab  2**0
                  CONTENTS, READONLY, DEBUGGING, OCTETS
 22 .debug_str    000059f9  00000000  00000000  000457e8  2**0
                  CONTENTS, READONLY, DEBUGGING, OCTETS
 23 .debug_frame  00002010  00000000  00000000  0004b1e4  2**2
                  CONTENTS, READONLY, DEBUGGING, OCTETS
 24 .debug_loclists 0001052d  00000000  00000000  0004d1f4  2**0
                  CONTENTS, READONLY, DEBUGGING, OCTETS
 25 .debug_line_str 00000193  00000000  00000000  0005d721  2**0
                  CONTENTS, READONLY, DEBUGGING, OCTETS

C:/Users/assem.KEVINTHOMAS/OneDrive/Documents/Embedded-Hacking/drivers/0x0e_watchdog/build/0x0e_watchdog.elf:     file format elf32-littlearm


Disassembly of section .text:

10000000 <__VECTOR_TABLE>:
10000000:	20082000 	.word	0x20082000
10000004:	1000015d 	.word	0x1000015d
10000008:	1000011b 	.word	0x1000011b
1000000c:	1000011d 	.word	0x1000011d
10000010:	10000111 	.word	0x10000111
10000014:	10000111 	.word	0x10000111
10000018:	10000111 	.word	0x10000111
1000001c:	10000111 	.word	0x10000111
10000020:	10000119 	.word	0x10000119
10000024:	10000119 	.word	0x10000119
10000028:	10000119 	.word	0x10000119
1000002c:	1000011f 	.word	0x1000011f
10000030:	10000111 	.word	0x10000111
10000034:	10000119 	.word	0x10000119
10000038:	10000121 	.word	0x10000121
1000003c:	10000123 	.word	0x10000123
10000040:	10000111 	.word	0x10000111
10000044:	10000111 	.word	0x10000111
10000048:	10000111 	.word	0x10000111
1000004c:	10000111 	.word	0x10000111
10000050:	10000111 	.word	0x10000111
10000054:	10000111 	.word	0x10000111
10000058:	10000111 	.word	0x10000111
1000005c:	10000111 	.word	0x10000111
10000060:	10000111 	.word	0x10000111
10000064:	10000111 	.word	0x10000111
10000068:	10000111 	.word	0x10000111
1000006c:	10000111 	.word	0x10000111
10000070:	10000111 	.word	0x10000111
10000074:	10000111 	.word	0x10000111
10000078:	10000111 	.word	0x10000111
1000007c:	10000111 	.word	0x10000111
10000080:	10000111 	.word	0x10000111
10000084:	10000111 	.word	0x10000111
10000088:	10000111 	.word	0x10000111
1000008c:	10000111 	.word	0x10000111
10000090:	10000111 	.word	0x10000111
10000094:	10000111 	.word	0x10000111
10000098:	10000111 	.word	0x10000111
1000009c:	10000111 	.word	0x10000111
100000a0:	10000111 	.word	0x10000111
100000a4:	10000111 	.word	0x10000111
100000a8:	10000111 	.word	0x10000111
100000ac:	10000111 	.word	0x10000111
100000b0:	10000111 	.word	0x10000111
100000b4:	10000111 	.word	0x10000111
100000b8:	10000111 	.word	0x10000111
100000bc:	10000111 	.word	0x10000111
100000c0:	10000111 	.word	0x10000111
100000c4:	10000111 	.word	0x10000111
100000c8:	10000111 	.word	0x10000111
100000cc:	10000111 	.word	0x10000111
100000d0:	10000111 	.word	0x10000111
100000d4:	10000111 	.word	0x10000111
100000d8:	10000111 	.word	0x10000111
100000dc:	10000111 	.word	0x10000111
100000e0:	10000111 	.word	0x10000111
100000e4:	10000111 	.word	0x10000111
100000e8:	10000111 	.word	0x10000111
100000ec:	10000111 	.word	0x10000111
100000f0:	10000111 	.word	0x10000111
100000f4:	10000111 	.word	0x10000111
100000f8:	10000111 	.word	0x10000111
100000fc:	10000111 	.word	0x10000111
10000100:	10000111 	.word	0x10000111
10000104:	10000111 	.word	0x10000111
10000108:	10000111 	.word	0x10000111
1000010c:	10000111 	.word	0x10000111

10000110 <__unhandled_user_irq>:
10000110:	f3ef 8005 	mrs	r0, IPSR
10000114:	3810      	subs	r0, #16

10000116 <unhandled_user_irq_num_in_r0>:
10000116:	be00      	bkpt	0x0000

10000118 <isr_invalid>:
10000118:	be00      	bkpt	0x0000

1000011a <isr_nmi>:
1000011a:	be00      	bkpt	0x0000

1000011c <isr_hardfault>:
1000011c:	be00      	bkpt	0x0000

1000011e <isr_svcall>:
1000011e:	be00      	bkpt	0x0000

10000120 <isr_pendsv>:
10000120:	be00      	bkpt	0x0000

10000122 <isr_systick>:
10000122:	be00      	bkpt	0x0000

10000124 <__default_isrs_end>:
10000124:	7188ebf2 	.word	0x7188ebf2
10000128:	10001dc0 	.word	0x10001dc0
1000012c:	10001dec 	.word	0x10001dec
10000130:	100001a0 	.word	0x100001a0
10000134:	e71aa390 	.word	0xe71aa390

10000138 <__binary_info_header_end>:
10000138:	ffffded3 	.word	0xffffded3
1000013c:	10210142 	.word	0x10210142
10000140:	000001ff 	.word	0x000001ff
10000144:	00001e50 	.word	0x00001e50
10000148:	ab123579 	.word	0xab123579

1000014c <_entry_point>:
1000014c:	f04f 0000 	mov.w	r0, #0

10000150 <_enter_vtable_in_r0>:
10000150:	491e      	ldr	r1, [pc, #120]	@ (100001cc <data_cpy_table+0x2c>)
10000152:	6008      	str	r0, [r1, #0]
10000154:	c806      	ldmia	r0!, {r1, r2}
10000156:	f381 8808 	msr	MSP, r1
1000015a:	4710      	bx	r2

1000015c <_reset_handler>:
1000015c:	f04f 4050 	mov.w	r0, #3489660928	@ 0xd0000000
10000160:	6800      	ldr	r0, [r0, #0]
10000162:	b110      	cbz	r0, 1000016a <hold_non_core0_in_bootrom+0x6>

10000164 <hold_non_core0_in_bootrom>:
10000164:	f04f 0000 	mov.w	r0, #0
10000168:	e7f2      	b.n	10000150 <_enter_vtable_in_r0>
1000016a:	a40d      	add	r4, pc, #52	@ (adr r4, 100001a0 <data_cpy_table>)
1000016c:	cc0e      	ldmia	r4!, {r1, r2, r3}
1000016e:	2900      	cmp	r1, #0
10000170:	d002      	beq.n	10000178 <hold_non_core0_in_bootrom+0x14>
10000172:	f000 f812 	bl	1000019a <data_cpy>
10000176:	e7f9      	b.n	1000016c <hold_non_core0_in_bootrom+0x8>
10000178:	4915      	ldr	r1, [pc, #84]	@ (100001d0 <data_cpy_table+0x30>)
1000017a:	4a16      	ldr	r2, [pc, #88]	@ (100001d4 <data_cpy_table+0x34>)
1000017c:	2000      	movs	r0, #0
1000017e:	e000      	b.n	10000182 <bss_fill_test>

10000180 <bss_fill_loop>:
10000180:	c101      	stmia	r1!, {r0}

10000182 <bss_fill_test>:
10000182:	4291      	cmp	r1, r2
10000184:	d1fc      	bne.n	10000180 <bss_fill_loop>

10000186 <platform_entry>:
10000186:	4914      	ldr	r1, [pc, #80]	@ (100001d8 <data_cpy_table+0x38>)
10000188:	4788      	blx	r1
1000018a:	4914      	ldr	r1, [pc, #80]	@ (100001dc <data_cpy_table+0x3c>)
1000018c:	4788      	blx	r1
1000018e:	4914      	ldr	r1, [pc, #80]	@ (100001e0 <data_cpy_table+0x40>)
10000190:	4788      	blx	r1
10000192:	be00      	bkpt	0x0000
10000194:	e7fd      	b.n	10000192 <platform_entry+0xc>

10000196 <data_cpy_loop>:
10000196:	c901      	ldmia	r1!, {r0}
10000198:	c201      	stmia	r2!, {r0}

1000019a <data_cpy>:
1000019a:	429a      	cmp	r2, r3
1000019c:	d3fb      	bcc.n	10000196 <data_cpy_loop>
1000019e:	4770      	bx	lr

100001a0 <data_cpy_table>:
100001a0:	10001dec 	.word	0x10001dec
100001a4:	20000110 	.word	0x20000110
100001a8:	200002ac 	.word	0x200002ac
100001ac:	10001f88 	.word	0x10001f88
100001b0:	20080000 	.word	0x20080000
100001b4:	20080000 	.word	0x20080000
100001b8:	10001f88 	.word	0x10001f88
100001bc:	20081000 	.word	0x20081000
100001c0:	20081000 	.word	0x20081000
100001c4:	00000000 	.word	0x00000000
100001c8:	4770      	bx	lr
100001ca:	0000      	.short	0x0000
100001cc:	e000ed08 	.word	0xe000ed08
100001d0:	200002ac 	.word	0x200002ac
100001d4:	200004dc 	.word	0x200004dc
100001d8:	100015a9 	.word	0x100015a9
100001dc:	10000235 	.word	0x10000235
100001e0:	100015a1 	.word	0x100015a1

100001e4 <_init>:
100001e4:	b5f8      	push	{r3, r4, r5, r6, r7, lr}
100001e6:	bf00      	nop

100001e8 <register_tm_clones>:
100001e8:	4b06      	ldr	r3, [pc, #24]	@ (10000204 <register_tm_clones+0x1c>)
100001ea:	4907      	ldr	r1, [pc, #28]	@ (10000208 <register_tm_clones+0x20>)
100001ec:	1ac9      	subs	r1, r1, r3
100001ee:	1089      	asrs	r1, r1, #2
100001f0:	bf48      	it	mi
100001f2:	3101      	addmi	r1, #1
100001f4:	1049      	asrs	r1, r1, #1
100001f6:	d003      	beq.n	10000200 <register_tm_clones+0x18>
100001f8:	4b04      	ldr	r3, [pc, #16]	@ (1000020c <register_tm_clones+0x24>)
100001fa:	b10b      	cbz	r3, 10000200 <register_tm_clones+0x18>
100001fc:	4801      	ldr	r0, [pc, #4]	@ (10000204 <register_tm_clones+0x1c>)
100001fe:	4718      	bx	r3
10000200:	4770      	bx	lr
10000202:	bf00      	nop
10000204:	200002ac 	.word	0x200002ac
10000208:	200002ac 	.word	0x200002ac
1000020c:	00000000 	.word	0x00000000

10000210 <frame_dummy>:
10000210:	b508      	push	{r3, lr}
10000212:	4b05      	ldr	r3, [pc, #20]	@ (10000228 <frame_dummy+0x18>)
10000214:	b11b      	cbz	r3, 1000021e <frame_dummy+0xe>
10000216:	4905      	ldr	r1, [pc, #20]	@ (1000022c <frame_dummy+0x1c>)
10000218:	4805      	ldr	r0, [pc, #20]	@ (10000230 <frame_dummy+0x20>)
1000021a:	f3af 8000 	nop.w
1000021e:	e8bd 4008 	ldmia.w	sp!, {r3, lr}
10000222:	f7ff bfe1 	b.w	100001e8 <register_tm_clones>
10000226:	bf00      	nop
10000228:	00000000 	.word	0x00000000
1000022c:	20000494 	.word	0x20000494
10000230:	10001bfc 	.word	0x10001bfc

10000234 <main>:
10000234:	b508      	push	{r3, lr}
10000236:	f001 faaf 	bl	10001798 <stdio_init_all>
1000023a:	f000 f827 	bl	1000028c <watchdog_driver_caused_reboot>
1000023e:	b198      	cbz	r0, 10000268 <main+0x34>
10000240:	480b      	ldr	r0, [pc, #44]	@ (10000270 <main+0x3c>)
10000242:	f001 faf1 	bl	10001828 <__wrap_puts>
10000246:	f640 30b8 	movw	r0, #3000	@ 0xbb8
1000024a:	f000 f819 	bl	10000280 <watchdog_driver_enable>
1000024e:	4809      	ldr	r0, [pc, #36]	@ (10000274 <main+0x40>)
10000250:	f001 faea 	bl	10001828 <__wrap_puts>
10000254:	f000 f818 	bl	10000288 <watchdog_driver_feed>
10000258:	4807      	ldr	r0, [pc, #28]	@ (10000278 <main+0x44>)
1000025a:	f001 fae5 	bl	10001828 <__wrap_puts>
1000025e:	f44f 707a 	mov.w	r0, #1000	@ 0x3e8
10000262:	f000 fd3d 	bl	10000ce0 <sleep_ms>
10000266:	e7f5      	b.n	10000254 <main+0x20>
10000268:	4804      	ldr	r0, [pc, #16]	@ (1000027c <main+0x48>)
1000026a:	f001 fadd 	bl	10001828 <__wrap_puts>
1000026e:	e7ea      	b.n	10000246 <main+0x12>
10000270:	10001bfc 	.word	0x10001bfc
10000274:	10001c3c 	.word	0x10001c3c
10000278:	10001c70 	.word	0x10001c70
1000027c:	10001c24 	.word	0x10001c24

10000280 <watchdog_driver_enable>:
10000280:	2101      	movs	r1, #1
10000282:	f000 bfa9 	b.w	100011d8 <watchdog_enable>
10000286:	bf00      	nop

10000288 <watchdog_driver_feed>:
10000288:	f000 bf9c 	b.w	100011c4 <watchdog_update>

1000028c <watchdog_driver_caused_reboot>:
1000028c:	f000 bfe2 	b.w	10001254 <watchdog_caused_reboot>

10000290 <gpio_set_function>:
10000290:	b410      	push	{r4}
10000292:	f44f 7480 	mov.w	r4, #256	@ 0x100
10000296:	4b0c      	ldr	r3, [pc, #48]	@ (100002c8 <gpio_set_function+0x38>)
10000298:	f853 2020 	ldr.w	r2, [r3, r0, lsl #2]
1000029c:	eb03 0380 	add.w	r3, r3, r0, lsl #2
100002a0:	00c0      	lsls	r0, r0, #3
100002a2:	f082 0240 	eor.w	r2, r2, #64	@ 0x40
100002a6:	f100 4080 	add.w	r0, r0, #1073741824	@ 0x40000000
100002aa:	f503 5c80 	add.w	ip, r3, #4096	@ 0x1000
100002ae:	f002 02c0 	and.w	r2, r2, #192	@ 0xc0
100002b2:	f500 3020 	add.w	r0, r0, #163840	@ 0x28000
100002b6:	f503 5340 	add.w	r3, r3, #12288	@ 0x3000
100002ba:	f8cc 2000 	str.w	r2, [ip]
100002be:	6041      	str	r1, [r0, #4]
100002c0:	601c      	str	r4, [r3, #0]
100002c2:	f85d 4b04 	ldr.w	r4, [sp], #4
100002c6:	4770      	bx	lr
100002c8:	40038004 	.word	0x40038004

100002cc <panic>:
100002cc:	b40f      	push	{r0, r1, r2, r3}
100002ce:	b500      	push	{lr}
100002d0:	b083      	sub	sp, #12
100002d2:	9c04      	ldr	r4, [sp, #16]
100002d4:	4807      	ldr	r0, [pc, #28]	@ (100002f4 <panic+0x28>)
100002d6:	f001 faa7 	bl	10001828 <__wrap_puts>
100002da:	b13c      	cbz	r4, 100002ec <panic+0x20>
100002dc:	a905      	add	r1, sp, #20
100002de:	4620      	mov	r0, r4
100002e0:	9101      	str	r1, [sp, #4]
100002e2:	f001 f943 	bl	1000156c <weak_raw_vprintf>
100002e6:	4804      	ldr	r0, [pc, #16]	@ (100002f8 <panic+0x2c>)
100002e8:	f001 fa9e 	bl	10001828 <__wrap_puts>
100002ec:	2001      	movs	r0, #1
100002ee:	f001 f955 	bl	1000159c <_exit>
100002f2:	bf00      	nop
100002f4:	10001c80 	.word	0x10001c80
100002f8:	10001c90 	.word	0x10001c90

100002fc <hw_claim_or_assert>:
100002fc:	b570      	push	{r4, r5, r6, lr}
100002fe:	4686      	mov	lr, r0
10000300:	f3ef 8510 	mrs	r5, PRIMASK
10000304:	b672      	cpsid	i
10000306:	4c12      	ldr	r4, [pc, #72]	@ (10000350 <hw_claim_or_assert+0x54>)
10000308:	e8d4 6fcf 	ldaexb	r6, [r4]
1000030c:	2001      	movs	r0, #1
1000030e:	2e00      	cmp	r6, #0
10000310:	d1fa      	bne.n	10000308 <hw_claim_or_assert+0xc>
10000312:	e8c4 0f46 	strexb	r6, r0, [r4]
10000316:	2e00      	cmp	r6, #0
10000318:	d1f6      	bne.n	10000308 <hw_claim_or_assert+0xc>
1000031a:	f3bf 8f5f 	dmb	sy
1000031e:	f04f 0c01 	mov.w	ip, #1
10000322:	08c8      	lsrs	r0, r1, #3
10000324:	f001 0307 	and.w	r3, r1, #7
10000328:	fa0c f303 	lsl.w	r3, ip, r3
1000032c:	f81e c000 	ldrb.w	ip, [lr, r0]
10000330:	ea1c 0603 	ands.w	r6, ip, r3
10000334:	d108      	bne.n	10000348 <hw_claim_or_assert+0x4c>
10000336:	ea4c 0c03 	orr.w	ip, ip, r3
1000033a:	f80e c000 	strb.w	ip, [lr, r0]
1000033e:	e8c4 6f8f 	stlb	r6, [r4]
10000342:	f385 8810 	msr	PRIMASK, r5
10000346:	bd70      	pop	{r4, r5, r6, pc}
10000348:	4610      	mov	r0, r2
1000034a:	f7ff ffbf 	bl	100002cc <panic>
1000034e:	bf00      	nop
10000350:	2000043b 	.word	0x2000043b

10000354 <next_striped_spin_lock_num>:
10000354:	4a04      	ldr	r2, [pc, #16]	@ (10000368 <next_striped_spin_lock_num+0x14>)
10000356:	7810      	ldrb	r0, [r2, #0]
10000358:	1c43      	adds	r3, r0, #1
1000035a:	b2db      	uxtb	r3, r3
1000035c:	2b18      	cmp	r3, #24
1000035e:	bf28      	it	cs
10000360:	2310      	movcs	r3, #16
10000362:	7013      	strb	r3, [r2, #0]
10000364:	4770      	bx	lr
10000366:	bf00      	nop
10000368:	20000228 	.word	0x20000228

1000036c <spinlock_set_extexclall>:
1000036c:	f04f 22e0 	mov.w	r2, #3758153728	@ 0xe000e000
10000370:	6893      	ldr	r3, [r2, #8]
10000372:	f043 5300 	orr.w	r3, r3, #536870912	@ 0x20000000
10000376:	6093      	str	r3, [r2, #8]
10000378:	4770      	bx	lr
1000037a:	bf00      	nop

1000037c <spin_locks_reset>:
1000037c:	2100      	movs	r1, #0
1000037e:	4b04      	ldr	r3, [pc, #16]	@ (10000390 <spin_locks_reset+0x14>)
10000380:	f103 0220 	add.w	r2, r3, #32
10000384:	e8c3 1f8f 	stlb	r1, [r3]
10000388:	3301      	adds	r3, #1
1000038a:	4293      	cmp	r3, r2
1000038c:	d1fa      	bne.n	10000384 <spin_locks_reset+0x8>
1000038e:	4770      	bx	lr
10000390:	20000430 	.word	0x20000430

10000394 <runtime_init_per_core_irq_priorities>:
10000394:	f04f 23e0 	mov.w	r3, #3758153728	@ 0xe000e000
10000398:	f04f 3280 	mov.w	r2, #2155905152	@ 0x80808080
1000039c:	f8c3 2400 	str.w	r2, [r3, #1024]	@ 0x400
100003a0:	f8c3 2404 	str.w	r2, [r3, #1028]	@ 0x404
100003a4:	f8c3 2408 	str.w	r2, [r3, #1032]	@ 0x408
100003a8:	f8c3 240c 	str.w	r2, [r3, #1036]	@ 0x40c
100003ac:	f8c3 2410 	str.w	r2, [r3, #1040]	@ 0x410
100003b0:	f8c3 2414 	str.w	r2, [r3, #1044]	@ 0x414
100003b4:	f8c3 2418 	str.w	r2, [r3, #1048]	@ 0x418
100003b8:	f8c3 241c 	str.w	r2, [r3, #1052]	@ 0x41c
100003bc:	f8c3 2420 	str.w	r2, [r3, #1056]	@ 0x420
100003c0:	f8c3 2424 	str.w	r2, [r3, #1060]	@ 0x424
100003c4:	f8c3 2428 	str.w	r2, [r3, #1064]	@ 0x428
100003c8:	f8c3 242c 	str.w	r2, [r3, #1068]	@ 0x42c
100003cc:	f8c3 2430 	str.w	r2, [r3, #1072]	@ 0x430
100003d0:	b662      	cpsie	i
100003d2:	4770      	bx	lr

100003d4 <irq_set_enabled>:
100003d4:	2301      	movs	r3, #1
100003d6:	f000 021f 	and.w	r2, r0, #31
100003da:	4093      	lsls	r3, r2
100003dc:	0940      	lsrs	r0, r0, #5
100003de:	b141      	cbz	r1, 100003f2 <irq_set_enabled+0x1e>
100003e0:	0080      	lsls	r0, r0, #2
100003e2:	f100 4060 	add.w	r0, r0, #3758096384	@ 0xe0000000
100003e6:	f500 4061 	add.w	r0, r0, #57600	@ 0xe100
100003ea:	f8c0 3180 	str.w	r3, [r0, #384]	@ 0x180
100003ee:	6003      	str	r3, [r0, #0]
100003f0:	4770      	bx	lr
100003f2:	4a02      	ldr	r2, [pc, #8]	@ (100003fc <irq_set_enabled+0x28>)
100003f4:	3020      	adds	r0, #32
100003f6:	f842 3020 	str.w	r3, [r2, r0, lsl #2]
100003fa:	4770      	bx	lr
100003fc:	e000e100 	.word	0xe000e100

10000400 <irq_set_exclusive_handler>:
10000400:	b5f8      	push	{r3, r4, r5, r6, r7, lr}
10000402:	460d      	mov	r5, r1
10000404:	f3ef 8710 	mrs	r7, PRIMASK
10000408:	b672      	cpsid	i
1000040a:	4e12      	ldr	r6, [pc, #72]	@ (10000454 <irq_set_exclusive_handler+0x54>)
1000040c:	e8d6 2fcf 	ldaexb	r2, [r6]
10000410:	2301      	movs	r3, #1
10000412:	2a00      	cmp	r2, #0
10000414:	d1fa      	bne.n	1000040c <irq_set_exclusive_handler+0xc>
10000416:	e8c6 3f42 	strexb	r2, r3, [r6]
1000041a:	2a00      	cmp	r2, #0
1000041c:	d1f6      	bne.n	1000040c <irq_set_exclusive_handler+0xc>
1000041e:	f3bf 8f5f 	dmb	sy
10000422:	4b0d      	ldr	r3, [pc, #52]	@ (10000458 <irq_set_exclusive_handler+0x58>)
10000424:	f100 0410 	add.w	r4, r0, #16
10000428:	689b      	ldr	r3, [r3, #8]
1000042a:	4a0c      	ldr	r2, [pc, #48]	@ (1000045c <irq_set_exclusive_handler+0x5c>)
1000042c:	f853 3024 	ldr.w	r3, [r3, r4, lsl #2]
10000430:	4293      	cmp	r3, r2
10000432:	d003      	beq.n	1000043c <irq_set_exclusive_handler+0x3c>
10000434:	4299      	cmp	r1, r3
10000436:	d001      	beq.n	1000043c <irq_set_exclusive_handler+0x3c>
10000438:	f000 ff80 	bl	1000133c <hard_assertion_failure>
1000043c:	4b06      	ldr	r3, [pc, #24]	@ (10000458 <irq_set_exclusive_handler+0x58>)
1000043e:	689b      	ldr	r3, [r3, #8]
10000440:	f843 5024 	str.w	r5, [r3, r4, lsl #2]
10000444:	f3bf 8f5f 	dmb	sy
10000448:	2300      	movs	r3, #0
1000044a:	e8c6 3f8f 	stlb	r3, [r6]
1000044e:	f387 8810 	msr	PRIMASK, r7
10000452:	bdf8      	pop	{r3, r4, r5, r6, r7, pc}
10000454:	20000439 	.word	0x20000439
10000458:	e000ed00 	.word	0xe000ed00
1000045c:	10000111 	.word	0x10000111

10000460 <irq_remove_handler>:
10000460:	e92d 4ff0 	stmdb	sp!, {r4, r5, r6, r7, r8, r9, sl, fp, lr}
10000464:	b083      	sub	sp, #12
10000466:	f3ef 8a10 	mrs	sl, PRIMASK
1000046a:	b672      	cpsid	i
1000046c:	4e71      	ldr	r6, [pc, #452]	@ (10000634 <irq_remove_handler+0x1d4>)
1000046e:	e8d6 2fcf 	ldaexb	r2, [r6]
10000472:	2301      	movs	r3, #1
10000474:	2a00      	cmp	r2, #0
10000476:	d1fa      	bne.n	1000046e <irq_remove_handler+0xe>
10000478:	e8c6 3f42 	strexb	r2, r3, [r6]
1000047c:	2a00      	cmp	r2, #0
1000047e:	d1f6      	bne.n	1000046e <irq_remove_handler+0xe>
10000480:	f3bf 8f5f 	dmb	sy
10000484:	4b6c      	ldr	r3, [pc, #432]	@ (10000638 <irq_remove_handler+0x1d8>)
10000486:	f100 0810 	add.w	r8, r0, #16
1000048a:	689b      	ldr	r3, [r3, #8]
1000048c:	4a6b      	ldr	r2, [pc, #428]	@ (1000063c <irq_remove_handler+0x1dc>)
1000048e:	f853 5028 	ldr.w	r5, [r3, r8, lsl #2]
10000492:	4295      	cmp	r5, r2
10000494:	d045      	beq.n	10000522 <irq_remove_handler+0xc2>
10000496:	428d      	cmp	r5, r1
10000498:	460c      	mov	r4, r1
1000049a:	d050      	beq.n	1000053e <irq_remove_handler+0xde>
1000049c:	4f68      	ldr	r7, [pc, #416]	@ (10000640 <irq_remove_handler+0x1e0>)
1000049e:	1beb      	subs	r3, r5, r7
100004a0:	2b2f      	cmp	r3, #47	@ 0x2f
100004a2:	d83e      	bhi.n	10000522 <irq_remove_handler+0xc2>
100004a4:	2101      	movs	r1, #1
100004a6:	ea4f 1950 	mov.w	r9, r0, lsr #5
100004aa:	ea4f 0989 	mov.w	r9, r9, lsl #2
100004ae:	f109 4960 	add.w	r9, r9, #3758096384	@ 0xe0000000
100004b2:	f509 4961 	add.w	r9, r9, #57600	@ 0xe100
100004b6:	f000 031f 	and.w	r3, r0, #31
100004ba:	fa01 f003 	lsl.w	r0, r1, r3
100004be:	f8d9 3000 	ldr.w	r3, [r9]
100004c2:	f8c9 0080 	str.w	r0, [r9, #128]	@ 0x80
100004c6:	ea00 0b03 	and.w	fp, r0, r3
100004ca:	f3bf 8f5f 	dmb	sy
100004ce:	f3ef 8105 	mrs	r1, IPSR
100004d2:	b2c9      	uxtb	r1, r1
100004d4:	2900      	cmp	r1, #0
100004d6:	d034      	beq.n	10000542 <irq_remove_handler+0xe2>
100004d8:	4588      	cmp	r8, r1
100004da:	d005      	beq.n	100004e8 <irq_remove_handler+0x88>
100004dc:	e9cd 1000 	strd	r1, r0, [sp]
100004e0:	f000 ff2c 	bl	1000133c <hard_assertion_failure>
100004e4:	e9dd 1000 	ldrd	r1, r0, [sp]
100004e8:	f025 0e01 	bic.w	lr, r5, #1
100004ec:	f8de c008 	ldr.w	ip, [lr, #8]
100004f0:	4564      	cmp	r4, ip
100004f2:	d105      	bne.n	10000500 <irq_remove_handler+0xa0>
100004f4:	e089      	b.n	1000060a <irq_remove_handler+0x1aa>
100004f6:	f8d3 c008 	ldr.w	ip, [r3, #8]
100004fa:	4564      	cmp	r4, ip
100004fc:	d031      	beq.n	10000562 <irq_remove_handler+0x102>
100004fe:	469e      	mov	lr, r3
10000500:	f99e 2006 	ldrsb.w	r2, [lr, #6]
10000504:	eb02 0342 	add.w	r3, r2, r2, lsl #1
10000508:	2a00      	cmp	r2, #0
1000050a:	eb07 0383 	add.w	r3, r7, r3, lsl #2
1000050e:	daf2      	bge.n	100004f6 <irq_remove_handler+0x96>
10000510:	4564      	cmp	r4, ip
10000512:	d061      	beq.n	100005d8 <irq_remove_handler+0x178>
10000514:	f1bb 0f00 	cmp.w	fp, #0
10000518:	d020      	beq.n	1000055c <irq_remove_handler+0xfc>
1000051a:	f8c9 0180 	str.w	r0, [r9, #384]	@ 0x180
1000051e:	f8c9 0000 	str.w	r0, [r9]
10000522:	4b45      	ldr	r3, [pc, #276]	@ (10000638 <irq_remove_handler+0x1d8>)
10000524:	689b      	ldr	r3, [r3, #8]
10000526:	f843 5028 	str.w	r5, [r3, r8, lsl #2]
1000052a:	f3bf 8f5f 	dmb	sy
1000052e:	2300      	movs	r3, #0
10000530:	e8c6 3f8f 	stlb	r3, [r6]
10000534:	f38a 8810 	msr	PRIMASK, sl
10000538:	b003      	add	sp, #12
1000053a:	e8bd 8ff0 	ldmia.w	sp!, {r4, r5, r6, r7, r8, r9, sl, fp, pc}
1000053e:	4615      	mov	r5, r2
10000540:	e7ef      	b.n	10000522 <irq_remove_handler+0xc2>
10000542:	f025 0e01 	bic.w	lr, r5, #1
10000546:	f8de c008 	ldr.w	ip, [lr, #8]
1000054a:	4564      	cmp	r4, ip
1000054c:	d1d8      	bne.n	10000500 <irq_remove_handler+0xa0>
1000054e:	f99e 4006 	ldrsb.w	r4, [lr, #6]
10000552:	4673      	mov	r3, lr
10000554:	2c00      	cmp	r4, #0
10000556:	da08      	bge.n	1000056a <irq_remove_handler+0x10a>
10000558:	4615      	mov	r5, r2
1000055a:	e046      	b.n	100005ea <irq_remove_handler+0x18a>
1000055c:	f8c9 0080 	str.w	r0, [r9, #128]	@ 0x80
10000560:	e7df      	b.n	10000522 <irq_remove_handler+0xc2>
10000562:	f993 4006 	ldrsb.w	r4, [r3, #6]
10000566:	2c00      	cmp	r4, #0
10000568:	db37      	blt.n	100005da <irq_remove_handler+0x17a>
1000056a:	eb04 0c44 	add.w	ip, r4, r4, lsl #1
1000056e:	eb07 0c8c 	add.w	ip, r7, ip, lsl #2
10000572:	f89c 1007 	ldrb.w	r1, [ip, #7]
10000576:	f8dc 2008 	ldr.w	r2, [ip, #8]
1000057a:	71d9      	strb	r1, [r3, #7]
1000057c:	609a      	str	r2, [r3, #8]
1000057e:	f99c 2006 	ldrsb.w	r2, [ip, #6]
10000582:	0061      	lsls	r1, r4, #1
10000584:	2a00      	cmp	r2, #0
10000586:	719a      	strb	r2, [r3, #6]
10000588:	db3d      	blt.n	10000606 <irq_remove_handler+0x1a6>
1000058a:	f8bc e004 	ldrh.w	lr, [ip, #4]
1000058e:	ea5f 5e4e 	movs.w	lr, lr, lsl #21
10000592:	d505      	bpl.n	100005a0 <irq_remove_handler+0x140>
10000594:	f50e 1eff 	add.w	lr, lr, #2088960	@ 0x1fe000
10000598:	f50e 5eff 	add.w	lr, lr, #8160	@ 0x1fe0
1000059c:	f10e 0e1f 	add.w	lr, lr, #31
100005a0:	f06f 0c07 	mvn.w	ip, #7
100005a4:	190a      	adds	r2, r1, r4
100005a6:	ea4f 5e6e 	mov.w	lr, lr, asr #21
100005aa:	0092      	lsls	r2, r2, #2
100005ac:	eb02 024e 	add.w	r2, r2, lr, lsl #1
100005b0:	3208      	adds	r2, #8
100005b2:	443a      	add	r2, r7
100005b4:	ebac 0c03 	sub.w	ip, ip, r3
100005b8:	4462      	add	r2, ip
100005ba:	f3c2 024a 	ubfx	r2, r2, #1, #11
100005be:	ea6f 42c2 	mvn.w	r2, r2, lsl #19
100005c2:	ea6f 42d2 	mvn.w	r2, r2, lsr #19
100005c6:	809a      	strh	r2, [r3, #4]
100005c8:	4b1e      	ldr	r3, [pc, #120]	@ (10000644 <irq_remove_handler+0x1e4>)
100005ca:	4421      	add	r1, r4
100005cc:	781a      	ldrb	r2, [r3, #0]
100005ce:	eb07 0181 	add.w	r1, r7, r1, lsl #2
100005d2:	701c      	strb	r4, [r3, #0]
100005d4:	718a      	strb	r2, [r1, #6]
100005d6:	e79d      	b.n	10000514 <irq_remove_handler+0xb4>
100005d8:	4673      	mov	r3, lr
100005da:	b9d9      	cbnz	r1, 10000614 <irq_remove_handler+0x1b4>
100005dc:	22ff      	movs	r2, #255	@ 0xff
100005de:	f88e 2006 	strb.w	r2, [lr, #6]
100005e2:	f64b 5201 	movw	r2, #48385	@ 0xbd01
100005e6:	f8ae 2004 	strh.w	r2, [lr, #4]
100005ea:	4c16      	ldr	r4, [pc, #88]	@ (10000644 <irq_remove_handler+0x1e4>)
100005ec:	f64a 22aa 	movw	r2, #43690	@ 0xaaaa
100005f0:	f894 c000 	ldrb.w	ip, [r4]
100005f4:	4619      	mov	r1, r3
100005f6:	1bc9      	subs	r1, r1, r7
100005f8:	4149      	adcs	r1, r1
100005fa:	434a      	muls	r2, r1
100005fc:	0d12      	lsrs	r2, r2, #20
100005fe:	f883 c006 	strb.w	ip, [r3, #6]
10000602:	7022      	strb	r2, [r4, #0]
10000604:	e786      	b.n	10000514 <irq_remove_handler+0xb4>
10000606:	4a10      	ldr	r2, [pc, #64]	@ (10000648 <irq_remove_handler+0x1e8>)
10000608:	e7dd      	b.n	100005c6 <irq_remove_handler+0x166>
1000060a:	f99e 4006 	ldrsb.w	r4, [lr, #6]
1000060e:	4673      	mov	r3, lr
10000610:	2c00      	cmp	r4, #0
10000612:	daaa      	bge.n	1000056a <irq_remove_handler+0x10a>
10000614:	4a0d      	ldr	r2, [pc, #52]	@ (1000064c <irq_remove_handler+0x1ec>)
10000616:	4c0e      	ldr	r4, [pc, #56]	@ (10000650 <irq_remove_handler+0x1f0>)
10000618:	1ad2      	subs	r2, r2, r3
1000061a:	3a08      	subs	r2, #8
1000061c:	f3c2 310a 	ubfx	r1, r2, #12, #11
10000620:	ea6f 5101 	mvn.w	r1, r1, lsl #20
10000624:	ea6f 5111 	mvn.w	r1, r1, lsr #20
10000628:	ea44 0252 	orr.w	r2, r4, r2, lsr #1
1000062c:	80da      	strh	r2, [r3, #6]
1000062e:	8099      	strh	r1, [r3, #4]
10000630:	e770      	b.n	10000514 <irq_remove_handler+0xb4>
10000632:	bf00      	nop
10000634:	20000439 	.word	0x20000439
10000638:	e000ed00 	.word	0xe000ed00
1000063c:	10000111 	.word	0x10000111
10000640:	2000022c 	.word	0x2000022c
10000644:	200004d8 	.word	0x200004d8
10000648:	ffffbd01 	.word	0xffffbd01
1000064c:	20000266 	.word	0x20000266
10000650:	fffff800 	.word	0xfffff800

10000654 <irq_add_tail_to_free_list>:
10000654:	b5f0      	push	{r4, r5, r6, r7, lr}
10000656:	f3ef 8505 	mrs	r5, IPSR
1000065a:	b2ed      	uxtb	r5, r5
1000065c:	f3ef 8c10 	mrs	ip, PRIMASK
10000660:	b672      	cpsid	i
10000662:	4926      	ldr	r1, [pc, #152]	@ (100006fc <irq_add_tail_to_free_list+0xa8>)
10000664:	e8d1 2fcf 	ldaexb	r2, [r1]
10000668:	2301      	movs	r3, #1
1000066a:	2a00      	cmp	r2, #0
1000066c:	d1fa      	bne.n	10000664 <irq_add_tail_to_free_list+0x10>
1000066e:	e8c1 3f42 	strexb	r2, r3, [r1]
10000672:	2a00      	cmp	r2, #0
10000674:	d1f6      	bne.n	10000664 <irq_add_tail_to_free_list+0x10>
10000676:	f3bf 8f5f 	dmb	sy
1000067a:	4e21      	ldr	r6, [pc, #132]	@ (10000700 <irq_add_tail_to_free_list+0xac>)
1000067c:	f040 0e01 	orr.w	lr, r0, #1
10000680:	68b4      	ldr	r4, [r6, #8]
10000682:	f64a 23aa 	movw	r3, #43690	@ 0xaaaa
10000686:	f854 7025 	ldr.w	r7, [r4, r5, lsl #2]
1000068a:	4a1e      	ldr	r2, [pc, #120]	@ (10000704 <irq_add_tail_to_free_list+0xb0>)
1000068c:	4604      	mov	r4, r0
1000068e:	1aa4      	subs	r4, r4, r2
10000690:	4164      	adcs	r4, r4
10000692:	4363      	muls	r3, r4
10000694:	0d1b      	lsrs	r3, r3, #20
10000696:	4577      	cmp	r7, lr
10000698:	b25b      	sxtb	r3, r3
1000069a:	d01b      	beq.n	100006d4 <irq_add_tail_to_free_list+0x80>
1000069c:	f992 4006 	ldrsb.w	r4, [r2, #6]
100006a0:	429c      	cmp	r4, r3
100006a2:	d01c      	beq.n	100006de <irq_add_tail_to_free_list+0x8a>
100006a4:	f992 4012 	ldrsb.w	r4, [r2, #18]
100006a8:	429c      	cmp	r4, r3
100006aa:	d023      	beq.n	100006f4 <irq_add_tail_to_free_list+0xa0>
100006ac:	f992 401e 	ldrsb.w	r4, [r2, #30]
100006b0:	429c      	cmp	r4, r3
100006b2:	d021      	beq.n	100006f8 <irq_add_tail_to_free_list+0xa4>
100006b4:	f992 402a 	ldrsb.w	r4, [r2, #42]	@ 0x2a
100006b8:	429c      	cmp	r4, r3
100006ba:	bf08      	it	eq
100006bc:	2403      	moveq	r4, #3
100006be:	d00f      	beq.n	100006e0 <irq_add_tail_to_free_list+0x8c>
100006c0:	4a11      	ldr	r2, [pc, #68]	@ (10000708 <irq_add_tail_to_free_list+0xb4>)
100006c2:	2400      	movs	r4, #0
100006c4:	7815      	ldrb	r5, [r2, #0]
100006c6:	7013      	strb	r3, [r2, #0]
100006c8:	7185      	strb	r5, [r0, #6]
100006ca:	e8c1 4f8f 	stlb	r4, [r1]
100006ce:	f38c 8810 	msr	PRIMASK, ip
100006d2:	bdf0      	pop	{r4, r5, r6, r7, pc}
100006d4:	68b2      	ldr	r2, [r6, #8]
100006d6:	4c0d      	ldr	r4, [pc, #52]	@ (1000070c <irq_add_tail_to_free_list+0xb8>)
100006d8:	f842 4025 	str.w	r4, [r2, r5, lsl #2]
100006dc:	e7f0      	b.n	100006c0 <irq_add_tail_to_free_list+0x6c>
100006de:	2400      	movs	r4, #0
100006e0:	eb04 0444 	add.w	r4, r4, r4, lsl #1
100006e4:	eb02 0284 	add.w	r2, r2, r4, lsl #2
100006e8:	24ff      	movs	r4, #255	@ 0xff
100006ea:	7194      	strb	r4, [r2, #6]
100006ec:	f64b 5401 	movw	r4, #48385	@ 0xbd01
100006f0:	8094      	strh	r4, [r2, #4]
100006f2:	e7e5      	b.n	100006c0 <irq_add_tail_to_free_list+0x6c>
100006f4:	2401      	movs	r4, #1
100006f6:	e7f3      	b.n	100006e0 <irq_add_tail_to_free_list+0x8c>
100006f8:	2402      	movs	r4, #2
100006fa:	e7f1      	b.n	100006e0 <irq_add_tail_to_free_list+0x8c>
100006fc:	20000439 	.word	0x20000439
10000700:	e000ed00 	.word	0xe000ed00
10000704:	2000022c 	.word	0x2000022c
10000708:	200004d8 	.word	0x200004d8
1000070c:	10000111 	.word	0x10000111

10000710 <lock_init>:
10000710:	4b01      	ldr	r3, [pc, #4]	@ (10000718 <lock_init+0x8>)
10000712:	440b      	add	r3, r1
10000714:	6003      	str	r3, [r0, #0]
10000716:	4770      	bx	lr
10000718:	20000430 	.word	0x20000430

1000071c <runtime_init_mutex>:
1000071c:	b570      	push	{r4, r5, r6, lr}
1000071e:	4c10      	ldr	r4, [pc, #64]	@ (10000760 <runtime_init_mutex+0x44>)
10000720:	4d10      	ldr	r5, [pc, #64]	@ (10000764 <runtime_init_mutex+0x48>)
10000722:	42ac      	cmp	r4, r5
10000724:	d20e      	bcs.n	10000744 <runtime_init_mutex+0x28>
10000726:	26ff      	movs	r6, #255	@ 0xff
10000728:	6823      	ldr	r3, [r4, #0]
1000072a:	b163      	cbz	r3, 10000746 <runtime_init_mutex+0x2a>
1000072c:	f7ff fe12 	bl	10000354 <next_striped_spin_lock_num>
10000730:	4601      	mov	r1, r0
10000732:	4620      	mov	r0, r4
10000734:	f7ff ffec 	bl	10000710 <lock_init>
10000738:	80a6      	strh	r6, [r4, #4]
1000073a:	f3bf 8f5f 	dmb	sy
1000073e:	3408      	adds	r4, #8
10000740:	42ac      	cmp	r4, r5
10000742:	d3f1      	bcc.n	10000728 <runtime_init_mutex+0xc>
10000744:	bd70      	pop	{r4, r5, r6, pc}
10000746:	f7ff fe05 	bl	10000354 <next_striped_spin_lock_num>
1000074a:	4601      	mov	r1, r0
1000074c:	4620      	mov	r0, r4
1000074e:	f7ff ffdf 	bl	10000710 <lock_init>
10000752:	7126      	strb	r6, [r4, #4]
10000754:	f3bf 8f5f 	dmb	sy
10000758:	3408      	adds	r4, #8
1000075a:	42ac      	cmp	r4, r5
1000075c:	d3e4      	bcc.n	10000728 <runtime_init_mutex+0xc>
1000075e:	bd70      	pop	{r4, r5, r6, pc}
10000760:	200002a4 	.word	0x200002a4
10000764:	200002ac 	.word	0x200002ac

10000768 <sleep_until_callback>:
10000768:	4b0d      	ldr	r3, [pc, #52]	@ (100007a0 <sleep_until_callback+0x38>)
1000076a:	681a      	ldr	r2, [r3, #0]
1000076c:	f3ef 8110 	mrs	r1, PRIMASK
10000770:	b672      	cpsid	i
10000772:	e8d2 cfcf 	ldaexb	ip, [r2]
10000776:	2001      	movs	r0, #1
10000778:	f1bc 0f00 	cmp.w	ip, #0
1000077c:	d1f9      	bne.n	10000772 <sleep_until_callback+0xa>
1000077e:	e8c2 0f4c 	strexb	ip, r0, [r2]
10000782:	f1bc 0f00 	cmp.w	ip, #0
10000786:	d1f4      	bne.n	10000772 <sleep_until_callback+0xa>
10000788:	f3bf 8f5f 	dmb	sy
1000078c:	2200      	movs	r2, #0
1000078e:	681b      	ldr	r3, [r3, #0]
10000790:	e8c3 2f8f 	stlb	r2, [r3]
10000794:	f381 8810 	msr	PRIMASK, r1
10000798:	bf40      	sev
1000079a:	2000      	movs	r0, #0
1000079c:	2100      	movs	r1, #0
1000079e:	4770      	bx	lr
100007a0:	200004cc 	.word	0x200004cc
100007a4:	00000000 	.word	0x00000000

100007a8 <alarm_pool_irq_handler>:
100007a8:	e92d 4ff0 	stmdb	sp!, {r4, r5, r6, r7, r8, r9, sl, fp, lr}
100007ac:	ed2d 8b02 	vpush	{d8}
100007b0:	b085      	sub	sp, #20
100007b2:	f3ef 8305 	mrs	r3, IPSR
100007b6:	b2db      	uxtb	r3, r3
100007b8:	3b10      	subs	r3, #16
100007ba:	089a      	lsrs	r2, r3, #2
100007bc:	bf18      	it	ne
100007be:	2201      	movne	r2, #1
100007c0:	f04f 0101 	mov.w	r1, #1
100007c4:	f003 0b03 	and.w	fp, r3, #3
100007c8:	bf18      	it	ne
100007ca:	4daf      	ldrne	r5, [pc, #700]	@ (10000a88 <alarm_pool_irq_handler+0x2e0>)
100007cc:	4baf      	ldr	r3, [pc, #700]	@ (10000a8c <alarm_pool_irq_handler+0x2e4>)
100007ce:	bf08      	it	eq
100007d0:	4daf      	ldreq	r5, [pc, #700]	@ (10000a90 <alarm_pool_irq_handler+0x2e8>)
100007d2:	eb0b 0282 	add.w	r2, fp, r2, lsl #2
100007d6:	f853 6022 	ldr.w	r6, [r3, r2, lsl #2]
100007da:	fa01 f20b 	lsl.w	r2, r1, fp
100007de:	f505 5341 	add.w	r3, r5, #12352	@ 0x3040
100007e2:	ed9f 8ba7 	vldr	d8, [pc, #668]	@ 10000a80 <alarm_pool_irq_handler+0x2d8>
100007e6:	9201      	str	r2, [sp, #4]
100007e8:	605a      	str	r2, [r3, #4]
100007ea:	e02f      	b.n	1000084c <alarm_pool_irq_handler+0xa4>
100007ec:	88b3      	ldrh	r3, [r6, #4]
100007ee:	041c      	lsls	r4, r3, #16
100007f0:	f140 8093 	bpl.w	1000091a <alarm_pool_irq_handler+0x172>
100007f4:	79b3      	ldrb	r3, [r6, #6]
100007f6:	2b00      	cmp	r3, #0
100007f8:	f040 80dd 	bne.w	100009b6 <alarm_pool_irq_handler+0x20e>
100007fc:	f9b6 2008 	ldrsh.w	r2, [r6, #8]
10000800:	2a00      	cmp	r2, #0
10000802:	f2c0 811e 	blt.w	10000a42 <alarm_pool_irq_handler+0x29a>
10000806:	6973      	ldr	r3, [r6, #20]
10000808:	eb02 0242 	add.w	r2, r2, r2, lsl #1
1000080c:	eb03 03c2 	add.w	r3, r3, r2, lsl #3
10000810:	e9d3 4702 	ldrd	r4, r7, [r3, #8]
10000814:	f1b7 3fff 	cmp.w	r7, #4294967295
10000818:	bf08      	it	eq
1000081a:	f1b4 3fff 	cmpeq.w	r4, #4294967295
1000081e:	d00e      	beq.n	1000083e <alarm_pool_irq_handler+0x96>
10000820:	eb05 018b 	add.w	r1, r5, fp, lsl #2
10000824:	6aab      	ldr	r3, [r5, #40]	@ 0x28
10000826:	690a      	ldr	r2, [r1, #16]
10000828:	1ad2      	subs	r2, r2, r3
1000082a:	1ae3      	subs	r3, r4, r3
1000082c:	4293      	cmp	r3, r2
1000082e:	d305      	bcc.n	1000083c <alarm_pool_irq_handler+0x94>
10000830:	2301      	movs	r3, #1
10000832:	6a2a      	ldr	r2, [r5, #32]
10000834:	fa03 f30b 	lsl.w	r3, r3, fp
10000838:	4213      	tst	r3, r2
1000083a:	d100      	bne.n	1000083e <alarm_pool_irq_handler+0x96>
1000083c:	610c      	str	r4, [r1, #16]
1000083e:	4628      	mov	r0, r5
10000840:	f000 fb38 	bl	10000eb4 <timer_time_us_64>
10000844:	42a0      	cmp	r0, r4
10000846:	41b9      	sbcs	r1, r7
10000848:	f2c0 80fb 	blt.w	10000a42 <alarm_pool_irq_handler+0x29a>
1000084c:	f9b6 3008 	ldrsh.w	r3, [r6, #8]
10000850:	9a01      	ldr	r2, [sp, #4]
10000852:	2b00      	cmp	r3, #0
10000854:	9300      	str	r3, [sp, #0]
10000856:	63ea      	str	r2, [r5, #60]	@ 0x3c
10000858:	dbc8      	blt.n	100007ec <alarm_pool_irq_handler+0x44>
1000085a:	f8d6 8014 	ldr.w	r8, [r6, #20]
1000085e:	eb03 0943 	add.w	r9, r3, r3, lsl #1
10000862:	4628      	mov	r0, r5
10000864:	eb08 07c9 	add.w	r7, r8, r9, lsl #3
10000868:	e9d7 4a02 	ldrd	r4, sl, [r7, #8]
1000086c:	f000 fb22 	bl	10000eb4 <timer_time_us_64>
10000870:	42a0      	cmp	r0, r4
10000872:	eb71 010a 	sbcs.w	r1, r1, sl
10000876:	dbb9      	blt.n	100007ec <alarm_pool_irq_handler+0x44>
10000878:	f1ba 0f00 	cmp.w	sl, #0
1000087c:	f2c0 80c3 	blt.w	10000a06 <alarm_pool_irq_handler+0x25e>
10000880:	e9d7 3104 	ldrd	r3, r1, [r7, #16]
10000884:	4a83      	ldr	r2, [pc, #524]	@ (10000a94 <alarm_pool_irq_handler+0x2ec>)
10000886:	4293      	cmp	r3, r2
10000888:	f000 80ed 	beq.w	10000a66 <alarm_pool_irq_handler+0x2be>
1000088c:	887a      	ldrh	r2, [r7, #2]
1000088e:	f9b6 0008 	ldrsh.w	r0, [r6, #8]
10000892:	b292      	uxth	r2, r2
10000894:	ea42 4000 	orr.w	r0, r2, r0, lsl #16
10000898:	4798      	blx	r3
1000089a:	4602      	mov	r2, r0
1000089c:	460b      	mov	r3, r1
1000089e:	ea52 0103 	orrs.w	r1, r2, r3
100008a2:	f000 80b0 	beq.w	10000a06 <alarm_pool_irq_handler+0x25e>
100008a6:	2b00      	cmp	r3, #0
100008a8:	f280 80d1 	bge.w	10000a4e <alarm_pool_irq_handler+0x2a6>
100008ac:	ebb4 0e02 	subs.w	lr, r4, r2
100008b0:	eb6a 0a03 	sbc.w	sl, sl, r3
100008b4:	f938 3039 	ldrsh.w	r3, [r8, r9, lsl #3]
100008b8:	e9c7 ea02 	strd	lr, sl, [r7, #8]
100008bc:	2b00      	cmp	r3, #0
100008be:	db95      	blt.n	100007ec <alarm_pool_irq_handler+0x44>
100008c0:	6971      	ldr	r1, [r6, #20]
100008c2:	eb03 0243 	add.w	r2, r3, r3, lsl #1
100008c6:	eb01 02c2 	add.w	r2, r1, r2, lsl #3
100008ca:	e9d2 7002 	ldrd	r7, r0, [r2, #8]
100008ce:	45be      	cmp	lr, r7
100008d0:	eb7a 0c00 	sbcs.w	ip, sl, r0
100008d4:	ea4f 0243 	mov.w	r2, r3, lsl #1
100008d8:	db88      	blt.n	100007ec <alarm_pool_irq_handler+0x44>
100008da:	46b4      	mov	ip, r6
100008dc:	f82c 3f08 	strh.w	r3, [ip, #8]!
100008e0:	e006      	b.n	100008f0 <alarm_pool_irq_handler+0x148>
100008e2:	eb03 0043 	add.w	r0, r3, r3, lsl #1
100008e6:	eb01 00c0 	add.w	r0, r1, r0, lsl #3
100008ea:	005a      	lsls	r2, r3, #1
100008ec:	e9d0 7002 	ldrd	r7, r0, [r0, #8]
100008f0:	45be      	cmp	lr, r7
100008f2:	441a      	add	r2, r3
100008f4:	eb7a 0000 	sbcs.w	r0, sl, r0
100008f8:	eb01 04c2 	add.w	r4, r1, r2, lsl #3
100008fc:	db04      	blt.n	10000908 <alarm_pool_irq_handler+0x160>
100008fe:	f931 3032 	ldrsh.w	r3, [r1, r2, lsl #3]
10000902:	46a4      	mov	ip, r4
10000904:	2b00      	cmp	r3, #0
10000906:	daec      	bge.n	100008e2 <alarm_pool_irq_handler+0x13a>
10000908:	f828 3039 	strh.w	r3, [r8, r9, lsl #3]
1000090c:	9b00      	ldr	r3, [sp, #0]
1000090e:	f8ac 3000 	strh.w	r3, [ip]
10000912:	88b3      	ldrh	r3, [r6, #4]
10000914:	041c      	lsls	r4, r3, #16
10000916:	f53f af6d 	bmi.w	100007f4 <alarm_pool_irq_handler+0x4c>
1000091a:	6933      	ldr	r3, [r6, #16]
1000091c:	f3ef 8210 	mrs	r2, PRIMASK
10000920:	b672      	cpsid	i
10000922:	e8d3 0fcf 	ldaexb	r0, [r3]
10000926:	2101      	movs	r1, #1
10000928:	2800      	cmp	r0, #0
1000092a:	d1fa      	bne.n	10000922 <alarm_pool_irq_handler+0x17a>
1000092c:	e8c3 1f40 	strexb	r0, r1, [r3]
10000930:	2800      	cmp	r0, #0
10000932:	d1f6      	bne.n	10000922 <alarm_pool_irq_handler+0x17a>
10000934:	f3bf 8f5f 	dmb	sy
10000938:	f64f 74ff 	movw	r4, #65535	@ 0xffff
1000093c:	88b0      	ldrh	r0, [r6, #4]
1000093e:	2300      	movs	r3, #0
10000940:	6931      	ldr	r1, [r6, #16]
10000942:	b200      	sxth	r0, r0
10000944:	80b4      	strh	r4, [r6, #4]
10000946:	e8c1 3f8f 	stlb	r3, [r1]
1000094a:	f382 8810 	msr	PRIMASK, r2
1000094e:	4298      	cmp	r0, r3
10000950:	f6ff af50 	blt.w	100007f4 <alarm_pool_irq_handler+0x4c>
10000954:	4607      	mov	r7, r0
10000956:	46a9      	mov	r9, r5
10000958:	6974      	ldr	r4, [r6, #20]
1000095a:	f106 0808 	add.w	r8, r6, #8
1000095e:	eb07 0e47 	add.w	lr, r7, r7, lsl #1
10000962:	eb04 03ce 	add.w	r3, r4, lr, lsl #3
10000966:	e9d3 5002 	ldrd	r5, r0, [r3, #8]
1000096a:	f9b6 3008 	ldrsh.w	r3, [r6, #8]
1000096e:	46c4      	mov	ip, r8
10000970:	2b00      	cmp	r3, #0
10000972:	db13      	blt.n	1000099c <alarm_pool_irq_handler+0x1f4>
10000974:	46b2      	mov	sl, r6
10000976:	9700      	str	r7, [sp, #0]
10000978:	e004      	b.n	10000984 <alarm_pool_irq_handler+0x1dc>
1000097a:	f934 3036 	ldrsh.w	r3, [r4, r6, lsl #3]
1000097e:	4694      	mov	ip, r2
10000980:	2b00      	cmp	r3, #0
10000982:	db09      	blt.n	10000998 <alarm_pool_irq_handler+0x1f0>
10000984:	eb03 0643 	add.w	r6, r3, r3, lsl #1
10000988:	eb04 02c6 	add.w	r2, r4, r6, lsl #3
1000098c:	e9d2 7102 	ldrd	r7, r1, [r2, #8]
10000990:	42bd      	cmp	r5, r7
10000992:	eb70 0101 	sbcs.w	r1, r0, r1
10000996:	daf0      	bge.n	1000097a <alarm_pool_irq_handler+0x1d2>
10000998:	4656      	mov	r6, sl
1000099a:	9f00      	ldr	r7, [sp, #0]
1000099c:	f8ac 7000 	strh.w	r7, [ip]
100009a0:	f934 703e 	ldrsh.w	r7, [r4, lr, lsl #3]
100009a4:	f824 303e 	strh.w	r3, [r4, lr, lsl #3]
100009a8:	2f00      	cmp	r7, #0
100009aa:	dad8      	bge.n	1000095e <alarm_pool_irq_handler+0x1b6>
100009ac:	79b3      	ldrb	r3, [r6, #6]
100009ae:	464d      	mov	r5, r9
100009b0:	2b00      	cmp	r3, #0
100009b2:	f43f af23 	beq.w	100007fc <alarm_pool_irq_handler+0x54>
100009b6:	2300      	movs	r3, #0
100009b8:	71b3      	strb	r3, [r6, #6]
100009ba:	f9b6 3008 	ldrsh.w	r3, [r6, #8]
100009be:	f106 0808 	add.w	r8, r6, #8
100009c2:	1c58      	adds	r0, r3, #1
100009c4:	d03d      	beq.n	10000a42 <alarm_pool_irq_handler+0x29a>
100009c6:	461a      	mov	r2, r3
100009c8:	6977      	ldr	r7, [r6, #20]
100009ca:	e003      	b.n	100009d4 <alarm_pool_irq_handler+0x22c>
100009cc:	4680      	mov	r8, r0
100009ce:	1c59      	adds	r1, r3, #1
100009d0:	f43f af16 	beq.w	10000800 <alarm_pool_irq_handler+0x58>
100009d4:	eb03 0143 	add.w	r1, r3, r3, lsl #1
100009d8:	eb07 00c1 	add.w	r0, r7, r1, lsl #3
100009dc:	f8b0 c002 	ldrh.w	ip, [r0, #2]
100009e0:	461c      	mov	r4, r3
100009e2:	f41c 4f00 	tst.w	ip, #32768	@ 0x8000
100009e6:	469e      	mov	lr, r3
100009e8:	f937 3031 	ldrsh.w	r3, [r7, r1, lsl #3]
100009ec:	d0ee      	beq.n	100009cc <alarm_pool_irq_handler+0x224>
100009ee:	4294      	cmp	r4, r2
100009f0:	ed80 8b02 	vstr	d8, [r0, #8]
100009f4:	d005      	beq.n	10000a02 <alarm_pool_irq_handler+0x25a>
100009f6:	f8a8 3000 	strh.w	r3, [r8]
100009fa:	8932      	ldrh	r2, [r6, #8]
100009fc:	f827 2031 	strh.w	r2, [r7, r1, lsl #3]
10000a00:	8134      	strh	r4, [r6, #8]
10000a02:	4672      	mov	r2, lr
10000a04:	e7e3      	b.n	100009ce <alarm_pool_irq_handler+0x226>
10000a06:	f838 3039 	ldrh.w	r3, [r8, r9, lsl #3]
10000a0a:	8133      	strh	r3, [r6, #8]
10000a0c:	6933      	ldr	r3, [r6, #16]
10000a0e:	f3ef 8210 	mrs	r2, PRIMASK
10000a12:	b672      	cpsid	i
10000a14:	e8d3 0fcf 	ldaexb	r0, [r3]
10000a18:	2101      	movs	r1, #1
10000a1a:	2800      	cmp	r0, #0
10000a1c:	d1fa      	bne.n	10000a14 <alarm_pool_irq_handler+0x26c>
10000a1e:	e8c3 1f40 	strexb	r0, r1, [r3]
10000a22:	2800      	cmp	r0, #0
10000a24:	d1f6      	bne.n	10000a14 <alarm_pool_irq_handler+0x26c>
10000a26:	f3bf 8f5f 	dmb	sy
10000a2a:	8873      	ldrh	r3, [r6, #2]
10000a2c:	6931      	ldr	r1, [r6, #16]
10000a2e:	f828 3039 	strh.w	r3, [r8, r9, lsl #3]
10000a32:	9b00      	ldr	r3, [sp, #0]
10000a34:	8073      	strh	r3, [r6, #2]
10000a36:	2300      	movs	r3, #0
10000a38:	e8c1 3f8f 	stlb	r3, [r1]
10000a3c:	f382 8810 	msr	PRIMASK, r2
10000a40:	e6d4      	b.n	100007ec <alarm_pool_irq_handler+0x44>
10000a42:	bf40      	sev
10000a44:	b005      	add	sp, #20
10000a46:	ecbd 8b02 	vpop	{d8}
10000a4a:	e8bd 8ff0 	ldmia.w	sp!, {r4, r5, r6, r7, r8, r9, sl, fp, pc}
10000a4e:	4628      	mov	r0, r5
10000a50:	e9cd 2302 	strd	r2, r3, [sp, #8]
10000a54:	f000 fa2e 	bl	10000eb4 <timer_time_us_64>
10000a58:	9a02      	ldr	r2, [sp, #8]
10000a5a:	9b03      	ldr	r3, [sp, #12]
10000a5c:	eb10 0e02 	adds.w	lr, r0, r2
10000a60:	eb43 0a01 	adc.w	sl, r3, r1
10000a64:	e726      	b.n	100008b4 <alarm_pool_irq_handler+0x10c>
10000a66:	4608      	mov	r0, r1
10000a68:	690b      	ldr	r3, [r1, #16]
10000a6a:	9102      	str	r1, [sp, #8]
10000a6c:	4798      	blx	r3
10000a6e:	2800      	cmp	r0, #0
10000a70:	d0c9      	beq.n	10000a06 <alarm_pool_irq_handler+0x25e>
10000a72:	9902      	ldr	r1, [sp, #8]
10000a74:	e9d1 2300 	ldrd	r2, r3, [r1]
10000a78:	e711      	b.n	1000089e <alarm_pool_irq_handler+0xf6>
10000a7a:	bf00      	nop
10000a7c:	f3af 8000 	nop.w
10000a80:	ffffffff 	.word	0xffffffff
10000a84:	ffffffff 	.word	0xffffffff
10000a88:	400b8000 	.word	0x400b8000
10000a8c:	200004ac 	.word	0x200004ac
10000a90:	400b0000 	.word	0x400b0000
10000a94:	100007a9 	.word	0x100007a9

10000a98 <runtime_init_default_alarm_pool>:
10000a98:	e92d 4ff8 	stmdb	sp!, {r3, r4, r5, r6, r7, r8, r9, sl, fp, lr}
10000a9c:	4c36      	ldr	r4, [pc, #216]	@ (10000b78 <runtime_init_default_alarm_pool+0xe0>)
10000a9e:	6925      	ldr	r5, [r4, #16]
10000aa0:	b12d      	cbz	r5, 10000aae <runtime_init_default_alarm_pool+0x16>
10000aa2:	e8bd 4ff8 	ldmia.w	sp!, {r3, r4, r5, r6, r7, r8, r9, sl, fp, lr}
10000aa6:	210a      	movs	r1, #10
10000aa8:	4834      	ldr	r0, [pc, #208]	@ (10000b7c <runtime_init_default_alarm_pool+0xe4>)
10000aaa:	f7ff be31 	b.w	10000710 <lock_init>
10000aae:	f8df 80e4 	ldr.w	r8, [pc, #228]	@ 10000b94 <runtime_init_default_alarm_pool+0xfc>
10000ab2:	2103      	movs	r1, #3
10000ab4:	4640      	mov	r0, r8
10000ab6:	f000 f9eb 	bl	10000e90 <timer_hardware_alarm_claim>
10000aba:	2603      	movs	r6, #3
10000abc:	f8c4 800c 	str.w	r8, [r4, #12]
10000ac0:	f7ff fc48 	bl	10000354 <next_striped_spin_lock_num>
10000ac4:	f04f 4c50 	mov.w	ip, #3489660928	@ 0xd0000000
10000ac8:	4b2d      	ldr	r3, [pc, #180]	@ (10000b80 <runtime_init_default_alarm_pool+0xe8>)
10000aca:	7026      	strb	r6, [r4, #0]
10000acc:	4403      	add	r3, r0
10000ace:	6123      	str	r3, [r4, #16]
10000ad0:	f8dc 3000 	ldr.w	r3, [ip]
10000ad4:	210f      	movs	r1, #15
10000ad6:	7063      	strb	r3, [r4, #1]
10000ad8:	6963      	ldr	r3, [r4, #20]
10000ada:	8061      	strh	r1, [r4, #2]
10000adc:	831d      	strh	r5, [r3, #24]
10000ade:	f04f 0504 	mov.w	r5, #4
10000ae2:	f8a3 5078 	strh.w	r5, [r3, #120]	@ 0x78
10000ae6:	f04f 0505 	mov.w	r5, #5
10000aea:	f8a3 5090 	strh.w	r5, [r3, #144]	@ 0x90
10000aee:	f04f 0506 	mov.w	r5, #6
10000af2:	f8a3 50a8 	strh.w	r5, [r3, #168]	@ 0xa8
10000af6:	f04f 0507 	mov.w	r5, #7
10000afa:	210e      	movs	r1, #14
10000afc:	f64f 72ff 	movw	r2, #65535	@ 0xffff
10000b00:	2708      	movs	r7, #8
10000b02:	f04f 0e0a 	mov.w	lr, #10
10000b06:	f8a3 50c0 	strh.w	r5, [r3, #192]	@ 0xc0
10000b0a:	f04f 0901 	mov.w	r9, #1
10000b0e:	f04f 0c0c 	mov.w	ip, #12
10000b12:	f04f 0b02 	mov.w	fp, #2
10000b16:	f04f 0a09 	mov.w	sl, #9
10000b1a:	200d      	movs	r0, #13
10000b1c:	f04f 050b 	mov.w	r5, #11
10000b20:	f8a3 1168 	strh.w	r1, [r3, #360]	@ 0x168
10000b24:	4917      	ldr	r1, [pc, #92]	@ (10000b84 <runtime_init_default_alarm_pool+0xec>)
10000b26:	80a2      	strh	r2, [r4, #4]
10000b28:	f8a3 e108 	strh.w	lr, [r3, #264]	@ 0x108
10000b2c:	60a1      	str	r1, [r4, #8]
10000b2e:	f8a3 b048 	strh.w	fp, [r3, #72]	@ 0x48
10000b32:	f8a3 a0f0 	strh.w	sl, [r3, #240]	@ 0xf0
10000b36:	f8a3 5120 	strh.w	r5, [r3, #288]	@ 0x120
10000b3a:	f8a3 c138 	strh.w	ip, [r3, #312]	@ 0x138
10000b3e:	f8a3 0150 	strh.w	r0, [r3, #336]	@ 0x150
10000b42:	f8a3 9030 	strh.w	r9, [r3, #48]	@ 0x30
10000b46:	f8a3 6060 	strh.w	r6, [r3, #96]	@ 0x60
10000b4a:	f8a3 70d8 	strh.w	r7, [r3, #216]	@ 0xd8
10000b4e:	801a      	strh	r2, [r3, #0]
10000b50:	4b0d      	ldr	r3, [pc, #52]	@ (10000b88 <runtime_init_default_alarm_pool+0xf0>)
10000b52:	4630      	mov	r0, r6
10000b54:	f8c8 7020 	str.w	r7, [r8, #32]
10000b58:	490c      	ldr	r1, [pc, #48]	@ (10000b8c <runtime_init_default_alarm_pool+0xf4>)
10000b5a:	60dc      	str	r4, [r3, #12]
10000b5c:	f7ff fc50 	bl	10000400 <irq_set_exclusive_handler>
10000b60:	4649      	mov	r1, r9
10000b62:	4630      	mov	r0, r6
10000b64:	f7ff fc36 	bl	100003d4 <irq_set_enabled>
10000b68:	4b09      	ldr	r3, [pc, #36]	@ (10000b90 <runtime_init_default_alarm_pool+0xf8>)
10000b6a:	210a      	movs	r1, #10
10000b6c:	641f      	str	r7, [r3, #64]	@ 0x40
10000b6e:	4803      	ldr	r0, [pc, #12]	@ (10000b7c <runtime_init_default_alarm_pool+0xe4>)
10000b70:	e8bd 4ff8 	ldmia.w	sp!, {r3, r4, r5, r6, r7, r8, r9, sl, fp, lr}
10000b74:	f7ff bdcc 	b.w	10000710 <lock_init>
10000b78:	20000274 	.word	0x20000274
10000b7c:	200004cc 	.word	0x200004cc
10000b80:	20000430 	.word	0x20000430
10000b84:	0010ffff 	.word	0x0010ffff
10000b88:	200004ac 	.word	0x200004ac
10000b8c:	100007a9 	.word	0x100007a9
10000b90:	400b2000 	.word	0x400b2000
10000b94:	400b0000 	.word	0x400b0000

10000b98 <alarm_pool_add_alarm_at_force_in_context>:
10000b98:	4601      	mov	r1, r0
10000b9a:	b5f0      	push	{r4, r5, r6, r7, lr}
10000b9c:	6900      	ldr	r0, [r0, #16]
10000b9e:	f3ef 8710 	mrs	r7, PRIMASK
10000ba2:	b672      	cpsid	i
10000ba4:	e8d0 5fcf 	ldaexb	r5, [r0]
10000ba8:	2401      	movs	r4, #1
10000baa:	2d00      	cmp	r5, #0
10000bac:	d1fa      	bne.n	10000ba4 <alarm_pool_add_alarm_at_force_in_context+0xc>
10000bae:	e8c0 4f45 	strexb	r5, r4, [r0]
10000bb2:	2d00      	cmp	r5, #0
10000bb4:	d1f6      	bne.n	10000ba4 <alarm_pool_add_alarm_at_force_in_context+0xc>
10000bb6:	f3bf 8f5f 	dmb	sy
10000bba:	f9b1 e002 	ldrsh.w	lr, [r1, #2]
10000bbe:	694c      	ldr	r4, [r1, #20]
10000bc0:	eb0e 0c4e 	add.w	ip, lr, lr, lsl #1
10000bc4:	f1be 0f00 	cmp.w	lr, #0
10000bc8:	ea4f 05cc 	mov.w	r5, ip, lsl #3
10000bcc:	6908      	ldr	r0, [r1, #16]
10000bce:	eb04 0ccc 	add.w	ip, r4, ip, lsl #3
10000bd2:	db3c      	blt.n	10000c4e <alarm_pool_add_alarm_at_force_in_context+0xb6>
10000bd4:	5b66      	ldrh	r6, [r4, r5]
10000bd6:	804e      	strh	r6, [r1, #2]
10000bd8:	2600      	movs	r6, #0
10000bda:	e8c0 6f8f 	stlb	r6, [r0]
10000bde:	f387 8810 	msr	PRIMASK, r7
10000be2:	f8bc 0002 	ldrh.w	r0, [ip, #2]
10000be6:	e9cc 2302 	strd	r2, r3, [ip, #8]
10000bea:	3001      	adds	r0, #1
10000bec:	f3c0 000e 	ubfx	r0, r0, #0, #15
10000bf0:	2801      	cmp	r0, #1
10000bf2:	bf38      	it	cc
10000bf4:	2001      	movcc	r0, #1
10000bf6:	9b05      	ldr	r3, [sp, #20]
10000bf8:	f8ac 0002 	strh.w	r0, [ip, #2]
10000bfc:	f8cc 3010 	str.w	r3, [ip, #16]
10000c00:	9b06      	ldr	r3, [sp, #24]
10000c02:	ea40 400e 	orr.w	r0, r0, lr, lsl #16
10000c06:	f8cc 3014 	str.w	r3, [ip, #20]
10000c0a:	690b      	ldr	r3, [r1, #16]
10000c0c:	f3ef 8210 	mrs	r2, PRIMASK
10000c10:	b672      	cpsid	i
10000c12:	e8d3 cfcf 	ldaexb	ip, [r3]
10000c16:	2701      	movs	r7, #1
10000c18:	f1bc 0f00 	cmp.w	ip, #0
10000c1c:	d1f9      	bne.n	10000c12 <alarm_pool_add_alarm_at_force_in_context+0x7a>
10000c1e:	e8c3 7f4c 	strexb	ip, r7, [r3]
10000c22:	f1bc 0f00 	cmp.w	ip, #0
10000c26:	d1f4      	bne.n	10000c12 <alarm_pool_add_alarm_at_force_in_context+0x7a>
10000c28:	f3bf 8f5f 	dmb	sy
10000c2c:	888b      	ldrh	r3, [r1, #4]
10000c2e:	5363      	strh	r3, [r4, r5]
10000c30:	f8a1 e004 	strh.w	lr, [r1, #4]
10000c34:	690b      	ldr	r3, [r1, #16]
10000c36:	e8c3 6f8f 	stlb	r6, [r3]
10000c3a:	f382 8810 	msr	PRIMASK, r2
10000c3e:	2201      	movs	r2, #1
10000c40:	68cb      	ldr	r3, [r1, #12]
10000c42:	7809      	ldrb	r1, [r1, #0]
10000c44:	f503 5301 	add.w	r3, r3, #8256	@ 0x2040
10000c48:	408a      	lsls	r2, r1
10000c4a:	605a      	str	r2, [r3, #4]
10000c4c:	bdf0      	pop	{r4, r5, r6, r7, pc}
10000c4e:	2300      	movs	r3, #0
10000c50:	e8c0 3f8f 	stlb	r3, [r0]
10000c54:	f387 8810 	msr	PRIMASK, r7
10000c58:	f04f 30ff 	mov.w	r0, #4294967295
10000c5c:	bdf0      	pop	{r4, r5, r6, r7, pc}
10000c5e:	bf00      	nop

10000c60 <alarm_pool_cancel_alarm>:
10000c60:	4603      	mov	r3, r0
10000c62:	8940      	ldrh	r0, [r0, #10]
10000c64:	ebb0 4f21 	cmp.w	r0, r1, asr #16
10000c68:	dd37      	ble.n	10000cda <alarm_pool_cancel_alarm+0x7a>
10000c6a:	6958      	ldr	r0, [r3, #20]
10000c6c:	140a      	asrs	r2, r1, #16
10000c6e:	eb02 0242 	add.w	r2, r2, r2, lsl #1
10000c72:	b510      	push	{r4, lr}
10000c74:	eb00 00c2 	add.w	r0, r0, r2, lsl #3
10000c78:	691c      	ldr	r4, [r3, #16]
10000c7a:	f3ef 8c10 	mrs	ip, PRIMASK
10000c7e:	b672      	cpsid	i
10000c80:	e8d4 efcf 	ldaexb	lr, [r4]
10000c84:	2201      	movs	r2, #1
10000c86:	f1be 0f00 	cmp.w	lr, #0
10000c8a:	d1f9      	bne.n	10000c80 <alarm_pool_cancel_alarm+0x20>
10000c8c:	e8c4 2f4e 	strexb	lr, r2, [r4]
10000c90:	f1be 0f00 	cmp.w	lr, #0
10000c94:	d1f4      	bne.n	10000c80 <alarm_pool_cancel_alarm+0x20>
10000c96:	f3bf 8f5f 	dmb	sy
10000c9a:	8842      	ldrh	r2, [r0, #2]
10000c9c:	b289      	uxth	r1, r1
10000c9e:	b292      	uxth	r2, r2
10000ca0:	428a      	cmp	r2, r1
10000ca2:	d007      	beq.n	10000cb4 <alarm_pool_cancel_alarm+0x54>
10000ca4:	2200      	movs	r2, #0
10000ca6:	691b      	ldr	r3, [r3, #16]
10000ca8:	e8c3 2f8f 	stlb	r2, [r3]
10000cac:	f38c 8810 	msr	PRIMASK, ip
10000cb0:	2000      	movs	r0, #0
10000cb2:	bd10      	pop	{r4, pc}
10000cb4:	f442 4200 	orr.w	r2, r2, #32768	@ 0x8000
10000cb8:	8042      	strh	r2, [r0, #2]
10000cba:	2101      	movs	r1, #1
10000cbc:	2200      	movs	r2, #0
10000cbe:	6918      	ldr	r0, [r3, #16]
10000cc0:	7199      	strb	r1, [r3, #6]
10000cc2:	e8c0 2f8f 	stlb	r2, [r0]
10000cc6:	f38c 8810 	msr	PRIMASK, ip
10000cca:	781c      	ldrb	r4, [r3, #0]
10000ccc:	68da      	ldr	r2, [r3, #12]
10000cce:	4608      	mov	r0, r1
10000cd0:	f502 5301 	add.w	r3, r2, #8256	@ 0x2040
10000cd4:	40a1      	lsls	r1, r4
10000cd6:	6059      	str	r1, [r3, #4]
10000cd8:	bd10      	pop	{r4, pc}
10000cda:	2000      	movs	r0, #0
10000cdc:	4770      	bx	lr
10000cde:	bf00      	nop

10000ce0 <sleep_ms>:
10000ce0:	e92d 41f0 	stmdb	sp!, {r4, r5, r6, r7, r8, lr}
10000ce4:	b082      	sub	sp, #8
10000ce6:	4606      	mov	r6, r0
10000ce8:	f000 f8ec 	bl	10000ec4 <time_us_64>
10000cec:	f44f 737a 	mov.w	r3, #1000	@ 0x3e8
10000cf0:	4604      	mov	r4, r0
10000cf2:	f04f 30ff 	mov.w	r0, #4294967295
10000cf6:	f06f 4200 	mvn.w	r2, #2147483648	@ 0x80000000
10000cfa:	fbe6 4103 	umlal	r4, r1, r6, r3
10000cfe:	42a0      	cmp	r0, r4
10000d00:	eb72 0301 	sbcs.w	r3, r2, r1
10000d04:	bf3a      	itte	cc
10000d06:	4604      	movcc	r4, r0
10000d08:	4615      	movcc	r5, r2
10000d0a:	460d      	movcs	r5, r1
10000d0c:	1fa6      	subs	r6, r4, #6
10000d0e:	f145 37ff 	adc.w	r7, r5, #4294967295
10000d12:	42b4      	cmp	r4, r6
10000d14:	eb75 0307 	sbcs.w	r3, r5, r7
10000d18:	bf3c      	itt	cc
10000d1a:	2600      	movcc	r6, #0
10000d1c:	4637      	movcc	r7, r6
10000d1e:	f000 f8d1 	bl	10000ec4 <time_us_64>
10000d22:	1a30      	subs	r0, r6, r0
10000d24:	eb67 0101 	sbc.w	r1, r7, r1
10000d28:	2801      	cmp	r0, #1
10000d2a:	f171 0100 	sbcs.w	r1, r1, #0
10000d2e:	da06      	bge.n	10000d3e <sleep_ms+0x5e>
10000d30:	4620      	mov	r0, r4
10000d32:	4629      	mov	r1, r5
10000d34:	b002      	add	sp, #8
10000d36:	e8bd 41f0 	ldmia.w	sp!, {r4, r5, r6, r7, r8, lr}
10000d3a:	f000 b8fb 	b.w	10000f34 <busy_wait_until>
10000d3e:	f000 f8c1 	bl	10000ec4 <time_us_64>
10000d42:	4286      	cmp	r6, r0
10000d44:	eb67 0101 	sbc.w	r1, r7, r1
10000d48:	2900      	cmp	r1, #0
10000d4a:	db0a      	blt.n	10000d62 <sleep_ms+0x82>
10000d4c:	2100      	movs	r1, #0
10000d4e:	4b17      	ldr	r3, [pc, #92]	@ (10000dac <sleep_ms+0xcc>)
10000d50:	4632      	mov	r2, r6
10000d52:	9300      	str	r3, [sp, #0]
10000d54:	4816      	ldr	r0, [pc, #88]	@ (10000db0 <sleep_ms+0xd0>)
10000d56:	463b      	mov	r3, r7
10000d58:	9101      	str	r1, [sp, #4]
10000d5a:	f7ff ff1d 	bl	10000b98 <alarm_pool_add_alarm_at_force_in_context>
10000d5e:	3001      	adds	r0, #1
10000d60:	d0e6      	beq.n	10000d30 <sleep_ms+0x50>
10000d62:	f04f 0c00 	mov.w	ip, #0
10000d66:	4a13      	ldr	r2, [pc, #76]	@ (10000db4 <sleep_ms+0xd4>)
10000d68:	4913      	ldr	r1, [pc, #76]	@ (10000db8 <sleep_ms+0xd8>)
10000d6a:	6a53      	ldr	r3, [r2, #36]	@ 0x24
10000d6c:	429f      	cmp	r7, r3
10000d6e:	d804      	bhi.n	10000d7a <sleep_ms+0x9a>
10000d70:	6a90      	ldr	r0, [r2, #40]	@ 0x28
10000d72:	42b0      	cmp	r0, r6
10000d74:	d2dc      	bcs.n	10000d30 <sleep_ms+0x50>
10000d76:	429f      	cmp	r7, r3
10000d78:	d1da      	bne.n	10000d30 <sleep_ms+0x50>
10000d7a:	680b      	ldr	r3, [r1, #0]
10000d7c:	f3ef 8010 	mrs	r0, PRIMASK
10000d80:	b672      	cpsid	i
10000d82:	e8d3 8fcf 	ldaexb	r8, [r3]
10000d86:	f05f 0e01 	movs.w	lr, #1
10000d8a:	f1b8 0f00 	cmp.w	r8, #0
10000d8e:	d1f8      	bne.n	10000d82 <sleep_ms+0xa2>
10000d90:	e8c3 ef48 	strexb	r8, lr, [r3]
10000d94:	f1b8 0f00 	cmp.w	r8, #0
10000d98:	d1f3      	bne.n	10000d82 <sleep_ms+0xa2>
10000d9a:	f3bf 8f5f 	dmb	sy
10000d9e:	680b      	ldr	r3, [r1, #0]
10000da0:	e8c3 cf8f 	stlb	ip, [r3]
10000da4:	f380 8810 	msr	PRIMASK, r0
10000da8:	bf20      	wfe
10000daa:	e7de      	b.n	10000d6a <sleep_ms+0x8a>
10000dac:	10000769 	.word	0x10000769
10000db0:	20000274 	.word	0x20000274
10000db4:	400b0000 	.word	0x400b0000
10000db8:	200004cc 	.word	0x200004cc

10000dbc <best_effort_wfe_or_timeout>:
10000dbc:	e92d 43f0 	stmdb	sp!, {r4, r5, r6, r7, r8, r9, lr}
10000dc0:	4606      	mov	r6, r0
10000dc2:	460d      	mov	r5, r1
10000dc4:	b083      	sub	sp, #12
10000dc6:	f3ef 8405 	mrs	r4, IPSR
10000dca:	b2e4      	uxtb	r4, r4
10000dcc:	b13c      	cbz	r4, 10000dde <best_effort_wfe_or_timeout+0x22>
10000dce:	4b2d      	ldr	r3, [pc, #180]	@ (10000e84 <best_effort_wfe_or_timeout+0xc8>)
10000dd0:	6a5a      	ldr	r2, [r3, #36]	@ 0x24
10000dd2:	42aa      	cmp	r2, r5
10000dd4:	d21c      	bcs.n	10000e10 <best_effort_wfe_or_timeout+0x54>
10000dd6:	2000      	movs	r0, #0
10000dd8:	b003      	add	sp, #12
10000dda:	e8bd 83f0 	ldmia.w	sp!, {r4, r5, r6, r7, r8, r9, pc}
10000dde:	4f2a      	ldr	r7, [pc, #168]	@ (10000e88 <best_effort_wfe_or_timeout+0xcc>)
10000de0:	f8d7 900c 	ldr.w	r9, [r7, #12]
10000de4:	f897 8000 	ldrb.w	r8, [r7]
10000de8:	4648      	mov	r0, r9
10000dea:	f000 f863 	bl	10000eb4 <timer_time_us_64>
10000dee:	f108 0804 	add.w	r8, r8, #4
10000df2:	f859 3028 	ldr.w	r3, [r9, r8, lsl #2]
10000df6:	1a1b      	subs	r3, r3, r0
10000df8:	1a30      	subs	r0, r6, r0
10000dfa:	eb65 0101 	sbc.w	r1, r5, r1
10000dfe:	4298      	cmp	r0, r3
10000e00:	f171 0100 	sbcs.w	r1, r1, #0
10000e04:	db10      	blt.n	10000e28 <best_effort_wfe_or_timeout+0x6c>
10000e06:	bf20      	wfe
10000e08:	4b1e      	ldr	r3, [pc, #120]	@ (10000e84 <best_effort_wfe_or_timeout+0xc8>)
10000e0a:	6a5a      	ldr	r2, [r3, #36]	@ 0x24
10000e0c:	42aa      	cmp	r2, r5
10000e0e:	d3e2      	bcc.n	10000dd6 <best_effort_wfe_or_timeout+0x1a>
10000e10:	bf14      	ite	ne
10000e12:	2401      	movne	r4, #1
10000e14:	2400      	moveq	r4, #0
10000e16:	6a9b      	ldr	r3, [r3, #40]	@ 0x28
10000e18:	42b3      	cmp	r3, r6
10000e1a:	bf34      	ite	cc
10000e1c:	4620      	movcc	r0, r4
10000e1e:	f044 0001 	orrcs.w	r0, r4, #1
10000e22:	b003      	add	sp, #12
10000e24:	e8bd 83f0 	ldmia.w	sp!, {r4, r5, r6, r7, r8, r9, pc}
10000e28:	f000 f84c 	bl	10000ec4 <time_us_64>
10000e2c:	4286      	cmp	r6, r0
10000e2e:	eb65 0101 	sbc.w	r1, r5, r1
10000e32:	2900      	cmp	r1, #0
10000e34:	db14      	blt.n	10000e60 <best_effort_wfe_or_timeout+0xa4>
10000e36:	4b15      	ldr	r3, [pc, #84]	@ (10000e8c <best_effort_wfe_or_timeout+0xd0>)
10000e38:	4638      	mov	r0, r7
10000e3a:	e9cd 3400 	strd	r3, r4, [sp]
10000e3e:	4632      	mov	r2, r6
10000e40:	462b      	mov	r3, r5
10000e42:	f7ff fea9 	bl	10000b98 <alarm_pool_add_alarm_at_force_in_context>
10000e46:	1e01      	subs	r1, r0, #0
10000e48:	dd0a      	ble.n	10000e60 <best_effort_wfe_or_timeout+0xa4>
10000e4a:	4b0e      	ldr	r3, [pc, #56]	@ (10000e84 <best_effort_wfe_or_timeout+0xc8>)
10000e4c:	6a5a      	ldr	r2, [r3, #36]	@ 0x24
10000e4e:	42aa      	cmp	r2, r5
10000e50:	d316      	bcc.n	10000e80 <best_effort_wfe_or_timeout+0xc4>
10000e52:	6a9b      	ldr	r3, [r3, #40]	@ 0x28
10000e54:	42b3      	cmp	r3, r6
10000e56:	d311      	bcc.n	10000e7c <best_effort_wfe_or_timeout+0xc0>
10000e58:	480b      	ldr	r0, [pc, #44]	@ (10000e88 <best_effort_wfe_or_timeout+0xcc>)
10000e5a:	f7ff ff01 	bl	10000c60 <alarm_pool_cancel_alarm>
10000e5e:	e7b6      	b.n	10000dce <best_effort_wfe_or_timeout+0x12>
10000e60:	4b08      	ldr	r3, [pc, #32]	@ (10000e84 <best_effort_wfe_or_timeout+0xc8>)
10000e62:	6a5c      	ldr	r4, [r3, #36]	@ 0x24
10000e64:	42ac      	cmp	r4, r5
10000e66:	d3b6      	bcc.n	10000dd6 <best_effort_wfe_or_timeout+0x1a>
10000e68:	1b64      	subs	r4, r4, r5
10000e6a:	bf18      	it	ne
10000e6c:	2401      	movne	r4, #1
10000e6e:	6a9b      	ldr	r3, [r3, #40]	@ 0x28
10000e70:	42b3      	cmp	r3, r6
10000e72:	bf34      	ite	cc
10000e74:	4620      	movcc	r0, r4
10000e76:	f044 0001 	orrcs.w	r0, r4, #1
10000e7a:	e7ad      	b.n	10000dd8 <best_effort_wfe_or_timeout+0x1c>
10000e7c:	42aa      	cmp	r2, r5
10000e7e:	d1eb      	bne.n	10000e58 <best_effort_wfe_or_timeout+0x9c>
10000e80:	bf20      	wfe
10000e82:	e7e9      	b.n	10000e58 <best_effort_wfe_or_timeout+0x9c>
10000e84:	400b0000 	.word	0x400b0000
10000e88:	20000274 	.word	0x20000274
10000e8c:	10000769 	.word	0x10000769

10000e90 <timer_hardware_alarm_claim>:
10000e90:	b410      	push	{r4}
10000e92:	4b05      	ldr	r3, [pc, #20]	@ (10000ea8 <timer_hardware_alarm_claim+0x18>)
10000e94:	4c05      	ldr	r4, [pc, #20]	@ (10000eac <timer_hardware_alarm_claim+0x1c>)
10000e96:	4a06      	ldr	r2, [pc, #24]	@ (10000eb0 <timer_hardware_alarm_claim+0x20>)
10000e98:	42a0      	cmp	r0, r4
10000e9a:	bf14      	ite	ne
10000e9c:	4618      	movne	r0, r3
10000e9e:	1c58      	addeq	r0, r3, #1
10000ea0:	f85d 4b04 	ldr.w	r4, [sp], #4
10000ea4:	f7ff ba2a 	b.w	100002fc <hw_claim_or_assert>
10000ea8:	20000458 	.word	0x20000458
10000eac:	400b8000 	.word	0x400b8000
10000eb0:	10001c94 	.word	0x10001c94

10000eb4 <timer_time_us_64>:
10000eb4:	4603      	mov	r3, r0
10000eb6:	6a41      	ldr	r1, [r0, #36]	@ 0x24
10000eb8:	460a      	mov	r2, r1
10000eba:	6a98      	ldr	r0, [r3, #40]	@ 0x28
10000ebc:	6a59      	ldr	r1, [r3, #36]	@ 0x24
10000ebe:	428a      	cmp	r2, r1
10000ec0:	d1fa      	bne.n	10000eb8 <timer_time_us_64+0x4>
10000ec2:	4770      	bx	lr

10000ec4 <time_us_64>:
10000ec4:	4b03      	ldr	r3, [pc, #12]	@ (10000ed4 <time_us_64+0x10>)
10000ec6:	6a59      	ldr	r1, [r3, #36]	@ 0x24
10000ec8:	460a      	mov	r2, r1
10000eca:	6a98      	ldr	r0, [r3, #40]	@ 0x28
10000ecc:	6a59      	ldr	r1, [r3, #36]	@ 0x24
10000ece:	4291      	cmp	r1, r2
10000ed0:	d1fa      	bne.n	10000ec8 <time_us_64+0x4>
10000ed2:	4770      	bx	lr
10000ed4:	400b0000 	.word	0x400b0000

10000ed8 <busy_wait_us>:
10000ed8:	b430      	push	{r4, r5}
10000eda:	4a15      	ldr	r2, [pc, #84]	@ (10000f30 <busy_wait_us+0x58>)
10000edc:	6a53      	ldr	r3, [r2, #36]	@ 0x24
10000ede:	469c      	mov	ip, r3
10000ee0:	6a94      	ldr	r4, [r2, #40]	@ 0x28
10000ee2:	6a53      	ldr	r3, [r2, #36]	@ 0x24
10000ee4:	4563      	cmp	r3, ip
10000ee6:	d1fa      	bne.n	10000ede <busy_wait_us+0x6>
10000ee8:	1902      	adds	r2, r0, r4
10000eea:	4159      	adcs	r1, r3
10000eec:	f04f 0500 	mov.w	r5, #0
10000ef0:	bf28      	it	cs
10000ef2:	2501      	movcs	r5, #1
10000ef4:	4b0e      	ldr	r3, [pc, #56]	@ (10000f30 <busy_wait_us+0x58>)
10000ef6:	6a5b      	ldr	r3, [r3, #36]	@ 0x24
10000ef8:	b1b5      	cbz	r5, 10000f28 <busy_wait_us+0x50>
10000efa:	1c5a      	adds	r2, r3, #1
10000efc:	bf08      	it	eq
10000efe:	461a      	moveq	r2, r3
10000f00:	d008      	beq.n	10000f14 <busy_wait_us+0x3c>
10000f02:	f04f 31ff 	mov.w	r1, #4294967295
10000f06:	460a      	mov	r2, r1
10000f08:	4809      	ldr	r0, [pc, #36]	@ (10000f30 <busy_wait_us+0x58>)
10000f0a:	6a43      	ldr	r3, [r0, #36]	@ 0x24
10000f0c:	428b      	cmp	r3, r1
10000f0e:	d3fc      	bcc.n	10000f0a <busy_wait_us+0x32>
10000f10:	428b      	cmp	r3, r1
10000f12:	d107      	bne.n	10000f24 <busy_wait_us+0x4c>
10000f14:	4906      	ldr	r1, [pc, #24]	@ (10000f30 <busy_wait_us+0x58>)
10000f16:	e002      	b.n	10000f1e <busy_wait_us+0x46>
10000f18:	6a48      	ldr	r0, [r1, #36]	@ 0x24
10000f1a:	4298      	cmp	r0, r3
10000f1c:	d102      	bne.n	10000f24 <busy_wait_us+0x4c>
10000f1e:	6a88      	ldr	r0, [r1, #40]	@ 0x28
10000f20:	4290      	cmp	r0, r2
10000f22:	d3f9      	bcc.n	10000f18 <busy_wait_us+0x40>
10000f24:	bc30      	pop	{r4, r5}
10000f26:	4770      	bx	lr
10000f28:	4299      	cmp	r1, r3
10000f2a:	d8ed      	bhi.n	10000f08 <busy_wait_us+0x30>
10000f2c:	e7f0      	b.n	10000f10 <busy_wait_us+0x38>
10000f2e:	bf00      	nop
10000f30:	400b0000 	.word	0x400b0000

10000f34 <busy_wait_until>:
10000f34:	4a07      	ldr	r2, [pc, #28]	@ (10000f54 <busy_wait_until+0x20>)
10000f36:	6a53      	ldr	r3, [r2, #36]	@ 0x24
10000f38:	4299      	cmp	r1, r3
10000f3a:	d8fc      	bhi.n	10000f36 <busy_wait_until+0x2>
10000f3c:	4299      	cmp	r1, r3
10000f3e:	d107      	bne.n	10000f50 <busy_wait_until+0x1c>
10000f40:	4b04      	ldr	r3, [pc, #16]	@ (10000f54 <busy_wait_until+0x20>)
10000f42:	e002      	b.n	10000f4a <busy_wait_until+0x16>
10000f44:	6a5a      	ldr	r2, [r3, #36]	@ 0x24
10000f46:	4291      	cmp	r1, r2
10000f48:	d102      	bne.n	10000f50 <busy_wait_until+0x1c>
10000f4a:	6a9a      	ldr	r2, [r3, #40]	@ 0x28
10000f4c:	4290      	cmp	r0, r2
10000f4e:	d8f9      	bhi.n	10000f44 <busy_wait_until+0x10>
10000f50:	4770      	bx	lr
10000f52:	bf00      	nop
10000f54:	400b0000 	.word	0x400b0000

10000f58 <uart_init>:
10000f58:	b5f8      	push	{r3, r4, r5, r6, r7, lr}
10000f5a:	4605      	mov	r5, r0
10000f5c:	2006      	movs	r0, #6
10000f5e:	460e      	mov	r6, r1
10000f60:	f000 f8e4 	bl	1000112c <clock_get_hz>
10000f64:	2800      	cmp	r0, #0
10000f66:	d042      	beq.n	10000fee <uart_init+0x96>
10000f68:	4a35      	ldr	r2, [pc, #212]	@ (10001040 <uart_init+0xe8>)
10000f6a:	4836      	ldr	r0, [pc, #216]	@ (10001044 <uart_init+0xec>)
10000f6c:	4295      	cmp	r5, r2
10000f6e:	bf14      	ite	ne
10000f70:	f04f 6280 	movne.w	r2, #67108864	@ 0x4000000
10000f74:	f04f 6200 	moveq.w	r2, #134217728	@ 0x8000000
10000f78:	4b33      	ldr	r3, [pc, #204]	@ (10001048 <uart_init+0xf0>)
10000f7a:	4934      	ldr	r1, [pc, #208]	@ (1000104c <uart_init+0xf4>)
10000f7c:	6002      	str	r2, [r0, #0]
10000f7e:	601a      	str	r2, [r3, #0]
10000f80:	688c      	ldr	r4, [r1, #8]
10000f82:	ea32 0404 	bics.w	r4, r2, r4
10000f86:	d1fb      	bne.n	10000f80 <uart_init+0x28>
10000f88:	4b2d      	ldr	r3, [pc, #180]	@ (10001040 <uart_init+0xe8>)
10000f8a:	f44f 7180 	mov.w	r1, #256	@ 0x100
10000f8e:	1aeb      	subs	r3, r5, r3
10000f90:	fab3 f383 	clz	r3, r3
10000f94:	4a2e      	ldr	r2, [pc, #184]	@ (10001050 <uart_init+0xf8>)
10000f96:	095b      	lsrs	r3, r3, #5
10000f98:	2006      	movs	r0, #6
10000f9a:	f822 1013 	strh.w	r1, [r2, r3, lsl #1]
10000f9e:	f000 f8c5 	bl	1000112c <clock_get_hz>
10000fa2:	00c3      	lsls	r3, r0, #3
10000fa4:	fbb3 f3f6 	udiv	r3, r3, r6
10000fa8:	3301      	adds	r3, #1
10000faa:	09da      	lsrs	r2, r3, #7
10000fac:	d120      	bne.n	10000ff0 <uart_init+0x98>
10000fae:	2640      	movs	r6, #64	@ 0x40
10000fb0:	2101      	movs	r1, #1
10000fb2:	6269      	str	r1, [r5, #36]	@ 0x24
10000fb4:	62aa      	str	r2, [r5, #40]	@ 0x28
10000fb6:	6b2f      	ldr	r7, [r5, #48]	@ 0x30
10000fb8:	07fb      	lsls	r3, r7, #31
10000fba:	d422      	bmi.n	10001002 <uart_init+0xaa>
10000fbc:	462b      	mov	r3, r5
10000fbe:	2200      	movs	r2, #0
10000fc0:	f853 1f2c 	ldr.w	r1, [r3, #44]!
10000fc4:	2006      	movs	r0, #6
10000fc6:	f503 5480 	add.w	r4, r3, #4096	@ 0x1000
10000fca:	6022      	str	r2, [r4, #0]
10000fcc:	632f      	str	r7, [r5, #48]	@ 0x30
10000fce:	f000 f8ad 	bl	1000112c <clock_get_hz>
10000fd2:	f240 3101 	movw	r1, #769	@ 0x301
10000fd6:	2203      	movs	r2, #3
10000fd8:	0080      	lsls	r0, r0, #2
10000fda:	fbb0 f0f6 	udiv	r0, r0, r6
10000fde:	6aeb      	ldr	r3, [r5, #44]	@ 0x2c
10000fe0:	f083 0370 	eor.w	r3, r3, #112	@ 0x70
10000fe4:	f003 037e 	and.w	r3, r3, #126	@ 0x7e
10000fe8:	6023      	str	r3, [r4, #0]
10000fea:	6329      	str	r1, [r5, #48]	@ 0x30
10000fec:	64aa      	str	r2, [r5, #72]	@ 0x48
10000fee:	bdf8      	pop	{r3, r4, r5, r6, r7, pc}
10000ff0:	f64f 71fe 	movw	r1, #65534	@ 0xfffe
10000ff4:	428a      	cmp	r2, r1
10000ff6:	d91b      	bls.n	10001030 <uart_init+0xd8>
10000ff8:	4622      	mov	r2, r4
10000ffa:	f64f 71ff 	movw	r1, #65535	@ 0xffff
10000ffe:	4e15      	ldr	r6, [pc, #84]	@ (10001054 <uart_init+0xfc>)
10001000:	e7d7      	b.n	10000fb2 <uart_init+0x5a>
10001002:	f240 3201 	movw	r2, #769	@ 0x301
10001006:	f505 5340 	add.w	r3, r5, #12288	@ 0x3000
1000100a:	631a      	str	r2, [r3, #48]	@ 0x30
1000100c:	6a6b      	ldr	r3, [r5, #36]	@ 0x24
1000100e:	6aac      	ldr	r4, [r5, #40]	@ 0x28
10001010:	2006      	movs	r0, #6
10001012:	eb04 1483 	add.w	r4, r4, r3, lsl #6
10001016:	f000 f889 	bl	1000112c <clock_get_hz>
1000101a:	4b0f      	ldr	r3, [pc, #60]	@ (10001058 <uart_init+0x100>)
1000101c:	02a4      	lsls	r4, r4, #10
1000101e:	fba3 2300 	umull	r2, r3, r3, r0
10001022:	0adb      	lsrs	r3, r3, #11
10001024:	2100      	movs	r1, #0
10001026:	fbb4 f0f3 	udiv	r0, r4, r3
1000102a:	f7ff ff55 	bl	10000ed8 <busy_wait_us>
1000102e:	e7c5      	b.n	10000fbc <uart_init+0x64>
10001030:	f3c3 0345 	ubfx	r3, r3, #1, #6
10001034:	4611      	mov	r1, r2
10001036:	eb03 1682 	add.w	r6, r3, r2, lsl #6
1000103a:	461a      	mov	r2, r3
1000103c:	e7b9      	b.n	10000fb2 <uart_init+0x5a>
1000103e:	bf00      	nop
10001040:	40078000 	.word	0x40078000
10001044:	40022000 	.word	0x40022000
10001048:	40023000 	.word	0x40023000
1000104c:	40020000 	.word	0x40020000
10001050:	200004d0 	.word	0x200004d0
10001054:	003fffc0 	.word	0x003fffc0
10001058:	8f2b7b75 	.word	0x8f2b7b75

1000105c <clock_configure_undivided>:
1000105c:	eb00 0c40 	add.w	ip, r0, r0, lsl #1
10001060:	ea4f 0c8c 	mov.w	ip, ip, lsl #2
10001064:	f10c 4c80 	add.w	ip, ip, #1073741824	@ 0x40000000
10001068:	f50c 3c80 	add.w	ip, ip, #65536	@ 0x10000
1000106c:	b5f0      	push	{r4, r5, r6, r7, lr}
1000106e:	4616      	mov	r6, r2
10001070:	f8dc 2004 	ldr.w	r2, [ip, #4]
10001074:	1f05      	subs	r5, r0, #4
10001076:	f5b2 3f80 	cmp.w	r2, #65536	@ 0x10000
1000107a:	bf38      	it	cc
1000107c:	f44f 3280 	movcc.w	r2, #65536	@ 0x10000
10001080:	b2ed      	uxtb	r5, r5
10001082:	bf38      	it	cc
10001084:	f8cc 2004 	strcc.w	r2, [ip, #4]
10001088:	2d01      	cmp	r5, #1
1000108a:	d92a      	bls.n	100010e2 <clock_configure_undivided+0x86>
1000108c:	f44f 6700 	mov.w	r7, #2048	@ 0x800
10001090:	4c25      	ldr	r4, [pc, #148]	@ (10001128 <clock_configure_undivided+0xcc>)
10001092:	f50c 5240 	add.w	r2, ip, #12288	@ 0x3000
10001096:	6017      	str	r7, [r2, #0]
10001098:	f854 2020 	ldr.w	r2, [r4, r0, lsl #2]
1000109c:	b9b2      	cbnz	r2, 100010cc <clock_configure_undivided+0x70>
1000109e:	f8dc 2000 	ldr.w	r2, [ip]
100010a2:	2d01      	cmp	r5, #1
100010a4:	ea82 1246 	eor.w	r2, r2, r6, lsl #5
100010a8:	f002 02e0 	and.w	r2, r2, #224	@ 0xe0
100010ac:	f50c 5680 	add.w	r6, ip, #4096	@ 0x1000
100010b0:	6032      	str	r2, [r6, #0]
100010b2:	d92a      	bls.n	1000110a <clock_configure_undivided+0xae>
100010b4:	f44f 6100 	mov.w	r1, #2048	@ 0x800
100010b8:	f844 3020 	str.w	r3, [r4, r0, lsl #2]
100010bc:	f44f 3380 	mov.w	r3, #65536	@ 0x10000
100010c0:	f50c 5200 	add.w	r2, ip, #8192	@ 0x2000
100010c4:	6011      	str	r1, [r2, #0]
100010c6:	f8cc 3004 	str.w	r3, [ip, #4]
100010ca:	bdf0      	pop	{r4, r5, r6, r7, pc}
100010cc:	6967      	ldr	r7, [r4, #20]
100010ce:	fbb7 fef2 	udiv	lr, r7, r2
100010d2:	f10e 0e01 	add.w	lr, lr, #1
100010d6:	eb0e 0e4e 	add.w	lr, lr, lr, lsl #1
100010da:	f1be 0e03 	subs.w	lr, lr, #3
100010de:	d2fc      	bcs.n	100010da <clock_configure_undivided+0x7e>
100010e0:	e7dd      	b.n	1000109e <clock_configure_undivided+0x42>
100010e2:	2901      	cmp	r1, #1
100010e4:	d1d2      	bne.n	1000108c <clock_configure_undivided+0x30>
100010e6:	2403      	movs	r4, #3
100010e8:	f50c 5240 	add.w	r2, ip, #12288	@ 0x3000
100010ec:	6014      	str	r4, [r2, #0]
100010ee:	f8dc 2008 	ldr.w	r2, [ip, #8]
100010f2:	07d2      	lsls	r2, r2, #31
100010f4:	d5fb      	bpl.n	100010ee <clock_configure_undivided+0x92>
100010f6:	f8dc 2000 	ldr.w	r2, [ip]
100010fa:	4c0b      	ldr	r4, [pc, #44]	@ (10001128 <clock_configure_undivided+0xcc>)
100010fc:	ea82 1246 	eor.w	r2, r2, r6, lsl #5
10001100:	f002 02e0 	and.w	r2, r2, #224	@ 0xe0
10001104:	f50c 5680 	add.w	r6, ip, #4096	@ 0x1000
10001108:	6032      	str	r2, [r6, #0]
1000110a:	2201      	movs	r2, #1
1000110c:	f8dc 5000 	ldr.w	r5, [ip]
10001110:	404d      	eors	r5, r1
10001112:	f005 0503 	and.w	r5, r5, #3
10001116:	6035      	str	r5, [r6, #0]
10001118:	fa02 f101 	lsl.w	r1, r2, r1
1000111c:	f8dc 2008 	ldr.w	r2, [ip, #8]
10001120:	420a      	tst	r2, r1
10001122:	d0fb      	beq.n	1000111c <clock_configure_undivided+0xc0>
10001124:	e7c6      	b.n	100010b4 <clock_configure_undivided+0x58>
10001126:	bf00      	nop
10001128:	2000045c 	.word	0x2000045c

1000112c <clock_get_hz>:
1000112c:	4b01      	ldr	r3, [pc, #4]	@ (10001134 <clock_get_hz+0x8>)
1000112e:	f853 0020 	ldr.w	r0, [r3, r0, lsl #2]
10001132:	4770      	bx	lr
10001134:	2000045c 	.word	0x2000045c

10001138 <pll_init>:
10001138:	b470      	push	{r4, r5, r6}
1000113a:	9d03      	ldr	r5, [sp, #12]
1000113c:	6804      	ldr	r4, [r0, #0]
1000113e:	032d      	lsls	r5, r5, #12
10001140:	ea45 4503 	orr.w	r5, r5, r3, lsl #16
10001144:	4b1b      	ldr	r3, [pc, #108]	@ (100011b4 <pll_init+0x7c>)
10001146:	2c00      	cmp	r4, #0
10001148:	fbb3 f3f1 	udiv	r3, r3, r1
1000114c:	fbb2 f6f3 	udiv	r6, r2, r3
10001150:	db1f      	blt.n	10001192 <pll_init+0x5a>
10001152:	4a19      	ldr	r2, [pc, #100]	@ (100011b8 <pll_init+0x80>)
10001154:	4b19      	ldr	r3, [pc, #100]	@ (100011bc <pll_init+0x84>)
10001156:	4290      	cmp	r0, r2
10001158:	bf14      	ite	ne
1000115a:	f44f 4280 	movne.w	r2, #16384	@ 0x4000
1000115e:	f44f 4200 	moveq.w	r2, #32768	@ 0x8000
10001162:	4c17      	ldr	r4, [pc, #92]	@ (100011c0 <pll_init+0x88>)
10001164:	601a      	str	r2, [r3, #0]
10001166:	f503 5380 	add.w	r3, r3, #4096	@ 0x1000
1000116a:	601a      	str	r2, [r3, #0]
1000116c:	68a3      	ldr	r3, [r4, #8]
1000116e:	ea32 0303 	bics.w	r3, r2, r3
10001172:	d1fb      	bne.n	1000116c <pll_init+0x34>
10001174:	2221      	movs	r2, #33	@ 0x21
10001176:	f500 5340 	add.w	r3, r0, #12288	@ 0x3000
1000117a:	3304      	adds	r3, #4
1000117c:	6001      	str	r1, [r0, #0]
1000117e:	6086      	str	r6, [r0, #8]
10001180:	601a      	str	r2, [r3, #0]
10001182:	6802      	ldr	r2, [r0, #0]
10001184:	2a00      	cmp	r2, #0
10001186:	dafc      	bge.n	10001182 <pll_init+0x4a>
10001188:	2208      	movs	r2, #8
1000118a:	60c5      	str	r5, [r0, #12]
1000118c:	601a      	str	r2, [r3, #0]
1000118e:	bc70      	pop	{r4, r5, r6}
10001190:	4770      	bx	lr
10001192:	6803      	ldr	r3, [r0, #0]
10001194:	f003 033f 	and.w	r3, r3, #63	@ 0x3f
10001198:	428b      	cmp	r3, r1
1000119a:	d1da      	bne.n	10001152 <pll_init+0x1a>
1000119c:	6883      	ldr	r3, [r0, #8]
1000119e:	f3c3 030b 	ubfx	r3, r3, #0, #12
100011a2:	42b3      	cmp	r3, r6
100011a4:	d1d5      	bne.n	10001152 <pll_init+0x1a>
100011a6:	68c3      	ldr	r3, [r0, #12]
100011a8:	f403 23ee 	and.w	r3, r3, #487424	@ 0x77000
100011ac:	42ab      	cmp	r3, r5
100011ae:	d1d0      	bne.n	10001152 <pll_init+0x1a>
100011b0:	e7ed      	b.n	1000118e <pll_init+0x56>
100011b2:	bf00      	nop
100011b4:	00b71b00 	.word	0x00b71b00
100011b8:	40058000 	.word	0x40058000
100011bc:	40022000 	.word	0x40022000
100011c0:	40020000 	.word	0x40020000

100011c4 <watchdog_update>:
100011c4:	4a02      	ldr	r2, [pc, #8]	@ (100011d0 <watchdog_update+0xc>)
100011c6:	4b03      	ldr	r3, [pc, #12]	@ (100011d4 <watchdog_update+0x10>)
100011c8:	6812      	ldr	r2, [r2, #0]
100011ca:	605a      	str	r2, [r3, #4]
100011cc:	4770      	bx	lr
100011ce:	bf00      	nop
100011d0:	20000490 	.word	0x20000490
100011d4:	400d8000 	.word	0x400d8000

100011d8 <watchdog_enable>:
100011d8:	b430      	push	{r4, r5}
100011da:	f04f 4580 	mov.w	r5, #1073741824	@ 0x40000000
100011de:	4b17      	ldr	r3, [pc, #92]	@ (1000123c <watchdog_enable+0x64>)
100011e0:	4a17      	ldr	r2, [pc, #92]	@ (10001240 <watchdog_enable+0x68>)
100011e2:	4c18      	ldr	r4, [pc, #96]	@ (10001244 <watchdog_enable+0x6c>)
100011e4:	61da      	str	r2, [r3, #28]
100011e6:	4a18      	ldr	r2, [pc, #96]	@ (10001248 <watchdog_enable+0x70>)
100011e8:	f503 5340 	add.w	r3, r3, #12288	@ 0x3000
100011ec:	601d      	str	r5, [r3, #0]
100011ee:	6094      	str	r4, [r2, #8]
100011f0:	f04f 62e0 	mov.w	r2, #117440512	@ 0x7000000
100011f4:	b149      	cbz	r1, 1000120a <watchdog_enable+0x32>
100011f6:	f5a3 5380 	sub.w	r3, r3, #4096	@ 0x1000
100011fa:	601a      	str	r2, [r3, #0]
100011fc:	b940      	cbnz	r0, 10001210 <watchdog_enable+0x38>
100011fe:	bc30      	pop	{r4, r5}
10001200:	f04f 4200 	mov.w	r2, #2147483648	@ 0x80000000
10001204:	4b11      	ldr	r3, [pc, #68]	@ (1000124c <watchdog_enable+0x74>)
10001206:	601a      	str	r2, [r3, #0]
10001208:	4770      	bx	lr
1000120a:	601a      	str	r2, [r3, #0]
1000120c:	2800      	cmp	r0, #0
1000120e:	d0f6      	beq.n	100011fe <watchdog_enable+0x26>
10001210:	f44f 737a 	mov.w	r3, #1000	@ 0x3e8
10001214:	fb03 f000 	mul.w	r0, r3, r0
10001218:	f1b0 7f80 	cmp.w	r0, #16777216	@ 0x1000000
1000121c:	bf2a      	itet	cs
1000121e:	f06f 437f 	mvncs.w	r3, #4278190080	@ 0xff000000
10001222:	4603      	movcc	r3, r0
10001224:	4618      	movcs	r0, r3
10001226:	f04f 4280 	mov.w	r2, #1073741824	@ 0x40000000
1000122a:	4c09      	ldr	r4, [pc, #36]	@ (10001250 <watchdog_enable+0x78>)
1000122c:	4903      	ldr	r1, [pc, #12]	@ (1000123c <watchdog_enable+0x64>)
1000122e:	6023      	str	r3, [r4, #0]
10001230:	4b06      	ldr	r3, [pc, #24]	@ (1000124c <watchdog_enable+0x74>)
10001232:	6048      	str	r0, [r1, #4]
10001234:	bc30      	pop	{r4, r5}
10001236:	601a      	str	r2, [r3, #0]
10001238:	4770      	bx	lr
1000123a:	bf00      	nop
1000123c:	400d8000 	.word	0x400d8000
10001240:	6ab73121 	.word	0x6ab73121
10001244:	01fffff3 	.word	0x01fffff3
10001248:	4001a000 	.word	0x4001a000
1000124c:	400da000 	.word	0x400da000
10001250:	20000490 	.word	0x20000490

10001254 <watchdog_caused_reboot>:
10001254:	4b13      	ldr	r3, [pc, #76]	@ (100012a4 <watchdog_caused_reboot+0x50>)
10001256:	689b      	ldr	r3, [r3, #8]
10001258:	b90b      	cbnz	r3, 1000125e <watchdog_caused_reboot+0xa>
1000125a:	2000      	movs	r0, #0
1000125c:	4770      	bx	lr
1000125e:	2300      	movs	r3, #0
10001260:	b500      	push	{lr}
10001262:	8adb      	ldrh	r3, [r3, #22]
10001264:	b087      	sub	sp, #28
10001266:	2200      	movs	r2, #0
10001268:	e842 f200 	tt	r2, r2
1000126c:	0252      	lsls	r2, r2, #9
1000126e:	bf54      	ite	pl
10001270:	2110      	movpl	r1, #16
10001272:	2104      	movmi	r1, #4
10001274:	f245 3047 	movw	r0, #21319	@ 0x5347
10001278:	4798      	blx	r3
1000127a:	2240      	movs	r2, #64	@ 0x40
1000127c:	4603      	mov	r3, r0
1000127e:	2105      	movs	r1, #5
10001280:	a801      	add	r0, sp, #4
10001282:	4798      	blx	r3
10001284:	2805      	cmp	r0, #5
10001286:	d10b      	bne.n	100012a0 <watchdog_caused_reboot+0x4c>
10001288:	9b01      	ldr	r3, [sp, #4]
1000128a:	2b40      	cmp	r3, #64	@ 0x40
1000128c:	d108      	bne.n	100012a0 <watchdog_caused_reboot+0x4c>
1000128e:	9802      	ldr	r0, [sp, #8]
10001290:	f400 40fe 	and.w	r0, r0, #32512	@ 0x7f00
10001294:	fab0 f080 	clz	r0, r0
10001298:	0940      	lsrs	r0, r0, #5
1000129a:	b007      	add	sp, #28
1000129c:	f85d fb04 	ldr.w	pc, [sp], #4
100012a0:	2000      	movs	r0, #0
100012a2:	e7fa      	b.n	1000129a <watchdog_caused_reboot+0x46>
100012a4:	400d8000 	.word	0x400d8000

100012a8 <tick_start>:
100012a8:	2301      	movs	r3, #1
100012aa:	eb00 0040 	add.w	r0, r0, r0, lsl #1
100012ae:	0080      	lsls	r0, r0, #2
100012b0:	f100 4080 	add.w	r0, r0, #1073741824	@ 0x40000000
100012b4:	f500 1084 	add.w	r0, r0, #1081344	@ 0x108000
100012b8:	6041      	str	r1, [r0, #4]
100012ba:	6003      	str	r3, [r0, #0]
100012bc:	4770      	bx	lr
100012be:	bf00      	nop

100012c0 <rom_func_lookup>:
100012c0:	2300      	movs	r3, #0
100012c2:	8adb      	ldrh	r3, [r3, #22]
100012c4:	2200      	movs	r2, #0
100012c6:	e842 f200 	tt	r2, r2
100012ca:	0252      	lsls	r2, r2, #9
100012cc:	d401      	bmi.n	100012d2 <rom_func_lookup+0x12>
100012ce:	2110      	movs	r1, #16
100012d0:	4718      	bx	r3
100012d2:	2104      	movs	r1, #4
100012d4:	4718      	bx	r3
100012d6:	bf00      	nop

100012d8 <runtime_init_bootrom_locking_enable>:
100012d8:	4a03      	ldr	r2, [pc, #12]	@ (100012e8 <runtime_init_bootrom_locking_enable+0x10>)
100012da:	f8d2 3828 	ldr.w	r3, [r2, #2088]	@ 0x828
100012de:	2b00      	cmp	r3, #0
100012e0:	d0fb      	beq.n	100012da <runtime_init_bootrom_locking_enable+0x2>
100012e2:	f3bf 8f5f 	dmb	sy
100012e6:	4770      	bx	lr
100012e8:	400e0000 	.word	0x400e0000

100012ec <runtime_init_boot_locks_reset>:
100012ec:	2100      	movs	r1, #0
100012ee:	4b04      	ldr	r3, [pc, #16]	@ (10001300 <runtime_init_boot_locks_reset+0x14>)
100012f0:	4a04      	ldr	r2, [pc, #16]	@ (10001304 <runtime_init_boot_locks_reset+0x18>)
100012f2:	f3bf 8f5f 	dmb	sy
100012f6:	f843 1b04 	str.w	r1, [r3], #4
100012fa:	4293      	cmp	r3, r2
100012fc:	d1f9      	bne.n	100012f2 <runtime_init_boot_locks_reset+0x6>
100012fe:	4770      	bx	lr
10001300:	400e080c 	.word	0x400e080c
10001304:	400e082c 	.word	0x400e082c

10001308 <xosc_init>:
10001308:	b410      	push	{r4}
1000130a:	f44f 708d 	mov.w	r0, #282	@ 0x11a
1000130e:	f44f 642a 	mov.w	r4, #2720	@ 0xaa0
10001312:	4a06      	ldr	r2, [pc, #24]	@ (1000132c <xosc_init+0x24>)
10001314:	4b06      	ldr	r3, [pc, #24]	@ (10001330 <xosc_init+0x28>)
10001316:	4907      	ldr	r1, [pc, #28]	@ (10001334 <xosc_init+0x2c>)
10001318:	6014      	str	r4, [r2, #0]
1000131a:	60d0      	str	r0, [r2, #12]
1000131c:	6019      	str	r1, [r3, #0]
1000131e:	6853      	ldr	r3, [r2, #4]
10001320:	2b00      	cmp	r3, #0
10001322:	dafc      	bge.n	1000131e <xosc_init+0x16>
10001324:	f85d 4b04 	ldr.w	r4, [sp], #4
10001328:	4770      	bx	lr
1000132a:	bf00      	nop
1000132c:	40048000 	.word	0x40048000
10001330:	4004a000 	.word	0x4004a000
10001334:	00fab000 	.word	0x00fab000

10001338 <first_per_core_initializer>:
10001338:	4770      	bx	lr
1000133a:	bf00      	nop

1000133c <hard_assertion_failure>:
1000133c:	b508      	push	{r3, lr}
1000133e:	4801      	ldr	r0, [pc, #4]	@ (10001344 <hard_assertion_failure+0x8>)
10001340:	f7fe ffc4 	bl	100002cc <panic>
10001344:	10001cb8 	.word	0x10001cb8

10001348 <runtime_run_initializers>:
10001348:	b538      	push	{r3, r4, r5, lr}
1000134a:	4c05      	ldr	r4, [pc, #20]	@ (10001360 <runtime_run_initializers+0x18>)
1000134c:	4d05      	ldr	r5, [pc, #20]	@ (10001364 <runtime_run_initializers+0x1c>)
1000134e:	42ac      	cmp	r4, r5
10001350:	d204      	bcs.n	1000135c <runtime_run_initializers+0x14>
10001352:	f854 3b04 	ldr.w	r3, [r4], #4
10001356:	4798      	blx	r3
10001358:	42ac      	cmp	r4, r5
1000135a:	d3fa      	bcc.n	10001352 <runtime_run_initializers+0xa>
1000135c:	bd38      	pop	{r3, r4, r5, pc}
1000135e:	bf00      	nop
10001360:	10001bb8 	.word	0x10001bb8
10001364:	10001bf8 	.word	0x10001bf8

10001368 <runtime_init_early_resets>:
10001368:	b410      	push	{r4}
1000136a:	4807      	ldr	r0, [pc, #28]	@ (10001388 <runtime_init_early_resets+0x20>)
1000136c:	4c07      	ldr	r4, [pc, #28]	@ (1000138c <runtime_init_early_resets+0x24>)
1000136e:	4b08      	ldr	r3, [pc, #32]	@ (10001390 <runtime_init_early_resets+0x28>)
10001370:	4a08      	ldr	r2, [pc, #32]	@ (10001394 <runtime_init_early_resets+0x2c>)
10001372:	4909      	ldr	r1, [pc, #36]	@ (10001398 <runtime_init_early_resets+0x30>)
10001374:	6004      	str	r4, [r0, #0]
10001376:	601a      	str	r2, [r3, #0]
10001378:	688b      	ldr	r3, [r1, #8]
1000137a:	ea32 0303 	bics.w	r3, r2, r3
1000137e:	d1fb      	bne.n	10001378 <runtime_init_early_resets+0x10>
10001380:	f85d 4b04 	ldr.w	r4, [sp], #4
10001384:	4770      	bx	lr
10001386:	bf00      	nop
10001388:	40022000 	.word	0x40022000
1000138c:	efef3b7f 	.word	0xefef3b7f
10001390:	40023000 	.word	0x40023000
10001394:	03f3fff6 	.word	0x03f3fff6
10001398:	40020000 	.word	0x40020000

1000139c <runtime_init_usb_power_down>:
1000139c:	4b04      	ldr	r3, [pc, #16]	@ (100013b0 <runtime_init_usb_power_down+0x14>)
1000139e:	6cdb      	ldr	r3, [r3, #76]	@ 0x4c
100013a0:	f5b3 4f00 	cmp.w	r3, #32768	@ 0x8000
100013a4:	d103      	bne.n	100013ae <runtime_init_usb_power_down+0x12>
100013a6:	f44f 2280 	mov.w	r2, #262144	@ 0x40000
100013aa:	4b02      	ldr	r3, [pc, #8]	@ (100013b4 <runtime_init_usb_power_down+0x18>)
100013ac:	64da      	str	r2, [r3, #76]	@ 0x4c
100013ae:	4770      	bx	lr
100013b0:	50110000 	.word	0x50110000
100013b4:	50112000 	.word	0x50112000

100013b8 <runtime_init_per_core_enable_coprocessors>:
100013b8:	f04f 22e0 	mov.w	r2, #3758153728	@ 0xe000e000
100013bc:	4b04      	ldr	r3, [pc, #16]	@ (100013d0 <runtime_init_per_core_enable_coprocessors+0x18>)
100013be:	f8d2 1d88 	ldr.w	r1, [r2, #3464]	@ 0xd88
100013c2:	430b      	orrs	r3, r1
100013c4:	f8c2 3d88 	str.w	r3, [r2, #3464]	@ 0xd88
100013c8:	ee10 0430 			dcp_rcmp r0
100013cc:	4770      	bx	lr
100013ce:	bf00      	nop
100013d0:	00300303 	.word	0x00300303

100013d4 <runtime_init_post_clock_resets>:
100013d4:	f06f 4160 	mvn.w	r1, #3758096384	@ 0xe0000000
100013d8:	4b04      	ldr	r3, [pc, #16]	@ (100013ec <runtime_init_post_clock_resets+0x18>)
100013da:	4a05      	ldr	r2, [pc, #20]	@ (100013f0 <runtime_init_post_clock_resets+0x1c>)
100013dc:	6019      	str	r1, [r3, #0]
100013de:	6893      	ldr	r3, [r2, #8]
100013e0:	43db      	mvns	r3, r3
100013e2:	f033 4360 	bics.w	r3, r3, #3758096384	@ 0xe0000000
100013e6:	d1fa      	bne.n	100013de <runtime_init_post_clock_resets+0xa>
100013e8:	4770      	bx	lr
100013ea:	bf00      	nop
100013ec:	40023000 	.word	0x40023000
100013f0:	40020000 	.word	0x40020000

100013f4 <runtime_init_bootrom_reset>:
100013f4:	b510      	push	{r4, lr}
100013f6:	f245 2053 	movw	r0, #21075	@ 0x5253
100013fa:	f7ff ff61 	bl	100012c0 <rom_func_lookup>
100013fe:	e8bd 4010 	ldmia.w	sp!, {r4, lr}
10001402:	4603      	mov	r3, r0
10001404:	2004      	movs	r0, #4
10001406:	4718      	bx	r3

10001408 <runtime_init_per_core_bootrom_reset>:
10001408:	b510      	push	{r4, lr}
1000140a:	f245 2053 	movw	r0, #21075	@ 0x5253
1000140e:	f7ff ff57 	bl	100012c0 <rom_func_lookup>
10001412:	e8bd 4010 	ldmia.w	sp!, {r4, lr}
10001416:	4603      	mov	r3, r0
10001418:	2001      	movs	r0, #1
1000141a:	4718      	bx	r3

1000141c <runtime_init_spin_locks_reset>:
1000141c:	f7fe bfae 	b.w	1000037c <spin_locks_reset>

10001420 <runtime_init_install_ram_vector_table>:
10001420:	4914      	ldr	r1, [pc, #80]	@ (10001474 <runtime_init_install_ram_vector_table+0x54>)
10001422:	4b15      	ldr	r3, [pc, #84]	@ (10001478 <runtime_init_install_ram_vector_table+0x58>)
10001424:	b570      	push	{r4, r5, r6, lr}
10001426:	1a5c      	subs	r4, r3, r1
10001428:	10a6      	asrs	r6, r4, #2
1000142a:	2e44      	cmp	r6, #68	@ 0x44
1000142c:	4632      	mov	r2, r6
1000142e:	bf28      	it	cs
10001430:	2244      	movcs	r2, #68	@ 0x44
10001432:	4d12      	ldr	r5, [pc, #72]	@ (1000147c <runtime_init_install_ram_vector_table+0x5c>)
10001434:	0092      	lsls	r2, r2, #2
10001436:	4628      	mov	r0, r5
10001438:	f000 fb0e 	bl	10001a58 <memcpy>
1000143c:	f5b4 7f86 	cmp.w	r4, #268	@ 0x10c
10001440:	d813      	bhi.n	1000146a <runtime_init_install_ram_vector_table+0x4a>
10001442:	4a0f      	ldr	r2, [pc, #60]	@ (10001480 <runtime_init_install_ram_vector_table+0x60>)
10001444:	f1c6 0044 	rsb	r0, r6, #68	@ 0x44
10001448:	d012      	beq.n	10001470 <runtime_init_install_ram_vector_table+0x50>
1000144a:	192b      	adds	r3, r5, r4
1000144c:	0841      	lsrs	r1, r0, #1
1000144e:	eb03 01c1 	add.w	r1, r3, r1, lsl #3
10001452:	e9c3 2200 	strd	r2, r2, [r3]
10001456:	3308      	adds	r3, #8
10001458:	428b      	cmp	r3, r1
1000145a:	d1fa      	bne.n	10001452 <runtime_init_install_ram_vector_table+0x32>
1000145c:	07c3      	lsls	r3, r0, #31
1000145e:	d504      	bpl.n	1000146a <runtime_init_install_ram_vector_table+0x4a>
10001460:	f020 0001 	bic.w	r0, r0, #1
10001464:	4430      	add	r0, r6
10001466:	f845 2020 	str.w	r2, [r5, r0, lsl #2]
1000146a:	4b06      	ldr	r3, [pc, #24]	@ (10001484 <runtime_init_install_ram_vector_table+0x64>)
1000146c:	609d      	str	r5, [r3, #8]
1000146e:	bd70      	pop	{r4, r5, r6, pc}
10001470:	2043      	movs	r0, #67	@ 0x43
10001472:	e7f8      	b.n	10001466 <runtime_init_install_ram_vector_table+0x46>
10001474:	10000000 	.word	0x10000000
10001478:	10000110 	.word	0x10000110
1000147c:	20000000 	.word	0x20000000
10001480:	10000111 	.word	0x10000111
10001484:	e000ed00 	.word	0xe000ed00

10001488 <runtime_init_clocks>:
10001488:	2300      	movs	r3, #0
1000148a:	b570      	push	{r4, r5, r6, lr}
1000148c:	4c2b      	ldr	r4, [pc, #172]	@ (1000153c <runtime_init_clocks+0xb4>)
1000148e:	b082      	sub	sp, #8
10001490:	f8c4 3084 	str.w	r3, [r4, #132]	@ 0x84
10001494:	f7ff ff38 	bl	10001308 <xosc_init>
10001498:	2201      	movs	r2, #1
1000149a:	4b29      	ldr	r3, [pc, #164]	@ (10001540 <runtime_init_clocks+0xb8>)
1000149c:	63da      	str	r2, [r3, #60]	@ 0x3c
1000149e:	6c63      	ldr	r3, [r4, #68]	@ 0x44
100014a0:	2b01      	cmp	r3, #1
100014a2:	d1fc      	bne.n	1000149e <runtime_init_clocks+0x16>
100014a4:	2103      	movs	r1, #3
100014a6:	4a26      	ldr	r2, [pc, #152]	@ (10001540 <runtime_init_clocks+0xb8>)
100014a8:	4b24      	ldr	r3, [pc, #144]	@ (1000153c <runtime_init_clocks+0xb4>)
100014aa:	6311      	str	r1, [r2, #48]	@ 0x30
100014ac:	6b9c      	ldr	r4, [r3, #56]	@ 0x38
100014ae:	2c01      	cmp	r4, #1
100014b0:	d1fc      	bne.n	100014ac <runtime_init_clocks+0x24>
100014b2:	2602      	movs	r6, #2
100014b4:	2505      	movs	r5, #5
100014b6:	4621      	mov	r1, r4
100014b8:	2305      	movs	r3, #5
100014ba:	4a22      	ldr	r2, [pc, #136]	@ (10001544 <runtime_init_clocks+0xbc>)
100014bc:	4822      	ldr	r0, [pc, #136]	@ (10001548 <runtime_init_clocks+0xc0>)
100014be:	9600      	str	r6, [sp, #0]
100014c0:	f7ff fe3a 	bl	10001138 <pll_init>
100014c4:	4621      	mov	r1, r4
100014c6:	462b      	mov	r3, r5
100014c8:	4a20      	ldr	r2, [pc, #128]	@ (1000154c <runtime_init_clocks+0xc4>)
100014ca:	4821      	ldr	r0, [pc, #132]	@ (10001550 <runtime_init_clocks+0xc8>)
100014cc:	9500      	str	r5, [sp, #0]
100014ce:	f7ff fe33 	bl	10001138 <pll_init>
100014d2:	2200      	movs	r2, #0
100014d4:	2004      	movs	r0, #4
100014d6:	4631      	mov	r1, r6
100014d8:	4b1e      	ldr	r3, [pc, #120]	@ (10001554 <runtime_init_clocks+0xcc>)
100014da:	f7ff fdbf 	bl	1000105c <clock_configure_undivided>
100014de:	4621      	mov	r1, r4
100014e0:	4628      	mov	r0, r5
100014e2:	2200      	movs	r2, #0
100014e4:	4b1c      	ldr	r3, [pc, #112]	@ (10001558 <runtime_init_clocks+0xd0>)
100014e6:	f7ff fdb9 	bl	1000105c <clock_configure_undivided>
100014ea:	2200      	movs	r2, #0
100014ec:	2008      	movs	r0, #8
100014ee:	4611      	mov	r1, r2
100014f0:	4b1a      	ldr	r3, [pc, #104]	@ (1000155c <runtime_init_clocks+0xd4>)
100014f2:	f7ff fdb3 	bl	1000105c <clock_configure_undivided>
100014f6:	2200      	movs	r2, #0
100014f8:	2009      	movs	r0, #9
100014fa:	4611      	mov	r1, r2
100014fc:	4b17      	ldr	r3, [pc, #92]	@ (1000155c <runtime_init_clocks+0xd4>)
100014fe:	f7ff fdad 	bl	1000105c <clock_configure_undivided>
10001502:	2200      	movs	r2, #0
10001504:	2006      	movs	r0, #6
10001506:	4611      	mov	r1, r2
10001508:	4b13      	ldr	r3, [pc, #76]	@ (10001558 <runtime_init_clocks+0xd0>)
1000150a:	f7ff fda7 	bl	1000105c <clock_configure_undivided>
1000150e:	2200      	movs	r2, #0
10001510:	4b11      	ldr	r3, [pc, #68]	@ (10001558 <runtime_init_clocks+0xd0>)
10001512:	2007      	movs	r0, #7
10001514:	4611      	mov	r1, r2
10001516:	f7ff fda1 	bl	1000105c <clock_configure_undivided>
1000151a:	2004      	movs	r0, #4
1000151c:	f7ff fe06 	bl	1000112c <clock_get_hz>
10001520:	2400      	movs	r4, #0
10001522:	4b0f      	ldr	r3, [pc, #60]	@ (10001560 <runtime_init_clocks+0xd8>)
10001524:	fba3 3500 	umull	r3, r5, r3, r0
10001528:	0cad      	lsrs	r5, r5, #18
1000152a:	b2e0      	uxtb	r0, r4
1000152c:	4629      	mov	r1, r5
1000152e:	3401      	adds	r4, #1
10001530:	f7ff feba 	bl	100012a8 <tick_start>
10001534:	2c06      	cmp	r4, #6
10001536:	d1f8      	bne.n	1000152a <runtime_init_clocks+0xa2>
10001538:	b002      	add	sp, #8
1000153a:	bd70      	pop	{r4, r5, r6, pc}
1000153c:	40010000 	.word	0x40010000
10001540:	40013000 	.word	0x40013000
10001544:	59682f00 	.word	0x59682f00
10001548:	40050000 	.word	0x40050000
1000154c:	47868c00 	.word	0x47868c00
10001550:	40058000 	.word	0x40058000
10001554:	00b71b00 	.word	0x00b71b00
10001558:	08f0d180 	.word	0x08f0d180
1000155c:	02dc6c00 	.word	0x02dc6c00
10001560:	431bde83 	.word	0x431bde83

10001564 <_out_char>:
10001564:	b900      	cbnz	r0, 10001568 <_out_char+0x4>
10001566:	4770      	bx	lr
10001568:	f000 b91c 	b.w	100017a4 <__wrap_putchar>

1000156c <weak_raw_vprintf>:
1000156c:	b510      	push	{r4, lr}
1000156e:	4b09      	ldr	r3, [pc, #36]	@ (10001594 <weak_raw_vprintf+0x28>)
10001570:	b084      	sub	sp, #16
10001572:	681c      	ldr	r4, [r3, #0]
10001574:	b14c      	cbz	r4, 1000158a <weak_raw_vprintf+0x1e>
10001576:	4603      	mov	r3, r0
10001578:	9100      	str	r1, [sp, #0]
1000157a:	f04f 32ff 	mov.w	r2, #4294967295
1000157e:	a903      	add	r1, sp, #12
10001580:	4805      	ldr	r0, [pc, #20]	@ (10001598 <weak_raw_vprintf+0x2c>)
10001582:	47a0      	blx	r4
10001584:	2001      	movs	r0, #1
10001586:	b004      	add	sp, #16
10001588:	bd10      	pop	{r4, pc}
1000158a:	f000 f94d 	bl	10001828 <__wrap_puts>
1000158e:	4620      	mov	r0, r4
10001590:	b004      	add	sp, #16
10001592:	bd10      	pop	{r4, pc}
10001594:	2000048c 	.word	0x2000048c
10001598:	10001565 	.word	0x10001565

1000159c <_exit>:
1000159c:	be00      	bkpt	0x0000
1000159e:	e7fd      	b.n	1000159c <_exit>

100015a0 <exit>:
100015a0:	b508      	push	{r3, lr}
100015a2:	f7ff fffb 	bl	1000159c <_exit>
100015a6:	bf00      	nop

100015a8 <runtime_init>:
100015a8:	b538      	push	{r3, r4, r5, lr}
100015aa:	4c06      	ldr	r4, [pc, #24]	@ (100015c4 <runtime_init+0x1c>)
100015ac:	4d06      	ldr	r5, [pc, #24]	@ (100015c8 <runtime_init+0x20>)
100015ae:	f7ff fecb 	bl	10001348 <runtime_run_initializers>
100015b2:	42ac      	cmp	r4, r5
100015b4:	d204      	bcs.n	100015c0 <runtime_init+0x18>
100015b6:	f854 3b04 	ldr.w	r3, [r4], #4
100015ba:	4798      	blx	r3
100015bc:	42ac      	cmp	r4, r5
100015be:	d3fa      	bcc.n	100015b6 <runtime_init+0xe>
100015c0:	bd38      	pop	{r3, r4, r5, pc}
100015c2:	bf00      	nop
100015c4:	10001bf8 	.word	0x10001bf8
100015c8:	10001bfc 	.word	0x10001bfc

100015cc <stdio_out_chars_no_crlf>:
100015cc:	6803      	ldr	r3, [r0, #0]
100015ce:	4608      	mov	r0, r1
100015d0:	4611      	mov	r1, r2
100015d2:	4718      	bx	r3

100015d4 <stdio_out_chars_crlf>:
100015d4:	e92d 41f0 	stmdb	sp!, {r4, r5, r6, r7, r8, lr}
100015d8:	4615      	mov	r5, r2
100015da:	7d42      	ldrb	r2, [r0, #21]
100015dc:	4607      	mov	r7, r0
100015de:	4688      	mov	r8, r1
100015e0:	2a00      	cmp	r2, #0
100015e2:	d046      	beq.n	10001672 <stdio_out_chars_crlf+0x9e>
100015e4:	2d00      	cmp	r5, #0
100015e6:	dd1d      	ble.n	10001624 <stdio_out_chars_crlf+0x50>
100015e8:	780b      	ldrb	r3, [r1, #0]
100015ea:	2b0a      	cmp	r3, #10
100015ec:	d023      	beq.n	10001636 <stdio_out_chars_crlf+0x62>
100015ee:	2d01      	cmp	r5, #1
100015f0:	f04f 0c00 	mov.w	ip, #0
100015f4:	d018      	beq.n	10001628 <stdio_out_chars_crlf+0x54>
100015f6:	4646      	mov	r6, r8
100015f8:	2401      	movs	r4, #1
100015fa:	f816 2f01 	ldrb.w	r2, [r6, #1]!
100015fe:	4621      	mov	r1, r4
10001600:	2a0a      	cmp	r2, #10
10001602:	f104 0401 	add.w	r4, r4, #1
10001606:	d022      	beq.n	1000164e <stdio_out_chars_crlf+0x7a>
10001608:	42a5      	cmp	r5, r4
1000160a:	d1f6      	bne.n	100015fa <stdio_out_chars_crlf+0x26>
1000160c:	4565      	cmp	r5, ip
1000160e:	dc0b      	bgt.n	10001628 <stdio_out_chars_crlf+0x54>
10001610:	eb08 0305 	add.w	r3, r8, r5
10001614:	f813 3c01 	ldrb.w	r3, [r3, #-1]
10001618:	f1a3 030d 	sub.w	r3, r3, #13
1000161c:	fab3 f383 	clz	r3, r3
10001620:	095b      	lsrs	r3, r3, #5
10001622:	753b      	strb	r3, [r7, #20]
10001624:	e8bd 81f0 	ldmia.w	sp!, {r4, r5, r6, r7, r8, pc}
10001628:	683b      	ldr	r3, [r7, #0]
1000162a:	eba5 010c 	sub.w	r1, r5, ip
1000162e:	eb08 000c 	add.w	r0, r8, ip
10001632:	4798      	blx	r3
10001634:	e7ec      	b.n	10001610 <stdio_out_chars_crlf+0x3c>
10001636:	7d03      	ldrb	r3, [r0, #20]
10001638:	2b00      	cmp	r3, #0
1000163a:	d1d8      	bne.n	100015ee <stdio_out_chars_crlf+0x1a>
1000163c:	6803      	ldr	r3, [r0, #0]
1000163e:	2102      	movs	r1, #2
10001640:	480f      	ldr	r0, [pc, #60]	@ (10001680 <stdio_out_chars_crlf+0xac>)
10001642:	4798      	blx	r3
10001644:	2d01      	cmp	r5, #1
10001646:	d0e3      	beq.n	10001610 <stdio_out_chars_crlf+0x3c>
10001648:	f04f 0c01 	mov.w	ip, #1
1000164c:	e7d3      	b.n	100015f6 <stdio_out_chars_crlf+0x22>
1000164e:	f816 3c01 	ldrb.w	r3, [r6, #-1]
10001652:	2b0d      	cmp	r3, #13
10001654:	d0d8      	beq.n	10001608 <stdio_out_chars_crlf+0x34>
10001656:	458c      	cmp	ip, r1
10001658:	eb08 000c 	add.w	r0, r8, ip
1000165c:	eba1 010c 	sub.w	r1, r1, ip
10001660:	da01      	bge.n	10001666 <stdio_out_chars_crlf+0x92>
10001662:	683b      	ldr	r3, [r7, #0]
10001664:	4798      	blx	r3
10001666:	2102      	movs	r1, #2
10001668:	4805      	ldr	r0, [pc, #20]	@ (10001680 <stdio_out_chars_crlf+0xac>)
1000166a:	683b      	ldr	r3, [r7, #0]
1000166c:	4798      	blx	r3
1000166e:	46a4      	mov	ip, r4
10001670:	e7ca      	b.n	10001608 <stdio_out_chars_crlf+0x34>
10001672:	4629      	mov	r1, r5
10001674:	4640      	mov	r0, r8
10001676:	683b      	ldr	r3, [r7, #0]
10001678:	e8bd 41f0 	ldmia.w	sp!, {r4, r5, r6, r7, r8, lr}
1000167c:	4718      	bx	r3
1000167e:	bf00      	nop
10001680:	10001d98 	.word	0x10001d98

10001684 <stdio_put_string>:
10001684:	e92d 47f0 	stmdb	sp!, {r4, r5, r6, r7, r8, r9, sl, lr}
10001688:	b082      	sub	sp, #8
1000168a:	460d      	mov	r5, r1
1000168c:	4691      	mov	r9, r2
1000168e:	461c      	mov	r4, r3
10001690:	4606      	mov	r6, r0
10001692:	f7ff fc17 	bl	10000ec4 <time_us_64>
10001696:	f04f 3cff 	mov.w	ip, #4294967295
1000169a:	f06f 4700 	mvn.w	r7, #2147483648	@ 0x80000000
1000169e:	4a2e      	ldr	r2, [pc, #184]	@ (10001758 <stdio_put_string+0xd4>)
100016a0:	1882      	adds	r2, r0, r2
100016a2:	f141 0300 	adc.w	r3, r1, #0
100016a6:	4594      	cmp	ip, r2
100016a8:	eb77 0103 	sbcs.w	r1, r7, r3
100016ac:	bf3c      	itt	cc
100016ae:	4662      	movcc	r2, ip
100016b0:	463b      	movcc	r3, r7
100016b2:	482a      	ldr	r0, [pc, #168]	@ (1000175c <stdio_put_string+0xd8>)
100016b4:	f000 fa7c 	bl	10001bb0 <__mutex_try_enter_block_until_veneer>
100016b8:	1c6b      	adds	r3, r5, #1
100016ba:	4680      	mov	r8, r0
100016bc:	d040      	beq.n	10001740 <stdio_put_string+0xbc>
100016be:	b30c      	cbz	r4, 10001704 <stdio_put_string+0x80>
100016c0:	4f27      	ldr	r7, [pc, #156]	@ (10001760 <stdio_put_string+0xdc>)
100016c2:	4b28      	ldr	r3, [pc, #160]	@ (10001764 <stdio_put_string+0xe0>)
100016c4:	681c      	ldr	r4, [r3, #0]
100016c6:	b1b4      	cbz	r4, 100016f6 <stdio_put_string+0x72>
100016c8:	f1b9 0f00 	cmp.w	r9, #0
100016cc:	d11c      	bne.n	10001708 <stdio_put_string+0x84>
100016ce:	f8df 909c 	ldr.w	r9, [pc, #156]	@ 1000176c <stdio_put_string+0xe8>
100016d2:	e001      	b.n	100016d8 <stdio_put_string+0x54>
100016d4:	6924      	ldr	r4, [r4, #16]
100016d6:	b174      	cbz	r4, 100016f6 <stdio_put_string+0x72>
100016d8:	6823      	ldr	r3, [r4, #0]
100016da:	2b00      	cmp	r3, #0
100016dc:	d0fa      	beq.n	100016d4 <stdio_put_string+0x50>
100016de:	f8d9 3000 	ldr.w	r3, [r9]
100016e2:	b10b      	cbz	r3, 100016e8 <stdio_put_string+0x64>
100016e4:	429c      	cmp	r4, r3
100016e6:	d1f5      	bne.n	100016d4 <stdio_put_string+0x50>
100016e8:	4620      	mov	r0, r4
100016ea:	462a      	mov	r2, r5
100016ec:	4631      	mov	r1, r6
100016ee:	47b8      	blx	r7
100016f0:	6924      	ldr	r4, [r4, #16]
100016f2:	2c00      	cmp	r4, #0
100016f4:	d1f0      	bne.n	100016d8 <stdio_put_string+0x54>
100016f6:	f1b8 0f00 	cmp.w	r8, #0
100016fa:	d126      	bne.n	1000174a <stdio_put_string+0xc6>
100016fc:	4628      	mov	r0, r5
100016fe:	b002      	add	sp, #8
10001700:	e8bd 87f0 	ldmia.w	sp!, {r4, r5, r6, r7, r8, r9, sl, pc}
10001704:	4f18      	ldr	r7, [pc, #96]	@ (10001768 <stdio_put_string+0xe4>)
10001706:	e7dc      	b.n	100016c2 <stdio_put_string+0x3e>
10001708:	f04f 0a0a 	mov.w	sl, #10
1000170c:	f8df 905c 	ldr.w	r9, [pc, #92]	@ 1000176c <stdio_put_string+0xe8>
10001710:	e002      	b.n	10001718 <stdio_put_string+0x94>
10001712:	6924      	ldr	r4, [r4, #16]
10001714:	2c00      	cmp	r4, #0
10001716:	d0ee      	beq.n	100016f6 <stdio_put_string+0x72>
10001718:	6823      	ldr	r3, [r4, #0]
1000171a:	2b00      	cmp	r3, #0
1000171c:	d0f9      	beq.n	10001712 <stdio_put_string+0x8e>
1000171e:	f8d9 3000 	ldr.w	r3, [r9]
10001722:	b10b      	cbz	r3, 10001728 <stdio_put_string+0xa4>
10001724:	42a3      	cmp	r3, r4
10001726:	d1f4      	bne.n	10001712 <stdio_put_string+0x8e>
10001728:	462a      	mov	r2, r5
1000172a:	4631      	mov	r1, r6
1000172c:	4620      	mov	r0, r4
1000172e:	47b8      	blx	r7
10001730:	2201      	movs	r2, #1
10001732:	4620      	mov	r0, r4
10001734:	f10d 0107 	add.w	r1, sp, #7
10001738:	f88d a007 	strb.w	sl, [sp, #7]
1000173c:	47b8      	blx	r7
1000173e:	e7e8      	b.n	10001712 <stdio_put_string+0x8e>
10001740:	4630      	mov	r0, r6
10001742:	f000 f9ff 	bl	10001b44 <strlen>
10001746:	4605      	mov	r5, r0
10001748:	e7b9      	b.n	100016be <stdio_put_string+0x3a>
1000174a:	4804      	ldr	r0, [pc, #16]	@ (1000175c <stdio_put_string+0xd8>)
1000174c:	f000 fa2c 	bl	10001ba8 <__mutex_exit_veneer>
10001750:	4628      	mov	r0, r5
10001752:	b002      	add	sp, #8
10001754:	e8bd 87f0 	ldmia.w	sp!, {r4, r5, r6, r7, r8, r9, sl, pc}
10001758:	000f4240 	.word	0x000f4240
1000175c:	200002a4 	.word	0x200002a4
10001760:	100015d5 	.word	0x100015d5
10001764:	20000484 	.word	0x20000484
10001768:	100015cd 	.word	0x100015cd
1000176c:	20000488 	.word	0x20000488

10001770 <stdio_set_driver_enabled>:
10001770:	4a08      	ldr	r2, [pc, #32]	@ (10001794 <stdio_set_driver_enabled+0x24>)
10001772:	6813      	ldr	r3, [r2, #0]
10001774:	b923      	cbnz	r3, 10001780 <stdio_set_driver_enabled+0x10>
10001776:	e00a      	b.n	1000178e <stdio_set_driver_enabled+0x1e>
10001778:	f103 0210 	add.w	r2, r3, #16
1000177c:	691b      	ldr	r3, [r3, #16]
1000177e:	b133      	cbz	r3, 1000178e <stdio_set_driver_enabled+0x1e>
10001780:	4283      	cmp	r3, r0
10001782:	d1f9      	bne.n	10001778 <stdio_set_driver_enabled+0x8>
10001784:	b929      	cbnz	r1, 10001792 <stdio_set_driver_enabled+0x22>
10001786:	6918      	ldr	r0, [r3, #16]
10001788:	6010      	str	r0, [r2, #0]
1000178a:	6119      	str	r1, [r3, #16]
1000178c:	4770      	bx	lr
1000178e:	b101      	cbz	r1, 10001792 <stdio_set_driver_enabled+0x22>
10001790:	6010      	str	r0, [r2, #0]
10001792:	4770      	bx	lr
10001794:	20000484 	.word	0x20000484

10001798 <stdio_init_all>:
10001798:	b508      	push	{r3, lr}
1000179a:	f000 f933 	bl	10001a04 <stdio_uart_init>
1000179e:	2001      	movs	r0, #1
100017a0:	bd08      	pop	{r3, pc}
100017a2:	bf00      	nop

100017a4 <__wrap_putchar>:
100017a4:	b5f0      	push	{r4, r5, r6, r7, lr}
100017a6:	b083      	sub	sp, #12
100017a8:	4606      	mov	r6, r0
100017aa:	f88d 0007 	strb.w	r0, [sp, #7]
100017ae:	f7ff fb89 	bl	10000ec4 <time_us_64>
100017b2:	f04f 35ff 	mov.w	r5, #4294967295
100017b6:	f06f 4400 	mvn.w	r4, #2147483648	@ 0x80000000
100017ba:	4a17      	ldr	r2, [pc, #92]	@ (10001818 <__wrap_putchar+0x74>)
100017bc:	1882      	adds	r2, r0, r2
100017be:	f141 0300 	adc.w	r3, r1, #0
100017c2:	4295      	cmp	r5, r2
100017c4:	eb74 0103 	sbcs.w	r1, r4, r3
100017c8:	bf3c      	itt	cc
100017ca:	4623      	movcc	r3, r4
100017cc:	462a      	movcc	r2, r5
100017ce:	4813      	ldr	r0, [pc, #76]	@ (1000181c <__wrap_putchar+0x78>)
100017d0:	f000 f9ee 	bl	10001bb0 <__mutex_try_enter_block_until_veneer>
100017d4:	4b12      	ldr	r3, [pc, #72]	@ (10001820 <__wrap_putchar+0x7c>)
100017d6:	4607      	mov	r7, r0
100017d8:	681c      	ldr	r4, [r3, #0]
100017da:	b19c      	cbz	r4, 10001804 <__wrap_putchar+0x60>
100017dc:	4d11      	ldr	r5, [pc, #68]	@ (10001824 <__wrap_putchar+0x80>)
100017de:	e001      	b.n	100017e4 <__wrap_putchar+0x40>
100017e0:	6924      	ldr	r4, [r4, #16]
100017e2:	b17c      	cbz	r4, 10001804 <__wrap_putchar+0x60>
100017e4:	6823      	ldr	r3, [r4, #0]
100017e6:	2b00      	cmp	r3, #0
100017e8:	d0fa      	beq.n	100017e0 <__wrap_putchar+0x3c>
100017ea:	682b      	ldr	r3, [r5, #0]
100017ec:	b10b      	cbz	r3, 100017f2 <__wrap_putchar+0x4e>
100017ee:	429c      	cmp	r4, r3
100017f0:	d1f6      	bne.n	100017e0 <__wrap_putchar+0x3c>
100017f2:	4620      	mov	r0, r4
100017f4:	2201      	movs	r2, #1
100017f6:	f10d 0107 	add.w	r1, sp, #7
100017fa:	f7ff feeb 	bl	100015d4 <stdio_out_chars_crlf>
100017fe:	6924      	ldr	r4, [r4, #16]
10001800:	2c00      	cmp	r4, #0
10001802:	d1ef      	bne.n	100017e4 <__wrap_putchar+0x40>
10001804:	b917      	cbnz	r7, 1000180c <__wrap_putchar+0x68>
10001806:	4630      	mov	r0, r6
10001808:	b003      	add	sp, #12
1000180a:	bdf0      	pop	{r4, r5, r6, r7, pc}
1000180c:	4803      	ldr	r0, [pc, #12]	@ (1000181c <__wrap_putchar+0x78>)
1000180e:	f000 f9cb 	bl	10001ba8 <__mutex_exit_veneer>
10001812:	4630      	mov	r0, r6
10001814:	b003      	add	sp, #12
10001816:	bdf0      	pop	{r4, r5, r6, r7, pc}
10001818:	000f4240 	.word	0x000f4240
1000181c:	200002a4 	.word	0x200002a4
10001820:	20000484 	.word	0x20000484
10001824:	20000488 	.word	0x20000488

10001828 <__wrap_puts>:
10001828:	b538      	push	{r3, r4, r5, lr}
1000182a:	4604      	mov	r4, r0
1000182c:	f000 f98a 	bl	10001b44 <strlen>
10001830:	2301      	movs	r3, #1
10001832:	4605      	mov	r5, r0
10001834:	461a      	mov	r2, r3
10001836:	4620      	mov	r0, r4
10001838:	4629      	mov	r1, r5
1000183a:	f7ff ff23 	bl	10001684 <stdio_put_string>
1000183e:	4b08      	ldr	r3, [pc, #32]	@ (10001860 <__wrap_puts+0x38>)
10001840:	681c      	ldr	r4, [r3, #0]
10001842:	b12c      	cbz	r4, 10001850 <__wrap_puts+0x28>
10001844:	6863      	ldr	r3, [r4, #4]
10001846:	b12b      	cbz	r3, 10001854 <__wrap_puts+0x2c>
10001848:	4798      	blx	r3
1000184a:	6924      	ldr	r4, [r4, #16]
1000184c:	2c00      	cmp	r4, #0
1000184e:	d1f9      	bne.n	10001844 <__wrap_puts+0x1c>
10001850:	4628      	mov	r0, r5
10001852:	bd38      	pop	{r3, r4, r5, pc}
10001854:	6924      	ldr	r4, [r4, #16]
10001856:	2c00      	cmp	r4, #0
10001858:	d1f4      	bne.n	10001844 <__wrap_puts+0x1c>
1000185a:	4628      	mov	r0, r5
1000185c:	bd38      	pop	{r3, r4, r5, pc}
1000185e:	bf00      	nop
10001860:	20000484 	.word	0x20000484

10001864 <stdio_uart_out_chars>:
10001864:	f1b1 0c00 	subs.w	ip, r1, #0
10001868:	dd1d      	ble.n	100018a6 <stdio_uart_out_chars+0x42>
1000186a:	4a0f      	ldr	r2, [pc, #60]	@ (100018a8 <stdio_uart_out_chars+0x44>)
1000186c:	4b0f      	ldr	r3, [pc, #60]	@ (100018ac <stdio_uart_out_chars+0x48>)
1000186e:	6812      	ldr	r2, [r2, #0]
10001870:	b530      	push	{r4, r5, lr}
10001872:	1ad3      	subs	r3, r2, r3
10001874:	fab3 f383 	clz	r3, r3
10001878:	240d      	movs	r4, #13
1000187a:	4d0d      	ldr	r5, [pc, #52]	@ (100018b0 <stdio_uart_out_chars+0x4c>)
1000187c:	095b      	lsrs	r3, r3, #5
1000187e:	1e41      	subs	r1, r0, #1
10001880:	f935 e013 	ldrsh.w	lr, [r5, r3, lsl #1]
10001884:	448c      	add	ip, r1
10001886:	f811 0f01 	ldrb.w	r0, [r1, #1]!
1000188a:	4586      	cmp	lr, r0
1000188c:	d006      	beq.n	1000189c <stdio_uart_out_chars+0x38>
1000188e:	6993      	ldr	r3, [r2, #24]
10001890:	069b      	lsls	r3, r3, #26
10001892:	d4fc      	bmi.n	1000188e <stdio_uart_out_chars+0x2a>
10001894:	4561      	cmp	r1, ip
10001896:	6010      	str	r0, [r2, #0]
10001898:	d1f5      	bne.n	10001886 <stdio_uart_out_chars+0x22>
1000189a:	bd30      	pop	{r4, r5, pc}
1000189c:	6993      	ldr	r3, [r2, #24]
1000189e:	069d      	lsls	r5, r3, #26
100018a0:	d4fc      	bmi.n	1000189c <stdio_uart_out_chars+0x38>
100018a2:	6014      	str	r4, [r2, #0]
100018a4:	e7f3      	b.n	1000188e <stdio_uart_out_chars+0x2a>
100018a6:	4770      	bx	lr
100018a8:	200004d4 	.word	0x200004d4
100018ac:	40078000 	.word	0x40078000
100018b0:	200004d0 	.word	0x200004d0

100018b4 <stdio_uart_in_chars>:
100018b4:	4b22      	ldr	r3, [pc, #136]	@ (10001940 <stdio_uart_in_chars+0x8c>)
100018b6:	f1b1 0c00 	subs.w	ip, r1, #0
100018ba:	b410      	push	{r4}
100018bc:	681c      	ldr	r4, [r3, #0]
100018be:	dd2e      	ble.n	1000191e <stdio_uart_in_chars+0x6a>
100018c0:	4603      	mov	r3, r0
100018c2:	2000      	movs	r0, #0
100018c4:	4a1f      	ldr	r2, [pc, #124]	@ (10001944 <stdio_uart_in_chars+0x90>)
100018c6:	1e59      	subs	r1, r3, #1
100018c8:	6812      	ldr	r2, [r2, #0]
100018ca:	6993      	ldr	r3, [r2, #24]
100018cc:	06db      	lsls	r3, r3, #27
100018ce:	d417      	bmi.n	10001900 <stdio_uart_in_chars+0x4c>
100018d0:	3001      	adds	r0, #1
100018d2:	6993      	ldr	r3, [r2, #24]
100018d4:	06db      	lsls	r3, r3, #27
100018d6:	d4fc      	bmi.n	100018d2 <stdio_uart_in_chars+0x1e>
100018d8:	6813      	ldr	r3, [r2, #0]
100018da:	4584      	cmp	ip, r0
100018dc:	f801 3f01 	strb.w	r3, [r1, #1]!
100018e0:	d1f3      	bne.n	100018ca <stdio_uart_in_chars+0x16>
100018e2:	b14c      	cbz	r4, 100018f8 <stdio_uart_in_chars+0x44>
100018e4:	2150      	movs	r1, #80	@ 0x50
100018e6:	4613      	mov	r3, r2
100018e8:	6391      	str	r1, [r2, #56]	@ 0x38
100018ea:	f853 2f34 	ldr.w	r2, [r3, #52]!
100018ee:	f002 0238 	and.w	r2, r2, #56	@ 0x38
100018f2:	f503 5380 	add.w	r3, r3, #4096	@ 0x1000
100018f6:	601a      	str	r2, [r3, #0]
100018f8:	4660      	mov	r0, ip
100018fa:	f85d 4b04 	ldr.w	r4, [sp], #4
100018fe:	4770      	bx	lr
10001900:	b14c      	cbz	r4, 10001916 <stdio_uart_in_chars+0x62>
10001902:	2150      	movs	r1, #80	@ 0x50
10001904:	4613      	mov	r3, r2
10001906:	6391      	str	r1, [r2, #56]	@ 0x38
10001908:	f853 2f34 	ldr.w	r2, [r3, #52]!
1000190c:	f002 0238 	and.w	r2, r2, #56	@ 0x38
10001910:	f503 5380 	add.w	r3, r3, #4096	@ 0x1000
10001914:	601a      	str	r2, [r3, #0]
10001916:	b178      	cbz	r0, 10001938 <stdio_uart_in_chars+0x84>
10001918:	f85d 4b04 	ldr.w	r4, [sp], #4
1000191c:	4770      	bx	lr
1000191e:	b15c      	cbz	r4, 10001938 <stdio_uart_in_chars+0x84>
10001920:	4b08      	ldr	r3, [pc, #32]	@ (10001944 <stdio_uart_in_chars+0x90>)
10001922:	2150      	movs	r1, #80	@ 0x50
10001924:	681a      	ldr	r2, [r3, #0]
10001926:	4613      	mov	r3, r2
10001928:	6391      	str	r1, [r2, #56]	@ 0x38
1000192a:	f853 2f34 	ldr.w	r2, [r3, #52]!
1000192e:	f002 0238 	and.w	r2, r2, #56	@ 0x38
10001932:	f503 5380 	add.w	r3, r3, #4096	@ 0x1000
10001936:	601a      	str	r2, [r3, #0]
10001938:	f06f 0002 	mvn.w	r0, #2
1000193c:	e7dd      	b.n	100018fa <stdio_uart_in_chars+0x46>
1000193e:	bf00      	nop
10001940:	20000450 	.word	0x20000450
10001944:	200004d4 	.word	0x200004d4

10001948 <on_uart_rx>:
10001948:	4b05      	ldr	r3, [pc, #20]	@ (10001960 <on_uart_rx+0x18>)
1000194a:	681b      	ldr	r3, [r3, #0]
1000194c:	b133      	cbz	r3, 1000195c <on_uart_rx+0x14>
1000194e:	2100      	movs	r1, #0
10001950:	4a04      	ldr	r2, [pc, #16]	@ (10001964 <on_uart_rx+0x1c>)
10001952:	4805      	ldr	r0, [pc, #20]	@ (10001968 <on_uart_rx+0x20>)
10001954:	6812      	ldr	r2, [r2, #0]
10001956:	6800      	ldr	r0, [r0, #0]
10001958:	6391      	str	r1, [r2, #56]	@ 0x38
1000195a:	4718      	bx	r3
1000195c:	4770      	bx	lr
1000195e:	bf00      	nop
10001960:	20000450 	.word	0x20000450
10001964:	200004d4 	.word	0x200004d4
10001968:	20000454 	.word	0x20000454

1000196c <stdio_uart_out_flush>:
1000196c:	4b02      	ldr	r3, [pc, #8]	@ (10001978 <stdio_uart_out_flush+0xc>)
1000196e:	681a      	ldr	r2, [r3, #0]
10001970:	6993      	ldr	r3, [r2, #24]
10001972:	071b      	lsls	r3, r3, #28
10001974:	d4fc      	bmi.n	10001970 <stdio_uart_out_flush+0x4>
10001976:	4770      	bx	lr
10001978:	200004d4 	.word	0x200004d4

1000197c <stdio_uart_set_chars_available_callback>:
1000197c:	b5f8      	push	{r3, r4, r5, r6, r7, lr}
1000197e:	4f1c      	ldr	r7, [pc, #112]	@ (100019f0 <stdio_uart_set_chars_available_callback+0x74>)
10001980:	4d1c      	ldr	r5, [pc, #112]	@ (100019f4 <stdio_uart_set_chars_available_callback+0x78>)
10001982:	683a      	ldr	r2, [r7, #0]
10001984:	4e1c      	ldr	r6, [pc, #112]	@ (100019f8 <stdio_uart_set_chars_available_callback+0x7c>)
10001986:	42aa      	cmp	r2, r5
10001988:	bf14      	ite	ne
1000198a:	2521      	movne	r5, #33	@ 0x21
1000198c:	2522      	moveq	r5, #34	@ 0x22
1000198e:	4604      	mov	r4, r0
10001990:	f8d6 c000 	ldr.w	ip, [r6]
10001994:	b118      	cbz	r0, 1000199e <stdio_uart_set_chars_available_callback+0x22>
10001996:	f1bc 0f00 	cmp.w	ip, #0
1000199a:	d010      	beq.n	100019be <stdio_uart_set_chars_available_callback+0x42>
1000199c:	bdf8      	pop	{r3, r4, r5, r6, r7, pc}
1000199e:	f1bc 0f00 	cmp.w	ip, #0
100019a2:	d0fb      	beq.n	1000199c <stdio_uart_set_chars_available_callback+0x20>
100019a4:	4601      	mov	r1, r0
100019a6:	6390      	str	r0, [r2, #56]	@ 0x38
100019a8:	4628      	mov	r0, r5
100019aa:	f7fe fd13 	bl	100003d4 <irq_set_enabled>
100019ae:	4628      	mov	r0, r5
100019b0:	4912      	ldr	r1, [pc, #72]	@ (100019fc <stdio_uart_set_chars_available_callback+0x80>)
100019b2:	f7fe fd55 	bl	10000460 <irq_remove_handler>
100019b6:	4b12      	ldr	r3, [pc, #72]	@ (10001a00 <stdio_uart_set_chars_available_callback+0x84>)
100019b8:	6034      	str	r4, [r6, #0]
100019ba:	601c      	str	r4, [r3, #0]
100019bc:	bdf8      	pop	{r3, r4, r5, r6, r7, pc}
100019be:	460b      	mov	r3, r1
100019c0:	4a0f      	ldr	r2, [pc, #60]	@ (10001a00 <stdio_uart_set_chars_available_callback+0x84>)
100019c2:	490e      	ldr	r1, [pc, #56]	@ (100019fc <stdio_uart_set_chars_available_callback+0x80>)
100019c4:	6030      	str	r0, [r6, #0]
100019c6:	4628      	mov	r0, r5
100019c8:	6013      	str	r3, [r2, #0]
100019ca:	f7fe fd19 	bl	10000400 <irq_set_exclusive_handler>
100019ce:	2101      	movs	r1, #1
100019d0:	4628      	mov	r0, r5
100019d2:	f7fe fcff 	bl	100003d4 <irq_set_enabled>
100019d6:	683a      	ldr	r2, [r7, #0]
100019d8:	2150      	movs	r1, #80	@ 0x50
100019da:	4613      	mov	r3, r2
100019dc:	6391      	str	r1, [r2, #56]	@ 0x38
100019de:	f853 2f34 	ldr.w	r2, [r3, #52]!
100019e2:	f002 0238 	and.w	r2, r2, #56	@ 0x38
100019e6:	f503 5380 	add.w	r3, r3, #4096	@ 0x1000
100019ea:	601a      	str	r2, [r3, #0]
100019ec:	bdf8      	pop	{r3, r4, r5, r6, r7, pc}
100019ee:	bf00      	nop
100019f0:	200004d4 	.word	0x200004d4
100019f4:	40078000 	.word	0x40078000
100019f8:	20000450 	.word	0x20000450
100019fc:	10001949 	.word	0x10001949
10001a00:	20000454 	.word	0x20000454

10001a04 <stdio_uart_init>:
10001a04:	b510      	push	{r4, lr}
10001a06:	490e      	ldr	r1, [pc, #56]	@ (10001a40 <stdio_uart_init+0x3c>)
10001a08:	4c0e      	ldr	r4, [pc, #56]	@ (10001a44 <stdio_uart_init+0x40>)
10001a0a:	480f      	ldr	r0, [pc, #60]	@ (10001a48 <stdio_uart_init+0x44>)
10001a0c:	4a0f      	ldr	r2, [pc, #60]	@ (10001a4c <stdio_uart_init+0x48>)
10001a0e:	4b10      	ldr	r3, [pc, #64]	@ (10001a50 <stdio_uart_init+0x4c>)
10001a10:	7800      	ldrb	r0, [r0, #0]
10001a12:	6021      	str	r1, [r4, #0]
10001a14:	2000      	movs	r0, #0
10001a16:	2102      	movs	r1, #2
10001a18:	7812      	ldrb	r2, [r2, #0]
10001a1a:	781b      	ldrb	r3, [r3, #0]
10001a1c:	f7fe fc38 	bl	10000290 <gpio_set_function>
10001a20:	2102      	movs	r1, #2
10001a22:	2001      	movs	r0, #1
10001a24:	f7fe fc34 	bl	10000290 <gpio_set_function>
10001a28:	f44f 31e1 	mov.w	r1, #115200	@ 0x1c200
10001a2c:	6820      	ldr	r0, [r4, #0]
10001a2e:	f7ff fa93 	bl	10000f58 <uart_init>
10001a32:	e8bd 4010 	ldmia.w	sp!, {r4, lr}
10001a36:	2101      	movs	r1, #1
10001a38:	4806      	ldr	r0, [pc, #24]	@ (10001a54 <stdio_uart_init+0x50>)
10001a3a:	f7ff be99 	b.w	10001770 <stdio_set_driver_enabled>
10001a3e:	bf00      	nop
10001a40:	40070000 	.word	0x40070000
10001a44:	200004d4 	.word	0x200004d4
10001a48:	10001de8 	.word	0x10001de8
10001a4c:	10001de4 	.word	0x10001de4
10001a50:	10001de0 	.word	0x10001de0
10001a54:	2000028c 	.word	0x2000028c

10001a58 <memcpy>:
10001a58:	4684      	mov	ip, r0
10001a5a:	ea41 0300 	orr.w	r3, r1, r0
10001a5e:	f013 0303 	ands.w	r3, r3, #3
10001a62:	d149      	bne.n	10001af8 <memcpy+0xa0>
10001a64:	3a40      	subs	r2, #64	@ 0x40
10001a66:	d323      	bcc.n	10001ab0 <memcpy+0x58>
10001a68:	680b      	ldr	r3, [r1, #0]
10001a6a:	6003      	str	r3, [r0, #0]
10001a6c:	684b      	ldr	r3, [r1, #4]
10001a6e:	6043      	str	r3, [r0, #4]
10001a70:	688b      	ldr	r3, [r1, #8]
10001a72:	6083      	str	r3, [r0, #8]
10001a74:	68cb      	ldr	r3, [r1, #12]
10001a76:	60c3      	str	r3, [r0, #12]
10001a78:	690b      	ldr	r3, [r1, #16]
10001a7a:	6103      	str	r3, [r0, #16]
10001a7c:	694b      	ldr	r3, [r1, #20]
10001a7e:	6143      	str	r3, [r0, #20]
10001a80:	698b      	ldr	r3, [r1, #24]
10001a82:	6183      	str	r3, [r0, #24]
10001a84:	69cb      	ldr	r3, [r1, #28]
10001a86:	61c3      	str	r3, [r0, #28]
10001a88:	6a0b      	ldr	r3, [r1, #32]
10001a8a:	6203      	str	r3, [r0, #32]
10001a8c:	6a4b      	ldr	r3, [r1, #36]	@ 0x24
10001a8e:	6243      	str	r3, [r0, #36]	@ 0x24
10001a90:	6a8b      	ldr	r3, [r1, #40]	@ 0x28
10001a92:	6283      	str	r3, [r0, #40]	@ 0x28
10001a94:	6acb      	ldr	r3, [r1, #44]	@ 0x2c
10001a96:	62c3      	str	r3, [r0, #44]	@ 0x2c
10001a98:	6b0b      	ldr	r3, [r1, #48]	@ 0x30
10001a9a:	6303      	str	r3, [r0, #48]	@ 0x30
10001a9c:	6b4b      	ldr	r3, [r1, #52]	@ 0x34
10001a9e:	6343      	str	r3, [r0, #52]	@ 0x34
10001aa0:	6b8b      	ldr	r3, [r1, #56]	@ 0x38
10001aa2:	6383      	str	r3, [r0, #56]	@ 0x38
10001aa4:	6bcb      	ldr	r3, [r1, #60]	@ 0x3c
10001aa6:	63c3      	str	r3, [r0, #60]	@ 0x3c
10001aa8:	3040      	adds	r0, #64	@ 0x40
10001aaa:	3140      	adds	r1, #64	@ 0x40
10001aac:	3a40      	subs	r2, #64	@ 0x40
10001aae:	d2db      	bcs.n	10001a68 <memcpy+0x10>
10001ab0:	3230      	adds	r2, #48	@ 0x30
10001ab2:	d30b      	bcc.n	10001acc <memcpy+0x74>
10001ab4:	680b      	ldr	r3, [r1, #0]
10001ab6:	6003      	str	r3, [r0, #0]
10001ab8:	684b      	ldr	r3, [r1, #4]
10001aba:	6043      	str	r3, [r0, #4]
10001abc:	688b      	ldr	r3, [r1, #8]
10001abe:	6083      	str	r3, [r0, #8]
10001ac0:	68cb      	ldr	r3, [r1, #12]
10001ac2:	60c3      	str	r3, [r0, #12]
10001ac4:	3010      	adds	r0, #16
10001ac6:	3110      	adds	r1, #16
10001ac8:	3a10      	subs	r2, #16
10001aca:	d2f3      	bcs.n	10001ab4 <memcpy+0x5c>
10001acc:	320c      	adds	r2, #12
10001ace:	d305      	bcc.n	10001adc <memcpy+0x84>
10001ad0:	f851 3b04 	ldr.w	r3, [r1], #4
10001ad4:	f840 3b04 	str.w	r3, [r0], #4
10001ad8:	3a04      	subs	r2, #4
10001ada:	d2f9      	bcs.n	10001ad0 <memcpy+0x78>
10001adc:	3204      	adds	r2, #4
10001ade:	d008      	beq.n	10001af2 <memcpy+0x9a>
10001ae0:	07d2      	lsls	r2, r2, #31
10001ae2:	bf1c      	itt	ne
10001ae4:	f811 3b01 	ldrbne.w	r3, [r1], #1
10001ae8:	f800 3b01 	strbne.w	r3, [r0], #1
10001aec:	d301      	bcc.n	10001af2 <memcpy+0x9a>
10001aee:	880b      	ldrh	r3, [r1, #0]
10001af0:	8003      	strh	r3, [r0, #0]
10001af2:	4660      	mov	r0, ip
10001af4:	4770      	bx	lr
10001af6:	bf00      	nop
10001af8:	2a08      	cmp	r2, #8
10001afa:	d313      	bcc.n	10001b24 <memcpy+0xcc>
10001afc:	078b      	lsls	r3, r1, #30
10001afe:	d0b1      	beq.n	10001a64 <memcpy+0xc>
10001b00:	f010 0303 	ands.w	r3, r0, #3
10001b04:	d0ae      	beq.n	10001a64 <memcpy+0xc>
10001b06:	f1c3 0304 	rsb	r3, r3, #4
10001b0a:	1ad2      	subs	r2, r2, r3
10001b0c:	07db      	lsls	r3, r3, #31
10001b0e:	bf1c      	itt	ne
10001b10:	f811 3b01 	ldrbne.w	r3, [r1], #1
10001b14:	f800 3b01 	strbne.w	r3, [r0], #1
10001b18:	d3a4      	bcc.n	10001a64 <memcpy+0xc>
10001b1a:	f831 3b02 	ldrh.w	r3, [r1], #2
10001b1e:	f820 3b02 	strh.w	r3, [r0], #2
10001b22:	e79f      	b.n	10001a64 <memcpy+0xc>
10001b24:	3a04      	subs	r2, #4
10001b26:	d3d9      	bcc.n	10001adc <memcpy+0x84>
10001b28:	3a01      	subs	r2, #1
10001b2a:	f811 3b01 	ldrb.w	r3, [r1], #1
10001b2e:	f800 3b01 	strb.w	r3, [r0], #1
10001b32:	d2f9      	bcs.n	10001b28 <memcpy+0xd0>
10001b34:	780b      	ldrb	r3, [r1, #0]
10001b36:	7003      	strb	r3, [r0, #0]
10001b38:	784b      	ldrb	r3, [r1, #1]
10001b3a:	7043      	strb	r3, [r0, #1]
10001b3c:	788b      	ldrb	r3, [r1, #2]
10001b3e:	7083      	strb	r3, [r0, #2]
10001b40:	4660      	mov	r0, ip
10001b42:	4770      	bx	lr

10001b44 <strlen>:
10001b44:	f020 0103 	bic.w	r1, r0, #3
10001b48:	f010 0003 	ands.w	r0, r0, #3
10001b4c:	f1c0 0000 	rsb	r0, r0, #0
10001b50:	f851 3b04 	ldr.w	r3, [r1], #4
10001b54:	f100 0c04 	add.w	ip, r0, #4
10001b58:	ea4f 0ccc 	mov.w	ip, ip, lsl #3
10001b5c:	f06f 0200 	mvn.w	r2, #0
10001b60:	bf1c      	itt	ne
10001b62:	fa22 f20c 	lsrne.w	r2, r2, ip
10001b66:	4313      	orrne	r3, r2
10001b68:	f04f 0c01 	mov.w	ip, #1
10001b6c:	ea4c 2c0c 	orr.w	ip, ip, ip, lsl #8
10001b70:	ea4c 4c0c 	orr.w	ip, ip, ip, lsl #16
10001b74:	eba3 020c 	sub.w	r2, r3, ip
10001b78:	ea22 0203 	bic.w	r2, r2, r3
10001b7c:	ea12 12cc 	ands.w	r2, r2, ip, lsl #7
10001b80:	bf04      	itt	eq
10001b82:	f851 3b04 	ldreq.w	r3, [r1], #4
10001b86:	3004      	addeq	r0, #4
10001b88:	d0f4      	beq.n	10001b74 <strlen+0x30>
10001b8a:	f1c2 0100 	rsb	r1, r2, #0
10001b8e:	ea02 0201 	and.w	r2, r2, r1
10001b92:	fab2 f282 	clz	r2, r2
10001b96:	f1c2 021f 	rsb	r2, r2, #31
10001b9a:	eb00 00d2 	add.w	r0, r0, r2, lsr #3
10001b9e:	4770      	bx	lr

10001ba0 <_fini>:
10001ba0:	b5f8      	push	{r3, r4, r5, r6, r7, lr}
10001ba2:	bf00      	nop
10001ba4:	0000      	movs	r0, r0
	...

10001ba8 <__mutex_exit_veneer>:
10001ba8:	f85f f000 	ldr.w	pc, [pc]	@ 10001bac <__mutex_exit_veneer+0x4>
10001bac:	200001e5 	.word	0x200001e5

10001bb0 <__mutex_try_enter_block_until_veneer>:
10001bb0:	f85f f000 	ldr.w	pc, [pc]	@ 10001bb4 <__mutex_try_enter_block_until_veneer+0x4>
10001bb4:	2000017d 	.word	0x2000017d

10001bb8 <__pre_init_runtime_init_bootrom_reset>:
10001bb8:	100013f5                                ....

10001bbc <__pre_init_runtime_init_early_resets>:
10001bbc:	10001369                                i...

10001bc0 <__pre_init_runtime_init_usb_power_down>:
10001bc0:	1000139d                                ....

10001bc4 <__pre_init_runtime_init_clocks>:
10001bc4:	10001489                                ....

10001bc8 <__pre_init_runtime_init_post_clock_resets>:
10001bc8:	100013d5                                ....

10001bcc <__pre_init_runtime_init_boot_locks_reset>:
10001bcc:	100012ed                                ....

10001bd0 <__pre_init_runtime_init_spin_locks_reset>:
10001bd0:	1000141d                                ....

10001bd4 <__pre_init_runtime_init_bootrom_locking_enable>:
10001bd4:	100012d9                                ....

10001bd8 <__pre_init_runtime_init_mutex>:
10001bd8:	1000071d                                ....

10001bdc <__pre_init_runtime_init_install_ram_vector_table>:
10001bdc:	10001421                                !...

10001be0 <__pre_init_runtime_init_default_alarm_pool>:
10001be0:	10000a99                                ....

10001be4 <__pre_init_first_per_core_initializer>:
10001be4:	10001339                                9...

10001be8 <__pre_init_runtime_init_per_core_bootrom_reset>:
10001be8:	10001409                                ....

10001bec <__pre_init_runtime_init_per_core_enable_coprocessors>:
10001bec:	100013b9                                ....

10001bf0 <__pre_init_spinlock_set_extexclall>:
10001bf0:	1000036d                                m...

10001bf4 <__pre_init_runtime_init_per_core_irq_priorities>:
10001bf4:	10000395                                ....

10001bf8 <__frame_dummy_init_array_entry>:
10001bf8:	10000211                                ....

Disassembly of section .data:

20000110 <mutex_enter_block_until>:
20000110:	f04f 4150 	mov.w	r1, #3489660928	@ 0xd0000000
20000114:	e92d 41f0 	stmdb	sp!, {r4, r5, r6, r7, r8, lr}
20000118:	2700      	movs	r7, #0
2000011a:	4604      	mov	r4, r0
2000011c:	4616      	mov	r6, r2
2000011e:	461d      	mov	r5, r3
20000120:	f8d1 8000 	ldr.w	r8, [r1]
20000124:	e008      	b.n	20000138 <mutex_enter_block_until+0x28>
20000126:	e8c1 7f8f 	stlb	r7, [r1]
2000012a:	f38c 8810 	msr	PRIMASK, ip
2000012e:	4630      	mov	r0, r6
20000130:	4629      	mov	r1, r5
20000132:	f000 f875 	bl	20000220 <__best_effort_wfe_or_timeout_veneer>
20000136:	b9e8      	cbnz	r0, 20000174 <mutex_enter_block_until+0x64>
20000138:	6821      	ldr	r1, [r4, #0]
2000013a:	f3ef 8c10 	mrs	ip, PRIMASK
2000013e:	b672      	cpsid	i
20000140:	e8d1 2fcf 	ldaexb	r2, [r1]
20000144:	2301      	movs	r3, #1
20000146:	2a00      	cmp	r2, #0
20000148:	d1fa      	bne.n	20000140 <mutex_enter_block_until+0x30>
2000014a:	e8c1 3f42 	strexb	r2, r3, [r1]
2000014e:	2a00      	cmp	r2, #0
20000150:	d1f6      	bne.n	20000140 <mutex_enter_block_until+0x30>
20000152:	f3bf 8f5f 	dmb	sy
20000156:	f994 3004 	ldrsb.w	r3, [r4, #4]
2000015a:	6821      	ldr	r1, [r4, #0]
2000015c:	2b00      	cmp	r3, #0
2000015e:	dae2      	bge.n	20000126 <mutex_enter_block_until+0x16>
20000160:	2300      	movs	r3, #0
20000162:	f884 8004 	strb.w	r8, [r4, #4]
20000166:	e8c1 3f8f 	stlb	r3, [r1]
2000016a:	f38c 8810 	msr	PRIMASK, ip
2000016e:	2001      	movs	r0, #1
20000170:	e8bd 81f0 	ldmia.w	sp!, {r4, r5, r6, r7, r8, pc}
20000174:	2000      	movs	r0, #0
20000176:	e8bd 81f0 	ldmia.w	sp!, {r4, r5, r6, r7, r8, pc}
2000017a:	bf00      	nop

2000017c <mutex_try_enter_block_until>:
2000017c:	b530      	push	{r4, r5, lr}
2000017e:	6804      	ldr	r4, [r0, #0]
20000180:	f3ef 8c10 	mrs	ip, PRIMASK
20000184:	b672      	cpsid	i
20000186:	e8d4 efcf 	ldaexb	lr, [r4]
2000018a:	2501      	movs	r5, #1
2000018c:	f1be 0f00 	cmp.w	lr, #0
20000190:	d1f9      	bne.n	20000186 <mutex_try_enter_block_until+0xa>
20000192:	e8c4 5f4e 	strexb	lr, r5, [r4]
20000196:	f1be 0f00 	cmp.w	lr, #0
2000019a:	d1f4      	bne.n	20000186 <mutex_try_enter_block_until+0xa>
2000019c:	f3bf 8f5f 	dmb	sy
200001a0:	f990 4004 	ldrsb.w	r4, [r0, #4]
200001a4:	6805      	ldr	r5, [r0, #0]
200001a6:	2c00      	cmp	r4, #0
200001a8:	db10      	blt.n	200001cc <mutex_try_enter_block_until+0x50>
200001aa:	2100      	movs	r1, #0
200001ac:	e8c5 1f8f 	stlb	r1, [r5]
200001b0:	f38c 8810 	msr	PRIMASK, ip
200001b4:	f04f 4550 	mov.w	r5, #3489660928	@ 0xd0000000
200001b8:	f995 5000 	ldrsb.w	r5, [r5]
200001bc:	42a5      	cmp	r5, r4
200001be:	d101      	bne.n	200001c4 <mutex_try_enter_block_until+0x48>
200001c0:	4608      	mov	r0, r1
200001c2:	bd30      	pop	{r4, r5, pc}
200001c4:	e8bd 4030 	ldmia.w	sp!, {r4, r5, lr}
200001c8:	f7ff bfa2 	b.w	20000110 <mutex_enter_block_until>
200001cc:	f04f 4250 	mov.w	r2, #3489660928	@ 0xd0000000
200001d0:	6812      	ldr	r2, [r2, #0]
200001d2:	2300      	movs	r3, #0
200001d4:	7102      	strb	r2, [r0, #4]
200001d6:	e8c5 3f8f 	stlb	r3, [r5]
200001da:	f38c 8810 	msr	PRIMASK, ip
200001de:	2001      	movs	r0, #1
200001e0:	bd30      	pop	{r4, r5, pc}
200001e2:	bf00      	nop

200001e4 <mutex_exit>:
200001e4:	6803      	ldr	r3, [r0, #0]
200001e6:	f3ef 8210 	mrs	r2, PRIMASK
200001ea:	b672      	cpsid	i
200001ec:	e8d3 cfcf 	ldaexb	ip, [r3]
200001f0:	2101      	movs	r1, #1
200001f2:	f1bc 0f00 	cmp.w	ip, #0
200001f6:	d1f9      	bne.n	200001ec <mutex_exit+0x8>
200001f8:	e8c3 1f4c 	strexb	ip, r1, [r3]
200001fc:	f1bc 0f00 	cmp.w	ip, #0
20000200:	d1f4      	bne.n	200001ec <mutex_exit+0x8>
20000202:	f3bf 8f5f 	dmb	sy
20000206:	f04f 0cff 	mov.w	ip, #255	@ 0xff
2000020a:	2300      	movs	r3, #0
2000020c:	6801      	ldr	r1, [r0, #0]
2000020e:	f880 c004 	strb.w	ip, [r0, #4]
20000212:	e8c1 3f8f 	stlb	r3, [r1]
20000216:	f382 8810 	msr	PRIMASK, r2
2000021a:	bf40      	sev
2000021c:	4770      	bx	lr
2000021e:	bf00      	nop

20000220 <__best_effort_wfe_or_timeout_veneer>:
20000220:	f85f f000 	ldr.w	pc, [pc]	@ 20000224 <__best_effort_wfe_or_timeout_veneer+0x4>
20000224:	10000dbd 	.word	0x10000dbd

20000228 <striped_spin_lock_num>:
20000228:	00000010                                ....

2000022c <irq_handler_chain_slots>:
2000022c:	00000000 	.word	0x00000000
20000230:	00010000 	.word	0x00010000
	...
2000023c:	00020000 	.word	0x00020000
	...
20000248:	00030000 	.word	0x00030000
	...
20000254:	00ff0000 	.word	0x00ff0000
20000258:	00000000 	.word	0x00000000

2000025c <irq_handler_chain_first_slot>:
2000025c:	b501      	push	{r0, lr}
2000025e:	6848      	ldr	r0, [r1, #4]
20000260:	3101      	adds	r1, #1
20000262:	468e      	mov	lr, r1
20000264:	4700      	bx	r0

20000266 <irq_handler_chain_remove_tail>:
20000266:	4670      	mov	r0, lr
20000268:	3809      	subs	r0, #9
2000026a:	4901      	ldr	r1, [pc, #4]	@ (20000270 <irq_handler_chain_remove_tail+0xa>)
2000026c:	4788      	blx	r1
2000026e:	bd01      	pop	{r0, pc}
20000270:	10000655 	.word	0x10000655

20000274 <default_alarm_pool>:
	...
20000288:	200002b0                                ... 

2000028c <stdio_uart>:
2000028c:	10001865 1000196d 100018b5 1000197d     e...m.......}...
2000029c:	00000000 00000100                       ........

200002a4 <print_mutex>:
	...
