
C:/Users/assem.KEVINTHOMAS/OneDrive/Documents/Embedded-Hacking/drivers/0x0a_ir/build/0x0a_ir.elf:     file format elf32-littlearm

Sections:
Idx Name          Size      VMA       LMA       File off  Algn
  0 .text         0000374c  10000000  10000000  00001000  2**3
                  CONTENTS, ALLOC, LOAD, READONLY, CODE
  1 .rodata       00000208  10003750  10003750  00004750  2**3
                  CONTENTS, ALLOC, LOAD, READONLY, DATA
  2 .ARM.exidx    00000008  10003958  10003958  00004958  2**2
                  CONTENTS, ALLOC, LOAD, READONLY, DATA
  3 .binary_info  0000002c  10003960  10003960  00004960  2**2
                  CONTENTS, ALLOC, LOAD, READONLY, DATA
  4 .ram_vector_table 00000110  20000000  20000000  00006000  2**2
                  ALLOC
  5 .uninitialized_data 00000000  20000110  20000110  00005ebc  2**0
                  CONTENTS
  6 .data         0000051c  20000110  1000398c  00005110  2**3
                  CONTENTS, ALLOC, LOAD, READONLY, CODE
  7 .tdata        00000000  2000062c  2000062c  00005ebc  2**0
                  CONTENTS, ALLOC, LOAD, DATA, THREAD_LOCAL
  8 .tbss         00000000  2000062c  2000062c  00000000  2**0
                  ALLOC, THREAD_LOCAL
  9 .bss          0000022c  20000630  10003ea8  00006630  2**3
                  ALLOC
 10 .heap         00000800  2000085c  10003ea8  0000685c  2**2
                  ALLOC, READONLY
 11 .scratch_x    00000000  20080000  20080000  00005ebc  2**0
                  CONTENTS
 12 .scratch_y    00000000  20081000  20081000  00005ebc  2**0
                  CONTENTS
 13 .stack_dummy  00000800  20081000  20081000  00006000  2**5
                  ALLOC, READONLY
 14 .flash_end    00000014  10003ea8  10003ea8  00005ea8  2**2
                  CONTENTS, ALLOC, LOAD, READONLY, DATA
 15 .ARM.attributes 00000034  00000000  00000000  00005ebc  2**0
                  CONTENTS, READONLY
 16 .comment      00000045  00000000  00000000  00005ef0  2**0
                  CONTENTS, READONLY
 17 .debug_info   00021a0a  00000000  00000000  00005f35  2**0
                  CONTENTS, READONLY, DEBUGGING, OCTETS
 18 .debug_abbrev 000058da  00000000  00000000  0002793f  2**0
                  CONTENTS, READONLY, DEBUGGING, OCTETS
 19 .debug_loclists 00010473  00000000  00000000  0002d219  2**0
                  CONTENTS, READONLY, DEBUGGING, OCTETS
 20 .debug_aranges 00000c10  00000000  00000000  0003d690  2**3
                  CONTENTS, READONLY, DEBUGGING, OCTETS
 21 .debug_rnglists 0000318f  00000000  00000000  0003e2a0  2**0
                  CONTENTS, READONLY, DEBUGGING, OCTETS
 22 .debug_line   00016c48  00000000  00000000  0004142f  2**0
                  CONTENTS, READONLY, DEBUGGING, OCTETS
 23 .debug_str    00005b61  00000000  00000000  00058077  2**0
                  CONTENTS, READONLY, DEBUGGING, OCTETS
 24 .debug_frame  00001f90  00000000  00000000  0005dbd8  2**2
                  CONTENTS, READONLY, DEBUGGING, OCTETS
 25 .debug_line_str 000002c5  00000000  00000000  0005fb68  2**0
                  CONTENTS, READONLY, DEBUGGING, OCTETS

C:/Users/assem.KEVINTHOMAS/OneDrive/Documents/Embedded-Hacking/drivers/0x0a_ir/build/0x0a_ir.elf:     file format elf32-littlearm


Disassembly of section .text:

10000000 <__VECTOR_TABLE>:
10000000:	20082000 	.word	0x20082000
10000004:	1000015d 	.word	0x1000015d
10000008:	1000011b 	.word	0x1000011b
1000000c:	1000011d 	.word	0x1000011d
10000010:	10000111 	.word	0x10000111
10000014:	10000111 	.word	0x10000111
10000018:	10000111 	.word	0x10000111
1000001c:	10000111 	.word	0x10000111
10000020:	10000119 	.word	0x10000119
10000024:	10000119 	.word	0x10000119
10000028:	10000119 	.word	0x10000119
1000002c:	1000011f 	.word	0x1000011f
10000030:	10000111 	.word	0x10000111
10000034:	10000119 	.word	0x10000119
10000038:	10000121 	.word	0x10000121
1000003c:	10000123 	.word	0x10000123
10000040:	10000111 	.word	0x10000111
10000044:	10000111 	.word	0x10000111
10000048:	10000111 	.word	0x10000111
1000004c:	10000111 	.word	0x10000111
10000050:	10000111 	.word	0x10000111
10000054:	10000111 	.word	0x10000111
10000058:	10000111 	.word	0x10000111
1000005c:	10000111 	.word	0x10000111
10000060:	10000111 	.word	0x10000111
10000064:	10000111 	.word	0x10000111
10000068:	10000111 	.word	0x10000111
1000006c:	10000111 	.word	0x10000111
10000070:	10000111 	.word	0x10000111
10000074:	10000111 	.word	0x10000111
10000078:	10000111 	.word	0x10000111
1000007c:	10000111 	.word	0x10000111
10000080:	10000111 	.word	0x10000111
10000084:	10000111 	.word	0x10000111
10000088:	10000111 	.word	0x10000111
1000008c:	10000111 	.word	0x10000111
10000090:	10000111 	.word	0x10000111
10000094:	10000111 	.word	0x10000111
10000098:	10000111 	.word	0x10000111
1000009c:	10000111 	.word	0x10000111
100000a0:	10000111 	.word	0x10000111
100000a4:	10000111 	.word	0x10000111
100000a8:	10000111 	.word	0x10000111
100000ac:	10000111 	.word	0x10000111
100000b0:	10000111 	.word	0x10000111
100000b4:	10000111 	.word	0x10000111
100000b8:	10000111 	.word	0x10000111
100000bc:	10000111 	.word	0x10000111
100000c0:	10000111 	.word	0x10000111
100000c4:	10000111 	.word	0x10000111
100000c8:	10000111 	.word	0x10000111
100000cc:	10000111 	.word	0x10000111
100000d0:	10000111 	.word	0x10000111
100000d4:	10000111 	.word	0x10000111
100000d8:	10000111 	.word	0x10000111
100000dc:	10000111 	.word	0x10000111
100000e0:	10000111 	.word	0x10000111
100000e4:	10000111 	.word	0x10000111
100000e8:	10000111 	.word	0x10000111
100000ec:	10000111 	.word	0x10000111
100000f0:	10000111 	.word	0x10000111
100000f4:	10000111 	.word	0x10000111
100000f8:	10000111 	.word	0x10000111
100000fc:	10000111 	.word	0x10000111
10000100:	10000111 	.word	0x10000111
10000104:	10000111 	.word	0x10000111
10000108:	10000111 	.word	0x10000111
1000010c:	10000111 	.word	0x10000111

10000110 <__unhandled_user_irq>:
10000110:	f3ef 8005 	mrs	r0, IPSR
10000114:	3810      	subs	r0, #16

10000116 <unhandled_user_irq_num_in_r0>:
10000116:	be00      	bkpt	0x0000

10000118 <isr_invalid>:
10000118:	be00      	bkpt	0x0000

1000011a <isr_nmi>:
1000011a:	be00      	bkpt	0x0000

1000011c <isr_hardfault>:
1000011c:	be00      	bkpt	0x0000

1000011e <isr_svcall>:
1000011e:	be00      	bkpt	0x0000

10000120 <isr_pendsv>:
10000120:	be00      	bkpt	0x0000

10000122 <isr_systick>:
10000122:	be00      	bkpt	0x0000

10000124 <__default_isrs_end>:
10000124:	7188ebf2 	.word	0x7188ebf2
10000128:	10003960 	.word	0x10003960
1000012c:	1000398c 	.word	0x1000398c
10000130:	100001a0 	.word	0x100001a0
10000134:	e71aa390 	.word	0xe71aa390

10000138 <__binary_info_header_end>:
10000138:	ffffded3 	.word	0xffffded3
1000013c:	10210142 	.word	0x10210142
10000140:	000001ff 	.word	0x000001ff
10000144:	00003d70 	.word	0x00003d70
10000148:	ab123579 	.word	0xab123579

1000014c <_entry_point>:
1000014c:	f04f 0000 	mov.w	r0, #0

10000150 <_enter_vtable_in_r0>:
10000150:	491e      	ldr	r1, [pc, #120]	@ (100001cc <data_cpy_table+0x2c>)
10000152:	6008      	str	r0, [r1, #0]
10000154:	c806      	ldmia	r0!, {r1, r2}
10000156:	f381 8808 	msr	MSP, r1
1000015a:	4710      	bx	r2

1000015c <_reset_handler>:
1000015c:	f04f 4050 	mov.w	r0, #3489660928	@ 0xd0000000
10000160:	6800      	ldr	r0, [r0, #0]
10000162:	b110      	cbz	r0, 1000016a <hold_non_core0_in_bootrom+0x6>

10000164 <hold_non_core0_in_bootrom>:
10000164:	f04f 0000 	mov.w	r0, #0
10000168:	e7f2      	b.n	10000150 <_enter_vtable_in_r0>
1000016a:	a40d      	add	r4, pc, #52	@ (adr r4, 100001a0 <data_cpy_table>)
1000016c:	cc0e      	ldmia	r4!, {r1, r2, r3}
1000016e:	2900      	cmp	r1, #0
10000170:	d002      	beq.n	10000178 <hold_non_core0_in_bootrom+0x14>
10000172:	f000 f812 	bl	1000019a <data_cpy>
10000176:	e7f9      	b.n	1000016c <hold_non_core0_in_bootrom+0x8>
10000178:	4915      	ldr	r1, [pc, #84]	@ (100001d0 <data_cpy_table+0x30>)
1000017a:	4a16      	ldr	r2, [pc, #88]	@ (100001d4 <data_cpy_table+0x34>)
1000017c:	2000      	movs	r0, #0
1000017e:	e000      	b.n	10000182 <bss_fill_test>

10000180 <bss_fill_loop>:
10000180:	c101      	stmia	r1!, {r0}

10000182 <bss_fill_test>:
10000182:	4291      	cmp	r1, r2
10000184:	d1fc      	bne.n	10000180 <bss_fill_loop>

10000186 <platform_entry>:
10000186:	4914      	ldr	r1, [pc, #80]	@ (100001d8 <data_cpy_table+0x38>)
10000188:	4788      	blx	r1
1000018a:	4914      	ldr	r1, [pc, #80]	@ (100001dc <data_cpy_table+0x3c>)
1000018c:	4788      	blx	r1
1000018e:	4914      	ldr	r1, [pc, #80]	@ (100001e0 <data_cpy_table+0x40>)
10000190:	4788      	blx	r1
10000192:	be00      	bkpt	0x0000
10000194:	e7fd      	b.n	10000192 <platform_entry+0xc>

10000196 <data_cpy_loop>:
10000196:	c901      	ldmia	r1!, {r0}
10000198:	c201      	stmia	r2!, {r0}

1000019a <data_cpy>:
1000019a:	429a      	cmp	r2, r3
1000019c:	d3fb      	bcc.n	10000196 <data_cpy_loop>
1000019e:	4770      	bx	lr

100001a0 <data_cpy_table>:
100001a0:	1000398c 	.word	0x1000398c
100001a4:	20000110 	.word	0x20000110
100001a8:	2000062c 	.word	0x2000062c
100001ac:	10003ea8 	.word	0x10003ea8
100001b0:	20080000 	.word	0x20080000
100001b4:	20080000 	.word	0x20080000
100001b8:	10003ea8 	.word	0x10003ea8
100001bc:	20081000 	.word	0x20081000
100001c0:	20081000 	.word	0x20081000
100001c4:	00000000 	.word	0x00000000
100001c8:	4770      	bx	lr
100001ca:	0000      	.short	0x0000
100001cc:	e000ed08 	.word	0xe000ed08
100001d0:	2000062c 	.word	0x2000062c
100001d4:	2000085c 	.word	0x2000085c
100001d8:	10002fb5 	.word	0x10002fb5
100001dc:	10000235 	.word	0x10000235
100001e0:	10002fad 	.word	0x10002fad

100001e4 <_init>:
100001e4:	b5f8      	push	{r3, r4, r5, r6, r7, lr}
100001e6:	bf00      	nop

100001e8 <register_tm_clones>:
100001e8:	4b06      	ldr	r3, [pc, #24]	@ (10000204 <register_tm_clones+0x1c>)
100001ea:	4907      	ldr	r1, [pc, #28]	@ (10000208 <register_tm_clones+0x20>)
100001ec:	1ac9      	subs	r1, r1, r3
100001ee:	1089      	asrs	r1, r1, #2
100001f0:	bf48      	it	mi
100001f2:	3101      	addmi	r1, #1
100001f4:	1049      	asrs	r1, r1, #1
100001f6:	d003      	beq.n	10000200 <register_tm_clones+0x18>
100001f8:	4b04      	ldr	r3, [pc, #16]	@ (1000020c <register_tm_clones+0x24>)
100001fa:	b10b      	cbz	r3, 10000200 <register_tm_clones+0x18>
100001fc:	4801      	ldr	r0, [pc, #4]	@ (10000204 <register_tm_clones+0x1c>)
100001fe:	4718      	bx	r3
10000200:	4770      	bx	lr
10000202:	bf00      	nop
10000204:	2000062c 	.word	0x2000062c
10000208:	2000062c 	.word	0x2000062c
1000020c:	00000000 	.word	0x00000000

10000210 <frame_dummy>:
10000210:	b508      	push	{r3, lr}
10000212:	4b05      	ldr	r3, [pc, #20]	@ (10000228 <frame_dummy+0x18>)
10000214:	b11b      	cbz	r3, 1000021e <frame_dummy+0xe>
10000216:	4905      	ldr	r1, [pc, #20]	@ (1000022c <frame_dummy+0x1c>)
10000218:	4805      	ldr	r0, [pc, #20]	@ (10000230 <frame_dummy+0x20>)
1000021a:	f3af 8000 	nop.w
1000021e:	e8bd 4008 	ldmia.w	sp!, {r3, lr}
10000222:	f7ff bfe1 	b.w	100001e8 <register_tm_clones>
10000226:	bf00      	nop
10000228:	00000000 	.word	0x00000000
1000022c:	20000814 	.word	0x20000814
10000230:	1000374c 	.word	0x1000374c

10000234 <main>:
10000234:	b508      	push	{r3, lr}
10000236:	f002 ffe5 	bl	10003204 <stdio_init_all>
1000023a:	2005      	movs	r0, #5
1000023c:	f000 f816 	bl	1000026c <ir_init>
10000240:	2105      	movs	r1, #5
10000242:	4807      	ldr	r0, [pc, #28]	@ (10000260 <main+0x2c>)
10000244:	f003 f8a6 	bl	10003394 <__wrap_printf>
10000248:	4806      	ldr	r0, [pc, #24]	@ (10000264 <main+0x30>)
1000024a:	f003 f823 	bl	10003294 <__wrap_puts>
1000024e:	f000 f821 	bl	10000294 <ir_getkey>
10000252:	1e02      	subs	r2, r0, #0
10000254:	dbfb      	blt.n	1000024e <main+0x1a>
10000256:	4611      	mov	r1, r2
10000258:	4803      	ldr	r0, [pc, #12]	@ (10000268 <main+0x34>)
1000025a:	f003 f89b 	bl	10003394 <__wrap_printf>
1000025e:	e7f6      	b.n	1000024e <main+0x1a>
10000260:	10003750 	.word	0x10003750
10000264:	1000377c 	.word	0x1000377c
10000268:	100037a4 	.word	0x100037a4

1000026c <ir_init>:
1000026c:	4b08      	ldr	r3, [pc, #32]	@ (10000290 <ir_init+0x24>)
1000026e:	b510      	push	{r4, lr}
10000270:	6018      	str	r0, [r3, #0]
10000272:	4604      	mov	r4, r0
10000274:	f000 f93a 	bl	100004ec <gpio_init>
10000278:	f04f 0300 	mov.w	r3, #0
1000027c:	ec43 4044 	gpioc_bit_oe_put r4, r3
10000280:	2101      	movs	r1, #1
10000282:	4620      	mov	r0, r4
10000284:	e8bd 4010 	ldmia.w	sp!, {r4, lr}
10000288:	2200      	movs	r2, #0
1000028a:	f000 b91b 	b.w	100004c4 <gpio_set_pulls>
1000028e:	bf00      	nop
10000290:	2000080c 	.word	0x2000080c

10000294 <ir_getkey>:
10000294:	e92d 4ff0 	stmdb	sp!, {r4, r5, r6, r7, r8, r9, sl, fp, lr}
10000298:	4b77      	ldr	r3, [pc, #476]	@ (10000478 <ir_getkey+0x1e4>)
1000029a:	b085      	sub	sp, #20
1000029c:	681d      	ldr	r5, [r3, #0]
1000029e:	2601      	movs	r6, #1
100002a0:	f000 fed6 	bl	10001050 <time_us_64>
100002a4:	40ae      	lsls	r6, r5
100002a6:	f04f 4750 	mov.w	r7, #3489660928	@ 0xd0000000
100002aa:	f04f 0900 	mov.w	r9, #0
100002ae:	4604      	mov	r4, r0
100002b0:	460d      	mov	r5, r1
100002b2:	f8df 81d0 	ldr.w	r8, [pc, #464]	@ 10000484 <ir_getkey+0x1f0>
100002b6:	e009      	b.n	100002cc <ir_getkey+0x38>
100002b8:	f000 feca 	bl	10001050 <time_us_64>
100002bc:	1b00      	subs	r0, r0, r4
100002be:	eb61 0105 	sbc.w	r1, r1, r5
100002c2:	4580      	cmp	r8, r0
100002c4:	eb79 0101 	sbcs.w	r1, r9, r1
100002c8:	f2c0 80d1 	blt.w	1000046e <ir_getkey+0x1da>
100002cc:	687b      	ldr	r3, [r7, #4]
100002ce:	4233      	tst	r3, r6
100002d0:	d1f2      	bne.n	100002b8 <ir_getkey+0x24>
100002d2:	f000 febd 	bl	10001050 <time_us_64>
100002d6:	42a0      	cmp	r0, r4
100002d8:	eb61 0105 	sbc.w	r1, r1, r5
100002dc:	2900      	cmp	r1, #0
100002de:	f2c0 80c6 	blt.w	1000046e <ir_getkey+0x1da>
100002e2:	4b65      	ldr	r3, [pc, #404]	@ (10000478 <ir_getkey+0x1e4>)
100002e4:	2601      	movs	r6, #1
100002e6:	681d      	ldr	r5, [r3, #0]
100002e8:	f000 feb2 	bl	10001050 <time_us_64>
100002ec:	40ae      	lsls	r6, r5
100002ee:	f04f 4750 	mov.w	r7, #3489660928	@ 0xd0000000
100002f2:	f642 68e1 	movw	r8, #12001	@ 0x2ee1
100002f6:	4604      	mov	r4, r0
100002f8:	460d      	mov	r5, r1
100002fa:	e009      	b.n	10000310 <ir_getkey+0x7c>
100002fc:	f000 fea8 	bl	10001050 <time_us_64>
10000300:	1b00      	subs	r0, r0, r4
10000302:	eb61 0105 	sbc.w	r1, r1, r5
10000306:	4540      	cmp	r0, r8
10000308:	f171 0100 	sbcs.w	r1, r1, #0
1000030c:	f280 80af 	bge.w	1000046e <ir_getkey+0x1da>
10000310:	687b      	ldr	r3, [r7, #4]
10000312:	4233      	tst	r3, r6
10000314:	d0f2      	beq.n	100002fc <ir_getkey+0x68>
10000316:	f000 fe9b 	bl	10001050 <time_us_64>
1000031a:	4b58      	ldr	r3, [pc, #352]	@ (1000047c <ir_getkey+0x1e8>)
1000031c:	f240 72d1 	movw	r2, #2001	@ 0x7d1
10000320:	1b1b      	subs	r3, r3, r4
10000322:	f04f 34ff 	mov.w	r4, #4294967295
10000326:	eb64 0505 	sbc.w	r5, r4, r5
1000032a:	181b      	adds	r3, r3, r0
1000032c:	eb45 0501 	adc.w	r5, r5, r1
10000330:	4293      	cmp	r3, r2
10000332:	f175 0500 	sbcs.w	r5, r5, #0
10000336:	f080 809a 	bcs.w	1000046e <ir_getkey+0x1da>
1000033a:	4b4f      	ldr	r3, [pc, #316]	@ (10000478 <ir_getkey+0x1e4>)
1000033c:	2501      	movs	r5, #1
1000033e:	681e      	ldr	r6, [r3, #0]
10000340:	f000 fe86 	bl	10001050 <time_us_64>
10000344:	40b5      	lsls	r5, r6
10000346:	f04f 4750 	mov.w	r7, #3489660928	@ 0xd0000000
1000034a:	f641 3859 	movw	r8, #7001	@ 0x1b59
1000034e:	4604      	mov	r4, r0
10000350:	460e      	mov	r6, r1
10000352:	e009      	b.n	10000368 <ir_getkey+0xd4>
10000354:	f000 fe7c 	bl	10001050 <time_us_64>
10000358:	1b00      	subs	r0, r0, r4
1000035a:	eb61 0106 	sbc.w	r1, r1, r6
1000035e:	4540      	cmp	r0, r8
10000360:	f171 0100 	sbcs.w	r1, r1, #0
10000364:	f280 8083 	bge.w	1000046e <ir_getkey+0x1da>
10000368:	687b      	ldr	r3, [r7, #4]
1000036a:	402b      	ands	r3, r5
1000036c:	d1f2      	bne.n	10000354 <ir_getkey+0xc0>
1000036e:	9301      	str	r3, [sp, #4]
10000370:	f000 fe6e 	bl	10001050 <time_us_64>
10000374:	f04f 33ff 	mov.w	r3, #4294967295
10000378:	f240 55dd 	movw	r5, #1501	@ 0x5dd
1000037c:	4a40      	ldr	r2, [pc, #256]	@ (10000480 <ir_getkey+0x1ec>)
1000037e:	1b12      	subs	r2, r2, r4
10000380:	eb63 0606 	sbc.w	r6, r3, r6
10000384:	1812      	adds	r2, r2, r0
10000386:	eb46 0601 	adc.w	r6, r6, r1
1000038a:	42aa      	cmp	r2, r5
1000038c:	f176 0600 	sbcs.w	r6, r6, #0
10000390:	d26d      	bcs.n	1000046e <ir_getkey+0x1da>
10000392:	9b01      	ldr	r3, [sp, #4]
10000394:	f04f 0b01 	mov.w	fp, #1
10000398:	469a      	mov	sl, r3
1000039a:	f240 35e9 	movw	r5, #1001	@ 0x3e9
1000039e:	9303      	str	r3, [sp, #12]
100003a0:	4b35      	ldr	r3, [pc, #212]	@ (10000478 <ir_getkey+0x1e4>)
100003a2:	f04f 4850 	mov.w	r8, #3489660928	@ 0xd0000000
100003a6:	681f      	ldr	r7, [r3, #0]
100003a8:	f000 fe52 	bl	10001050 <time_us_64>
100003ac:	fa0b f707 	lsl.w	r7, fp, r7
100003b0:	4604      	mov	r4, r0
100003b2:	460e      	mov	r6, r1
100003b4:	e008      	b.n	100003c8 <ir_getkey+0x134>
100003b6:	f000 fe4b 	bl	10001050 <time_us_64>
100003ba:	1b00      	subs	r0, r0, r4
100003bc:	eb61 0106 	sbc.w	r1, r1, r6
100003c0:	42a8      	cmp	r0, r5
100003c2:	f171 0100 	sbcs.w	r1, r1, #0
100003c6:	da52      	bge.n	1000046e <ir_getkey+0x1da>
100003c8:	f8d8 3004 	ldr.w	r3, [r8, #4]
100003cc:	423b      	tst	r3, r7
100003ce:	d0f2      	beq.n	100003b6 <ir_getkey+0x122>
100003d0:	f000 fe3e 	bl	10001050 <time_us_64>
100003d4:	42a0      	cmp	r0, r4
100003d6:	eb61 0106 	sbc.w	r1, r1, r6
100003da:	2900      	cmp	r1, #0
100003dc:	db47      	blt.n	1000046e <ir_getkey+0x1da>
100003de:	4b26      	ldr	r3, [pc, #152]	@ (10000478 <ir_getkey+0x1e4>)
100003e0:	f04f 4850 	mov.w	r8, #3489660928	@ 0xd0000000
100003e4:	681f      	ldr	r7, [r3, #0]
100003e6:	f000 fe33 	bl	10001050 <time_us_64>
100003ea:	f640 19c5 	movw	r9, #2501	@ 0x9c5
100003ee:	4604      	mov	r4, r0
100003f0:	460e      	mov	r6, r1
100003f2:	fa0b f707 	lsl.w	r7, fp, r7
100003f6:	e008      	b.n	1000040a <ir_getkey+0x176>
100003f8:	f000 fe2a 	bl	10001050 <time_us_64>
100003fc:	1b00      	subs	r0, r0, r4
100003fe:	eb61 0106 	sbc.w	r1, r1, r6
10000402:	4548      	cmp	r0, r9
10000404:	f171 0100 	sbcs.w	r1, r1, #0
10000408:	da31      	bge.n	1000046e <ir_getkey+0x1da>
1000040a:	f8d8 3004 	ldr.w	r3, [r8, #4]
1000040e:	423b      	tst	r3, r7
10000410:	d1f2      	bne.n	100003f8 <ir_getkey+0x164>
10000412:	f000 fe1d 	bl	10001050 <time_us_64>
10000416:	1b00      	subs	r0, r0, r4
10000418:	eb61 0106 	sbc.w	r1, r1, r6
1000041c:	28c8      	cmp	r0, #200	@ 0xc8
1000041e:	f171 0300 	sbcs.w	r3, r1, #0
10000422:	db24      	blt.n	1000046e <ir_getkey+0x1da>
10000424:	f240 43b1 	movw	r3, #1201	@ 0x4b1
10000428:	4298      	cmp	r0, r3
1000042a:	f171 0100 	sbcs.w	r1, r1, #0
1000042e:	db09      	blt.n	10000444 <ir_getkey+0x1b0>
10000430:	a903      	add	r1, sp, #12
10000432:	ea4f 02ea 	mov.w	r2, sl, asr #3
10000436:	5c88      	ldrb	r0, [r1, r2]
10000438:	f00a 0307 	and.w	r3, sl, #7
1000043c:	fa0b f303 	lsl.w	r3, fp, r3
10000440:	4303      	orrs	r3, r0
10000442:	548b      	strb	r3, [r1, r2]
10000444:	f10a 0a01 	add.w	sl, sl, #1
10000448:	f1ba 0f20 	cmp.w	sl, #32
1000044c:	d1a8      	bne.n	100003a0 <ir_getkey+0x10c>
1000044e:	f89d 300c 	ldrb.w	r3, [sp, #12]
10000452:	f89d 200d 	ldrb.w	r2, [sp, #13]
10000456:	4413      	add	r3, r2
10000458:	b2db      	uxtb	r3, r3
1000045a:	2bff      	cmp	r3, #255	@ 0xff
1000045c:	d107      	bne.n	1000046e <ir_getkey+0x1da>
1000045e:	f89d 000e 	ldrb.w	r0, [sp, #14]
10000462:	f89d 300f 	ldrb.w	r3, [sp, #15]
10000466:	4403      	add	r3, r0
10000468:	b2db      	uxtb	r3, r3
1000046a:	2bff      	cmp	r3, #255	@ 0xff
1000046c:	d001      	beq.n	10000472 <ir_getkey+0x1de>
1000046e:	f04f 30ff 	mov.w	r0, #4294967295
10000472:	b005      	add	sp, #20
10000474:	e8bd 8ff0 	ldmia.w	sp!, {r4, r5, r6, r7, r8, r9, sl, fp, pc}
10000478:	2000080c 	.word	0x2000080c
1000047c:	ffffe0c0 	.word	0xffffe0c0
10000480:	fffff254 	.word	0xfffff254
10000484:	000249f0 	.word	0x000249f0

10000488 <gpio_set_function>:
10000488:	b410      	push	{r4}
1000048a:	f44f 7480 	mov.w	r4, #256	@ 0x100
1000048e:	4b0c      	ldr	r3, [pc, #48]	@ (100004c0 <gpio_set_function+0x38>)
10000490:	f853 2020 	ldr.w	r2, [r3, r0, lsl #2]
10000494:	eb03 0380 	add.w	r3, r3, r0, lsl #2
10000498:	00c0      	lsls	r0, r0, #3
1000049a:	f082 0240 	eor.w	r2, r2, #64	@ 0x40
1000049e:	f100 4080 	add.w	r0, r0, #1073741824	@ 0x40000000
100004a2:	f503 5c80 	add.w	ip, r3, #4096	@ 0x1000
100004a6:	f002 02c0 	and.w	r2, r2, #192	@ 0xc0
100004aa:	f500 3020 	add.w	r0, r0, #163840	@ 0x28000
100004ae:	f503 5340 	add.w	r3, r3, #12288	@ 0x3000
100004b2:	f8cc 2000 	str.w	r2, [ip]
100004b6:	6041      	str	r1, [r0, #4]
100004b8:	601c      	str	r4, [r3, #0]
100004ba:	f85d 4b04 	ldr.w	r4, [sp], #4
100004be:	4770      	bx	lr
100004c0:	40038004 	.word	0x40038004

100004c4 <gpio_set_pulls>:
100004c4:	b410      	push	{r4}
100004c6:	4c08      	ldr	r4, [pc, #32]	@ (100004e8 <gpio_set_pulls+0x24>)
100004c8:	00c9      	lsls	r1, r1, #3
100004ca:	ea41 0182 	orr.w	r1, r1, r2, lsl #2
100004ce:	f854 2020 	ldr.w	r2, [r4, r0, lsl #2]
100004d2:	eb04 0380 	add.w	r3, r4, r0, lsl #2
100004d6:	4051      	eors	r1, r2
100004d8:	f503 5380 	add.w	r3, r3, #4096	@ 0x1000
100004dc:	f001 010c 	and.w	r1, r1, #12
100004e0:	f85d 4b04 	ldr.w	r4, [sp], #4
100004e4:	6019      	str	r1, [r3, #0]
100004e6:	4770      	bx	lr
100004e8:	40038004 	.word	0x40038004

100004ec <gpio_init>:
100004ec:	b430      	push	{r4, r5}
100004ee:	f04f 0300 	mov.w	r3, #0
100004f2:	ec43 0044 	gpioc_bit_oe_put r0, r3
100004f6:	ec43 0040 	gpioc_bit_out_put r0, r3
100004fa:	2505      	movs	r5, #5
100004fc:	f44f 7480 	mov.w	r4, #256	@ 0x100
10000500:	4b0b      	ldr	r3, [pc, #44]	@ (10000530 <gpio_init+0x44>)
10000502:	00c2      	lsls	r2, r0, #3
10000504:	f853 1020 	ldr.w	r1, [r3, r0, lsl #2]
10000508:	eb03 0080 	add.w	r0, r3, r0, lsl #2
1000050c:	f081 0140 	eor.w	r1, r1, #64	@ 0x40
10000510:	f102 4380 	add.w	r3, r2, #1073741824	@ 0x40000000
10000514:	f503 3320 	add.w	r3, r3, #163840	@ 0x28000
10000518:	f001 02c0 	and.w	r2, r1, #192	@ 0xc0
1000051c:	f500 5180 	add.w	r1, r0, #4096	@ 0x1000
10000520:	f500 5040 	add.w	r0, r0, #12288	@ 0x3000
10000524:	600a      	str	r2, [r1, #0]
10000526:	605d      	str	r5, [r3, #4]
10000528:	6004      	str	r4, [r0, #0]
1000052a:	bc30      	pop	{r4, r5}
1000052c:	4770      	bx	lr
1000052e:	bf00      	nop
10000530:	40038004 	.word	0x40038004

10000534 <panic>:
10000534:	b40f      	push	{r0, r1, r2, r3}
10000536:	b500      	push	{lr}
10000538:	b083      	sub	sp, #12
1000053a:	9c04      	ldr	r4, [sp, #16]
1000053c:	4807      	ldr	r0, [pc, #28]	@ (1000055c <panic+0x28>)
1000053e:	f002 fea9 	bl	10003294 <__wrap_puts>
10000542:	b13c      	cbz	r4, 10000554 <panic+0x20>
10000544:	a905      	add	r1, sp, #20
10000546:	4620      	mov	r0, r4
10000548:	9101      	str	r1, [sp, #4]
1000054a:	f002 fd15 	bl	10002f78 <weak_raw_vprintf>
1000054e:	4804      	ldr	r0, [pc, #16]	@ (10000560 <panic+0x2c>)
10000550:	f002 fea0 	bl	10003294 <__wrap_puts>
10000554:	2001      	movs	r0, #1
10000556:	f002 fd27 	bl	10002fa8 <_exit>
1000055a:	bf00      	nop
1000055c:	100037c0 	.word	0x100037c0
10000560:	100037d0 	.word	0x100037d0

10000564 <hw_claim_or_assert>:
10000564:	b570      	push	{r4, r5, r6, lr}
10000566:	4686      	mov	lr, r0
10000568:	f3ef 8510 	mrs	r5, PRIMASK
1000056c:	b672      	cpsid	i
1000056e:	4c12      	ldr	r4, [pc, #72]	@ (100005b8 <hw_claim_or_assert+0x54>)
10000570:	e8d4 6fcf 	ldaexb	r6, [r4]
10000574:	2001      	movs	r0, #1
10000576:	2e00      	cmp	r6, #0
10000578:	d1fa      	bne.n	10000570 <hw_claim_or_assert+0xc>
1000057a:	e8c4 0f46 	strexb	r6, r0, [r4]
1000057e:	2e00      	cmp	r6, #0
10000580:	d1f6      	bne.n	10000570 <hw_claim_or_assert+0xc>
10000582:	f3bf 8f5f 	dmb	sy
10000586:	f04f 0c01 	mov.w	ip, #1
1000058a:	08c8      	lsrs	r0, r1, #3
1000058c:	f001 0307 	and.w	r3, r1, #7
10000590:	fa0c f303 	lsl.w	r3, ip, r3
10000594:	f81e c000 	ldrb.w	ip, [lr, r0]
10000598:	ea1c 0603 	ands.w	r6, ip, r3
1000059c:	d108      	bne.n	100005b0 <hw_claim_or_assert+0x4c>
1000059e:	ea4c 0c03 	orr.w	ip, ip, r3
100005a2:	f80e c000 	strb.w	ip, [lr, r0]
100005a6:	e8c4 6f8f 	stlb	r6, [r4]
100005aa:	f385 8810 	msr	PRIMASK, r5
100005ae:	bd70      	pop	{r4, r5, r6, pc}
100005b0:	4610      	mov	r0, r2
100005b2:	f7ff ffbf 	bl	10000534 <panic>
100005b6:	bf00      	nop
100005b8:	200007bb 	.word	0x200007bb

100005bc <next_striped_spin_lock_num>:
100005bc:	4a04      	ldr	r2, [pc, #16]	@ (100005d0 <next_striped_spin_lock_num+0x14>)
100005be:	7810      	ldrb	r0, [r2, #0]
100005c0:	1c43      	adds	r3, r0, #1
100005c2:	b2db      	uxtb	r3, r3
100005c4:	2b18      	cmp	r3, #24
100005c6:	bf28      	it	cs
100005c8:	2310      	movcs	r3, #16
100005ca:	7013      	strb	r3, [r2, #0]
100005cc:	4770      	bx	lr
100005ce:	bf00      	nop
100005d0:	200005a8 	.word	0x200005a8

100005d4 <spinlock_set_extexclall>:
100005d4:	f04f 22e0 	mov.w	r2, #3758153728	@ 0xe000e000
100005d8:	6893      	ldr	r3, [r2, #8]
100005da:	f043 5300 	orr.w	r3, r3, #536870912	@ 0x20000000
100005de:	6093      	str	r3, [r2, #8]
100005e0:	4770      	bx	lr
100005e2:	bf00      	nop

100005e4 <spin_locks_reset>:
100005e4:	2100      	movs	r1, #0
100005e6:	4b04      	ldr	r3, [pc, #16]	@ (100005f8 <spin_locks_reset+0x14>)
100005e8:	f103 0220 	add.w	r2, r3, #32
100005ec:	e8c3 1f8f 	stlb	r1, [r3]
100005f0:	3301      	adds	r3, #1
100005f2:	4293      	cmp	r3, r2
100005f4:	d1fa      	bne.n	100005ec <spin_locks_reset+0x8>
100005f6:	4770      	bx	lr
100005f8:	200007b0 	.word	0x200007b0

100005fc <runtime_init_per_core_irq_priorities>:
100005fc:	f04f 23e0 	mov.w	r3, #3758153728	@ 0xe000e000
10000600:	f04f 3280 	mov.w	r2, #2155905152	@ 0x80808080
10000604:	f8c3 2400 	str.w	r2, [r3, #1024]	@ 0x400
10000608:	f8c3 2404 	str.w	r2, [r3, #1028]	@ 0x404
1000060c:	f8c3 2408 	str.w	r2, [r3, #1032]	@ 0x408
10000610:	f8c3 240c 	str.w	r2, [r3, #1036]	@ 0x40c
10000614:	f8c3 2410 	str.w	r2, [r3, #1040]	@ 0x410
10000618:	f8c3 2414 	str.w	r2, [r3, #1044]	@ 0x414
1000061c:	f8c3 2418 	str.w	r2, [r3, #1048]	@ 0x418
10000620:	f8c3 241c 	str.w	r2, [r3, #1052]	@ 0x41c
10000624:	f8c3 2420 	str.w	r2, [r3, #1056]	@ 0x420
10000628:	f8c3 2424 	str.w	r2, [r3, #1060]	@ 0x424
1000062c:	f8c3 2428 	str.w	r2, [r3, #1064]	@ 0x428
10000630:	f8c3 242c 	str.w	r2, [r3, #1068]	@ 0x42c
10000634:	f8c3 2430 	str.w	r2, [r3, #1072]	@ 0x430
10000638:	b662      	cpsie	i
1000063a:	4770      	bx	lr

1000063c <irq_set_enabled>:
1000063c:	2301      	movs	r3, #1
1000063e:	f000 021f 	and.w	r2, r0, #31
10000642:	4093      	lsls	r3, r2
10000644:	0940      	lsrs	r0, r0, #5
10000646:	b141      	cbz	r1, 1000065a <irq_set_enabled+0x1e>
10000648:	0080      	lsls	r0, r0, #2
1000064a:	f100 4060 	add.w	r0, r0, #3758096384	@ 0xe0000000
1000064e:	f500 4061 	add.w	r0, r0, #57600	@ 0xe100
10000652:	f8c0 3180 	str.w	r3, [r0, #384]	@ 0x180
10000656:	6003      	str	r3, [r0, #0]
10000658:	4770      	bx	lr
1000065a:	4a02      	ldr	r2, [pc, #8]	@ (10000664 <irq_set_enabled+0x28>)
1000065c:	3020      	adds	r0, #32
1000065e:	f842 3020 	str.w	r3, [r2, r0, lsl #2]
10000662:	4770      	bx	lr
10000664:	e000e100 	.word	0xe000e100

10000668 <irq_set_exclusive_handler>:
10000668:	b5f8      	push	{r3, r4, r5, r6, r7, lr}
1000066a:	460d      	mov	r5, r1
1000066c:	f3ef 8710 	mrs	r7, PRIMASK
10000670:	b672      	cpsid	i
10000672:	4e12      	ldr	r6, [pc, #72]	@ (100006bc <irq_set_exclusive_handler+0x54>)
10000674:	e8d6 2fcf 	ldaexb	r2, [r6]
10000678:	2301      	movs	r3, #1
1000067a:	2a00      	cmp	r2, #0
1000067c:	d1fa      	bne.n	10000674 <irq_set_exclusive_handler+0xc>
1000067e:	e8c6 3f42 	strexb	r2, r3, [r6]
10000682:	2a00      	cmp	r2, #0
10000684:	d1f6      	bne.n	10000674 <irq_set_exclusive_handler+0xc>
10000686:	f3bf 8f5f 	dmb	sy
1000068a:	4b0d      	ldr	r3, [pc, #52]	@ (100006c0 <irq_set_exclusive_handler+0x58>)
1000068c:	f100 0410 	add.w	r4, r0, #16
10000690:	689b      	ldr	r3, [r3, #8]
10000692:	4a0c      	ldr	r2, [pc, #48]	@ (100006c4 <irq_set_exclusive_handler+0x5c>)
10000694:	f853 3024 	ldr.w	r3, [r3, r4, lsl #2]
10000698:	4293      	cmp	r3, r2
1000069a:	d003      	beq.n	100006a4 <irq_set_exclusive_handler+0x3c>
1000069c:	4299      	cmp	r1, r3
1000069e:	d001      	beq.n	100006a4 <irq_set_exclusive_handler+0x3c>
100006a0:	f000 fe8e 	bl	100013c0 <hard_assertion_failure>
100006a4:	4b06      	ldr	r3, [pc, #24]	@ (100006c0 <irq_set_exclusive_handler+0x58>)
100006a6:	689b      	ldr	r3, [r3, #8]
100006a8:	f843 5024 	str.w	r5, [r3, r4, lsl #2]
100006ac:	f3bf 8f5f 	dmb	sy
100006b0:	2300      	movs	r3, #0
100006b2:	e8c6 3f8f 	stlb	r3, [r6]
100006b6:	f387 8810 	msr	PRIMASK, r7
100006ba:	bdf8      	pop	{r3, r4, r5, r6, r7, pc}
100006bc:	200007b9 	.word	0x200007b9
100006c0:	e000ed00 	.word	0xe000ed00
100006c4:	10000111 	.word	0x10000111

100006c8 <irq_remove_handler>:
100006c8:	e92d 4ff0 	stmdb	sp!, {r4, r5, r6, r7, r8, r9, sl, fp, lr}
100006cc:	b083      	sub	sp, #12
100006ce:	f3ef 8a10 	mrs	sl, PRIMASK
100006d2:	b672      	cpsid	i
100006d4:	4e71      	ldr	r6, [pc, #452]	@ (1000089c <irq_remove_handler+0x1d4>)
100006d6:	e8d6 2fcf 	ldaexb	r2, [r6]
100006da:	2301      	movs	r3, #1
100006dc:	2a00      	cmp	r2, #0
100006de:	d1fa      	bne.n	100006d6 <irq_remove_handler+0xe>
100006e0:	e8c6 3f42 	strexb	r2, r3, [r6]
100006e4:	2a00      	cmp	r2, #0
100006e6:	d1f6      	bne.n	100006d6 <irq_remove_handler+0xe>
100006e8:	f3bf 8f5f 	dmb	sy
100006ec:	4b6c      	ldr	r3, [pc, #432]	@ (100008a0 <irq_remove_handler+0x1d8>)
100006ee:	f100 0810 	add.w	r8, r0, #16
100006f2:	689b      	ldr	r3, [r3, #8]
100006f4:	4a6b      	ldr	r2, [pc, #428]	@ (100008a4 <irq_remove_handler+0x1dc>)
100006f6:	f853 5028 	ldr.w	r5, [r3, r8, lsl #2]
100006fa:	4295      	cmp	r5, r2
100006fc:	d045      	beq.n	1000078a <irq_remove_handler+0xc2>
100006fe:	428d      	cmp	r5, r1
10000700:	460c      	mov	r4, r1
10000702:	d050      	beq.n	100007a6 <irq_remove_handler+0xde>
10000704:	4f68      	ldr	r7, [pc, #416]	@ (100008a8 <irq_remove_handler+0x1e0>)
10000706:	1beb      	subs	r3, r5, r7
10000708:	2b2f      	cmp	r3, #47	@ 0x2f
1000070a:	d83e      	bhi.n	1000078a <irq_remove_handler+0xc2>
1000070c:	2101      	movs	r1, #1
1000070e:	ea4f 1950 	mov.w	r9, r0, lsr #5
10000712:	ea4f 0989 	mov.w	r9, r9, lsl #2
10000716:	f109 4960 	add.w	r9, r9, #3758096384	@ 0xe0000000
1000071a:	f509 4961 	add.w	r9, r9, #57600	@ 0xe100
1000071e:	f000 031f 	and.w	r3, r0, #31
10000722:	fa01 f003 	lsl.w	r0, r1, r3
10000726:	f8d9 3000 	ldr.w	r3, [r9]
1000072a:	f8c9 0080 	str.w	r0, [r9, #128]	@ 0x80
1000072e:	ea00 0b03 	and.w	fp, r0, r3
10000732:	f3bf 8f5f 	dmb	sy
10000736:	f3ef 8105 	mrs	r1, IPSR
1000073a:	b2c9      	uxtb	r1, r1
1000073c:	2900      	cmp	r1, #0
1000073e:	d034      	beq.n	100007aa <irq_remove_handler+0xe2>
10000740:	4588      	cmp	r8, r1
10000742:	d005      	beq.n	10000750 <irq_remove_handler+0x88>
10000744:	e9cd 1000 	strd	r1, r0, [sp]
10000748:	f000 fe3a 	bl	100013c0 <hard_assertion_failure>
1000074c:	e9dd 1000 	ldrd	r1, r0, [sp]
10000750:	f025 0e01 	bic.w	lr, r5, #1
10000754:	f8de c008 	ldr.w	ip, [lr, #8]
10000758:	4564      	cmp	r4, ip
1000075a:	d105      	bne.n	10000768 <irq_remove_handler+0xa0>
1000075c:	e089      	b.n	10000872 <irq_remove_handler+0x1aa>
1000075e:	f8d3 c008 	ldr.w	ip, [r3, #8]
10000762:	4564      	cmp	r4, ip
10000764:	d031      	beq.n	100007ca <irq_remove_handler+0x102>
10000766:	469e      	mov	lr, r3
10000768:	f99e 2006 	ldrsb.w	r2, [lr, #6]
1000076c:	eb02 0342 	add.w	r3, r2, r2, lsl #1
10000770:	2a00      	cmp	r2, #0
10000772:	eb07 0383 	add.w	r3, r7, r3, lsl #2
10000776:	daf2      	bge.n	1000075e <irq_remove_handler+0x96>
10000778:	4564      	cmp	r4, ip
1000077a:	d061      	beq.n	10000840 <irq_remove_handler+0x178>
1000077c:	f1bb 0f00 	cmp.w	fp, #0
10000780:	d020      	beq.n	100007c4 <irq_remove_handler+0xfc>
10000782:	f8c9 0180 	str.w	r0, [r9, #384]	@ 0x180
10000786:	f8c9 0000 	str.w	r0, [r9]
1000078a:	4b45      	ldr	r3, [pc, #276]	@ (100008a0 <irq_remove_handler+0x1d8>)
1000078c:	689b      	ldr	r3, [r3, #8]
1000078e:	f843 5028 	str.w	r5, [r3, r8, lsl #2]
10000792:	f3bf 8f5f 	dmb	sy
10000796:	2300      	movs	r3, #0
10000798:	e8c6 3f8f 	stlb	r3, [r6]
1000079c:	f38a 8810 	msr	PRIMASK, sl
100007a0:	b003      	add	sp, #12
100007a2:	e8bd 8ff0 	ldmia.w	sp!, {r4, r5, r6, r7, r8, r9, sl, fp, pc}
100007a6:	4615      	mov	r5, r2
100007a8:	e7ef      	b.n	1000078a <irq_remove_handler+0xc2>
100007aa:	f025 0e01 	bic.w	lr, r5, #1
100007ae:	f8de c008 	ldr.w	ip, [lr, #8]
100007b2:	4564      	cmp	r4, ip
100007b4:	d1d8      	bne.n	10000768 <irq_remove_handler+0xa0>
100007b6:	f99e 4006 	ldrsb.w	r4, [lr, #6]
100007ba:	4673      	mov	r3, lr
100007bc:	2c00      	cmp	r4, #0
100007be:	da08      	bge.n	100007d2 <irq_remove_handler+0x10a>
100007c0:	4615      	mov	r5, r2
100007c2:	e046      	b.n	10000852 <irq_remove_handler+0x18a>
100007c4:	f8c9 0080 	str.w	r0, [r9, #128]	@ 0x80
100007c8:	e7df      	b.n	1000078a <irq_remove_handler+0xc2>
100007ca:	f993 4006 	ldrsb.w	r4, [r3, #6]
100007ce:	2c00      	cmp	r4, #0
100007d0:	db37      	blt.n	10000842 <irq_remove_handler+0x17a>
100007d2:	eb04 0c44 	add.w	ip, r4, r4, lsl #1
100007d6:	eb07 0c8c 	add.w	ip, r7, ip, lsl #2
100007da:	f89c 1007 	ldrb.w	r1, [ip, #7]
100007de:	f8dc 2008 	ldr.w	r2, [ip, #8]
100007e2:	71d9      	strb	r1, [r3, #7]
100007e4:	609a      	str	r2, [r3, #8]
100007e6:	f99c 2006 	ldrsb.w	r2, [ip, #6]
100007ea:	0061      	lsls	r1, r4, #1
100007ec:	2a00      	cmp	r2, #0
100007ee:	719a      	strb	r2, [r3, #6]
100007f0:	db3d      	blt.n	1000086e <irq_remove_handler+0x1a6>
100007f2:	f8bc e004 	ldrh.w	lr, [ip, #4]
100007f6:	ea5f 5e4e 	movs.w	lr, lr, lsl #21
100007fa:	d505      	bpl.n	10000808 <irq_remove_handler+0x140>
100007fc:	f50e 1eff 	add.w	lr, lr, #2088960	@ 0x1fe000
10000800:	f50e 5eff 	add.w	lr, lr, #8160	@ 0x1fe0
10000804:	f10e 0e1f 	add.w	lr, lr, #31
10000808:	f06f 0c07 	mvn.w	ip, #7
1000080c:	190a      	adds	r2, r1, r4
1000080e:	ea4f 5e6e 	mov.w	lr, lr, asr #21
10000812:	0092      	lsls	r2, r2, #2
10000814:	eb02 024e 	add.w	r2, r2, lr, lsl #1
10000818:	3208      	adds	r2, #8
1000081a:	443a      	add	r2, r7
1000081c:	ebac 0c03 	sub.w	ip, ip, r3
10000820:	4462      	add	r2, ip
10000822:	f3c2 024a 	ubfx	r2, r2, #1, #11
10000826:	ea6f 42c2 	mvn.w	r2, r2, lsl #19
1000082a:	ea6f 42d2 	mvn.w	r2, r2, lsr #19
1000082e:	809a      	strh	r2, [r3, #4]
10000830:	4b1e      	ldr	r3, [pc, #120]	@ (100008ac <irq_remove_handler+0x1e4>)
10000832:	4421      	add	r1, r4
10000834:	781a      	ldrb	r2, [r3, #0]
10000836:	eb07 0181 	add.w	r1, r7, r1, lsl #2
1000083a:	701c      	strb	r4, [r3, #0]
1000083c:	718a      	strb	r2, [r1, #6]
1000083e:	e79d      	b.n	1000077c <irq_remove_handler+0xb4>
10000840:	4673      	mov	r3, lr
10000842:	b9d9      	cbnz	r1, 1000087c <irq_remove_handler+0x1b4>
10000844:	22ff      	movs	r2, #255	@ 0xff
10000846:	f88e 2006 	strb.w	r2, [lr, #6]
1000084a:	f64b 5201 	movw	r2, #48385	@ 0xbd01
1000084e:	f8ae 2004 	strh.w	r2, [lr, #4]
10000852:	4c16      	ldr	r4, [pc, #88]	@ (100008ac <irq_remove_handler+0x1e4>)
10000854:	f64a 22aa 	movw	r2, #43690	@ 0xaaaa
10000858:	f894 c000 	ldrb.w	ip, [r4]
1000085c:	4619      	mov	r1, r3
1000085e:	1bc9      	subs	r1, r1, r7
10000860:	4149      	adcs	r1, r1
10000862:	434a      	muls	r2, r1
10000864:	0d12      	lsrs	r2, r2, #20
10000866:	f883 c006 	strb.w	ip, [r3, #6]
1000086a:	7022      	strb	r2, [r4, #0]
1000086c:	e786      	b.n	1000077c <irq_remove_handler+0xb4>
1000086e:	4a10      	ldr	r2, [pc, #64]	@ (100008b0 <irq_remove_handler+0x1e8>)
10000870:	e7dd      	b.n	1000082e <irq_remove_handler+0x166>
10000872:	f99e 4006 	ldrsb.w	r4, [lr, #6]
10000876:	4673      	mov	r3, lr
10000878:	2c00      	cmp	r4, #0
1000087a:	daaa      	bge.n	100007d2 <irq_remove_handler+0x10a>
1000087c:	4a0d      	ldr	r2, [pc, #52]	@ (100008b4 <irq_remove_handler+0x1ec>)
1000087e:	4c0e      	ldr	r4, [pc, #56]	@ (100008b8 <irq_remove_handler+0x1f0>)
10000880:	1ad2      	subs	r2, r2, r3
10000882:	3a08      	subs	r2, #8
10000884:	f3c2 310a 	ubfx	r1, r2, #12, #11
10000888:	ea6f 5101 	mvn.w	r1, r1, lsl #20
1000088c:	ea6f 5111 	mvn.w	r1, r1, lsr #20
10000890:	ea44 0252 	orr.w	r2, r4, r2, lsr #1
10000894:	80da      	strh	r2, [r3, #6]
10000896:	8099      	strh	r1, [r3, #4]
10000898:	e770      	b.n	1000077c <irq_remove_handler+0xb4>
1000089a:	bf00      	nop
1000089c:	200007b9 	.word	0x200007b9
100008a0:	e000ed00 	.word	0xe000ed00
100008a4:	10000111 	.word	0x10000111
100008a8:	200005ac 	.word	0x200005ac
100008ac:	20000858 	.word	0x20000858
100008b0:	ffffbd01 	.word	0xffffbd01
100008b4:	200005e6 	.word	0x200005e6
100008b8:	fffff800 	.word	0xfffff800

100008bc <irq_add_tail_to_free_list>:
100008bc:	b5f0      	push	{r4, r5, r6, r7, lr}
100008be:	f3ef 8505 	mrs	r5, IPSR
100008c2:	b2ed      	uxtb	r5, r5
100008c4:	f3ef 8c10 	mrs	ip, PRIMASK
100008c8:	b672      	cpsid	i
100008ca:	4926      	ldr	r1, [pc, #152]	@ (10000964 <irq_add_tail_to_free_list+0xa8>)
100008cc:	e8d1 2fcf 	ldaexb	r2, [r1]
100008d0:	2301      	movs	r3, #1
100008d2:	2a00      	cmp	r2, #0
100008d4:	d1fa      	bne.n	100008cc <irq_add_tail_to_free_list+0x10>
100008d6:	e8c1 3f42 	strexb	r2, r3, [r1]
100008da:	2a00      	cmp	r2, #0
100008dc:	d1f6      	bne.n	100008cc <irq_add_tail_to_free_list+0x10>
100008de:	f3bf 8f5f 	dmb	sy
100008e2:	4e21      	ldr	r6, [pc, #132]	@ (10000968 <irq_add_tail_to_free_list+0xac>)
100008e4:	f040 0e01 	orr.w	lr, r0, #1
100008e8:	68b4      	ldr	r4, [r6, #8]
100008ea:	f64a 23aa 	movw	r3, #43690	@ 0xaaaa
100008ee:	f854 7025 	ldr.w	r7, [r4, r5, lsl #2]
100008f2:	4a1e      	ldr	r2, [pc, #120]	@ (1000096c <irq_add_tail_to_free_list+0xb0>)
100008f4:	4604      	mov	r4, r0
100008f6:	1aa4      	subs	r4, r4, r2
100008f8:	4164      	adcs	r4, r4
100008fa:	4363      	muls	r3, r4
100008fc:	0d1b      	lsrs	r3, r3, #20
100008fe:	4577      	cmp	r7, lr
10000900:	b25b      	sxtb	r3, r3
10000902:	d01b      	beq.n	1000093c <irq_add_tail_to_free_list+0x80>
10000904:	f992 4006 	ldrsb.w	r4, [r2, #6]
10000908:	429c      	cmp	r4, r3
1000090a:	d01c      	beq.n	10000946 <irq_add_tail_to_free_list+0x8a>
1000090c:	f992 4012 	ldrsb.w	r4, [r2, #18]
10000910:	429c      	cmp	r4, r3
10000912:	d023      	beq.n	1000095c <irq_add_tail_to_free_list+0xa0>
10000914:	f992 401e 	ldrsb.w	r4, [r2, #30]
10000918:	429c      	cmp	r4, r3
1000091a:	d021      	beq.n	10000960 <irq_add_tail_to_free_list+0xa4>
1000091c:	f992 402a 	ldrsb.w	r4, [r2, #42]	@ 0x2a
10000920:	429c      	cmp	r4, r3
10000922:	bf08      	it	eq
10000924:	2403      	moveq	r4, #3
10000926:	d00f      	beq.n	10000948 <irq_add_tail_to_free_list+0x8c>
10000928:	4a11      	ldr	r2, [pc, #68]	@ (10000970 <irq_add_tail_to_free_list+0xb4>)
1000092a:	2400      	movs	r4, #0
1000092c:	7815      	ldrb	r5, [r2, #0]
1000092e:	7013      	strb	r3, [r2, #0]
10000930:	7185      	strb	r5, [r0, #6]
10000932:	e8c1 4f8f 	stlb	r4, [r1]
10000936:	f38c 8810 	msr	PRIMASK, ip
1000093a:	bdf0      	pop	{r4, r5, r6, r7, pc}
1000093c:	68b2      	ldr	r2, [r6, #8]
1000093e:	4c0d      	ldr	r4, [pc, #52]	@ (10000974 <irq_add_tail_to_free_list+0xb8>)
10000940:	f842 4025 	str.w	r4, [r2, r5, lsl #2]
10000944:	e7f0      	b.n	10000928 <irq_add_tail_to_free_list+0x6c>
10000946:	2400      	movs	r4, #0
10000948:	eb04 0444 	add.w	r4, r4, r4, lsl #1
1000094c:	eb02 0284 	add.w	r2, r2, r4, lsl #2
10000950:	24ff      	movs	r4, #255	@ 0xff
10000952:	7194      	strb	r4, [r2, #6]
10000954:	f64b 5401 	movw	r4, #48385	@ 0xbd01
10000958:	8094      	strh	r4, [r2, #4]
1000095a:	e7e5      	b.n	10000928 <irq_add_tail_to_free_list+0x6c>
1000095c:	2401      	movs	r4, #1
1000095e:	e7f3      	b.n	10000948 <irq_add_tail_to_free_list+0x8c>
10000960:	2402      	movs	r4, #2
10000962:	e7f1      	b.n	10000948 <irq_add_tail_to_free_list+0x8c>
10000964:	200007b9 	.word	0x200007b9
10000968:	e000ed00 	.word	0xe000ed00
1000096c:	200005ac 	.word	0x200005ac
10000970:	20000858 	.word	0x20000858
10000974:	10000111 	.word	0x10000111

10000978 <lock_init>:
10000978:	4b01      	ldr	r3, [pc, #4]	@ (10000980 <lock_init+0x8>)
1000097a:	440b      	add	r3, r1
1000097c:	6003      	str	r3, [r0, #0]
1000097e:	4770      	bx	lr
10000980:	200007b0 	.word	0x200007b0

10000984 <runtime_init_mutex>:
10000984:	b570      	push	{r4, r5, r6, lr}
10000986:	4c10      	ldr	r4, [pc, #64]	@ (100009c8 <runtime_init_mutex+0x44>)
10000988:	4d10      	ldr	r5, [pc, #64]	@ (100009cc <runtime_init_mutex+0x48>)
1000098a:	42ac      	cmp	r4, r5
1000098c:	d20e      	bcs.n	100009ac <runtime_init_mutex+0x28>
1000098e:	26ff      	movs	r6, #255	@ 0xff
10000990:	6823      	ldr	r3, [r4, #0]
10000992:	b163      	cbz	r3, 100009ae <runtime_init_mutex+0x2a>
10000994:	f7ff fe12 	bl	100005bc <next_striped_spin_lock_num>
10000998:	4601      	mov	r1, r0
1000099a:	4620      	mov	r0, r4
1000099c:	f7ff ffec 	bl	10000978 <lock_init>
100009a0:	80a6      	strh	r6, [r4, #4]
100009a2:	f3bf 8f5f 	dmb	sy
100009a6:	3408      	adds	r4, #8
100009a8:	42ac      	cmp	r4, r5
100009aa:	d3f1      	bcc.n	10000990 <runtime_init_mutex+0xc>
100009ac:	bd70      	pop	{r4, r5, r6, pc}
100009ae:	f7ff fe05 	bl	100005bc <next_striped_spin_lock_num>
100009b2:	4601      	mov	r1, r0
100009b4:	4620      	mov	r0, r4
100009b6:	f7ff ffdf 	bl	10000978 <lock_init>
100009ba:	7126      	strb	r6, [r4, #4]
100009bc:	f3bf 8f5f 	dmb	sy
100009c0:	3408      	adds	r4, #8
100009c2:	42ac      	cmp	r4, r5
100009c4:	d3e4      	bcc.n	10000990 <runtime_init_mutex+0xc>
100009c6:	bd70      	pop	{r4, r5, r6, pc}
100009c8:	20000624 	.word	0x20000624
100009cc:	2000062c 	.word	0x2000062c

100009d0 <sleep_until_callback>:
100009d0:	4b0d      	ldr	r3, [pc, #52]	@ (10000a08 <sleep_until_callback+0x38>)
100009d2:	681a      	ldr	r2, [r3, #0]
100009d4:	f3ef 8110 	mrs	r1, PRIMASK
100009d8:	b672      	cpsid	i
100009da:	e8d2 cfcf 	ldaexb	ip, [r2]
100009de:	2001      	movs	r0, #1
100009e0:	f1bc 0f00 	cmp.w	ip, #0
100009e4:	d1f9      	bne.n	100009da <sleep_until_callback+0xa>
100009e6:	e8c2 0f4c 	strexb	ip, r0, [r2]
100009ea:	f1bc 0f00 	cmp.w	ip, #0
100009ee:	d1f4      	bne.n	100009da <sleep_until_callback+0xa>
100009f0:	f3bf 8f5f 	dmb	sy
100009f4:	2200      	movs	r2, #0
100009f6:	681b      	ldr	r3, [r3, #0]
100009f8:	e8c3 2f8f 	stlb	r2, [r3]
100009fc:	f381 8810 	msr	PRIMASK, r1
10000a00:	bf40      	sev
10000a02:	2000      	movs	r0, #0
10000a04:	2100      	movs	r1, #0
10000a06:	4770      	bx	lr
10000a08:	2000084c 	.word	0x2000084c
10000a0c:	00000000 	.word	0x00000000

10000a10 <alarm_pool_irq_handler>:
10000a10:	e92d 4ff0 	stmdb	sp!, {r4, r5, r6, r7, r8, r9, sl, fp, lr}
10000a14:	ed2d 8b02 	vpush	{d8}
10000a18:	b085      	sub	sp, #20
10000a1a:	f3ef 8305 	mrs	r3, IPSR
10000a1e:	b2db      	uxtb	r3, r3
10000a20:	3b10      	subs	r3, #16
10000a22:	089a      	lsrs	r2, r3, #2
10000a24:	bf18      	it	ne
10000a26:	2201      	movne	r2, #1
10000a28:	f04f 0101 	mov.w	r1, #1
10000a2c:	f003 0b03 	and.w	fp, r3, #3
10000a30:	bf18      	it	ne
10000a32:	4daf      	ldrne	r5, [pc, #700]	@ (10000cf0 <alarm_pool_irq_handler+0x2e0>)
10000a34:	4baf      	ldr	r3, [pc, #700]	@ (10000cf4 <alarm_pool_irq_handler+0x2e4>)
10000a36:	bf08      	it	eq
10000a38:	4daf      	ldreq	r5, [pc, #700]	@ (10000cf8 <alarm_pool_irq_handler+0x2e8>)
10000a3a:	eb0b 0282 	add.w	r2, fp, r2, lsl #2
10000a3e:	f853 6022 	ldr.w	r6, [r3, r2, lsl #2]
10000a42:	fa01 f20b 	lsl.w	r2, r1, fp
10000a46:	f505 5341 	add.w	r3, r5, #12352	@ 0x3040
10000a4a:	ed9f 8ba7 	vldr	d8, [pc, #668]	@ 10000ce8 <alarm_pool_irq_handler+0x2d8>
10000a4e:	9201      	str	r2, [sp, #4]
10000a50:	605a      	str	r2, [r3, #4]
10000a52:	e02f      	b.n	10000ab4 <alarm_pool_irq_handler+0xa4>
10000a54:	88b3      	ldrh	r3, [r6, #4]
10000a56:	041c      	lsls	r4, r3, #16
10000a58:	f140 8093 	bpl.w	10000b82 <alarm_pool_irq_handler+0x172>
10000a5c:	79b3      	ldrb	r3, [r6, #6]
10000a5e:	2b00      	cmp	r3, #0
10000a60:	f040 80dd 	bne.w	10000c1e <alarm_pool_irq_handler+0x20e>
10000a64:	f9b6 2008 	ldrsh.w	r2, [r6, #8]
10000a68:	2a00      	cmp	r2, #0
10000a6a:	f2c0 811e 	blt.w	10000caa <alarm_pool_irq_handler+0x29a>
10000a6e:	6973      	ldr	r3, [r6, #20]
10000a70:	eb02 0242 	add.w	r2, r2, r2, lsl #1
10000a74:	eb03 03c2 	add.w	r3, r3, r2, lsl #3
10000a78:	e9d3 4702 	ldrd	r4, r7, [r3, #8]
10000a7c:	f1b7 3fff 	cmp.w	r7, #4294967295
10000a80:	bf08      	it	eq
10000a82:	f1b4 3fff 	cmpeq.w	r4, #4294967295
10000a86:	d00e      	beq.n	10000aa6 <alarm_pool_irq_handler+0x96>
10000a88:	eb05 018b 	add.w	r1, r5, fp, lsl #2
10000a8c:	6aab      	ldr	r3, [r5, #40]	@ 0x28
10000a8e:	690a      	ldr	r2, [r1, #16]
10000a90:	1ad2      	subs	r2, r2, r3
10000a92:	1ae3      	subs	r3, r4, r3
10000a94:	4293      	cmp	r3, r2
10000a96:	d305      	bcc.n	10000aa4 <alarm_pool_irq_handler+0x94>
10000a98:	2301      	movs	r3, #1
10000a9a:	6a2a      	ldr	r2, [r5, #32]
10000a9c:	fa03 f30b 	lsl.w	r3, r3, fp
10000aa0:	4213      	tst	r3, r2
10000aa2:	d100      	bne.n	10000aa6 <alarm_pool_irq_handler+0x96>
10000aa4:	610c      	str	r4, [r1, #16]
10000aa6:	4628      	mov	r0, r5
10000aa8:	f000 faca 	bl	10001040 <timer_time_us_64>
10000aac:	42a0      	cmp	r0, r4
10000aae:	41b9      	sbcs	r1, r7
10000ab0:	f2c0 80fb 	blt.w	10000caa <alarm_pool_irq_handler+0x29a>
10000ab4:	f9b6 3008 	ldrsh.w	r3, [r6, #8]
10000ab8:	9a01      	ldr	r2, [sp, #4]
10000aba:	2b00      	cmp	r3, #0
10000abc:	9300      	str	r3, [sp, #0]
10000abe:	63ea      	str	r2, [r5, #60]	@ 0x3c
10000ac0:	dbc8      	blt.n	10000a54 <alarm_pool_irq_handler+0x44>
10000ac2:	f8d6 8014 	ldr.w	r8, [r6, #20]
10000ac6:	eb03 0943 	add.w	r9, r3, r3, lsl #1
10000aca:	4628      	mov	r0, r5
10000acc:	eb08 07c9 	add.w	r7, r8, r9, lsl #3
10000ad0:	e9d7 4a02 	ldrd	r4, sl, [r7, #8]
10000ad4:	f000 fab4 	bl	10001040 <timer_time_us_64>
10000ad8:	42a0      	cmp	r0, r4
10000ada:	eb71 010a 	sbcs.w	r1, r1, sl
10000ade:	dbb9      	blt.n	10000a54 <alarm_pool_irq_handler+0x44>
10000ae0:	f1ba 0f00 	cmp.w	sl, #0
10000ae4:	f2c0 80c3 	blt.w	10000c6e <alarm_pool_irq_handler+0x25e>
10000ae8:	e9d7 3104 	ldrd	r3, r1, [r7, #16]
10000aec:	4a83      	ldr	r2, [pc, #524]	@ (10000cfc <alarm_pool_irq_handler+0x2ec>)
10000aee:	4293      	cmp	r3, r2
10000af0:	f000 80ed 	beq.w	10000cce <alarm_pool_irq_handler+0x2be>
10000af4:	887a      	ldrh	r2, [r7, #2]
10000af6:	f9b6 0008 	ldrsh.w	r0, [r6, #8]
10000afa:	b292      	uxth	r2, r2
10000afc:	ea42 4000 	orr.w	r0, r2, r0, lsl #16
10000b00:	4798      	blx	r3
10000b02:	4602      	mov	r2, r0
10000b04:	460b      	mov	r3, r1
10000b06:	ea52 0103 	orrs.w	r1, r2, r3
10000b0a:	f000 80b0 	beq.w	10000c6e <alarm_pool_irq_handler+0x25e>
10000b0e:	2b00      	cmp	r3, #0
10000b10:	f280 80d1 	bge.w	10000cb6 <alarm_pool_irq_handler+0x2a6>
10000b14:	ebb4 0e02 	subs.w	lr, r4, r2
10000b18:	eb6a 0a03 	sbc.w	sl, sl, r3
10000b1c:	f938 3039 	ldrsh.w	r3, [r8, r9, lsl #3]
10000b20:	e9c7 ea02 	strd	lr, sl, [r7, #8]
10000b24:	2b00      	cmp	r3, #0
10000b26:	db95      	blt.n	10000a54 <alarm_pool_irq_handler+0x44>
10000b28:	6971      	ldr	r1, [r6, #20]
10000b2a:	eb03 0243 	add.w	r2, r3, r3, lsl #1
10000b2e:	eb01 02c2 	add.w	r2, r1, r2, lsl #3
10000b32:	e9d2 7002 	ldrd	r7, r0, [r2, #8]
10000b36:	45be      	cmp	lr, r7
10000b38:	eb7a 0c00 	sbcs.w	ip, sl, r0
10000b3c:	ea4f 0243 	mov.w	r2, r3, lsl #1
10000b40:	db88      	blt.n	10000a54 <alarm_pool_irq_handler+0x44>
10000b42:	46b4      	mov	ip, r6
10000b44:	f82c 3f08 	strh.w	r3, [ip, #8]!
10000b48:	e006      	b.n	10000b58 <alarm_pool_irq_handler+0x148>
10000b4a:	eb03 0043 	add.w	r0, r3, r3, lsl #1
10000b4e:	eb01 00c0 	add.w	r0, r1, r0, lsl #3
10000b52:	005a      	lsls	r2, r3, #1
10000b54:	e9d0 7002 	ldrd	r7, r0, [r0, #8]
10000b58:	45be      	cmp	lr, r7
10000b5a:	441a      	add	r2, r3
10000b5c:	eb7a 0000 	sbcs.w	r0, sl, r0
10000b60:	eb01 04c2 	add.w	r4, r1, r2, lsl #3
10000b64:	db04      	blt.n	10000b70 <alarm_pool_irq_handler+0x160>
10000b66:	f931 3032 	ldrsh.w	r3, [r1, r2, lsl #3]
10000b6a:	46a4      	mov	ip, r4
10000b6c:	2b00      	cmp	r3, #0
10000b6e:	daec      	bge.n	10000b4a <alarm_pool_irq_handler+0x13a>
10000b70:	f828 3039 	strh.w	r3, [r8, r9, lsl #3]
10000b74:	9b00      	ldr	r3, [sp, #0]
10000b76:	f8ac 3000 	strh.w	r3, [ip]
10000b7a:	88b3      	ldrh	r3, [r6, #4]
10000b7c:	041c      	lsls	r4, r3, #16
10000b7e:	f53f af6d 	bmi.w	10000a5c <alarm_pool_irq_handler+0x4c>
10000b82:	6933      	ldr	r3, [r6, #16]
10000b84:	f3ef 8210 	mrs	r2, PRIMASK
10000b88:	b672      	cpsid	i
10000b8a:	e8d3 0fcf 	ldaexb	r0, [r3]
10000b8e:	2101      	movs	r1, #1
10000b90:	2800      	cmp	r0, #0
10000b92:	d1fa      	bne.n	10000b8a <alarm_pool_irq_handler+0x17a>
10000b94:	e8c3 1f40 	strexb	r0, r1, [r3]
10000b98:	2800      	cmp	r0, #0
10000b9a:	d1f6      	bne.n	10000b8a <alarm_pool_irq_handler+0x17a>
10000b9c:	f3bf 8f5f 	dmb	sy
10000ba0:	f64f 74ff 	movw	r4, #65535	@ 0xffff
10000ba4:	88b0      	ldrh	r0, [r6, #4]
10000ba6:	2300      	movs	r3, #0
10000ba8:	6931      	ldr	r1, [r6, #16]
10000baa:	b200      	sxth	r0, r0
10000bac:	80b4      	strh	r4, [r6, #4]
10000bae:	e8c1 3f8f 	stlb	r3, [r1]
10000bb2:	f382 8810 	msr	PRIMASK, r2
10000bb6:	4298      	cmp	r0, r3
10000bb8:	f6ff af50 	blt.w	10000a5c <alarm_pool_irq_handler+0x4c>
10000bbc:	4607      	mov	r7, r0
10000bbe:	46a9      	mov	r9, r5
10000bc0:	6974      	ldr	r4, [r6, #20]
10000bc2:	f106 0808 	add.w	r8, r6, #8
10000bc6:	eb07 0e47 	add.w	lr, r7, r7, lsl #1
10000bca:	eb04 03ce 	add.w	r3, r4, lr, lsl #3
10000bce:	e9d3 5002 	ldrd	r5, r0, [r3, #8]
10000bd2:	f9b6 3008 	ldrsh.w	r3, [r6, #8]
10000bd6:	46c4      	mov	ip, r8
10000bd8:	2b00      	cmp	r3, #0
10000bda:	db13      	blt.n	10000c04 <alarm_pool_irq_handler+0x1f4>
10000bdc:	46b2      	mov	sl, r6
10000bde:	9700      	str	r7, [sp, #0]
10000be0:	e004      	b.n	10000bec <alarm_pool_irq_handler+0x1dc>
10000be2:	f934 3036 	ldrsh.w	r3, [r4, r6, lsl #3]
10000be6:	4694      	mov	ip, r2
10000be8:	2b00      	cmp	r3, #0
10000bea:	db09      	blt.n	10000c00 <alarm_pool_irq_handler+0x1f0>
10000bec:	eb03 0643 	add.w	r6, r3, r3, lsl #1
10000bf0:	eb04 02c6 	add.w	r2, r4, r6, lsl #3
10000bf4:	e9d2 7102 	ldrd	r7, r1, [r2, #8]
10000bf8:	42bd      	cmp	r5, r7
10000bfa:	eb70 0101 	sbcs.w	r1, r0, r1
10000bfe:	daf0      	bge.n	10000be2 <alarm_pool_irq_handler+0x1d2>
10000c00:	4656      	mov	r6, sl
10000c02:	9f00      	ldr	r7, [sp, #0]
10000c04:	f8ac 7000 	strh.w	r7, [ip]
10000c08:	f934 703e 	ldrsh.w	r7, [r4, lr, lsl #3]
10000c0c:	f824 303e 	strh.w	r3, [r4, lr, lsl #3]
10000c10:	2f00      	cmp	r7, #0
10000c12:	dad8      	bge.n	10000bc6 <alarm_pool_irq_handler+0x1b6>
10000c14:	79b3      	ldrb	r3, [r6, #6]
10000c16:	464d      	mov	r5, r9
10000c18:	2b00      	cmp	r3, #0
10000c1a:	f43f af23 	beq.w	10000a64 <alarm_pool_irq_handler+0x54>
10000c1e:	2300      	movs	r3, #0
10000c20:	71b3      	strb	r3, [r6, #6]
10000c22:	f9b6 3008 	ldrsh.w	r3, [r6, #8]
10000c26:	f106 0808 	add.w	r8, r6, #8
10000c2a:	1c58      	adds	r0, r3, #1
10000c2c:	d03d      	beq.n	10000caa <alarm_pool_irq_handler+0x29a>
10000c2e:	461a      	mov	r2, r3
10000c30:	6977      	ldr	r7, [r6, #20]
10000c32:	e003      	b.n	10000c3c <alarm_pool_irq_handler+0x22c>
10000c34:	4680      	mov	r8, r0
10000c36:	1c59      	adds	r1, r3, #1
10000c38:	f43f af16 	beq.w	10000a68 <alarm_pool_irq_handler+0x58>
10000c3c:	eb03 0143 	add.w	r1, r3, r3, lsl #1
10000c40:	eb07 00c1 	add.w	r0, r7, r1, lsl #3
10000c44:	f8b0 c002 	ldrh.w	ip, [r0, #2]
10000c48:	461c      	mov	r4, r3
10000c4a:	f41c 4f00 	tst.w	ip, #32768	@ 0x8000
10000c4e:	469e      	mov	lr, r3
10000c50:	f937 3031 	ldrsh.w	r3, [r7, r1, lsl #3]
10000c54:	d0ee      	beq.n	10000c34 <alarm_pool_irq_handler+0x224>
10000c56:	4294      	cmp	r4, r2
10000c58:	ed80 8b02 	vstr	d8, [r0, #8]
10000c5c:	d005      	beq.n	10000c6a <alarm_pool_irq_handler+0x25a>
10000c5e:	f8a8 3000 	strh.w	r3, [r8]
10000c62:	8932      	ldrh	r2, [r6, #8]
10000c64:	f827 2031 	strh.w	r2, [r7, r1, lsl #3]
10000c68:	8134      	strh	r4, [r6, #8]
10000c6a:	4672      	mov	r2, lr
10000c6c:	e7e3      	b.n	10000c36 <alarm_pool_irq_handler+0x226>
10000c6e:	f838 3039 	ldrh.w	r3, [r8, r9, lsl #3]
10000c72:	8133      	strh	r3, [r6, #8]
10000c74:	6933      	ldr	r3, [r6, #16]
10000c76:	f3ef 8210 	mrs	r2, PRIMASK
10000c7a:	b672      	cpsid	i
10000c7c:	e8d3 0fcf 	ldaexb	r0, [r3]
10000c80:	2101      	movs	r1, #1
10000c82:	2800      	cmp	r0, #0
10000c84:	d1fa      	bne.n	10000c7c <alarm_pool_irq_handler+0x26c>
10000c86:	e8c3 1f40 	strexb	r0, r1, [r3]
10000c8a:	2800      	cmp	r0, #0
10000c8c:	d1f6      	bne.n	10000c7c <alarm_pool_irq_handler+0x26c>
10000c8e:	f3bf 8f5f 	dmb	sy
10000c92:	8873      	ldrh	r3, [r6, #2]
10000c94:	6931      	ldr	r1, [r6, #16]
10000c96:	f828 3039 	strh.w	r3, [r8, r9, lsl #3]
10000c9a:	9b00      	ldr	r3, [sp, #0]
10000c9c:	8073      	strh	r3, [r6, #2]
10000c9e:	2300      	movs	r3, #0
10000ca0:	e8c1 3f8f 	stlb	r3, [r1]
10000ca4:	f382 8810 	msr	PRIMASK, r2
10000ca8:	e6d4      	b.n	10000a54 <alarm_pool_irq_handler+0x44>
10000caa:	bf40      	sev
10000cac:	b005      	add	sp, #20
10000cae:	ecbd 8b02 	vpop	{d8}
10000cb2:	e8bd 8ff0 	ldmia.w	sp!, {r4, r5, r6, r7, r8, r9, sl, fp, pc}
10000cb6:	4628      	mov	r0, r5
10000cb8:	e9cd 2302 	strd	r2, r3, [sp, #8]
10000cbc:	f000 f9c0 	bl	10001040 <timer_time_us_64>
10000cc0:	9a02      	ldr	r2, [sp, #8]
10000cc2:	9b03      	ldr	r3, [sp, #12]
10000cc4:	eb10 0e02 	adds.w	lr, r0, r2
10000cc8:	eb43 0a01 	adc.w	sl, r3, r1
10000ccc:	e726      	b.n	10000b1c <alarm_pool_irq_handler+0x10c>
10000cce:	4608      	mov	r0, r1
10000cd0:	690b      	ldr	r3, [r1, #16]
10000cd2:	9102      	str	r1, [sp, #8]
10000cd4:	4798      	blx	r3
10000cd6:	2800      	cmp	r0, #0
10000cd8:	d0c9      	beq.n	10000c6e <alarm_pool_irq_handler+0x25e>
10000cda:	9902      	ldr	r1, [sp, #8]
10000cdc:	e9d1 2300 	ldrd	r2, r3, [r1]
10000ce0:	e711      	b.n	10000b06 <alarm_pool_irq_handler+0xf6>
10000ce2:	bf00      	nop
10000ce4:	f3af 8000 	nop.w
10000ce8:	ffffffff 	.word	0xffffffff
10000cec:	ffffffff 	.word	0xffffffff
10000cf0:	400b8000 	.word	0x400b8000
10000cf4:	2000082c 	.word	0x2000082c
10000cf8:	400b0000 	.word	0x400b0000
10000cfc:	10000a11 	.word	0x10000a11

10000d00 <runtime_init_default_alarm_pool>:
10000d00:	e92d 4ff8 	stmdb	sp!, {r3, r4, r5, r6, r7, r8, r9, sl, fp, lr}
10000d04:	4c36      	ldr	r4, [pc, #216]	@ (10000de0 <runtime_init_default_alarm_pool+0xe0>)
10000d06:	6925      	ldr	r5, [r4, #16]
10000d08:	b12d      	cbz	r5, 10000d16 <runtime_init_default_alarm_pool+0x16>
10000d0a:	e8bd 4ff8 	ldmia.w	sp!, {r3, r4, r5, r6, r7, r8, r9, sl, fp, lr}
10000d0e:	210a      	movs	r1, #10
10000d10:	4834      	ldr	r0, [pc, #208]	@ (10000de4 <runtime_init_default_alarm_pool+0xe4>)
10000d12:	f7ff be31 	b.w	10000978 <lock_init>
10000d16:	f8df 80e4 	ldr.w	r8, [pc, #228]	@ 10000dfc <runtime_init_default_alarm_pool+0xfc>
10000d1a:	2103      	movs	r1, #3
10000d1c:	4640      	mov	r0, r8
10000d1e:	f000 f97d 	bl	1000101c <timer_hardware_alarm_claim>
10000d22:	2603      	movs	r6, #3
10000d24:	f8c4 800c 	str.w	r8, [r4, #12]
10000d28:	f7ff fc48 	bl	100005bc <next_striped_spin_lock_num>
10000d2c:	f04f 4c50 	mov.w	ip, #3489660928	@ 0xd0000000
10000d30:	4b2d      	ldr	r3, [pc, #180]	@ (10000de8 <runtime_init_default_alarm_pool+0xe8>)
10000d32:	7026      	strb	r6, [r4, #0]
10000d34:	4403      	add	r3, r0
10000d36:	6123      	str	r3, [r4, #16]
10000d38:	f8dc 3000 	ldr.w	r3, [ip]
10000d3c:	210f      	movs	r1, #15
10000d3e:	7063      	strb	r3, [r4, #1]
10000d40:	6963      	ldr	r3, [r4, #20]
10000d42:	8061      	strh	r1, [r4, #2]
10000d44:	831d      	strh	r5, [r3, #24]
10000d46:	f04f 0504 	mov.w	r5, #4
10000d4a:	f8a3 5078 	strh.w	r5, [r3, #120]	@ 0x78
10000d4e:	f04f 0505 	mov.w	r5, #5
10000d52:	f8a3 5090 	strh.w	r5, [r3, #144]	@ 0x90
10000d56:	f04f 0506 	mov.w	r5, #6
10000d5a:	f8a3 50a8 	strh.w	r5, [r3, #168]	@ 0xa8
10000d5e:	f04f 0507 	mov.w	r5, #7
10000d62:	210e      	movs	r1, #14
10000d64:	f64f 72ff 	movw	r2, #65535	@ 0xffff
10000d68:	2708      	movs	r7, #8
10000d6a:	f04f 0e0a 	mov.w	lr, #10
10000d6e:	f8a3 50c0 	strh.w	r5, [r3, #192]	@ 0xc0
10000d72:	f04f 0901 	mov.w	r9, #1
10000d76:	f04f 0c0c 	mov.w	ip, #12
10000d7a:	f04f 0b02 	mov.w	fp, #2
10000d7e:	f04f 0a09 	mov.w	sl, #9
10000d82:	200d      	movs	r0, #13
10000d84:	f04f 050b 	mov.w	r5, #11
10000d88:	f8a3 1168 	strh.w	r1, [r3, #360]	@ 0x168
10000d8c:	4917      	ldr	r1, [pc, #92]	@ (10000dec <runtime_init_default_alarm_pool+0xec>)
10000d8e:	80a2      	strh	r2, [r4, #4]
10000d90:	f8a3 e108 	strh.w	lr, [r3, #264]	@ 0x108
10000d94:	60a1      	str	r1, [r4, #8]
10000d96:	f8a3 b048 	strh.w	fp, [r3, #72]	@ 0x48
10000d9a:	f8a3 a0f0 	strh.w	sl, [r3, #240]	@ 0xf0
10000d9e:	f8a3 5120 	strh.w	r5, [r3, #288]	@ 0x120
10000da2:	f8a3 c138 	strh.w	ip, [r3, #312]	@ 0x138
10000da6:	f8a3 0150 	strh.w	r0, [r3, #336]	@ 0x150
10000daa:	f8a3 9030 	strh.w	r9, [r3, #48]	@ 0x30
10000dae:	f8a3 6060 	strh.w	r6, [r3, #96]	@ 0x60
10000db2:	f8a3 70d8 	strh.w	r7, [r3, #216]	@ 0xd8
10000db6:	801a      	strh	r2, [r3, #0]
10000db8:	4b0d      	ldr	r3, [pc, #52]	@ (10000df0 <runtime_init_default_alarm_pool+0xf0>)
10000dba:	4630      	mov	r0, r6
10000dbc:	f8c8 7020 	str.w	r7, [r8, #32]
10000dc0:	490c      	ldr	r1, [pc, #48]	@ (10000df4 <runtime_init_default_alarm_pool+0xf4>)
10000dc2:	60dc      	str	r4, [r3, #12]
10000dc4:	f7ff fc50 	bl	10000668 <irq_set_exclusive_handler>
10000dc8:	4649      	mov	r1, r9
10000dca:	4630      	mov	r0, r6
10000dcc:	f7ff fc36 	bl	1000063c <irq_set_enabled>
10000dd0:	4b09      	ldr	r3, [pc, #36]	@ (10000df8 <runtime_init_default_alarm_pool+0xf8>)
10000dd2:	210a      	movs	r1, #10
10000dd4:	641f      	str	r7, [r3, #64]	@ 0x40
10000dd6:	4803      	ldr	r0, [pc, #12]	@ (10000de4 <runtime_init_default_alarm_pool+0xe4>)
10000dd8:	e8bd 4ff8 	ldmia.w	sp!, {r3, r4, r5, r6, r7, r8, r9, sl, fp, lr}
10000ddc:	f7ff bdcc 	b.w	10000978 <lock_init>
10000de0:	200005f4 	.word	0x200005f4
10000de4:	2000084c 	.word	0x2000084c
10000de8:	200007b0 	.word	0x200007b0
10000dec:	0010ffff 	.word	0x0010ffff
10000df0:	2000082c 	.word	0x2000082c
10000df4:	10000a11 	.word	0x10000a11
10000df8:	400b2000 	.word	0x400b2000
10000dfc:	400b0000 	.word	0x400b0000

10000e00 <alarm_pool_add_alarm_at_force_in_context>:
10000e00:	4601      	mov	r1, r0
10000e02:	b5f0      	push	{r4, r5, r6, r7, lr}
10000e04:	6900      	ldr	r0, [r0, #16]
10000e06:	f3ef 8710 	mrs	r7, PRIMASK
10000e0a:	b672      	cpsid	i
10000e0c:	e8d0 5fcf 	ldaexb	r5, [r0]
10000e10:	2401      	movs	r4, #1
10000e12:	2d00      	cmp	r5, #0
10000e14:	d1fa      	bne.n	10000e0c <alarm_pool_add_alarm_at_force_in_context+0xc>
10000e16:	e8c0 4f45 	strexb	r5, r4, [r0]
10000e1a:	2d00      	cmp	r5, #0
10000e1c:	d1f6      	bne.n	10000e0c <alarm_pool_add_alarm_at_force_in_context+0xc>
10000e1e:	f3bf 8f5f 	dmb	sy
10000e22:	f9b1 e002 	ldrsh.w	lr, [r1, #2]
10000e26:	694c      	ldr	r4, [r1, #20]
10000e28:	eb0e 0c4e 	add.w	ip, lr, lr, lsl #1
10000e2c:	f1be 0f00 	cmp.w	lr, #0
10000e30:	ea4f 05cc 	mov.w	r5, ip, lsl #3
10000e34:	6908      	ldr	r0, [r1, #16]
10000e36:	eb04 0ccc 	add.w	ip, r4, ip, lsl #3
10000e3a:	db3c      	blt.n	10000eb6 <alarm_pool_add_alarm_at_force_in_context+0xb6>
10000e3c:	5b66      	ldrh	r6, [r4, r5]
10000e3e:	804e      	strh	r6, [r1, #2]
10000e40:	2600      	movs	r6, #0
10000e42:	e8c0 6f8f 	stlb	r6, [r0]
10000e46:	f387 8810 	msr	PRIMASK, r7
10000e4a:	f8bc 0002 	ldrh.w	r0, [ip, #2]
10000e4e:	e9cc 2302 	strd	r2, r3, [ip, #8]
10000e52:	3001      	adds	r0, #1
10000e54:	f3c0 000e 	ubfx	r0, r0, #0, #15
10000e58:	2801      	cmp	r0, #1
10000e5a:	bf38      	it	cc
10000e5c:	2001      	movcc	r0, #1
10000e5e:	9b05      	ldr	r3, [sp, #20]
10000e60:	f8ac 0002 	strh.w	r0, [ip, #2]
10000e64:	f8cc 3010 	str.w	r3, [ip, #16]
10000e68:	9b06      	ldr	r3, [sp, #24]
10000e6a:	ea40 400e 	orr.w	r0, r0, lr, lsl #16
10000e6e:	f8cc 3014 	str.w	r3, [ip, #20]
10000e72:	690b      	ldr	r3, [r1, #16]
10000e74:	f3ef 8210 	mrs	r2, PRIMASK
10000e78:	b672      	cpsid	i
10000e7a:	e8d3 cfcf 	ldaexb	ip, [r3]
10000e7e:	2701      	movs	r7, #1
10000e80:	f1bc 0f00 	cmp.w	ip, #0
10000e84:	d1f9      	bne.n	10000e7a <alarm_pool_add_alarm_at_force_in_context+0x7a>
10000e86:	e8c3 7f4c 	strexb	ip, r7, [r3]
10000e8a:	f1bc 0f00 	cmp.w	ip, #0
10000e8e:	d1f4      	bne.n	10000e7a <alarm_pool_add_alarm_at_force_in_context+0x7a>
10000e90:	f3bf 8f5f 	dmb	sy
10000e94:	888b      	ldrh	r3, [r1, #4]
10000e96:	5363      	strh	r3, [r4, r5]
10000e98:	f8a1 e004 	strh.w	lr, [r1, #4]
10000e9c:	690b      	ldr	r3, [r1, #16]
10000e9e:	e8c3 6f8f 	stlb	r6, [r3]
10000ea2:	f382 8810 	msr	PRIMASK, r2
10000ea6:	2201      	movs	r2, #1
10000ea8:	68cb      	ldr	r3, [r1, #12]
10000eaa:	7809      	ldrb	r1, [r1, #0]
10000eac:	f503 5301 	add.w	r3, r3, #8256	@ 0x2040
10000eb0:	408a      	lsls	r2, r1
10000eb2:	605a      	str	r2, [r3, #4]
10000eb4:	bdf0      	pop	{r4, r5, r6, r7, pc}
10000eb6:	2300      	movs	r3, #0
10000eb8:	e8c0 3f8f 	stlb	r3, [r0]
10000ebc:	f387 8810 	msr	PRIMASK, r7
10000ec0:	f04f 30ff 	mov.w	r0, #4294967295
10000ec4:	bdf0      	pop	{r4, r5, r6, r7, pc}
10000ec6:	bf00      	nop

10000ec8 <alarm_pool_cancel_alarm>:
10000ec8:	4603      	mov	r3, r0
10000eca:	8940      	ldrh	r0, [r0, #10]
10000ecc:	ebb0 4f21 	cmp.w	r0, r1, asr #16
10000ed0:	dd37      	ble.n	10000f42 <alarm_pool_cancel_alarm+0x7a>
10000ed2:	6958      	ldr	r0, [r3, #20]
10000ed4:	140a      	asrs	r2, r1, #16
10000ed6:	eb02 0242 	add.w	r2, r2, r2, lsl #1
10000eda:	b510      	push	{r4, lr}
10000edc:	eb00 00c2 	add.w	r0, r0, r2, lsl #3
10000ee0:	691c      	ldr	r4, [r3, #16]
10000ee2:	f3ef 8c10 	mrs	ip, PRIMASK
10000ee6:	b672      	cpsid	i
10000ee8:	e8d4 efcf 	ldaexb	lr, [r4]
10000eec:	2201      	movs	r2, #1
10000eee:	f1be 0f00 	cmp.w	lr, #0
10000ef2:	d1f9      	bne.n	10000ee8 <alarm_pool_cancel_alarm+0x20>
10000ef4:	e8c4 2f4e 	strexb	lr, r2, [r4]
10000ef8:	f1be 0f00 	cmp.w	lr, #0
10000efc:	d1f4      	bne.n	10000ee8 <alarm_pool_cancel_alarm+0x20>
10000efe:	f3bf 8f5f 	dmb	sy
10000f02:	8842      	ldrh	r2, [r0, #2]
10000f04:	b289      	uxth	r1, r1
10000f06:	b292      	uxth	r2, r2
10000f08:	428a      	cmp	r2, r1
10000f0a:	d007      	beq.n	10000f1c <alarm_pool_cancel_alarm+0x54>
10000f0c:	2200      	movs	r2, #0
10000f0e:	691b      	ldr	r3, [r3, #16]
10000f10:	e8c3 2f8f 	stlb	r2, [r3]
10000f14:	f38c 8810 	msr	PRIMASK, ip
10000f18:	2000      	movs	r0, #0
10000f1a:	bd10      	pop	{r4, pc}
10000f1c:	f442 4200 	orr.w	r2, r2, #32768	@ 0x8000
10000f20:	8042      	strh	r2, [r0, #2]
10000f22:	2101      	movs	r1, #1
10000f24:	2200      	movs	r2, #0
10000f26:	6918      	ldr	r0, [r3, #16]
10000f28:	7199      	strb	r1, [r3, #6]
10000f2a:	e8c0 2f8f 	stlb	r2, [r0]
10000f2e:	f38c 8810 	msr	PRIMASK, ip
10000f32:	781c      	ldrb	r4, [r3, #0]
10000f34:	68da      	ldr	r2, [r3, #12]
10000f36:	4608      	mov	r0, r1
10000f38:	f502 5301 	add.w	r3, r2, #8256	@ 0x2040
10000f3c:	40a1      	lsls	r1, r4
10000f3e:	6059      	str	r1, [r3, #4]
10000f40:	bd10      	pop	{r4, pc}
10000f42:	2000      	movs	r0, #0
10000f44:	4770      	bx	lr
10000f46:	bf00      	nop

10000f48 <best_effort_wfe_or_timeout>:
10000f48:	e92d 43f0 	stmdb	sp!, {r4, r5, r6, r7, r8, r9, lr}
10000f4c:	4606      	mov	r6, r0
10000f4e:	460d      	mov	r5, r1
10000f50:	b083      	sub	sp, #12
10000f52:	f3ef 8405 	mrs	r4, IPSR
10000f56:	b2e4      	uxtb	r4, r4
10000f58:	b13c      	cbz	r4, 10000f6a <best_effort_wfe_or_timeout+0x22>
10000f5a:	4b2d      	ldr	r3, [pc, #180]	@ (10001010 <best_effort_wfe_or_timeout+0xc8>)
10000f5c:	6a5a      	ldr	r2, [r3, #36]	@ 0x24
10000f5e:	42aa      	cmp	r2, r5
10000f60:	d21c      	bcs.n	10000f9c <best_effort_wfe_or_timeout+0x54>
10000f62:	2000      	movs	r0, #0
10000f64:	b003      	add	sp, #12
10000f66:	e8bd 83f0 	ldmia.w	sp!, {r4, r5, r6, r7, r8, r9, pc}
10000f6a:	4f2a      	ldr	r7, [pc, #168]	@ (10001014 <best_effort_wfe_or_timeout+0xcc>)
10000f6c:	f8d7 900c 	ldr.w	r9, [r7, #12]
10000f70:	f897 8000 	ldrb.w	r8, [r7]
10000f74:	4648      	mov	r0, r9
10000f76:	f000 f863 	bl	10001040 <timer_time_us_64>
10000f7a:	f108 0804 	add.w	r8, r8, #4
10000f7e:	f859 3028 	ldr.w	r3, [r9, r8, lsl #2]
10000f82:	1a1b      	subs	r3, r3, r0
10000f84:	1a30      	subs	r0, r6, r0
10000f86:	eb65 0101 	sbc.w	r1, r5, r1
10000f8a:	4298      	cmp	r0, r3
10000f8c:	f171 0100 	sbcs.w	r1, r1, #0
10000f90:	db10      	blt.n	10000fb4 <best_effort_wfe_or_timeout+0x6c>
10000f92:	bf20      	wfe
10000f94:	4b1e      	ldr	r3, [pc, #120]	@ (10001010 <best_effort_wfe_or_timeout+0xc8>)
10000f96:	6a5a      	ldr	r2, [r3, #36]	@ 0x24
10000f98:	42aa      	cmp	r2, r5
10000f9a:	d3e2      	bcc.n	10000f62 <best_effort_wfe_or_timeout+0x1a>
10000f9c:	bf14      	ite	ne
10000f9e:	2401      	movne	r4, #1
10000fa0:	2400      	moveq	r4, #0
10000fa2:	6a9b      	ldr	r3, [r3, #40]	@ 0x28
10000fa4:	42b3      	cmp	r3, r6
10000fa6:	bf34      	ite	cc
10000fa8:	4620      	movcc	r0, r4
10000faa:	f044 0001 	orrcs.w	r0, r4, #1
10000fae:	b003      	add	sp, #12
10000fb0:	e8bd 83f0 	ldmia.w	sp!, {r4, r5, r6, r7, r8, r9, pc}
10000fb4:	f000 f84c 	bl	10001050 <time_us_64>
10000fb8:	4286      	cmp	r6, r0
10000fba:	eb65 0101 	sbc.w	r1, r5, r1
10000fbe:	2900      	cmp	r1, #0
10000fc0:	db14      	blt.n	10000fec <best_effort_wfe_or_timeout+0xa4>
10000fc2:	4b15      	ldr	r3, [pc, #84]	@ (10001018 <best_effort_wfe_or_timeout+0xd0>)
10000fc4:	4638      	mov	r0, r7
10000fc6:	e9cd 3400 	strd	r3, r4, [sp]
10000fca:	4632      	mov	r2, r6
10000fcc:	462b      	mov	r3, r5
10000fce:	f7ff ff17 	bl	10000e00 <alarm_pool_add_alarm_at_force_in_context>
10000fd2:	1e01      	subs	r1, r0, #0
10000fd4:	dd0a      	ble.n	10000fec <best_effort_wfe_or_timeout+0xa4>
10000fd6:	4b0e      	ldr	r3, [pc, #56]	@ (10001010 <best_effort_wfe_or_timeout+0xc8>)
10000fd8:	6a5a      	ldr	r2, [r3, #36]	@ 0x24
10000fda:	42aa      	cmp	r2, r5
10000fdc:	d316      	bcc.n	1000100c <best_effort_wfe_or_timeout+0xc4>
10000fde:	6a9b      	ldr	r3, [r3, #40]	@ 0x28
10000fe0:	42b3      	cmp	r3, r6
10000fe2:	d311      	bcc.n	10001008 <best_effort_wfe_or_timeout+0xc0>
10000fe4:	480b      	ldr	r0, [pc, #44]	@ (10001014 <best_effort_wfe_or_timeout+0xcc>)
10000fe6:	f7ff ff6f 	bl	10000ec8 <alarm_pool_cancel_alarm>
10000fea:	e7b6      	b.n	10000f5a <best_effort_wfe_or_timeout+0x12>
10000fec:	4b08      	ldr	r3, [pc, #32]	@ (10001010 <best_effort_wfe_or_timeout+0xc8>)
10000fee:	6a5c      	ldr	r4, [r3, #36]	@ 0x24
10000ff0:	42ac      	cmp	r4, r5
10000ff2:	d3b6      	bcc.n	10000f62 <best_effort_wfe_or_timeout+0x1a>
10000ff4:	1b64      	subs	r4, r4, r5
10000ff6:	bf18      	it	ne
10000ff8:	2401      	movne	r4, #1
10000ffa:	6a9b      	ldr	r3, [r3, #40]	@ 0x28
10000ffc:	42b3      	cmp	r3, r6
10000ffe:	bf34      	ite	cc
10001000:	4620      	movcc	r0, r4
10001002:	f044 0001 	orrcs.w	r0, r4, #1
10001006:	e7ad      	b.n	10000f64 <best_effort_wfe_or_timeout+0x1c>
10001008:	42aa      	cmp	r2, r5
1000100a:	d1eb      	bne.n	10000fe4 <best_effort_wfe_or_timeout+0x9c>
1000100c:	bf20      	wfe
1000100e:	e7e9      	b.n	10000fe4 <best_effort_wfe_or_timeout+0x9c>
10001010:	400b0000 	.word	0x400b0000
10001014:	200005f4 	.word	0x200005f4
10001018:	100009d1 	.word	0x100009d1

1000101c <timer_hardware_alarm_claim>:
1000101c:	b410      	push	{r4}
1000101e:	4b05      	ldr	r3, [pc, #20]	@ (10001034 <timer_hardware_alarm_claim+0x18>)
10001020:	4c05      	ldr	r4, [pc, #20]	@ (10001038 <timer_hardware_alarm_claim+0x1c>)
10001022:	4a06      	ldr	r2, [pc, #24]	@ (1000103c <timer_hardware_alarm_claim+0x20>)
10001024:	42a0      	cmp	r0, r4
10001026:	bf14      	ite	ne
10001028:	4618      	movne	r0, r3
1000102a:	1c58      	addeq	r0, r3, #1
1000102c:	f85d 4b04 	ldr.w	r4, [sp], #4
10001030:	f7ff ba98 	b.w	10000564 <hw_claim_or_assert>
10001034:	200007d8 	.word	0x200007d8
10001038:	400b8000 	.word	0x400b8000
1000103c:	100037d4 	.word	0x100037d4

10001040 <timer_time_us_64>:
10001040:	4603      	mov	r3, r0
10001042:	6a41      	ldr	r1, [r0, #36]	@ 0x24
10001044:	460a      	mov	r2, r1
10001046:	6a98      	ldr	r0, [r3, #40]	@ 0x28
10001048:	6a59      	ldr	r1, [r3, #36]	@ 0x24
1000104a:	428a      	cmp	r2, r1
1000104c:	d1fa      	bne.n	10001044 <timer_time_us_64+0x4>
1000104e:	4770      	bx	lr

10001050 <time_us_64>:
10001050:	4b03      	ldr	r3, [pc, #12]	@ (10001060 <time_us_64+0x10>)
10001052:	6a59      	ldr	r1, [r3, #36]	@ 0x24
10001054:	460a      	mov	r2, r1
10001056:	6a98      	ldr	r0, [r3, #40]	@ 0x28
10001058:	6a59      	ldr	r1, [r3, #36]	@ 0x24
1000105a:	4291      	cmp	r1, r2
1000105c:	d1fa      	bne.n	10001054 <time_us_64+0x4>
1000105e:	4770      	bx	lr
10001060:	400b0000 	.word	0x400b0000

10001064 <busy_wait_us>:
10001064:	b430      	push	{r4, r5}
10001066:	4a15      	ldr	r2, [pc, #84]	@ (100010bc <busy_wait_us+0x58>)
10001068:	6a53      	ldr	r3, [r2, #36]	@ 0x24
1000106a:	469c      	mov	ip, r3
1000106c:	6a94      	ldr	r4, [r2, #40]	@ 0x28
1000106e:	6a53      	ldr	r3, [r2, #36]	@ 0x24
10001070:	4563      	cmp	r3, ip
10001072:	d1fa      	bne.n	1000106a <busy_wait_us+0x6>
10001074:	1902      	adds	r2, r0, r4
10001076:	4159      	adcs	r1, r3
10001078:	f04f 0500 	mov.w	r5, #0
1000107c:	bf28      	it	cs
1000107e:	2501      	movcs	r5, #1
10001080:	4b0e      	ldr	r3, [pc, #56]	@ (100010bc <busy_wait_us+0x58>)
10001082:	6a5b      	ldr	r3, [r3, #36]	@ 0x24
10001084:	b1b5      	cbz	r5, 100010b4 <busy_wait_us+0x50>
10001086:	1c5a      	adds	r2, r3, #1
10001088:	bf08      	it	eq
1000108a:	461a      	moveq	r2, r3
1000108c:	d008      	beq.n	100010a0 <busy_wait_us+0x3c>
1000108e:	f04f 31ff 	mov.w	r1, #4294967295
10001092:	460a      	mov	r2, r1
10001094:	4809      	ldr	r0, [pc, #36]	@ (100010bc <busy_wait_us+0x58>)
10001096:	6a43      	ldr	r3, [r0, #36]	@ 0x24
10001098:	428b      	cmp	r3, r1
1000109a:	d3fc      	bcc.n	10001096 <busy_wait_us+0x32>
1000109c:	428b      	cmp	r3, r1
1000109e:	d107      	bne.n	100010b0 <busy_wait_us+0x4c>
100010a0:	4906      	ldr	r1, [pc, #24]	@ (100010bc <busy_wait_us+0x58>)
100010a2:	e002      	b.n	100010aa <busy_wait_us+0x46>
100010a4:	6a48      	ldr	r0, [r1, #36]	@ 0x24
100010a6:	4298      	cmp	r0, r3
100010a8:	d102      	bne.n	100010b0 <busy_wait_us+0x4c>
100010aa:	6a88      	ldr	r0, [r1, #40]	@ 0x28
100010ac:	4290      	cmp	r0, r2
100010ae:	d3f9      	bcc.n	100010a4 <busy_wait_us+0x40>
100010b0:	bc30      	pop	{r4, r5}
100010b2:	4770      	bx	lr
100010b4:	4299      	cmp	r1, r3
100010b6:	d8ed      	bhi.n	10001094 <busy_wait_us+0x30>
100010b8:	e7f0      	b.n	1000109c <busy_wait_us+0x38>
100010ba:	bf00      	nop
100010bc:	400b0000 	.word	0x400b0000

100010c0 <uart_init>:
100010c0:	b5f8      	push	{r3, r4, r5, r6, r7, lr}
100010c2:	4605      	mov	r5, r0
100010c4:	2006      	movs	r0, #6
100010c6:	460e      	mov	r6, r1
100010c8:	f000 f8e4 	bl	10001294 <clock_get_hz>
100010cc:	2800      	cmp	r0, #0
100010ce:	d042      	beq.n	10001156 <uart_init+0x96>
100010d0:	4a35      	ldr	r2, [pc, #212]	@ (100011a8 <uart_init+0xe8>)
100010d2:	4836      	ldr	r0, [pc, #216]	@ (100011ac <uart_init+0xec>)
100010d4:	4295      	cmp	r5, r2
100010d6:	bf14      	ite	ne
100010d8:	f04f 6280 	movne.w	r2, #67108864	@ 0x4000000
100010dc:	f04f 6200 	moveq.w	r2, #134217728	@ 0x8000000
100010e0:	4b33      	ldr	r3, [pc, #204]	@ (100011b0 <uart_init+0xf0>)
100010e2:	4934      	ldr	r1, [pc, #208]	@ (100011b4 <uart_init+0xf4>)
100010e4:	6002      	str	r2, [r0, #0]
100010e6:	601a      	str	r2, [r3, #0]
100010e8:	688c      	ldr	r4, [r1, #8]
100010ea:	ea32 0404 	bics.w	r4, r2, r4
100010ee:	d1fb      	bne.n	100010e8 <uart_init+0x28>
100010f0:	4b2d      	ldr	r3, [pc, #180]	@ (100011a8 <uart_init+0xe8>)
100010f2:	f44f 7180 	mov.w	r1, #256	@ 0x100
100010f6:	1aeb      	subs	r3, r5, r3
100010f8:	fab3 f383 	clz	r3, r3
100010fc:	4a2e      	ldr	r2, [pc, #184]	@ (100011b8 <uart_init+0xf8>)
100010fe:	095b      	lsrs	r3, r3, #5
10001100:	2006      	movs	r0, #6
10001102:	f822 1013 	strh.w	r1, [r2, r3, lsl #1]
10001106:	f000 f8c5 	bl	10001294 <clock_get_hz>
1000110a:	00c3      	lsls	r3, r0, #3
1000110c:	fbb3 f3f6 	udiv	r3, r3, r6
10001110:	3301      	adds	r3, #1
10001112:	09da      	lsrs	r2, r3, #7
10001114:	d120      	bne.n	10001158 <uart_init+0x98>
10001116:	2640      	movs	r6, #64	@ 0x40
10001118:	2101      	movs	r1, #1
1000111a:	6269      	str	r1, [r5, #36]	@ 0x24
1000111c:	62aa      	str	r2, [r5, #40]	@ 0x28
1000111e:	6b2f      	ldr	r7, [r5, #48]	@ 0x30
10001120:	07fb      	lsls	r3, r7, #31
10001122:	d422      	bmi.n	1000116a <uart_init+0xaa>
10001124:	462b      	mov	r3, r5
10001126:	2200      	movs	r2, #0
10001128:	f853 1f2c 	ldr.w	r1, [r3, #44]!
1000112c:	2006      	movs	r0, #6
1000112e:	f503 5480 	add.w	r4, r3, #4096	@ 0x1000
10001132:	6022      	str	r2, [r4, #0]
10001134:	632f      	str	r7, [r5, #48]	@ 0x30
10001136:	f000 f8ad 	bl	10001294 <clock_get_hz>
1000113a:	f240 3101 	movw	r1, #769	@ 0x301
1000113e:	2203      	movs	r2, #3
10001140:	0080      	lsls	r0, r0, #2
10001142:	fbb0 f0f6 	udiv	r0, r0, r6
10001146:	6aeb      	ldr	r3, [r5, #44]	@ 0x2c
10001148:	f083 0370 	eor.w	r3, r3, #112	@ 0x70
1000114c:	f003 037e 	and.w	r3, r3, #126	@ 0x7e
10001150:	6023      	str	r3, [r4, #0]
10001152:	6329      	str	r1, [r5, #48]	@ 0x30
10001154:	64aa      	str	r2, [r5, #72]	@ 0x48
10001156:	bdf8      	pop	{r3, r4, r5, r6, r7, pc}
10001158:	f64f 71fe 	movw	r1, #65534	@ 0xfffe
1000115c:	428a      	cmp	r2, r1
1000115e:	d91b      	bls.n	10001198 <uart_init+0xd8>
10001160:	4622      	mov	r2, r4
10001162:	f64f 71ff 	movw	r1, #65535	@ 0xffff
10001166:	4e15      	ldr	r6, [pc, #84]	@ (100011bc <uart_init+0xfc>)
10001168:	e7d7      	b.n	1000111a <uart_init+0x5a>
1000116a:	f240 3201 	movw	r2, #769	@ 0x301
1000116e:	f505 5340 	add.w	r3, r5, #12288	@ 0x3000
10001172:	631a      	str	r2, [r3, #48]	@ 0x30
10001174:	6a6b      	ldr	r3, [r5, #36]	@ 0x24
10001176:	6aac      	ldr	r4, [r5, #40]	@ 0x28
10001178:	2006      	movs	r0, #6
1000117a:	eb04 1483 	add.w	r4, r4, r3, lsl #6
1000117e:	f000 f889 	bl	10001294 <clock_get_hz>
10001182:	4b0f      	ldr	r3, [pc, #60]	@ (100011c0 <uart_init+0x100>)
10001184:	02a4      	lsls	r4, r4, #10
10001186:	fba3 2300 	umull	r2, r3, r3, r0
1000118a:	0adb      	lsrs	r3, r3, #11
1000118c:	2100      	movs	r1, #0
1000118e:	fbb4 f0f3 	udiv	r0, r4, r3
10001192:	f7ff ff67 	bl	10001064 <busy_wait_us>
10001196:	e7c5      	b.n	10001124 <uart_init+0x64>
10001198:	f3c3 0345 	ubfx	r3, r3, #1, #6
1000119c:	4611      	mov	r1, r2
1000119e:	eb03 1682 	add.w	r6, r3, r2, lsl #6
100011a2:	461a      	mov	r2, r3
100011a4:	e7b9      	b.n	1000111a <uart_init+0x5a>
100011a6:	bf00      	nop
100011a8:	40078000 	.word	0x40078000
100011ac:	40022000 	.word	0x40022000
100011b0:	40023000 	.word	0x40023000
100011b4:	40020000 	.word	0x40020000
100011b8:	20000850 	.word	0x20000850
100011bc:	003fffc0 	.word	0x003fffc0
100011c0:	8f2b7b75 	.word	0x8f2b7b75

100011c4 <clock_configure_undivided>:
100011c4:	eb00 0c40 	add.w	ip, r0, r0, lsl #1
100011c8:	ea4f 0c8c 	mov.w	ip, ip, lsl #2
100011cc:	f10c 4c80 	add.w	ip, ip, #1073741824	@ 0x40000000
100011d0:	f50c 3c80 	add.w	ip, ip, #65536	@ 0x10000
100011d4:	b5f0      	push	{r4, r5, r6, r7, lr}
100011d6:	4616      	mov	r6, r2
100011d8:	f8dc 2004 	ldr.w	r2, [ip, #4]
100011dc:	1f05      	subs	r5, r0, #4
100011de:	f5b2 3f80 	cmp.w	r2, #65536	@ 0x10000
100011e2:	bf38      	it	cc
100011e4:	f44f 3280 	movcc.w	r2, #65536	@ 0x10000
100011e8:	b2ed      	uxtb	r5, r5
100011ea:	bf38      	it	cc
100011ec:	f8cc 2004 	strcc.w	r2, [ip, #4]
100011f0:	2d01      	cmp	r5, #1
100011f2:	d92a      	bls.n	1000124a <clock_configure_undivided+0x86>
100011f4:	f44f 6700 	mov.w	r7, #2048	@ 0x800
100011f8:	4c25      	ldr	r4, [pc, #148]	@ (10001290 <clock_configure_undivided+0xcc>)
100011fa:	f50c 5240 	add.w	r2, ip, #12288	@ 0x3000
100011fe:	6017      	str	r7, [r2, #0]
10001200:	f854 2020 	ldr.w	r2, [r4, r0, lsl #2]
10001204:	b9b2      	cbnz	r2, 10001234 <clock_configure_undivided+0x70>
10001206:	f8dc 2000 	ldr.w	r2, [ip]
1000120a:	2d01      	cmp	r5, #1
1000120c:	ea82 1246 	eor.w	r2, r2, r6, lsl #5
10001210:	f002 02e0 	and.w	r2, r2, #224	@ 0xe0
10001214:	f50c 5680 	add.w	r6, ip, #4096	@ 0x1000
10001218:	6032      	str	r2, [r6, #0]
1000121a:	d92a      	bls.n	10001272 <clock_configure_undivided+0xae>
1000121c:	f44f 6100 	mov.w	r1, #2048	@ 0x800
10001220:	f844 3020 	str.w	r3, [r4, r0, lsl #2]
10001224:	f44f 3380 	mov.w	r3, #65536	@ 0x10000
10001228:	f50c 5200 	add.w	r2, ip, #8192	@ 0x2000
1000122c:	6011      	str	r1, [r2, #0]
1000122e:	f8cc 3004 	str.w	r3, [ip, #4]
10001232:	bdf0      	pop	{r4, r5, r6, r7, pc}
10001234:	6967      	ldr	r7, [r4, #20]
10001236:	fbb7 fef2 	udiv	lr, r7, r2
1000123a:	f10e 0e01 	add.w	lr, lr, #1
1000123e:	eb0e 0e4e 	add.w	lr, lr, lr, lsl #1
10001242:	f1be 0e03 	subs.w	lr, lr, #3
10001246:	d2fc      	bcs.n	10001242 <clock_configure_undivided+0x7e>
10001248:	e7dd      	b.n	10001206 <clock_configure_undivided+0x42>
1000124a:	2901      	cmp	r1, #1
1000124c:	d1d2      	bne.n	100011f4 <clock_configure_undivided+0x30>
1000124e:	2403      	movs	r4, #3
10001250:	f50c 5240 	add.w	r2, ip, #12288	@ 0x3000
10001254:	6014      	str	r4, [r2, #0]
10001256:	f8dc 2008 	ldr.w	r2, [ip, #8]
1000125a:	07d2      	lsls	r2, r2, #31
1000125c:	d5fb      	bpl.n	10001256 <clock_configure_undivided+0x92>
1000125e:	f8dc 2000 	ldr.w	r2, [ip]
10001262:	4c0b      	ldr	r4, [pc, #44]	@ (10001290 <clock_configure_undivided+0xcc>)
10001264:	ea82 1246 	eor.w	r2, r2, r6, lsl #5
10001268:	f002 02e0 	and.w	r2, r2, #224	@ 0xe0
1000126c:	f50c 5680 	add.w	r6, ip, #4096	@ 0x1000
10001270:	6032      	str	r2, [r6, #0]
10001272:	2201      	movs	r2, #1
10001274:	f8dc 5000 	ldr.w	r5, [ip]
10001278:	404d      	eors	r5, r1
1000127a:	f005 0503 	and.w	r5, r5, #3
1000127e:	6035      	str	r5, [r6, #0]
10001280:	fa02 f101 	lsl.w	r1, r2, r1
10001284:	f8dc 2008 	ldr.w	r2, [ip, #8]
10001288:	420a      	tst	r2, r1
1000128a:	d0fb      	beq.n	10001284 <clock_configure_undivided+0xc0>
1000128c:	e7c6      	b.n	1000121c <clock_configure_undivided+0x58>
1000128e:	bf00      	nop
10001290:	200007dc 	.word	0x200007dc

10001294 <clock_get_hz>:
10001294:	4b01      	ldr	r3, [pc, #4]	@ (1000129c <clock_get_hz+0x8>)
10001296:	f853 0020 	ldr.w	r0, [r3, r0, lsl #2]
1000129a:	4770      	bx	lr
1000129c:	200007dc 	.word	0x200007dc

100012a0 <pll_init>:
100012a0:	b470      	push	{r4, r5, r6}
100012a2:	9d03      	ldr	r5, [sp, #12]
100012a4:	6804      	ldr	r4, [r0, #0]
100012a6:	032d      	lsls	r5, r5, #12
100012a8:	ea45 4503 	orr.w	r5, r5, r3, lsl #16
100012ac:	4b1b      	ldr	r3, [pc, #108]	@ (1000131c <pll_init+0x7c>)
100012ae:	2c00      	cmp	r4, #0
100012b0:	fbb3 f3f1 	udiv	r3, r3, r1
100012b4:	fbb2 f6f3 	udiv	r6, r2, r3
100012b8:	db1f      	blt.n	100012fa <pll_init+0x5a>
100012ba:	4a19      	ldr	r2, [pc, #100]	@ (10001320 <pll_init+0x80>)
100012bc:	4b19      	ldr	r3, [pc, #100]	@ (10001324 <pll_init+0x84>)
100012be:	4290      	cmp	r0, r2
100012c0:	bf14      	ite	ne
100012c2:	f44f 4280 	movne.w	r2, #16384	@ 0x4000
100012c6:	f44f 4200 	moveq.w	r2, #32768	@ 0x8000
100012ca:	4c17      	ldr	r4, [pc, #92]	@ (10001328 <pll_init+0x88>)
100012cc:	601a      	str	r2, [r3, #0]
100012ce:	f503 5380 	add.w	r3, r3, #4096	@ 0x1000
100012d2:	601a      	str	r2, [r3, #0]
100012d4:	68a3      	ldr	r3, [r4, #8]
100012d6:	ea32 0303 	bics.w	r3, r2, r3
100012da:	d1fb      	bne.n	100012d4 <pll_init+0x34>
100012dc:	2221      	movs	r2, #33	@ 0x21
100012de:	f500 5340 	add.w	r3, r0, #12288	@ 0x3000
100012e2:	3304      	adds	r3, #4
100012e4:	6001      	str	r1, [r0, #0]
100012e6:	6086      	str	r6, [r0, #8]
100012e8:	601a      	str	r2, [r3, #0]
100012ea:	6802      	ldr	r2, [r0, #0]
100012ec:	2a00      	cmp	r2, #0
100012ee:	dafc      	bge.n	100012ea <pll_init+0x4a>
100012f0:	2208      	movs	r2, #8
100012f2:	60c5      	str	r5, [r0, #12]
100012f4:	601a      	str	r2, [r3, #0]
100012f6:	bc70      	pop	{r4, r5, r6}
100012f8:	4770      	bx	lr
100012fa:	6803      	ldr	r3, [r0, #0]
100012fc:	f003 033f 	and.w	r3, r3, #63	@ 0x3f
10001300:	428b      	cmp	r3, r1
10001302:	d1da      	bne.n	100012ba <pll_init+0x1a>
10001304:	6883      	ldr	r3, [r0, #8]
10001306:	f3c3 030b 	ubfx	r3, r3, #0, #12
1000130a:	42b3      	cmp	r3, r6
1000130c:	d1d5      	bne.n	100012ba <pll_init+0x1a>
1000130e:	68c3      	ldr	r3, [r0, #12]
10001310:	f403 23ee 	and.w	r3, r3, #487424	@ 0x77000
10001314:	42ab      	cmp	r3, r5
10001316:	d1d0      	bne.n	100012ba <pll_init+0x1a>
10001318:	e7ed      	b.n	100012f6 <pll_init+0x56>
1000131a:	bf00      	nop
1000131c:	00b71b00 	.word	0x00b71b00
10001320:	40058000 	.word	0x40058000
10001324:	40022000 	.word	0x40022000
10001328:	40020000 	.word	0x40020000

1000132c <tick_start>:
1000132c:	2301      	movs	r3, #1
1000132e:	eb00 0040 	add.w	r0, r0, r0, lsl #1
10001332:	0080      	lsls	r0, r0, #2
10001334:	f100 4080 	add.w	r0, r0, #1073741824	@ 0x40000000
10001338:	f500 1084 	add.w	r0, r0, #1081344	@ 0x108000
1000133c:	6041      	str	r1, [r0, #4]
1000133e:	6003      	str	r3, [r0, #0]
10001340:	4770      	bx	lr
10001342:	bf00      	nop

10001344 <rom_func_lookup>:
10001344:	2300      	movs	r3, #0
10001346:	8adb      	ldrh	r3, [r3, #22]
10001348:	2200      	movs	r2, #0
1000134a:	e842 f200 	tt	r2, r2
1000134e:	0252      	lsls	r2, r2, #9
10001350:	d401      	bmi.n	10001356 <rom_func_lookup+0x12>
10001352:	2110      	movs	r1, #16
10001354:	4718      	bx	r3
10001356:	2104      	movs	r1, #4
10001358:	4718      	bx	r3
1000135a:	bf00      	nop

1000135c <runtime_init_bootrom_locking_enable>:
1000135c:	4a03      	ldr	r2, [pc, #12]	@ (1000136c <runtime_init_bootrom_locking_enable+0x10>)
1000135e:	f8d2 3828 	ldr.w	r3, [r2, #2088]	@ 0x828
10001362:	2b00      	cmp	r3, #0
10001364:	d0fb      	beq.n	1000135e <runtime_init_bootrom_locking_enable+0x2>
10001366:	f3bf 8f5f 	dmb	sy
1000136a:	4770      	bx	lr
1000136c:	400e0000 	.word	0x400e0000

10001370 <runtime_init_boot_locks_reset>:
10001370:	2100      	movs	r1, #0
10001372:	4b04      	ldr	r3, [pc, #16]	@ (10001384 <runtime_init_boot_locks_reset+0x14>)
10001374:	4a04      	ldr	r2, [pc, #16]	@ (10001388 <runtime_init_boot_locks_reset+0x18>)
10001376:	f3bf 8f5f 	dmb	sy
1000137a:	f843 1b04 	str.w	r1, [r3], #4
1000137e:	4293      	cmp	r3, r2
10001380:	d1f9      	bne.n	10001376 <runtime_init_boot_locks_reset+0x6>
10001382:	4770      	bx	lr
10001384:	400e080c 	.word	0x400e080c
10001388:	400e082c 	.word	0x400e082c

1000138c <xosc_init>:
1000138c:	b410      	push	{r4}
1000138e:	f44f 708d 	mov.w	r0, #282	@ 0x11a
10001392:	f44f 642a 	mov.w	r4, #2720	@ 0xaa0
10001396:	4a06      	ldr	r2, [pc, #24]	@ (100013b0 <xosc_init+0x24>)
10001398:	4b06      	ldr	r3, [pc, #24]	@ (100013b4 <xosc_init+0x28>)
1000139a:	4907      	ldr	r1, [pc, #28]	@ (100013b8 <xosc_init+0x2c>)
1000139c:	6014      	str	r4, [r2, #0]
1000139e:	60d0      	str	r0, [r2, #12]
100013a0:	6019      	str	r1, [r3, #0]
100013a2:	6853      	ldr	r3, [r2, #4]
100013a4:	2b00      	cmp	r3, #0
100013a6:	dafc      	bge.n	100013a2 <xosc_init+0x16>
100013a8:	f85d 4b04 	ldr.w	r4, [sp], #4
100013ac:	4770      	bx	lr
100013ae:	bf00      	nop
100013b0:	40048000 	.word	0x40048000
100013b4:	4004a000 	.word	0x4004a000
100013b8:	00fab000 	.word	0x00fab000

100013bc <first_per_core_initializer>:
100013bc:	4770      	bx	lr
100013be:	bf00      	nop

100013c0 <hard_assertion_failure>:
100013c0:	b508      	push	{r3, lr}
100013c2:	4801      	ldr	r0, [pc, #4]	@ (100013c8 <hard_assertion_failure+0x8>)
100013c4:	f7ff f8b6 	bl	10000534 <panic>
100013c8:	100037f8 	.word	0x100037f8

100013cc <runtime_run_initializers>:
100013cc:	b538      	push	{r3, r4, r5, lr}
100013ce:	4c05      	ldr	r4, [pc, #20]	@ (100013e4 <runtime_run_initializers+0x18>)
100013d0:	4d05      	ldr	r5, [pc, #20]	@ (100013e8 <runtime_run_initializers+0x1c>)
100013d2:	42ac      	cmp	r4, r5
100013d4:	d204      	bcs.n	100013e0 <runtime_run_initializers+0x14>
100013d6:	f854 3b04 	ldr.w	r3, [r4], #4
100013da:	4798      	blx	r3
100013dc:	42ac      	cmp	r4, r5
100013de:	d3fa      	bcc.n	100013d6 <runtime_run_initializers+0xa>
100013e0:	bd38      	pop	{r3, r4, r5, pc}
100013e2:	bf00      	nop
100013e4:	10003708 	.word	0x10003708
100013e8:	10003748 	.word	0x10003748

100013ec <runtime_init_early_resets>:
100013ec:	b410      	push	{r4}
100013ee:	4807      	ldr	r0, [pc, #28]	@ (1000140c <runtime_init_early_resets+0x20>)
100013f0:	4c07      	ldr	r4, [pc, #28]	@ (10001410 <runtime_init_early_resets+0x24>)
100013f2:	4b08      	ldr	r3, [pc, #32]	@ (10001414 <runtime_init_early_resets+0x28>)
100013f4:	4a08      	ldr	r2, [pc, #32]	@ (10001418 <runtime_init_early_resets+0x2c>)
100013f6:	4909      	ldr	r1, [pc, #36]	@ (1000141c <runtime_init_early_resets+0x30>)
100013f8:	6004      	str	r4, [r0, #0]
100013fa:	601a      	str	r2, [r3, #0]
100013fc:	688b      	ldr	r3, [r1, #8]
100013fe:	ea32 0303 	bics.w	r3, r2, r3
10001402:	d1fb      	bne.n	100013fc <runtime_init_early_resets+0x10>
10001404:	f85d 4b04 	ldr.w	r4, [sp], #4
10001408:	4770      	bx	lr
1000140a:	bf00      	nop
1000140c:	40022000 	.word	0x40022000
10001410:	efef3b7f 	.word	0xefef3b7f
10001414:	40023000 	.word	0x40023000
10001418:	03f3fff6 	.word	0x03f3fff6
1000141c:	40020000 	.word	0x40020000

10001420 <runtime_init_usb_power_down>:
10001420:	4b04      	ldr	r3, [pc, #16]	@ (10001434 <runtime_init_usb_power_down+0x14>)
10001422:	6cdb      	ldr	r3, [r3, #76]	@ 0x4c
10001424:	f5b3 4f00 	cmp.w	r3, #32768	@ 0x8000
10001428:	d103      	bne.n	10001432 <runtime_init_usb_power_down+0x12>
1000142a:	f44f 2280 	mov.w	r2, #262144	@ 0x40000
1000142e:	4b02      	ldr	r3, [pc, #8]	@ (10001438 <runtime_init_usb_power_down+0x18>)
10001430:	64da      	str	r2, [r3, #76]	@ 0x4c
10001432:	4770      	bx	lr
10001434:	50110000 	.word	0x50110000
10001438:	50112000 	.word	0x50112000

1000143c <runtime_init_per_core_enable_coprocessors>:
1000143c:	f04f 22e0 	mov.w	r2, #3758153728	@ 0xe000e000
10001440:	4b04      	ldr	r3, [pc, #16]	@ (10001454 <runtime_init_per_core_enable_coprocessors+0x18>)
10001442:	f8d2 1d88 	ldr.w	r1, [r2, #3464]	@ 0xd88
10001446:	430b      	orrs	r3, r1
10001448:	f8c2 3d88 	str.w	r3, [r2, #3464]	@ 0xd88
1000144c:	ee10 0430 			dcp_rcmp r0
10001450:	4770      	bx	lr
10001452:	bf00      	nop
10001454:	00300303 	.word	0x00300303

10001458 <runtime_init_post_clock_resets>:
10001458:	f06f 4160 	mvn.w	r1, #3758096384	@ 0xe0000000
1000145c:	4b04      	ldr	r3, [pc, #16]	@ (10001470 <runtime_init_post_clock_resets+0x18>)
1000145e:	4a05      	ldr	r2, [pc, #20]	@ (10001474 <runtime_init_post_clock_resets+0x1c>)
10001460:	6019      	str	r1, [r3, #0]
10001462:	6893      	ldr	r3, [r2, #8]
10001464:	43db      	mvns	r3, r3
10001466:	f033 4360 	bics.w	r3, r3, #3758096384	@ 0xe0000000
1000146a:	d1fa      	bne.n	10001462 <runtime_init_post_clock_resets+0xa>
1000146c:	4770      	bx	lr
1000146e:	bf00      	nop
10001470:	40023000 	.word	0x40023000
10001474:	40020000 	.word	0x40020000

10001478 <runtime_init_bootrom_reset>:
10001478:	b510      	push	{r4, lr}
1000147a:	f245 2053 	movw	r0, #21075	@ 0x5253
1000147e:	f7ff ff61 	bl	10001344 <rom_func_lookup>
10001482:	e8bd 4010 	ldmia.w	sp!, {r4, lr}
10001486:	4603      	mov	r3, r0
10001488:	2004      	movs	r0, #4
1000148a:	4718      	bx	r3

1000148c <runtime_init_per_core_bootrom_reset>:
1000148c:	b510      	push	{r4, lr}
1000148e:	f245 2053 	movw	r0, #21075	@ 0x5253
10001492:	f7ff ff57 	bl	10001344 <rom_func_lookup>
10001496:	e8bd 4010 	ldmia.w	sp!, {r4, lr}
1000149a:	4603      	mov	r3, r0
1000149c:	2001      	movs	r0, #1
1000149e:	4718      	bx	r3

100014a0 <runtime_init_spin_locks_reset>:
100014a0:	f7ff b8a0 	b.w	100005e4 <spin_locks_reset>

100014a4 <runtime_init_install_ram_vector_table>:
100014a4:	4914      	ldr	r1, [pc, #80]	@ (100014f8 <runtime_init_install_ram_vector_table+0x54>)
100014a6:	4b15      	ldr	r3, [pc, #84]	@ (100014fc <runtime_init_install_ram_vector_table+0x58>)
100014a8:	b570      	push	{r4, r5, r6, lr}
100014aa:	1a5c      	subs	r4, r3, r1
100014ac:	10a6      	asrs	r6, r4, #2
100014ae:	2e44      	cmp	r6, #68	@ 0x44
100014b0:	4632      	mov	r2, r6
100014b2:	bf28      	it	cs
100014b4:	2244      	movcs	r2, #68	@ 0x44
100014b6:	4d12      	ldr	r5, [pc, #72]	@ (10001500 <runtime_init_install_ram_vector_table+0x5c>)
100014b8:	0092      	lsls	r2, r2, #2
100014ba:	4628      	mov	r0, r5
100014bc:	f002 f872 	bl	100035a4 <memcpy>
100014c0:	f5b4 7f86 	cmp.w	r4, #268	@ 0x10c
100014c4:	d813      	bhi.n	100014ee <runtime_init_install_ram_vector_table+0x4a>
100014c6:	4a0f      	ldr	r2, [pc, #60]	@ (10001504 <runtime_init_install_ram_vector_table+0x60>)
100014c8:	f1c6 0044 	rsb	r0, r6, #68	@ 0x44
100014cc:	d012      	beq.n	100014f4 <runtime_init_install_ram_vector_table+0x50>
100014ce:	192b      	adds	r3, r5, r4
100014d0:	0841      	lsrs	r1, r0, #1
100014d2:	eb03 01c1 	add.w	r1, r3, r1, lsl #3
100014d6:	e9c3 2200 	strd	r2, r2, [r3]
100014da:	3308      	adds	r3, #8
100014dc:	428b      	cmp	r3, r1
100014de:	d1fa      	bne.n	100014d6 <runtime_init_install_ram_vector_table+0x32>
100014e0:	07c3      	lsls	r3, r0, #31
100014e2:	d504      	bpl.n	100014ee <runtime_init_install_ram_vector_table+0x4a>
100014e4:	f020 0001 	bic.w	r0, r0, #1
100014e8:	4430      	add	r0, r6
100014ea:	f845 2020 	str.w	r2, [r5, r0, lsl #2]
100014ee:	4b06      	ldr	r3, [pc, #24]	@ (10001508 <runtime_init_install_ram_vector_table+0x64>)
100014f0:	609d      	str	r5, [r3, #8]
100014f2:	bd70      	pop	{r4, r5, r6, pc}
100014f4:	2043      	movs	r0, #67	@ 0x43
100014f6:	e7f8      	b.n	100014ea <runtime_init_install_ram_vector_table+0x46>
100014f8:	10000000 	.word	0x10000000
100014fc:	10000110 	.word	0x10000110
10001500:	20000000 	.word	0x20000000
10001504:	10000111 	.word	0x10000111
10001508:	e000ed00 	.word	0xe000ed00

1000150c <runtime_init_clocks>:
1000150c:	2300      	movs	r3, #0
1000150e:	b570      	push	{r4, r5, r6, lr}
10001510:	4c2b      	ldr	r4, [pc, #172]	@ (100015c0 <runtime_init_clocks+0xb4>)
10001512:	b082      	sub	sp, #8
10001514:	f8c4 3084 	str.w	r3, [r4, #132]	@ 0x84
10001518:	f7ff ff38 	bl	1000138c <xosc_init>
1000151c:	2201      	movs	r2, #1
1000151e:	4b29      	ldr	r3, [pc, #164]	@ (100015c4 <runtime_init_clocks+0xb8>)
10001520:	63da      	str	r2, [r3, #60]	@ 0x3c
10001522:	6c63      	ldr	r3, [r4, #68]	@ 0x44
10001524:	2b01      	cmp	r3, #1
10001526:	d1fc      	bne.n	10001522 <runtime_init_clocks+0x16>
10001528:	2103      	movs	r1, #3
1000152a:	4a26      	ldr	r2, [pc, #152]	@ (100015c4 <runtime_init_clocks+0xb8>)
1000152c:	4b24      	ldr	r3, [pc, #144]	@ (100015c0 <runtime_init_clocks+0xb4>)
1000152e:	6311      	str	r1, [r2, #48]	@ 0x30
10001530:	6b9c      	ldr	r4, [r3, #56]	@ 0x38
10001532:	2c01      	cmp	r4, #1
10001534:	d1fc      	bne.n	10001530 <runtime_init_clocks+0x24>
10001536:	2602      	movs	r6, #2
10001538:	2505      	movs	r5, #5
1000153a:	4621      	mov	r1, r4
1000153c:	2305      	movs	r3, #5
1000153e:	4a22      	ldr	r2, [pc, #136]	@ (100015c8 <runtime_init_clocks+0xbc>)
10001540:	4822      	ldr	r0, [pc, #136]	@ (100015cc <runtime_init_clocks+0xc0>)
10001542:	9600      	str	r6, [sp, #0]
10001544:	f7ff feac 	bl	100012a0 <pll_init>
10001548:	4621      	mov	r1, r4
1000154a:	462b      	mov	r3, r5
1000154c:	4a20      	ldr	r2, [pc, #128]	@ (100015d0 <runtime_init_clocks+0xc4>)
1000154e:	4821      	ldr	r0, [pc, #132]	@ (100015d4 <runtime_init_clocks+0xc8>)
10001550:	9500      	str	r5, [sp, #0]
10001552:	f7ff fea5 	bl	100012a0 <pll_init>
10001556:	2200      	movs	r2, #0
10001558:	2004      	movs	r0, #4
1000155a:	4631      	mov	r1, r6
1000155c:	4b1e      	ldr	r3, [pc, #120]	@ (100015d8 <runtime_init_clocks+0xcc>)
1000155e:	f7ff fe31 	bl	100011c4 <clock_configure_undivided>
10001562:	4621      	mov	r1, r4
10001564:	4628      	mov	r0, r5
10001566:	2200      	movs	r2, #0
10001568:	4b1c      	ldr	r3, [pc, #112]	@ (100015dc <runtime_init_clocks+0xd0>)
1000156a:	f7ff fe2b 	bl	100011c4 <clock_configure_undivided>
1000156e:	2200      	movs	r2, #0
10001570:	2008      	movs	r0, #8
10001572:	4611      	mov	r1, r2
10001574:	4b1a      	ldr	r3, [pc, #104]	@ (100015e0 <runtime_init_clocks+0xd4>)
10001576:	f7ff fe25 	bl	100011c4 <clock_configure_undivided>
1000157a:	2200      	movs	r2, #0
1000157c:	2009      	movs	r0, #9
1000157e:	4611      	mov	r1, r2
10001580:	4b17      	ldr	r3, [pc, #92]	@ (100015e0 <runtime_init_clocks+0xd4>)
10001582:	f7ff fe1f 	bl	100011c4 <clock_configure_undivided>
10001586:	2200      	movs	r2, #0
10001588:	2006      	movs	r0, #6
1000158a:	4611      	mov	r1, r2
1000158c:	4b13      	ldr	r3, [pc, #76]	@ (100015dc <runtime_init_clocks+0xd0>)
1000158e:	f7ff fe19 	bl	100011c4 <clock_configure_undivided>
10001592:	2200      	movs	r2, #0
10001594:	4b11      	ldr	r3, [pc, #68]	@ (100015dc <runtime_init_clocks+0xd0>)
10001596:	2007      	movs	r0, #7
10001598:	4611      	mov	r1, r2
1000159a:	f7ff fe13 	bl	100011c4 <clock_configure_undivided>
1000159e:	2004      	movs	r0, #4
100015a0:	f7ff fe78 	bl	10001294 <clock_get_hz>
100015a4:	2400      	movs	r4, #0
100015a6:	4b0f      	ldr	r3, [pc, #60]	@ (100015e4 <runtime_init_clocks+0xd8>)
100015a8:	fba3 3500 	umull	r3, r5, r3, r0
100015ac:	0cad      	lsrs	r5, r5, #18
100015ae:	b2e0      	uxtb	r0, r4
100015b0:	4629      	mov	r1, r5
100015b2:	3401      	adds	r4, #1
100015b4:	f7ff feba 	bl	1000132c <tick_start>
100015b8:	2c06      	cmp	r4, #6
100015ba:	d1f8      	bne.n	100015ae <runtime_init_clocks+0xa2>
100015bc:	b002      	add	sp, #8
100015be:	bd70      	pop	{r4, r5, r6, pc}
100015c0:	40010000 	.word	0x40010000
100015c4:	40013000 	.word	0x40013000
100015c8:	59682f00 	.word	0x59682f00
100015cc:	40050000 	.word	0x40050000
100015d0:	47868c00 	.word	0x47868c00
100015d4:	40058000 	.word	0x40058000
100015d8:	00b71b00 	.word	0x00b71b00
100015dc:	08f0d180 	.word	0x08f0d180
100015e0:	02dc6c00 	.word	0x02dc6c00
100015e4:	431bde83 	.word	0x431bde83

100015e8 <generic_save_state>:
100015e8:	b086      	sub	sp, #24
100015ea:	b403      	push	{r0, r1}
100015ec:	fc51 0408 	dcp_pxmd r0, r1
100015f0:	e9cd 0102 	strd	r0, r1, [sp, #8]
100015f4:	fc51 0409 	dcp_pymd r0, r1
100015f8:	e9cd 0104 	strd	r0, r1, [sp, #16]
100015fc:	ec51 040a 	dcp_refd r0, r1
10001600:	e9cd 0106 	strd	r0, r1, [sp, #24]
10001604:	bc03      	pop	{r0, r1}
10001606:	47f0      	blx	lr

10001608 <generic_restore_state>:
10001608:	e8bd 5000 	ldmia.w	sp!, {ip, lr}
1000160c:	ec4e c400 	dcp_wxmd ip, lr
10001610:	e8bd 5000 	ldmia.w	sp!, {ip, lr}
10001614:	ec4e c401 	dcp_wymd ip, lr
10001618:	e8bd 5000 	ldmia.w	sp!, {ip, lr}
1000161c:	ec4e c402 	dcp_wefd ip, lr
10001620:	bd00      	pop	{pc}
10001622:	0000      	movs	r0, r0
10001624:	b500      	push	{lr}
10001626:	f7ff ffdf 	bl	100015e8 <generic_save_state>
1000162a:	e002      	b.n	10001632 <__wrap___aeabi_dadd+0x6>

1000162c <__wrap___aeabi_dadd>:
1000162c:	fe10 f430 	dcp_pcmp APSR_nzcv
10001630:	d4f8      	bmi.n	10001624 <generic_restore_state+0x1c>
10001632:	ec41 0410 	dcp_wxup r0, r1
10001636:	ec43 2411 	dcp_wyup r2, r3
1000163a:	ee00 0401 			dcp_add0
1000163e:	ee10 0401 			dcp_add1
10001642:	ee80 0420 			dcp_nrdd
10001646:	ec51 0410 	dcp_rdda r0, r1
1000164a:	4770      	bx	lr
1000164c:	b500      	push	{lr}
1000164e:	f7ff ffcb 	bl	100015e8 <generic_save_state>
10001652:	e002      	b.n	1000165a <__wrap___aeabi_dsub+0x6>

10001654 <__wrap___aeabi_dsub>:
10001654:	fe10 f430 	dcp_pcmp APSR_nzcv
10001658:	d4f8      	bmi.n	1000164c <__wrap___aeabi_dadd+0x20>
1000165a:	ec41 0410 	dcp_wxup r0, r1
1000165e:	ec43 2411 	dcp_wyup r2, r3
10001662:	ee00 0401 			dcp_add0
10001666:	ee10 0421 			dcp_sub1
1000166a:	ee80 0420 			dcp_nrdd
1000166e:	ec51 0430 	dcp_rdds r0, r1
10001672:	4770      	bx	lr
10001674:	b500      	push	{lr}
10001676:	f7ff ffb7 	bl	100015e8 <generic_save_state>
1000167a:	e002      	b.n	10001682 <__wrap___aeabi_dmul+0x6>

1000167c <__wrap___aeabi_dmul>:
1000167c:	fe10 f430 	dcp_pcmp APSR_nzcv
10001680:	d4f8      	bmi.n	10001674 <__wrap___aeabi_dsub+0x20>
10001682:	b510      	push	{r4, lr}
10001684:	ec41 0410 	dcp_wxup r0, r1
10001688:	ec43 2411 	dcp_wyup r2, r3
1000168c:	ec51 0404 	dcp_rxms r0, r1, #0x0
10001690:	ec53 2405 	dcp_ryms r2, r3, #0x0
10001694:	fba0 4c02 	umull	r4, ip, r0, r2
10001698:	f05f 0e00 	movs.w	lr, #0
1000169c:	fbe0 ce03 	umlal	ip, lr, r0, r3
100016a0:	fbe1 ce02 	umlal	ip, lr, r1, r2
100016a4:	ec4c 4420 	dcp_wxms r4, ip
100016a8:	2400      	movs	r4, #0
100016aa:	fbe1 e403 	umlal	lr, r4, r1, r3
100016ae:	ec44 e430 	dcp_wxmo lr, r4
100016b2:	ee80 0420 			dcp_nrdd
100016b6:	ec51 0450 	dcp_rddm r0, r1
100016ba:	e8bd 4010 	ldmia.w	sp!, {r4, lr}
100016be:	4770      	bx	lr
100016c0:	b500      	push	{lr}
100016c2:	f7ff ff91 	bl	100015e8 <generic_save_state>
100016c6:	e002      	b.n	100016ce <__wrap___aeabi_ddiv+0x6>

100016c8 <__wrap___aeabi_ddiv>:
100016c8:	fe10 f430 	dcp_pcmp APSR_nzcv
100016cc:	d4f8      	bmi.n	100016c0 <__wrap___aeabi_dmul+0x44>
100016ce:	ec41 0410 	dcp_wxup r0, r1
100016d2:	ec43 2411 	dcp_wyup r2, r3
100016d6:	ec51 0421 	dcp_rymr r0, r1
100016da:	fba0 1201 	umull	r1, r2, r0, r1
100016de:	ea6f 0282 	mvn.w	r2, r2, lsl #2
100016e2:	fb52 0010 	smmlar	r0, r2, r0, r0
100016e6:	fb52 f212 	smmulr	r2, r2, r2
100016ea:	fb52 0010 	smmlar	r0, r2, r0, r0
100016ee:	eba0 7cd0 	sub.w	ip, r0, r0, lsr #31
100016f2:	ec53 2404 	dcp_rxms r2, r3, #0x0
100016f6:	fb5c f113 	smmulr	r1, ip, r3
100016fa:	ec53 2415 	dcp_ryms r2, r3, #0x1
100016fe:	fba1 2002 	umull	r2, r0, r1, r2
10001702:	fb01 0003 	mla	r0, r1, r3, r0
10001706:	ec53 2444 	dcp_rxms r2, r3, #0x4
1000170a:	eba2 0000 	sub.w	r0, r2, r0
1000170e:	fb50 f21c 	smmulr	r2, r0, ip
10001712:	ea4f 1311 	mov.w	r3, r1, lsr #4
10001716:	eb12 7001 	adds.w	r0, r2, r1, lsl #28
1000171a:	eb43 71e2 	adc.w	r1, r3, r2, asr #31
1000171e:	ea40 5051 	orr.w	r0, r0, r1, lsr #21
10001722:	ea20 5091 	bic.w	r0, r0, r1, lsr #22
10001726:	f020 0007 	bic.w	r0, r0, #7
1000172a:	ec53 2475 	dcp_ryms r2, r3, #0x7
1000172e:	fba0 3c02 	umull	r3, ip, r0, r2
10001732:	ec53 2475 	dcp_ryms r2, r3, #0x7
10001736:	fb00 cc03 	mla	ip, r0, r3, ip
1000173a:	fb01 cc02 	mla	ip, r1, r2, ip
1000173e:	ec53 2404 	dcp_rxms r2, r3, #0x0
10001742:	ebac 4c82 	sub.w	ip, ip, r2, lsl #18
10001746:	ea40 705c 	orr.w	r0, r0, ip, lsr #29
1000174a:	f1a0 0001 	sub.w	r0, r0, #1
1000174e:	ec41 0440 	dcp_wxdd r0, r1
10001752:	ee80 0420 			dcp_nrdd
10001756:	ec51 0470 	dcp_rddd r0, r1
1000175a:	4770      	bx	lr
1000175c:	b500      	push	{lr}
1000175e:	f7ff ff43 	bl	100015e8 <generic_save_state>
10001762:	e002      	b.n	1000176a <__wrap___aeabi_i2d+0x6>

10001764 <__wrap___aeabi_i2d>:
10001764:	fe10 f430 	dcp_pcmp APSR_nzcv
10001768:	d4f8      	bmi.n	1000175c <__wrap___aeabi_ddiv+0x94>
1000176a:	ec40 0470 	dcp_wxic r0, r0
1000176e:	ee00 0401 			dcp_add0
10001772:	ee10 0421 			dcp_sub1
10001776:	ee80 0420 			dcp_nrdd
1000177a:	ec51 0430 	dcp_rdds r0, r1
1000177e:	4770      	bx	lr
10001780:	b500      	push	{lr}
10001782:	f7ff ff31 	bl	100015e8 <generic_save_state>
10001786:	e002      	b.n	1000178e <__wrap___aeabi_ui2d+0x6>

10001788 <__wrap___aeabi_ui2d>:
10001788:	fe10 f430 	dcp_pcmp APSR_nzcv
1000178c:	d4f8      	bmi.n	10001780 <__wrap___aeabi_i2d+0x1c>
1000178e:	ec40 0460 	dcp_wxuc r0, r0
10001792:	ee00 0401 			dcp_add0
10001796:	ee10 0421 			dcp_sub1
1000179a:	ee80 0420 			dcp_nrdd
1000179e:	ec51 0430 	dcp_rdds r0, r1
100017a2:	4770      	bx	lr
100017a4:	b500      	push	{lr}
100017a6:	f7ff ff1f 	bl	100015e8 <generic_save_state>
100017aa:	e002      	b.n	100017b2 <double2int_z_entry>

100017ac <__wrap___aeabi_d2iz>:
100017ac:	fe10 f430 	dcp_pcmp APSR_nzcv
100017b0:	d4f8      	bmi.n	100017a4 <__wrap___aeabi_ui2d+0x1c>

100017b2 <double2int_z_entry>:
100017b2:	ec41 0480 	dcp_wxdc r0, r1
100017b6:	ee00 0401 			dcp_add0
100017ba:	ee10 0401 			dcp_add1
100017be:	ee80 0440 			dcp_ntdc
100017c2:	ee10 0413 			dcp_rdic r0
100017c6:	4770      	bx	lr
100017c8:	b500      	push	{lr}
100017ca:	f7ff ff0d 	bl	100015e8 <generic_save_state>
100017ce:	e002      	b.n	100017d6 <double2uint_z_entry>

100017d0 <__wrap___aeabi_d2uiz>:
100017d0:	fe10 f430 	dcp_pcmp APSR_nzcv
100017d4:	d4f8      	bmi.n	100017c8 <double2int_z_entry+0x16>

100017d6 <double2uint_z_entry>:
100017d6:	ec41 0480 	dcp_wxdc r0, r1
100017da:	ee00 0401 			dcp_add0
100017de:	ee10 0401 			dcp_add1
100017e2:	ee80 0440 			dcp_ntdc
100017e6:	ee10 0433 			dcp_rduc r0
100017ea:	4770      	bx	lr
100017ec:	b500      	push	{lr}
100017ee:	f7ff fefb 	bl	100015e8 <generic_save_state>
100017f2:	e002      	b.n	100017fa <__wrap___aeabi_dcmpun+0x6>

100017f4 <__wrap___aeabi_dcmpun>:
100017f4:	fe10 f430 	dcp_pcmp APSR_nzcv
100017f8:	d4f8      	bmi.n	100017ec <double2uint_z_entry+0x16>
100017fa:	ec41 0410 	dcp_wxup r0, r1
100017fe:	ec43 2411 	dcp_wyup r2, r3
10001802:	ee00 0401 			dcp_add0
10001806:	ee10 0430 			dcp_rcmp r0
1000180a:	f3c0 7000 	ubfx	r0, r0, #28, #1
1000180e:	4770      	bx	lr
10001810:	b500      	push	{lr}
10001812:	f7ff fee9 	bl	100015e8 <generic_save_state>
10001816:	e002      	b.n	1000181e <__wrap___aeabi_dcmplt+0x6>

10001818 <__wrap___aeabi_dcmplt>:
10001818:	fe10 f430 	dcp_pcmp APSR_nzcv
1000181c:	d4f8      	bmi.n	10001810 <__wrap___aeabi_dcmpun+0x1c>
1000181e:	ec43 2410 	dcp_wxup r2, r3
10001822:	ec41 0411 	dcp_wyup r0, r1
10001826:	ee00 0401 			dcp_add0
1000182a:	ee10 f430 			dcp_rcmp APSR_nzcv
1000182e:	bf8c      	ite	hi
10001830:	2001      	movhi	r0, #1
10001832:	2000      	movls	r0, #0
10001834:	4770      	bx	lr
10001836:	bf00      	nop
10001838:	b500      	push	{lr}
1000183a:	f7ff fed5 	bl	100015e8 <generic_save_state>
1000183e:	e002      	b.n	10001846 <__wrap___aeabi_dcmple+0x6>

10001840 <__wrap___aeabi_dcmple>:
10001840:	fe10 f430 	dcp_pcmp APSR_nzcv
10001844:	d4f8      	bmi.n	10001838 <__wrap___aeabi_dcmplt+0x20>
10001846:	ec43 2410 	dcp_wxup r2, r3
1000184a:	ec41 0411 	dcp_wyup r0, r1
1000184e:	ee00 0401 			dcp_add0
10001852:	ee10 f430 			dcp_rcmp APSR_nzcv
10001856:	bf2c      	ite	cs
10001858:	2001      	movcs	r0, #1
1000185a:	2000      	movcc	r0, #0
1000185c:	4770      	bx	lr
1000185e:	bf00      	nop
10001860:	b500      	push	{lr}
10001862:	f7ff fec1 	bl	100015e8 <generic_save_state>
10001866:	e002      	b.n	1000186e <__wrap___aeabi_dcmpge+0x6>

10001868 <__wrap___aeabi_dcmpge>:
10001868:	fe10 f430 	dcp_pcmp APSR_nzcv
1000186c:	d4f8      	bmi.n	10001860 <__wrap___aeabi_dcmple+0x20>
1000186e:	ec41 0410 	dcp_wxup r0, r1
10001872:	ec43 2411 	dcp_wyup r2, r3
10001876:	ee00 0401 			dcp_add0
1000187a:	ee10 f430 			dcp_rcmp APSR_nzcv
1000187e:	bf2c      	ite	cs
10001880:	2001      	movcs	r0, #1
10001882:	2000      	movcc	r0, #0
10001884:	4770      	bx	lr
10001886:	bf00      	nop
10001888:	b500      	push	{lr}
1000188a:	f7ff fead 	bl	100015e8 <generic_save_state>
1000188e:	e002      	b.n	10001896 <__wrap___aeabi_dcmpgt+0x6>

10001890 <__wrap___aeabi_dcmpgt>:
10001890:	fe10 f430 	dcp_pcmp APSR_nzcv
10001894:	d4f8      	bmi.n	10001888 <__wrap___aeabi_dcmpge+0x20>
10001896:	ec41 0410 	dcp_wxup r0, r1
1000189a:	ec43 2411 	dcp_wyup r2, r3
1000189e:	ee00 0401 			dcp_add0
100018a2:	ee10 f430 			dcp_rcmp APSR_nzcv
100018a6:	bf8c      	ite	hi
100018a8:	2001      	movhi	r0, #1
100018aa:	2000      	movls	r0, #0
100018ac:	4770      	bx	lr
100018ae:	bf00      	nop

100018b0 <_out_null>:
100018b0:	4770      	bx	lr
100018b2:	bf00      	nop

100018b4 <_out_rev>:
100018b4:	e92d 4ff0 	stmdb	sp!, {r4, r5, r6, r7, r8, r9, sl, fp, lr}
100018b8:	b083      	sub	sp, #12
100018ba:	4699      	mov	r9, r3
100018bc:	e9dd ab0d 	ldrd	sl, fp, [sp, #52]	@ 0x34
100018c0:	9b0f      	ldr	r3, [sp, #60]	@ 0x3c
100018c2:	4688      	mov	r8, r1
100018c4:	4611      	mov	r1, r2
100018c6:	079a      	lsls	r2, r3, #30
100018c8:	4607      	mov	r7, r0
100018ca:	d116      	bne.n	100018fa <_out_rev+0x46>
100018cc:	45da      	cmp	sl, fp
100018ce:	d23a      	bcs.n	10001946 <_out_rev+0x92>
100018d0:	460c      	mov	r4, r1
100018d2:	460d      	mov	r5, r1
100018d4:	ebab 060a 	sub.w	r6, fp, sl
100018d8:	440e      	add	r6, r1
100018da:	4622      	mov	r2, r4
100018dc:	464b      	mov	r3, r9
100018de:	4641      	mov	r1, r8
100018e0:	2020      	movs	r0, #32
100018e2:	3401      	adds	r4, #1
100018e4:	47b8      	blx	r7
100018e6:	42b4      	cmp	r4, r6
100018e8:	d1f7      	bne.n	100018da <_out_rev+0x26>
100018ea:	4629      	mov	r1, r5
100018ec:	f1ba 0f00 	cmp.w	sl, #0
100018f0:	d108      	bne.n	10001904 <_out_rev+0x50>
100018f2:	4620      	mov	r0, r4
100018f4:	b003      	add	sp, #12
100018f6:	e8bd 8ff0 	ldmia.w	sp!, {r4, r5, r6, r7, r8, r9, sl, fp, pc}
100018fa:	460c      	mov	r4, r1
100018fc:	f1ba 0f00 	cmp.w	sl, #0
10001900:	d010      	beq.n	10001924 <_out_rev+0x70>
10001902:	460e      	mov	r6, r1
10001904:	4655      	mov	r5, sl
10001906:	9b0c      	ldr	r3, [sp, #48]	@ 0x30
10001908:	442e      	add	r6, r5
1000190a:	449a      	add	sl, r3
1000190c:	9101      	str	r1, [sp, #4]
1000190e:	1b72      	subs	r2, r6, r5
10001910:	464b      	mov	r3, r9
10001912:	3d01      	subs	r5, #1
10001914:	4641      	mov	r1, r8
10001916:	f81a 0d01 	ldrb.w	r0, [sl, #-1]!
1000191a:	4634      	mov	r4, r6
1000191c:	47b8      	blx	r7
1000191e:	2d00      	cmp	r5, #0
10001920:	d1f5      	bne.n	1000190e <_out_rev+0x5a>
10001922:	9901      	ldr	r1, [sp, #4]
10001924:	9b0f      	ldr	r3, [sp, #60]	@ 0x3c
10001926:	079b      	lsls	r3, r3, #30
10001928:	d5e3      	bpl.n	100018f2 <_out_rev+0x3e>
1000192a:	1a65      	subs	r5, r4, r1
1000192c:	45ab      	cmp	fp, r5
1000192e:	d9e0      	bls.n	100018f2 <_out_rev+0x3e>
10001930:	4622      	mov	r2, r4
10001932:	464b      	mov	r3, r9
10001934:	4641      	mov	r1, r8
10001936:	2020      	movs	r0, #32
10001938:	3501      	adds	r5, #1
1000193a:	47b8      	blx	r7
1000193c:	455d      	cmp	r5, fp
1000193e:	f104 0401 	add.w	r4, r4, #1
10001942:	d3f5      	bcc.n	10001930 <_out_rev+0x7c>
10001944:	e7d5      	b.n	100018f2 <_out_rev+0x3e>
10001946:	460c      	mov	r4, r1
10001948:	f1ba 0f00 	cmp.w	sl, #0
1000194c:	d1d9      	bne.n	10001902 <_out_rev+0x4e>
1000194e:	e7d0      	b.n	100018f2 <_out_rev+0x3e>

10001950 <_ntoa_format>:
10001950:	e92d 4ff0 	stmdb	sp!, {r4, r5, r6, r7, r8, r9, sl, fp, lr}
10001954:	9f0f      	ldr	r7, [sp, #60]	@ 0x3c
10001956:	f8dd 8024 	ldr.w	r8, [sp, #36]	@ 0x24
1000195a:	f017 0f02 	tst.w	r7, #2
1000195e:	9c0a      	ldr	r4, [sp, #40]	@ 0x28
10001960:	f89d a02c 	ldrb.w	sl, [sp, #44]	@ 0x2c
10001964:	9d0e      	ldr	r5, [sp, #56]	@ 0x38
10001966:	e9dd 960c 	ldrd	r9, r6, [sp, #48]	@ 0x30
1000196a:	d144      	bne.n	100019f6 <_ntoa_format+0xa6>
1000196c:	bbf5      	cbnz	r5, 100019ec <_ntoa_format+0x9c>
1000196e:	42b4      	cmp	r4, r6
10001970:	d241      	bcs.n	100019f6 <_ntoa_format+0xa6>
10001972:	f007 0b01 	and.w	fp, r7, #1
10001976:	f104 3cff 	add.w	ip, r4, #4294967295
1000197a:	f04f 0e30 	mov.w	lr, #48	@ 0x30
1000197e:	44c4      	add	ip, r8
10001980:	e004      	b.n	1000198c <_ntoa_format+0x3c>
10001982:	3401      	adds	r4, #1
10001984:	42a6      	cmp	r6, r4
10001986:	f80c ef01 	strb.w	lr, [ip, #1]!
1000198a:	d901      	bls.n	10001990 <_ntoa_format+0x40>
1000198c:	2c20      	cmp	r4, #32
1000198e:	d1f8      	bne.n	10001982 <_ntoa_format+0x32>
10001990:	f1bb 0f00 	cmp.w	fp, #0
10001994:	f000 8088 	beq.w	10001aa8 <_ntoa_format+0x158>
10001998:	42a5      	cmp	r5, r4
1000199a:	d92c      	bls.n	100019f6 <_ntoa_format+0xa6>
1000199c:	f104 3cff 	add.w	ip, r4, #4294967295
100019a0:	f04f 0e30 	mov.w	lr, #48	@ 0x30
100019a4:	44c4      	add	ip, r8
100019a6:	e004      	b.n	100019b2 <_ntoa_format+0x62>
100019a8:	3401      	adds	r4, #1
100019aa:	42ac      	cmp	r4, r5
100019ac:	f80c ef01 	strb.w	lr, [ip, #1]!
100019b0:	d021      	beq.n	100019f6 <_ntoa_format+0xa6>
100019b2:	2c20      	cmp	r4, #32
100019b4:	d1f8      	bne.n	100019a8 <_ntoa_format+0x58>
100019b6:	f017 0f10 	tst.w	r7, #16
100019ba:	d00e      	beq.n	100019da <_ntoa_format+0x8a>
100019bc:	f417 6f80 	tst.w	r7, #1024	@ 0x400
100019c0:	d154      	bne.n	10001a6c <_ntoa_format+0x11c>
100019c2:	42a6      	cmp	r6, r4
100019c4:	d063      	beq.n	10001a8e <_ntoa_format+0x13e>
100019c6:	42a5      	cmp	r5, r4
100019c8:	d061      	beq.n	10001a8e <_ntoa_format+0x13e>
100019ca:	f1b9 0f10 	cmp.w	r9, #16
100019ce:	d050      	beq.n	10001a72 <_ntoa_format+0x122>
100019d0:	f1b9 0f02 	cmp.w	r9, #2
100019d4:	d056      	beq.n	10001a84 <_ntoa_format+0x134>
100019d6:	2c20      	cmp	r4, #32
100019d8:	d129      	bne.n	10001a2e <_ntoa_format+0xde>
100019da:	2420      	movs	r4, #32
100019dc:	e9cd 570b 	strd	r5, r7, [sp, #44]	@ 0x2c
100019e0:	e9cd 8409 	strd	r8, r4, [sp, #36]	@ 0x24
100019e4:	e8bd 4ff0 	ldmia.w	sp!, {r4, r5, r6, r7, r8, r9, sl, fp, lr}
100019e8:	f7ff bf64 	b.w	100018b4 <_out_rev>
100019ec:	f017 0b01 	ands.w	fp, r7, #1
100019f0:	d134      	bne.n	10001a5c <_ntoa_format+0x10c>
100019f2:	42b4      	cmp	r4, r6
100019f4:	d3bf      	bcc.n	10001976 <_ntoa_format+0x26>
100019f6:	f017 0f10 	tst.w	r7, #16
100019fa:	d01e      	beq.n	10001a3a <_ntoa_format+0xea>
100019fc:	f417 6f80 	tst.w	r7, #1024	@ 0x400
10001a00:	d1e3      	bne.n	100019ca <_ntoa_format+0x7a>
10001a02:	2c00      	cmp	r4, #0
10001a04:	d1dd      	bne.n	100019c2 <_ntoa_format+0x72>
10001a06:	f1b9 0f10 	cmp.w	r9, #16
10001a0a:	d063      	beq.n	10001ad4 <_ntoa_format+0x184>
10001a0c:	f1b9 0f02 	cmp.w	r9, #2
10001a10:	d077      	beq.n	10001b02 <_ntoa_format+0x1b2>
10001a12:	2430      	movs	r4, #48	@ 0x30
10001a14:	f888 4000 	strb.w	r4, [r8]
10001a18:	2401      	movs	r4, #1
10001a1a:	f1ba 0f00 	cmp.w	sl, #0
10001a1e:	d111      	bne.n	10001a44 <_ntoa_format+0xf4>
10001a20:	077e      	lsls	r6, r7, #29
10001a22:	d548      	bpl.n	10001ab6 <_ntoa_format+0x166>
10001a24:	262b      	movs	r6, #43	@ 0x2b
10001a26:	f808 6004 	strb.w	r6, [r8, r4]
10001a2a:	3401      	adds	r4, #1
10001a2c:	e7d6      	b.n	100019dc <_ntoa_format+0x8c>
10001a2e:	4626      	mov	r6, r4
10001a30:	3401      	adds	r4, #1
10001a32:	f04f 0c30 	mov.w	ip, #48	@ 0x30
10001a36:	f808 c006 	strb.w	ip, [r8, r6]
10001a3a:	2c20      	cmp	r4, #32
10001a3c:	d0cd      	beq.n	100019da <_ntoa_format+0x8a>
10001a3e:	f1ba 0f00 	cmp.w	sl, #0
10001a42:	d0ed      	beq.n	10001a20 <_ntoa_format+0xd0>
10001a44:	262d      	movs	r6, #45	@ 0x2d
10001a46:	f808 6004 	strb.w	r6, [r8, r4]
10001a4a:	3401      	adds	r4, #1
10001a4c:	e9cd 570b 	strd	r5, r7, [sp, #44]	@ 0x2c
10001a50:	e9cd 8409 	strd	r8, r4, [sp, #36]	@ 0x24
10001a54:	e8bd 4ff0 	ldmia.w	sp!, {r4, r5, r6, r7, r8, r9, sl, fp, lr}
10001a58:	f7ff bf2c 	b.w	100018b4 <_out_rev>
10001a5c:	f1ba 0f00 	cmp.w	sl, #0
10001a60:	d030      	beq.n	10001ac4 <_ntoa_format+0x174>
10001a62:	42b4      	cmp	r4, r6
10001a64:	f105 35ff 	add.w	r5, r5, #4294967295
10001a68:	d385      	bcc.n	10001976 <_ntoa_format+0x26>
10001a6a:	e795      	b.n	10001998 <_ntoa_format+0x48>
10001a6c:	f1b9 0f10 	cmp.w	r9, #16
10001a70:	d1b3      	bne.n	100019da <_ntoa_format+0x8a>
10001a72:	06be      	lsls	r6, r7, #26
10001a74:	d53b      	bpl.n	10001aee <_ntoa_format+0x19e>
10001a76:	2c20      	cmp	r4, #32
10001a78:	d0af      	beq.n	100019da <_ntoa_format+0x8a>
10001a7a:	2658      	movs	r6, #88	@ 0x58
10001a7c:	f808 6004 	strb.w	r6, [r8, r4]
10001a80:	3401      	adds	r4, #1
10001a82:	e7a8      	b.n	100019d6 <_ntoa_format+0x86>
10001a84:	2c20      	cmp	r4, #32
10001a86:	d0a8      	beq.n	100019da <_ntoa_format+0x8a>
10001a88:	4626      	mov	r6, r4
10001a8a:	3401      	adds	r4, #1
10001a8c:	e007      	b.n	10001a9e <_ntoa_format+0x14e>
10001a8e:	1e66      	subs	r6, r4, #1
10001a90:	d0b9      	beq.n	10001a06 <_ntoa_format+0xb6>
10001a92:	f1b9 0f10 	cmp.w	r9, #16
10001a96:	d036      	beq.n	10001b06 <_ntoa_format+0x1b6>
10001a98:	f1b9 0f02 	cmp.w	r9, #2
10001a9c:	d1c9      	bne.n	10001a32 <_ntoa_format+0xe2>
10001a9e:	f04f 0c62 	mov.w	ip, #98	@ 0x62
10001aa2:	f808 c006 	strb.w	ip, [r8, r6]
10001aa6:	e796      	b.n	100019d6 <_ntoa_format+0x86>
10001aa8:	f017 0f10 	tst.w	r7, #16
10001aac:	d0c5      	beq.n	10001a3a <_ntoa_format+0xea>
10001aae:	f417 6f80 	tst.w	r7, #1024	@ 0x400
10001ab2:	d086      	beq.n	100019c2 <_ntoa_format+0x72>
10001ab4:	e789      	b.n	100019ca <_ntoa_format+0x7a>
10001ab6:	073e      	lsls	r6, r7, #28
10001ab8:	d590      	bpl.n	100019dc <_ntoa_format+0x8c>
10001aba:	2620      	movs	r6, #32
10001abc:	f808 6004 	strb.w	r6, [r8, r4]
10001ac0:	3401      	adds	r4, #1
10001ac2:	e78b      	b.n	100019dc <_ntoa_format+0x8c>
10001ac4:	f017 0f0c 	tst.w	r7, #12
10001ac8:	d000      	beq.n	10001acc <_ntoa_format+0x17c>
10001aca:	3d01      	subs	r5, #1
10001acc:	42b4      	cmp	r4, r6
10001ace:	f4ff af52 	bcc.w	10001976 <_ntoa_format+0x26>
10001ad2:	e761      	b.n	10001998 <_ntoa_format+0x48>
10001ad4:	06bc      	lsls	r4, r7, #26
10001ad6:	d412      	bmi.n	10001afe <_ntoa_format+0x1ae>
10001ad8:	2478      	movs	r4, #120	@ 0x78
10001ada:	f888 4000 	strb.w	r4, [r8]
10001ade:	2430      	movs	r4, #48	@ 0x30
10001ae0:	f888 4001 	strb.w	r4, [r8, #1]
10001ae4:	2402      	movs	r4, #2
10001ae6:	f1ba 0f00 	cmp.w	sl, #0
10001aea:	d099      	beq.n	10001a20 <_ntoa_format+0xd0>
10001aec:	e7aa      	b.n	10001a44 <_ntoa_format+0xf4>
10001aee:	2c20      	cmp	r4, #32
10001af0:	f43f af73 	beq.w	100019da <_ntoa_format+0x8a>
10001af4:	2678      	movs	r6, #120	@ 0x78
10001af6:	f808 6004 	strb.w	r6, [r8, r4]
10001afa:	3401      	adds	r4, #1
10001afc:	e76b      	b.n	100019d6 <_ntoa_format+0x86>
10001afe:	2458      	movs	r4, #88	@ 0x58
10001b00:	e7eb      	b.n	10001ada <_ntoa_format+0x18a>
10001b02:	2462      	movs	r4, #98	@ 0x62
10001b04:	e7e9      	b.n	10001ada <_ntoa_format+0x18a>
10001b06:	f017 0f20 	tst.w	r7, #32
10001b0a:	f1a4 0c02 	sub.w	ip, r4, #2
10001b0e:	d004      	beq.n	10001b1a <_ntoa_format+0x1ca>
10001b10:	f04f 0e58 	mov.w	lr, #88	@ 0x58
10001b14:	f808 e00c 	strb.w	lr, [r8, ip]
10001b18:	e78b      	b.n	10001a32 <_ntoa_format+0xe2>
10001b1a:	f04f 0e78 	mov.w	lr, #120	@ 0x78
10001b1e:	f808 e00c 	strb.w	lr, [r8, ip]
10001b22:	e786      	b.n	10001a32 <_ntoa_format+0xe2>

10001b24 <_out_char>:
10001b24:	b900      	cbnz	r0, 10001b28 <_out_char+0x4>
10001b26:	4770      	bx	lr
10001b28:	f001 bb72 	b.w	10003210 <__wrap_putchar>

10001b2c <_out_fct>:
10001b2c:	b110      	cbz	r0, 10001b34 <_out_fct+0x8>
10001b2e:	e9d1 3100 	ldrd	r3, r1, [r1]
10001b32:	4718      	bx	r3
10001b34:	4770      	bx	lr
10001b36:	bf00      	nop

10001b38 <_ftoa>:
10001b38:	e92d 4ff0 	stmdb	sp!, {r4, r5, r6, r7, r8, r9, sl, fp, lr}
10001b3c:	b097      	sub	sp, #92	@ 0x5c
10001b3e:	ed9d 7b20 	vldr	d7, [sp, #128]	@ 0x80
10001b42:	e9dd 5b22 	ldrd	r5, fp, [sp, #136]	@ 0x88
10001b46:	4607      	mov	r7, r0
10001b48:	4688      	mov	r8, r1
10001b4a:	ec51 0b17 	vmov	r0, r1, d7
10001b4e:	9c24      	ldr	r4, [sp, #144]	@ 0x90
10001b50:	4699      	mov	r9, r3
10001b52:	920c      	str	r2, [sp, #48]	@ 0x30
10001b54:	460b      	mov	r3, r1
10001b56:	4602      	mov	r2, r0
10001b58:	ed8d 7b04 	vstr	d7, [sp, #16]
10001b5c:	9407      	str	r4, [sp, #28]
10001b5e:	f7ff fe49 	bl	100017f4 <__wrap___aeabi_dcmpun>
10001b62:	2800      	cmp	r0, #0
10001b64:	f040 81f4 	bne.w	10001f50 <_ftoa+0x418>
10001b68:	e9dd 0104 	ldrd	r0, r1, [sp, #16]
10001b6c:	f04f 32ff 	mov.w	r2, #4294967295
10001b70:	f46f 1380 	mvn.w	r3, #1048576	@ 0x100000
10001b74:	f7ff fe50 	bl	10001818 <__wrap___aeabi_dcmplt>
10001b78:	2800      	cmp	r0, #0
10001b7a:	f040 811b 	bne.w	10001db4 <_ftoa+0x27c>
10001b7e:	e9dd 0104 	ldrd	r0, r1, [sp, #16]
10001b82:	f04f 32ff 	mov.w	r2, #4294967295
10001b86:	4bac      	ldr	r3, [pc, #688]	@ (10001e38 <_ftoa+0x300>)
10001b88:	f7ff fe82 	bl	10001890 <__wrap___aeabi_dcmpgt>
10001b8c:	2800      	cmp	r0, #0
10001b8e:	f040 80ee 	bne.w	10001d6e <_ftoa+0x236>
10001b92:	e9dd 0104 	ldrd	r0, r1, [sp, #16]
10001b96:	a3a4      	add	r3, pc, #656	@ (adr r3, 10001e28 <_ftoa+0x2f0>)
10001b98:	e9d3 2300 	ldrd	r2, r3, [r3]
10001b9c:	f7ff fe78 	bl	10001890 <__wrap___aeabi_dcmpgt>
10001ba0:	2800      	cmp	r0, #0
10001ba2:	f040 80d3 	bne.w	10001d4c <_ftoa+0x214>
10001ba6:	e9dd 0104 	ldrd	r0, r1, [sp, #16]
10001baa:	a3a1      	add	r3, pc, #644	@ (adr r3, 10001e30 <_ftoa+0x2f8>)
10001bac:	e9d3 2300 	ldrd	r2, r3, [r3]
10001bb0:	f7ff fe32 	bl	10001818 <__wrap___aeabi_dcmplt>
10001bb4:	2800      	cmp	r0, #0
10001bb6:	f040 80c9 	bne.w	10001d4c <_ftoa+0x214>
10001bba:	e9dd 0104 	ldrd	r0, r1, [sp, #16]
10001bbe:	2200      	movs	r2, #0
10001bc0:	2300      	movs	r3, #0
10001bc2:	f7ff fe29 	bl	10001818 <__wrap___aeabi_dcmplt>
10001bc6:	2800      	cmp	r0, #0
10001bc8:	f040 80e8 	bne.w	10001d9c <_ftoa+0x264>
10001bcc:	4623      	mov	r3, r4
10001bce:	900d      	str	r0, [sp, #52]	@ 0x34
10001bd0:	f413 6f80 	tst.w	r3, #1024	@ 0x400
10001bd4:	bf08      	it	eq
10001bd6:	2506      	moveq	r5, #6
10001bd8:	2130      	movs	r1, #48	@ 0x30
10001bda:	462b      	mov	r3, r5
10001bdc:	aa0e      	add	r2, sp, #56	@ 0x38
10001bde:	f1a5 0620 	sub.w	r6, r5, #32
10001be2:	e005      	b.n	10001bf0 <_ftoa+0xb8>
10001be4:	3b01      	subs	r3, #1
10001be6:	42b3      	cmp	r3, r6
10001be8:	f802 1b01 	strb.w	r1, [r2], #1
10001bec:	f000 8193 	beq.w	10001f16 <_ftoa+0x3de>
10001bf0:	2b09      	cmp	r3, #9
10001bf2:	d8f7      	bhi.n	10001be4 <_ftoa+0xac>
10001bf4:	461e      	mov	r6, r3
10001bf6:	1aed      	subs	r5, r5, r3
10001bf8:	e9dd 0104 	ldrd	r0, r1, [sp, #16]
10001bfc:	f7ff fdd6 	bl	100017ac <__wrap___aeabi_d2iz>
10001c00:	4b8e      	ldr	r3, [pc, #568]	@ (10001e3c <_ftoa+0x304>)
10001c02:	4604      	mov	r4, r0
10001c04:	eb03 03c6 	add.w	r3, r3, r6, lsl #3
10001c08:	ed93 7b00 	vldr	d7, [r3]
10001c0c:	ed8d 7b08 	vstr	d7, [sp, #32]
10001c10:	f7ff fda8 	bl	10001764 <__wrap___aeabi_i2d>
10001c14:	4602      	mov	r2, r0
10001c16:	460b      	mov	r3, r1
10001c18:	e9dd 0104 	ldrd	r0, r1, [sp, #16]
10001c1c:	f7ff fd1a 	bl	10001654 <__wrap___aeabi_dsub>
10001c20:	e9dd 2308 	ldrd	r2, r3, [sp, #32]
10001c24:	f7ff fd2a 	bl	1000167c <__wrap___aeabi_dmul>
10001c28:	4602      	mov	r2, r0
10001c2a:	460b      	mov	r3, r1
10001c2c:	e9cd 230a 	strd	r2, r3, [sp, #40]	@ 0x28
10001c30:	f7ff fdce 	bl	100017d0 <__wrap___aeabi_d2uiz>
10001c34:	4682      	mov	sl, r0
10001c36:	f7ff fda7 	bl	10001788 <__wrap___aeabi_ui2d>
10001c3a:	4602      	mov	r2, r0
10001c3c:	460b      	mov	r3, r1
10001c3e:	e9dd 010a 	ldrd	r0, r1, [sp, #40]	@ 0x28
10001c42:	f7ff fd07 	bl	10001654 <__wrap___aeabi_dsub>
10001c46:	4602      	mov	r2, r0
10001c48:	460b      	mov	r3, r1
10001c4a:	e9cd 230a 	strd	r2, r3, [sp, #40]	@ 0x28
10001c4e:	2200      	movs	r2, #0
10001c50:	4b7b      	ldr	r3, [pc, #492]	@ (10001e40 <_ftoa+0x308>)
10001c52:	f7ff fe1d 	bl	10001890 <__wrap___aeabi_dcmpgt>
10001c56:	2800      	cmp	r0, #0
10001c58:	f000 80fe 	beq.w	10001e58 <_ftoa+0x320>
10001c5c:	f10a 0a01 	add.w	sl, sl, #1
10001c60:	4650      	mov	r0, sl
10001c62:	f7ff fd91 	bl	10001788 <__wrap___aeabi_ui2d>
10001c66:	4602      	mov	r2, r0
10001c68:	460b      	mov	r3, r1
10001c6a:	e9dd 0108 	ldrd	r0, r1, [sp, #32]
10001c6e:	f7ff fde7 	bl	10001840 <__wrap___aeabi_dcmple>
10001c72:	b110      	cbz	r0, 10001c7a <_ftoa+0x142>
10001c74:	f04f 0a00 	mov.w	sl, #0
10001c78:	3401      	adds	r4, #1
10001c7a:	2e00      	cmp	r6, #0
10001c7c:	f000 80fd 	beq.w	10001e7a <_ftoa+0x342>
10001c80:	1e68      	subs	r0, r5, #1
10001c82:	ab0e      	add	r3, sp, #56	@ 0x38
10001c84:	f8df c1cc 	ldr.w	ip, [pc, #460]	@ 10001e54 <_ftoa+0x31c>
10001c88:	4418      	add	r0, r3
10001c8a:	e00f      	b.n	10001cac <_ftoa+0x174>
10001c8c:	fbac 210a 	umull	r2, r1, ip, sl
10001c90:	08c9      	lsrs	r1, r1, #3
10001c92:	eb01 0281 	add.w	r2, r1, r1, lsl #2
10001c96:	ebaa 0242 	sub.w	r2, sl, r2, lsl #1
10001c9a:	3230      	adds	r2, #48	@ 0x30
10001c9c:	f1ba 0f09 	cmp.w	sl, #9
10001ca0:	f800 2f01 	strb.w	r2, [r0, #1]!
10001ca4:	f240 811c 	bls.w	10001ee0 <_ftoa+0x3a8>
10001ca8:	468a      	mov	sl, r1
10001caa:	461d      	mov	r5, r3
10001cac:	2d20      	cmp	r5, #32
10001cae:	f105 0301 	add.w	r3, r5, #1
10001cb2:	f106 36ff 	add.w	r6, r6, #4294967295
10001cb6:	d1e9      	bne.n	10001c8c <_ftoa+0x154>
10001cb8:	2520      	movs	r5, #32
10001cba:	1e69      	subs	r1, r5, #1
10001cbc:	ab0e      	add	r3, sp, #56	@ 0x38
10001cbe:	4861      	ldr	r0, [pc, #388]	@ (10001e44 <_ftoa+0x30c>)
10001cc0:	4419      	add	r1, r3
10001cc2:	e010      	b.n	10001ce6 <_ftoa+0x1ae>
10001cc4:	fb80 6204 	smull	r6, r2, r0, r4
10001cc8:	ebc3 03a2 	rsb	r3, r3, r2, asr #2
10001ccc:	eb03 0283 	add.w	r2, r3, r3, lsl #2
10001cd0:	eba4 0442 	sub.w	r4, r4, r2, lsl #1
10001cd4:	f104 0230 	add.w	r2, r4, #48	@ 0x30
10001cd8:	3501      	adds	r5, #1
10001cda:	461c      	mov	r4, r3
10001cdc:	f801 2f01 	strb.w	r2, [r1, #1]!
10001ce0:	2b00      	cmp	r3, #0
10001ce2:	f000 80eb 	beq.w	10001ebc <_ftoa+0x384>
10001ce6:	2d20      	cmp	r5, #32
10001ce8:	ea4f 73e4 	mov.w	r3, r4, asr #31
10001cec:	d1ea      	bne.n	10001cc4 <_ftoa+0x18c>
10001cee:	9b07      	ldr	r3, [sp, #28]
10001cf0:	f003 0303 	and.w	r3, r3, #3
10001cf4:	2b01      	cmp	r3, #1
10001cf6:	d118      	bne.n	10001d2a <_ftoa+0x1f2>
10001cf8:	f1bb 0f00 	cmp.w	fp, #0
10001cfc:	d015      	beq.n	10001d2a <_ftoa+0x1f2>
10001cfe:	9b0d      	ldr	r3, [sp, #52]	@ 0x34
10001d00:	2b00      	cmp	r3, #0
10001d02:	f000 810a 	beq.w	10001f1a <_ftoa+0x3e2>
10001d06:	f10b 3bff 	add.w	fp, fp, #4294967295
10001d0a:	f1bb 0f20 	cmp.w	fp, #32
10001d0e:	d90c      	bls.n	10001d2a <_ftoa+0x1f2>
10001d10:	1e6b      	subs	r3, r5, #1
10001d12:	a90e      	add	r1, sp, #56	@ 0x38
10001d14:	2230      	movs	r2, #48	@ 0x30
10001d16:	440b      	add	r3, r1
10001d18:	e005      	b.n	10001d26 <_ftoa+0x1ee>
10001d1a:	3501      	adds	r5, #1
10001d1c:	455d      	cmp	r5, fp
10001d1e:	f803 2f01 	strb.w	r2, [r3, #1]!
10001d22:	f080 80d1 	bcs.w	10001ec8 <_ftoa+0x390>
10001d26:	2d20      	cmp	r5, #32
10001d28:	d1f7      	bne.n	10001d1a <_ftoa+0x1e2>
10001d2a:	9b07      	ldr	r3, [sp, #28]
10001d2c:	ac0e      	add	r4, sp, #56	@ 0x38
10001d2e:	e9cd b302 	strd	fp, r3, [sp, #8]
10001d32:	4641      	mov	r1, r8
10001d34:	464b      	mov	r3, r9
10001d36:	4638      	mov	r0, r7
10001d38:	9a0c      	ldr	r2, [sp, #48]	@ 0x30
10001d3a:	9501      	str	r5, [sp, #4]
10001d3c:	9400      	str	r4, [sp, #0]
10001d3e:	f7ff fdb9 	bl	100018b4 <_out_rev>
10001d42:	4682      	mov	sl, r0
10001d44:	4650      	mov	r0, sl
10001d46:	b017      	add	sp, #92	@ 0x5c
10001d48:	e8bd 8ff0 	ldmia.w	sp!, {r4, r5, r6, r7, r8, r9, sl, fp, pc}
10001d4c:	9b07      	ldr	r3, [sp, #28]
10001d4e:	ed9d 7b04 	vldr	d7, [sp, #16]
10001d52:	e9cd b323 	strd	fp, r3, [sp, #140]	@ 0x8c
10001d56:	4641      	mov	r1, r8
10001d58:	464b      	mov	r3, r9
10001d5a:	4638      	mov	r0, r7
10001d5c:	9a0c      	ldr	r2, [sp, #48]	@ 0x30
10001d5e:	ed8d 7b20 	vstr	d7, [sp, #128]	@ 0x80
10001d62:	9522      	str	r5, [sp, #136]	@ 0x88
10001d64:	b017      	add	sp, #92	@ 0x5c
10001d66:	e8bd 4ff0 	ldmia.w	sp!, {r4, r5, r6, r7, r8, r9, sl, fp, lr}
10001d6a:	f000 b945 	b.w	10001ff8 <_etoa>
10001d6e:	0761      	lsls	r1, r4, #29
10001d70:	4623      	mov	r3, r4
10001d72:	bf4c      	ite	mi
10001d74:	2304      	movmi	r3, #4
10001d76:	2303      	movpl	r3, #3
10001d78:	4641      	mov	r1, r8
10001d7a:	9321      	str	r3, [sp, #132]	@ 0x84
10001d7c:	4638      	mov	r0, r7
10001d7e:	464b      	mov	r3, r9
10001d80:	9a07      	ldr	r2, [sp, #28]
10001d82:	bf48      	it	mi
10001d84:	4c30      	ldrmi	r4, [pc, #192]	@ (10001e48 <_ftoa+0x310>)
10001d86:	e9cd b222 	strd	fp, r2, [sp, #136]	@ 0x88
10001d8a:	bf58      	it	pl
10001d8c:	4c2f      	ldrpl	r4, [pc, #188]	@ (10001e4c <_ftoa+0x314>)
10001d8e:	9a0c      	ldr	r2, [sp, #48]	@ 0x30
10001d90:	9420      	str	r4, [sp, #128]	@ 0x80
10001d92:	b017      	add	sp, #92	@ 0x5c
10001d94:	e8bd 4ff0 	ldmia.w	sp!, {r4, r5, r6, r7, r8, r9, sl, fp, lr}
10001d98:	f7ff bd8c 	b.w	100018b4 <_out_rev>
10001d9c:	e9dd 2304 	ldrd	r2, r3, [sp, #16]
10001da0:	2000      	movs	r0, #0
10001da2:	2100      	movs	r1, #0
10001da4:	f7ff fc56 	bl	10001654 <__wrap___aeabi_dsub>
10001da8:	2301      	movs	r3, #1
10001daa:	e9cd 0104 	strd	r0, r1, [sp, #16]
10001dae:	930d      	str	r3, [sp, #52]	@ 0x34
10001db0:	4623      	mov	r3, r4
10001db2:	e70d      	b.n	10001bd0 <_ftoa+0x98>
10001db4:	4623      	mov	r3, r4
10001db6:	079c      	lsls	r4, r3, #30
10001db8:	f040 80aa 	bne.w	10001f10 <_ftoa+0x3d8>
10001dbc:	f1bb 0f04 	cmp.w	fp, #4
10001dc0:	f240 80a6 	bls.w	10001f10 <_ftoa+0x3d8>
10001dc4:	9b0c      	ldr	r3, [sp, #48]	@ 0x30
10001dc6:	461d      	mov	r5, r3
10001dc8:	1f1c      	subs	r4, r3, #4
10001dca:	eb04 0a0b 	add.w	sl, r4, fp
10001dce:	462a      	mov	r2, r5
10001dd0:	464b      	mov	r3, r9
10001dd2:	4641      	mov	r1, r8
10001dd4:	2020      	movs	r0, #32
10001dd6:	3501      	adds	r5, #1
10001dd8:	47b8      	blx	r7
10001dda:	45aa      	cmp	sl, r5
10001ddc:	d1f7      	bne.n	10001dce <_ftoa+0x296>
10001dde:	4655      	mov	r5, sl
10001de0:	4c1b      	ldr	r4, [pc, #108]	@ (10001e50 <_ftoa+0x318>)
10001de2:	1f26      	subs	r6, r4, #4
10001de4:	f814 0d01 	ldrb.w	r0, [r4, #-1]!
10001de8:	462a      	mov	r2, r5
10001dea:	464b      	mov	r3, r9
10001dec:	4641      	mov	r1, r8
10001dee:	47b8      	blx	r7
10001df0:	42b4      	cmp	r4, r6
10001df2:	f105 0501 	add.w	r5, r5, #1
10001df6:	d1f5      	bne.n	10001de4 <_ftoa+0x2ac>
10001df8:	9b07      	ldr	r3, [sp, #28]
10001dfa:	f10a 0a04 	add.w	sl, sl, #4
10001dfe:	0798      	lsls	r0, r3, #30
10001e00:	d5a0      	bpl.n	10001d44 <_ftoa+0x20c>
10001e02:	9c0c      	ldr	r4, [sp, #48]	@ 0x30
10001e04:	ebaa 0304 	sub.w	r3, sl, r4
10001e08:	459b      	cmp	fp, r3
10001e0a:	d99b      	bls.n	10001d44 <_ftoa+0x20c>
10001e0c:	4652      	mov	r2, sl
10001e0e:	464b      	mov	r3, r9
10001e10:	4641      	mov	r1, r8
10001e12:	2020      	movs	r0, #32
10001e14:	f10a 0a01 	add.w	sl, sl, #1
10001e18:	47b8      	blx	r7
10001e1a:	ebaa 0304 	sub.w	r3, sl, r4
10001e1e:	455b      	cmp	r3, fp
10001e20:	d3f4      	bcc.n	10001e0c <_ftoa+0x2d4>
10001e22:	e78f      	b.n	10001d44 <_ftoa+0x20c>
10001e24:	f3af 8000 	nop.w
10001e28:	00000000 	.word	0x00000000
10001e2c:	41cdcd65 	.word	0x41cdcd65
10001e30:	00000000 	.word	0x00000000
10001e34:	c1cdcd65 	.word	0xc1cdcd65
10001e38:	7fefffff 	.word	0x7fefffff
10001e3c:	100038e8 	.word	0x100038e8
10001e40:	3fe00000 	.word	0x3fe00000
10001e44:	66666667 	.word	0x66666667
10001e48:	10003844 	.word	0x10003844
10001e4c:	1000384c 	.word	0x1000384c
10001e50:	10003858 	.word	0x10003858
10001e54:	cccccccd 	.word	0xcccccccd
10001e58:	2200      	movs	r2, #0
10001e5a:	e9dd 010a 	ldrd	r0, r1, [sp, #40]	@ 0x28
10001e5e:	4b63      	ldr	r3, [pc, #396]	@ (10001fec <_ftoa+0x4b4>)
10001e60:	f7ff fcda 	bl	10001818 <__wrap___aeabi_dcmplt>
10001e64:	2800      	cmp	r0, #0
10001e66:	f47f af08 	bne.w	10001c7a <_ftoa+0x142>
10001e6a:	f1ba 0f00 	cmp.w	sl, #0
10001e6e:	d16a      	bne.n	10001f46 <_ftoa+0x40e>
10001e70:	f10a 0a01 	add.w	sl, sl, #1
10001e74:	2e00      	cmp	r6, #0
10001e76:	f47f af03 	bne.w	10001c80 <_ftoa+0x148>
10001e7a:	4620      	mov	r0, r4
10001e7c:	f7ff fc72 	bl	10001764 <__wrap___aeabi_i2d>
10001e80:	4602      	mov	r2, r0
10001e82:	460b      	mov	r3, r1
10001e84:	e9dd 0104 	ldrd	r0, r1, [sp, #16]
10001e88:	f7ff fbe4 	bl	10001654 <__wrap___aeabi_dsub>
10001e8c:	4602      	mov	r2, r0
10001e8e:	460b      	mov	r3, r1
10001e90:	e9cd 2304 	strd	r2, r3, [sp, #16]
10001e94:	2200      	movs	r2, #0
10001e96:	4b55      	ldr	r3, [pc, #340]	@ (10001fec <_ftoa+0x4b4>)
10001e98:	f7ff fcbe 	bl	10001818 <__wrap___aeabi_dcmplt>
10001e9c:	2800      	cmp	r0, #0
10001e9e:	f47f af0c 	bne.w	10001cba <_ftoa+0x182>
10001ea2:	e9dd 0104 	ldrd	r0, r1, [sp, #16]
10001ea6:	2200      	movs	r2, #0
10001ea8:	4b50      	ldr	r3, [pc, #320]	@ (10001fec <_ftoa+0x4b4>)
10001eaa:	f7ff fcf1 	bl	10001890 <__wrap___aeabi_dcmpgt>
10001eae:	2800      	cmp	r0, #0
10001eb0:	f47f af03 	bne.w	10001cba <_ftoa+0x182>
10001eb4:	3401      	adds	r4, #1
10001eb6:	f024 0401 	bic.w	r4, r4, #1
10001eba:	e6fe      	b.n	10001cba <_ftoa+0x182>
10001ebc:	9b07      	ldr	r3, [sp, #28]
10001ebe:	f003 0303 	and.w	r3, r3, #3
10001ec2:	2b01      	cmp	r3, #1
10001ec4:	f000 8082 	beq.w	10001fcc <_ftoa+0x494>
10001ec8:	2d20      	cmp	r5, #32
10001eca:	f43f af2e 	beq.w	10001d2a <_ftoa+0x1f2>
10001ece:	9b0d      	ldr	r3, [sp, #52]	@ 0x34
10001ed0:	b37b      	cbz	r3, 10001f32 <_ftoa+0x3fa>
10001ed2:	222d      	movs	r2, #45	@ 0x2d
10001ed4:	eb0d 0305 	add.w	r3, sp, r5
10001ed8:	f883 2038 	strb.w	r2, [r3, #56]	@ 0x38
10001edc:	3501      	adds	r5, #1
10001ede:	e724      	b.n	10001d2a <_ftoa+0x1f2>
10001ee0:	2b20      	cmp	r3, #32
10001ee2:	f43f aee9 	beq.w	10001cb8 <_ftoa+0x180>
10001ee6:	aa0e      	add	r2, sp, #56	@ 0x38
10001ee8:	4415      	add	r5, r2
10001eea:	441e      	add	r6, r3
10001eec:	2230      	movs	r2, #48	@ 0x30
10001eee:	e004      	b.n	10001efa <_ftoa+0x3c2>
10001ef0:	2b20      	cmp	r3, #32
10001ef2:	f805 2f01 	strb.w	r2, [r5, #1]!
10001ef6:	f43f aedf 	beq.w	10001cb8 <_ftoa+0x180>
10001efa:	429e      	cmp	r6, r3
10001efc:	f103 0301 	add.w	r3, r3, #1
10001f00:	d1f6      	bne.n	10001ef0 <_ftoa+0x3b8>
10001f02:	222e      	movs	r2, #46	@ 0x2e
10001f04:	eb0d 0306 	add.w	r3, sp, r6
10001f08:	f883 2038 	strb.w	r2, [r3, #56]	@ 0x38
10001f0c:	1c75      	adds	r5, r6, #1
10001f0e:	e6d4      	b.n	10001cba <_ftoa+0x182>
10001f10:	f8dd a030 	ldr.w	sl, [sp, #48]	@ 0x30
10001f14:	e763      	b.n	10001dde <_ftoa+0x2a6>
10001f16:	2520      	movs	r5, #32
10001f18:	e66e      	b.n	10001bf8 <_ftoa+0xc0>
10001f1a:	9b07      	ldr	r3, [sp, #28]
10001f1c:	f013 0f0c 	tst.w	r3, #12
10001f20:	d050      	beq.n	10001fc4 <_ftoa+0x48c>
10001f22:	f10b 3bff 	add.w	fp, fp, #4294967295
10001f26:	45ab      	cmp	fp, r5
10001f28:	f63f aef2 	bhi.w	10001d10 <_ftoa+0x1d8>
10001f2c:	2d20      	cmp	r5, #32
10001f2e:	f43f aefc 	beq.w	10001d2a <_ftoa+0x1f2>
10001f32:	9b07      	ldr	r3, [sp, #28]
10001f34:	075a      	lsls	r2, r3, #29
10001f36:	d501      	bpl.n	10001f3c <_ftoa+0x404>
10001f38:	222b      	movs	r2, #43	@ 0x2b
10001f3a:	e7cb      	b.n	10001ed4 <_ftoa+0x39c>
10001f3c:	071b      	lsls	r3, r3, #28
10001f3e:	f57f aef4 	bpl.w	10001d2a <_ftoa+0x1f2>
10001f42:	2220      	movs	r2, #32
10001f44:	e7c6      	b.n	10001ed4 <_ftoa+0x39c>
10001f46:	f01a 0f01 	tst.w	sl, #1
10001f4a:	f43f ae96 	beq.w	10001c7a <_ftoa+0x142>
10001f4e:	e78f      	b.n	10001e70 <_ftoa+0x338>
10001f50:	07a6      	lsls	r6, r4, #30
10001f52:	d134      	bne.n	10001fbe <_ftoa+0x486>
10001f54:	f1bb 0f03 	cmp.w	fp, #3
10001f58:	d931      	bls.n	10001fbe <_ftoa+0x486>
10001f5a:	9b0c      	ldr	r3, [sp, #48]	@ 0x30
10001f5c:	461d      	mov	r5, r3
10001f5e:	1edc      	subs	r4, r3, #3
10001f60:	eb04 0a0b 	add.w	sl, r4, fp
10001f64:	462a      	mov	r2, r5
10001f66:	464b      	mov	r3, r9
10001f68:	4641      	mov	r1, r8
10001f6a:	2020      	movs	r0, #32
10001f6c:	3501      	adds	r5, #1
10001f6e:	47b8      	blx	r7
10001f70:	4555      	cmp	r5, sl
10001f72:	d1f7      	bne.n	10001f64 <_ftoa+0x42c>
10001f74:	4655      	mov	r5, sl
10001f76:	4c1e      	ldr	r4, [pc, #120]	@ (10001ff0 <_ftoa+0x4b8>)
10001f78:	1ee6      	subs	r6, r4, #3
10001f7a:	f814 0d01 	ldrb.w	r0, [r4, #-1]!
10001f7e:	462a      	mov	r2, r5
10001f80:	464b      	mov	r3, r9
10001f82:	4641      	mov	r1, r8
10001f84:	47b8      	blx	r7
10001f86:	42a6      	cmp	r6, r4
10001f88:	f105 0501 	add.w	r5, r5, #1
10001f8c:	d1f5      	bne.n	10001f7a <_ftoa+0x442>
10001f8e:	9b07      	ldr	r3, [sp, #28]
10001f90:	f10a 0a03 	add.w	sl, sl, #3
10001f94:	079d      	lsls	r5, r3, #30
10001f96:	f57f aed5 	bpl.w	10001d44 <_ftoa+0x20c>
10001f9a:	9c0c      	ldr	r4, [sp, #48]	@ 0x30
10001f9c:	ebaa 0304 	sub.w	r3, sl, r4
10001fa0:	459b      	cmp	fp, r3
10001fa2:	f67f aecf 	bls.w	10001d44 <_ftoa+0x20c>
10001fa6:	4652      	mov	r2, sl
10001fa8:	464b      	mov	r3, r9
10001faa:	4641      	mov	r1, r8
10001fac:	2020      	movs	r0, #32
10001fae:	f10a 0a01 	add.w	sl, sl, #1
10001fb2:	47b8      	blx	r7
10001fb4:	ebaa 0304 	sub.w	r3, sl, r4
10001fb8:	459b      	cmp	fp, r3
10001fba:	d8f4      	bhi.n	10001fa6 <_ftoa+0x46e>
10001fbc:	e6c2      	b.n	10001d44 <_ftoa+0x20c>
10001fbe:	f8dd a030 	ldr.w	sl, [sp, #48]	@ 0x30
10001fc2:	e7d7      	b.n	10001f74 <_ftoa+0x43c>
10001fc4:	45ab      	cmp	fp, r5
10001fc6:	f63f aea3 	bhi.w	10001d10 <_ftoa+0x1d8>
10001fca:	e6ae      	b.n	10001d2a <_ftoa+0x1f2>
10001fcc:	f1bb 0f00 	cmp.w	fp, #0
10001fd0:	f43f af7a 	beq.w	10001ec8 <_ftoa+0x390>
10001fd4:	9b0d      	ldr	r3, [sp, #52]	@ 0x34
10001fd6:	2b00      	cmp	r3, #0
10001fd8:	d09f      	beq.n	10001f1a <_ftoa+0x3e2>
10001fda:	f10b 3bff 	add.w	fp, fp, #4294967295
10001fde:	455d      	cmp	r5, fp
10001fe0:	f4ff ae96 	bcc.w	10001d10 <_ftoa+0x1d8>
10001fe4:	2d20      	cmp	r5, #32
10001fe6:	f47f af74 	bne.w	10001ed2 <_ftoa+0x39a>
10001fea:	e69e      	b.n	10001d2a <_ftoa+0x1f2>
10001fec:	3fe00000 	.word	0x3fe00000
10001ff0:	10003853 	.word	0x10003853
10001ff4:	00000000 	.word	0x00000000

10001ff8 <_etoa>:
10001ff8:	e92d 4ff0 	stmdb	sp!, {r4, r5, r6, r7, r8, r9, sl, fp, lr}
10001ffc:	b09f      	sub	sp, #124	@ 0x7c
10001ffe:	9e2a      	ldr	r6, [sp, #168]	@ 0xa8
10002000:	e9dd 4528 	ldrd	r4, r5, [sp, #160]	@ 0xa0
10002004:	4607      	mov	r7, r0
10002006:	4693      	mov	fp, r2
10002008:	9108      	str	r1, [sp, #32]
1000200a:	9309      	str	r3, [sp, #36]	@ 0x24
1000200c:	4622      	mov	r2, r4
1000200e:	462b      	mov	r3, r5
10002010:	4620      	mov	r0, r4
10002012:	4629      	mov	r1, r5
10002014:	960e      	str	r6, [sp, #56]	@ 0x38
10002016:	e9dd a62b 	ldrd	sl, r6, [sp, #172]	@ 0xac
1000201a:	f7ff fbeb 	bl	100017f4 <__wrap___aeabi_dcmpun>
1000201e:	2800      	cmp	r0, #0
10002020:	f040 80be 	bne.w	100021a0 <_etoa+0x1a8>
10002024:	4620      	mov	r0, r4
10002026:	4629      	mov	r1, r5
10002028:	f04f 32ff 	mov.w	r2, #4294967295
1000202c:	4b78      	ldr	r3, [pc, #480]	@ (10002210 <_etoa+0x218>)
1000202e:	f7ff fc2f 	bl	10001890 <__wrap___aeabi_dcmpgt>
10002032:	2800      	cmp	r0, #0
10002034:	f040 80b4 	bne.w	100021a0 <_etoa+0x1a8>
10002038:	4620      	mov	r0, r4
1000203a:	4629      	mov	r1, r5
1000203c:	f04f 32ff 	mov.w	r2, #4294967295
10002040:	f46f 1380 	mvn.w	r3, #1048576	@ 0x100000
10002044:	f7ff fbe8 	bl	10001818 <__wrap___aeabi_dcmplt>
10002048:	2800      	cmp	r0, #0
1000204a:	f040 80a9 	bne.w	100021a0 <_etoa+0x1a8>
1000204e:	4620      	mov	r0, r4
10002050:	4629      	mov	r1, r5
10002052:	2200      	movs	r2, #0
10002054:	2300      	movs	r3, #0
10002056:	f7ff fbdf 	bl	10001818 <__wrap___aeabi_dcmplt>
1000205a:	2800      	cmp	r0, #0
1000205c:	f040 81d5 	bne.w	1000240a <_etoa+0x412>
10002060:	e9cd 450a 	strd	r4, r5, [sp, #40]	@ 0x28
10002064:	e9dd 230a 	ldrd	r2, r3, [sp, #40]	@ 0x28
10002068:	4690      	mov	r8, r2
1000206a:	4699      	mov	r9, r3
1000206c:	f406 6200 	and.w	r2, r6, #2048	@ 0x800
10002070:	f416 6380 	ands.w	r3, r6, #1024	@ 0x400
10002074:	920f      	str	r2, [sp, #60]	@ 0x3c
10002076:	9313      	str	r3, [sp, #76]	@ 0x4c
10002078:	f040 80a1 	bne.w	100021be <_etoa+0x1c6>
1000207c:	ea58 0309 	orrs.w	r3, r8, r9
10002080:	f040 80ca 	bne.w	10002218 <_etoa+0x220>
10002084:	2a00      	cmp	r2, #0
10002086:	f040 81e3 	bne.w	10002450 <_etoa+0x458>
1000208a:	2306      	movs	r3, #6
1000208c:	930e      	str	r3, [sp, #56]	@ 0x38
1000208e:	f016 0202 	ands.w	r2, r6, #2
10002092:	9210      	str	r2, [sp, #64]	@ 0x40
10002094:	f040 81d4 	bne.w	10002440 <_etoa+0x448>
10002098:	4653      	mov	r3, sl
1000209a:	2b04      	cmp	r3, #4
1000209c:	bf38      	it	cc
1000209e:	2304      	movcc	r3, #4
100020a0:	920c      	str	r2, [sp, #48]	@ 0x30
100020a2:	2204      	movs	r2, #4
100020a4:	3b04      	subs	r3, #4
100020a6:	9212      	str	r2, [sp, #72]	@ 0x48
100020a8:	930f      	str	r3, [sp, #60]	@ 0x3c
100020aa:	4620      	mov	r0, r4
100020ac:	4629      	mov	r1, r5
100020ae:	2200      	movs	r2, #0
100020b0:	2300      	movs	r3, #0
100020b2:	f7ff fbb1 	bl	10001818 <__wrap___aeabi_dcmplt>
100020b6:	2800      	cmp	r0, #0
100020b8:	f040 81f3 	bne.w	100024a2 <_etoa+0x4aa>
100020bc:	ed9d 7b0a 	vldr	d7, [sp, #40]	@ 0x28
100020c0:	9b0f      	ldr	r3, [sp, #60]	@ 0x3c
100020c2:	465a      	mov	r2, fp
100020c4:	9303      	str	r3, [sp, #12]
100020c6:	9b0e      	ldr	r3, [sp, #56]	@ 0x38
100020c8:	ed8d 7b00 	vstr	d7, [sp]
100020cc:	9302      	str	r3, [sp, #8]
100020ce:	f426 6300 	bic.w	r3, r6, #2048	@ 0x800
100020d2:	9304      	str	r3, [sp, #16]
100020d4:	4638      	mov	r0, r7
100020d6:	9b09      	ldr	r3, [sp, #36]	@ 0x24
100020d8:	9908      	ldr	r1, [sp, #32]
100020da:	f7ff fd2d 	bl	10001b38 <_ftoa>
100020de:	4602      	mov	r2, r0
100020e0:	f016 0f20 	tst.w	r6, #32
100020e4:	9b09      	ldr	r3, [sp, #36]	@ 0x24
100020e6:	9908      	ldr	r1, [sp, #32]
100020e8:	bf0c      	ite	eq
100020ea:	2065      	moveq	r0, #101	@ 0x65
100020ec:	2045      	movne	r0, #69	@ 0x45
100020ee:	f102 0801 	add.w	r8, r2, #1
100020f2:	47b8      	blx	r7
100020f4:	9a0c      	ldr	r2, [sp, #48]	@ 0x30
100020f6:	9b12      	ldr	r3, [sp, #72]	@ 0x48
100020f8:	ac16      	add	r4, sp, #88	@ 0x58
100020fa:	1e5d      	subs	r5, r3, #1
100020fc:	ea82 73e2 	eor.w	r3, r2, r2, asr #31
10002100:	eba3 73e2 	sub.w	r3, r3, r2, asr #31
10002104:	0fd1      	lsrs	r1, r2, #31
10002106:	2600      	movs	r6, #0
10002108:	4622      	mov	r2, r4
1000210a:	4699      	mov	r9, r3
1000210c:	f8df c104 	ldr.w	ip, [pc, #260]	@ 10002214 <_etoa+0x21c>
10002110:	e001      	b.n	10002116 <_etoa+0x11e>
10002112:	2e20      	cmp	r6, #32
10002114:	d010      	beq.n	10002138 <_etoa+0x140>
10002116:	46ce      	mov	lr, r9
10002118:	fbac 3009 	umull	r3, r0, ip, r9
1000211c:	08c0      	lsrs	r0, r0, #3
1000211e:	eb00 0380 	add.w	r3, r0, r0, lsl #2
10002122:	eba9 0343 	sub.w	r3, r9, r3, lsl #1
10002126:	3330      	adds	r3, #48	@ 0x30
10002128:	f1be 0f09 	cmp.w	lr, #9
1000212c:	4681      	mov	r9, r0
1000212e:	f106 0601 	add.w	r6, r6, #1
10002132:	f802 3b01 	strb.w	r3, [r2], #1
10002136:	d8ec      	bhi.n	10002112 <_etoa+0x11a>
10002138:	2305      	movs	r3, #5
1000213a:	2000      	movs	r0, #0
1000213c:	9306      	str	r3, [sp, #24]
1000213e:	230a      	movs	r3, #10
10002140:	9505      	str	r5, [sp, #20]
10002142:	9400      	str	r4, [sp, #0]
10002144:	9d09      	ldr	r5, [sp, #36]	@ 0x24
10002146:	9c08      	ldr	r4, [sp, #32]
10002148:	4642      	mov	r2, r8
1000214a:	e9cd 3003 	strd	r3, r0, [sp, #12]
1000214e:	e9cd 6101 	strd	r6, r1, [sp, #4]
10002152:	462b      	mov	r3, r5
10002154:	4621      	mov	r1, r4
10002156:	4638      	mov	r0, r7
10002158:	f7ff fbfa 	bl	10001950 <_ntoa_format>
1000215c:	9a10      	ldr	r2, [sp, #64]	@ 0x40
1000215e:	4680      	mov	r8, r0
10002160:	b1d2      	cbz	r2, 10002198 <_etoa+0x1a0>
10002162:	eba0 060b 	sub.w	r6, r0, fp
10002166:	45b2      	cmp	sl, r6
10002168:	d916      	bls.n	10002198 <_etoa+0x1a0>
1000216a:	eb0b 0206 	add.w	r2, fp, r6
1000216e:	462b      	mov	r3, r5
10002170:	4621      	mov	r1, r4
10002172:	2020      	movs	r0, #32
10002174:	3601      	adds	r6, #1
10002176:	47b8      	blx	r7
10002178:	45b2      	cmp	sl, r6
1000217a:	d8f6      	bhi.n	1000216a <_etoa+0x172>
1000217c:	f10b 33ff 	add.w	r3, fp, #4294967295
10002180:	4453      	add	r3, sl
10002182:	f1cb 0201 	rsb	r2, fp, #1
10002186:	eba3 0308 	sub.w	r3, r3, r8
1000218a:	4442      	add	r2, r8
1000218c:	4592      	cmp	sl, r2
1000218e:	bf38      	it	cc
10002190:	2300      	movcc	r3, #0
10002192:	f108 0801 	add.w	r8, r8, #1
10002196:	4498      	add	r8, r3
10002198:	4640      	mov	r0, r8
1000219a:	b01f      	add	sp, #124	@ 0x7c
1000219c:	e8bd 8ff0 	ldmia.w	sp!, {r4, r5, r6, r7, r8, r9, sl, fp, pc}
100021a0:	465a      	mov	r2, fp
100021a2:	4638      	mov	r0, r7
100021a4:	e9cd 4528 	strd	r4, r5, [sp, #160]	@ 0xa0
100021a8:	e9cd a62b 	strd	sl, r6, [sp, #172]	@ 0xac
100021ac:	9c0e      	ldr	r4, [sp, #56]	@ 0x38
100021ae:	9b09      	ldr	r3, [sp, #36]	@ 0x24
100021b0:	9908      	ldr	r1, [sp, #32]
100021b2:	942a      	str	r4, [sp, #168]	@ 0xa8
100021b4:	b01f      	add	sp, #124	@ 0x7c
100021b6:	e8bd 4ff0 	ldmia.w	sp!, {r4, r5, r6, r7, r8, r9, sl, fp, lr}
100021ba:	f7ff bcbd 	b.w	10001b38 <_ftoa>
100021be:	ea58 0309 	orrs.w	r3, r8, r9
100021c2:	d12b      	bne.n	1000221c <_etoa+0x224>
100021c4:	2a00      	cmp	r2, #0
100021c6:	f43f af62 	beq.w	1000208e <_etoa+0x96>
100021ca:	2300      	movs	r3, #0
100021cc:	930c      	str	r3, [sp, #48]	@ 0x30
100021ce:	9b0e      	ldr	r3, [sp, #56]	@ 0x38
100021d0:	9a0c      	ldr	r2, [sp, #48]	@ 0x30
100021d2:	4293      	cmp	r3, r2
100021d4:	f300 81b9 	bgt.w	1000254a <_etoa+0x552>
100021d8:	f04f 0800 	mov.w	r8, #0
100021dc:	4620      	mov	r0, r4
100021de:	4629      	mov	r1, r5
100021e0:	2200      	movs	r2, #0
100021e2:	2300      	movs	r3, #0
100021e4:	f7ff fb18 	bl	10001818 <__wrap___aeabi_dcmplt>
100021e8:	2800      	cmp	r0, #0
100021ea:	f040 8113 	bne.w	10002414 <_etoa+0x41c>
100021ee:	ed9d 7b0a 	vldr	d7, [sp, #40]	@ 0x28
100021f2:	f426 6600 	bic.w	r6, r6, #2048	@ 0x800
100021f6:	f446 6680 	orr.w	r6, r6, #1024	@ 0x400
100021fa:	ed8d 7b28 	vstr	d7, [sp, #160]	@ 0xa0
100021fe:	465a      	mov	r2, fp
10002200:	4638      	mov	r0, r7
10002202:	e9cd 8a2a 	strd	r8, sl, [sp, #168]	@ 0xa8
10002206:	9b09      	ldr	r3, [sp, #36]	@ 0x24
10002208:	9908      	ldr	r1, [sp, #32]
1000220a:	962c      	str	r6, [sp, #176]	@ 0xb0
1000220c:	e7d2      	b.n	100021b4 <_etoa+0x1bc>
1000220e:	bf00      	nop
10002210:	7fefffff 	.word	0x7fefffff
10002214:	cccccccd 	.word	0xcccccccd
10002218:	2306      	movs	r3, #6
1000221a:	930e      	str	r3, [sp, #56]	@ 0x38
1000221c:	f3c9 500a 	ubfx	r0, r9, #20, #11
10002220:	f2a0 30ff 	subw	r0, r0, #1023	@ 0x3ff
10002224:	f7ff fa9e 	bl	10001764 <__wrap___aeabi_i2d>
10002228:	a3c1      	add	r3, pc, #772	@ (adr r3, 10002530 <_etoa+0x538>)
1000222a:	e9d3 2300 	ldrd	r2, r3, [r3]
1000222e:	f7ff fa25 	bl	1000167c <__wrap___aeabi_dmul>
10002232:	a3c1      	add	r3, pc, #772	@ (adr r3, 10002538 <_etoa+0x540>)
10002234:	e9d3 2300 	ldrd	r2, r3, [r3]
10002238:	f7ff f9f8 	bl	1000162c <__wrap___aeabi_dadd>
1000223c:	f3c9 0913 	ubfx	r9, r9, #0, #20
10002240:	e9cd 010c 	strd	r0, r1, [sp, #48]	@ 0x30
10002244:	f049 517f 	orr.w	r1, r9, #1069547520	@ 0x3fc00000
10002248:	4640      	mov	r0, r8
1000224a:	2200      	movs	r2, #0
1000224c:	4bb2      	ldr	r3, [pc, #712]	@ (10002518 <_etoa+0x520>)
1000224e:	f441 1140 	orr.w	r1, r1, #3145728	@ 0x300000
10002252:	f7ff f9ff 	bl	10001654 <__wrap___aeabi_dsub>
10002256:	a3a4      	add	r3, pc, #656	@ (adr r3, 100024e8 <_etoa+0x4f0>)
10002258:	e9d3 2300 	ldrd	r2, r3, [r3]
1000225c:	f7ff fa0e 	bl	1000167c <__wrap___aeabi_dmul>
10002260:	4602      	mov	r2, r0
10002262:	460b      	mov	r3, r1
10002264:	e9dd 010c 	ldrd	r0, r1, [sp, #48]	@ 0x30
10002268:	f7ff f9e0 	bl	1000162c <__wrap___aeabi_dadd>
1000226c:	f7ff fa9e 	bl	100017ac <__wrap___aeabi_d2iz>
10002270:	900c      	str	r0, [sp, #48]	@ 0x30
10002272:	f7ff fa77 	bl	10001764 <__wrap___aeabi_i2d>
10002276:	a39e      	add	r3, pc, #632	@ (adr r3, 100024f0 <_etoa+0x4f8>)
10002278:	e9d3 2300 	ldrd	r2, r3, [r3]
1000227c:	4680      	mov	r8, r0
1000227e:	4689      	mov	r9, r1
10002280:	f7ff f9fc 	bl	1000167c <__wrap___aeabi_dmul>
10002284:	2200      	movs	r2, #0
10002286:	4ba5      	ldr	r3, [pc, #660]	@ (1000251c <_etoa+0x524>)
10002288:	f7ff f9d0 	bl	1000162c <__wrap___aeabi_dadd>
1000228c:	f7ff fa8e 	bl	100017ac <__wrap___aeabi_d2iz>
10002290:	4603      	mov	r3, r0
10002292:	4649      	mov	r1, r9
10002294:	4640      	mov	r0, r8
10002296:	9312      	str	r3, [sp, #72]	@ 0x48
10002298:	a397      	add	r3, pc, #604	@ (adr r3, 100024f8 <_etoa+0x500>)
1000229a:	e9d3 2300 	ldrd	r2, r3, [r3]
1000229e:	f7ff f9ed 	bl	1000167c <__wrap___aeabi_dmul>
100022a2:	4680      	mov	r8, r0
100022a4:	9812      	ldr	r0, [sp, #72]	@ 0x48
100022a6:	4689      	mov	r9, r1
100022a8:	f7ff fa5c 	bl	10001764 <__wrap___aeabi_i2d>
100022ac:	a394      	add	r3, pc, #592	@ (adr r3, 10002500 <_etoa+0x508>)
100022ae:	e9d3 2300 	ldrd	r2, r3, [r3]
100022b2:	f7ff f9e3 	bl	1000167c <__wrap___aeabi_dmul>
100022b6:	4602      	mov	r2, r0
100022b8:	460b      	mov	r3, r1
100022ba:	4640      	mov	r0, r8
100022bc:	4649      	mov	r1, r9
100022be:	f7ff f9c9 	bl	10001654 <__wrap___aeabi_dsub>
100022c2:	4602      	mov	r2, r0
100022c4:	460b      	mov	r3, r1
100022c6:	4680      	mov	r8, r0
100022c8:	4689      	mov	r9, r1
100022ca:	f7ff f9d7 	bl	1000167c <__wrap___aeabi_dmul>
100022ce:	4642      	mov	r2, r8
100022d0:	464b      	mov	r3, r9
100022d2:	e9cd 0110 	strd	r0, r1, [sp, #64]	@ 0x40
100022d6:	4640      	mov	r0, r8
100022d8:	4649      	mov	r1, r9
100022da:	f7ff f9a7 	bl	1000162c <__wrap___aeabi_dadd>
100022de:	2200      	movs	r2, #0
100022e0:	e9cd 0114 	strd	r0, r1, [sp, #80]	@ 0x50
100022e4:	e9dd 0110 	ldrd	r0, r1, [sp, #64]	@ 0x40
100022e8:	4b8d      	ldr	r3, [pc, #564]	@ (10002520 <_etoa+0x528>)
100022ea:	f7ff f9ed 	bl	100016c8 <__wrap___aeabi_ddiv>
100022ee:	2200      	movs	r2, #0
100022f0:	4b8c      	ldr	r3, [pc, #560]	@ (10002524 <_etoa+0x52c>)
100022f2:	f7ff f99b 	bl	1000162c <__wrap___aeabi_dadd>
100022f6:	4602      	mov	r2, r0
100022f8:	460b      	mov	r3, r1
100022fa:	e9dd 0110 	ldrd	r0, r1, [sp, #64]	@ 0x40
100022fe:	f7ff f9e3 	bl	100016c8 <__wrap___aeabi_ddiv>
10002302:	2200      	movs	r2, #0
10002304:	4b88      	ldr	r3, [pc, #544]	@ (10002528 <_etoa+0x530>)
10002306:	f7ff f991 	bl	1000162c <__wrap___aeabi_dadd>
1000230a:	4602      	mov	r2, r0
1000230c:	460b      	mov	r3, r1
1000230e:	e9dd 0110 	ldrd	r0, r1, [sp, #64]	@ 0x40
10002312:	f7ff f9d9 	bl	100016c8 <__wrap___aeabi_ddiv>
10002316:	4642      	mov	r2, r8
10002318:	464b      	mov	r3, r9
1000231a:	4680      	mov	r8, r0
1000231c:	4689      	mov	r9, r1
1000231e:	2000      	movs	r0, #0
10002320:	f04f 4180 	mov.w	r1, #1073741824	@ 0x40000000
10002324:	f7ff f996 	bl	10001654 <__wrap___aeabi_dsub>
10002328:	4602      	mov	r2, r0
1000232a:	460b      	mov	r3, r1
1000232c:	4640      	mov	r0, r8
1000232e:	4649      	mov	r1, r9
10002330:	f7ff f97c 	bl	1000162c <__wrap___aeabi_dadd>
10002334:	4602      	mov	r2, r0
10002336:	460b      	mov	r3, r1
10002338:	e9dd 0114 	ldrd	r0, r1, [sp, #80]	@ 0x50
1000233c:	f7ff f9c4 	bl	100016c8 <__wrap___aeabi_ddiv>
10002340:	2200      	movs	r2, #0
10002342:	4b7a      	ldr	r3, [pc, #488]	@ (1000252c <_etoa+0x534>)
10002344:	f7ff f972 	bl	1000162c <__wrap___aeabi_dadd>
10002348:	9b12      	ldr	r3, [sp, #72]	@ 0x48
1000234a:	2200      	movs	r2, #0
1000234c:	f203 3cff 	addw	ip, r3, #1023	@ 0x3ff
10002350:	ea4f 530c 	mov.w	r3, ip, lsl #20
10002354:	f7ff f992 	bl	1000167c <__wrap___aeabi_dmul>
10002358:	4680      	mov	r8, r0
1000235a:	4689      	mov	r9, r1
1000235c:	e9dd 010a 	ldrd	r0, r1, [sp, #40]	@ 0x28
10002360:	4642      	mov	r2, r8
10002362:	464b      	mov	r3, r9
10002364:	f7ff fa58 	bl	10001818 <__wrap___aeabi_dcmplt>
10002368:	b150      	cbz	r0, 10002380 <_etoa+0x388>
1000236a:	9b0c      	ldr	r3, [sp, #48]	@ 0x30
1000236c:	4640      	mov	r0, r8
1000236e:	3b01      	subs	r3, #1
10002370:	4649      	mov	r1, r9
10002372:	930c      	str	r3, [sp, #48]	@ 0x30
10002374:	2200      	movs	r2, #0
10002376:	4b6b      	ldr	r3, [pc, #428]	@ (10002524 <_etoa+0x52c>)
10002378:	f7ff f9a6 	bl	100016c8 <__wrap___aeabi_ddiv>
1000237c:	4680      	mov	r8, r0
1000237e:	4689      	mov	r9, r1
10002380:	9a0c      	ldr	r2, [sp, #48]	@ 0x30
10002382:	4643      	mov	r3, r8
10002384:	3263      	adds	r2, #99	@ 0x63
10002386:	2ac6      	cmp	r2, #198	@ 0xc6
10002388:	f006 0202 	and.w	r2, r6, #2
1000238c:	9210      	str	r2, [sp, #64]	@ 0x40
1000238e:	4649      	mov	r1, r9
10002390:	9a0f      	ldr	r2, [sp, #60]	@ 0x3c
10002392:	d82c      	bhi.n	100023ee <_etoa+0x3f6>
10002394:	2a00      	cmp	r2, #0
10002396:	d05e      	beq.n	10002456 <_etoa+0x45e>
10002398:	2204      	movs	r2, #4
1000239a:	9212      	str	r2, [sp, #72]	@ 0x48
1000239c:	430b      	orrs	r3, r1
1000239e:	f43f af16 	beq.w	100021ce <_etoa+0x1d6>
100023a2:	e9dd 010a 	ldrd	r0, r1, [sp, #40]	@ 0x28
100023a6:	a358      	add	r3, pc, #352	@ (adr r3, 10002508 <_etoa+0x510>)
100023a8:	e9d3 2300 	ldrd	r2, r3, [r3]
100023ac:	f7ff fa5c 	bl	10001868 <__wrap___aeabi_dcmpge>
100023b0:	b148      	cbz	r0, 100023c6 <_etoa+0x3ce>
100023b2:	e9dd 010a 	ldrd	r0, r1, [sp, #40]	@ 0x28
100023b6:	a356      	add	r3, pc, #344	@ (adr r3, 10002510 <_etoa+0x518>)
100023b8:	e9d3 2300 	ldrd	r2, r3, [r3]
100023bc:	f7ff fa2c 	bl	10001818 <__wrap___aeabi_dcmplt>
100023c0:	2800      	cmp	r0, #0
100023c2:	f47f af04 	bne.w	100021ce <_etoa+0x1d6>
100023c6:	9b0e      	ldr	r3, [sp, #56]	@ 0x38
100023c8:	2b00      	cmp	r3, #0
100023ca:	d050      	beq.n	1000246e <_etoa+0x476>
100023cc:	9a13      	ldr	r2, [sp, #76]	@ 0x4c
100023ce:	2a00      	cmp	r2, #0
100023d0:	d07d      	beq.n	100024ce <_etoa+0x4d6>
100023d2:	3b01      	subs	r3, #1
100023d4:	930e      	str	r3, [sp, #56]	@ 0x38
100023d6:	9b12      	ldr	r3, [sp, #72]	@ 0x48
100023d8:	459a      	cmp	sl, r3
100023da:	d905      	bls.n	100023e8 <_etoa+0x3f0>
100023dc:	9b10      	ldr	r3, [sp, #64]	@ 0x40
100023de:	2b00      	cmp	r3, #0
100023e0:	f000 80ae 	beq.w	10002540 <_etoa+0x548>
100023e4:	2302      	movs	r3, #2
100023e6:	9310      	str	r3, [sp, #64]	@ 0x40
100023e8:	2300      	movs	r3, #0
100023ea:	930f      	str	r3, [sp, #60]	@ 0x3c
100023ec:	e044      	b.n	10002478 <_etoa+0x480>
100023ee:	bb22      	cbnz	r2, 1000243a <_etoa+0x442>
100023f0:	f1ba 0f05 	cmp.w	sl, #5
100023f4:	d94f      	bls.n	10002496 <_etoa+0x49e>
100023f6:	f006 0302 	and.w	r3, r6, #2
100023fa:	2b00      	cmp	r3, #0
100023fc:	d149      	bne.n	10002492 <_etoa+0x49a>
100023fe:	2305      	movs	r3, #5
10002400:	9312      	str	r3, [sp, #72]	@ 0x48
10002402:	f1aa 0305 	sub.w	r3, sl, #5
10002406:	930f      	str	r3, [sp, #60]	@ 0x3c
10002408:	e03a      	b.n	10002480 <_etoa+0x488>
1000240a:	f105 4300 	add.w	r3, r5, #2147483648	@ 0x80000000
1000240e:	940a      	str	r4, [sp, #40]	@ 0x28
10002410:	930b      	str	r3, [sp, #44]	@ 0x2c
10002412:	e627      	b.n	10002064 <_etoa+0x6c>
10002414:	f426 6600 	bic.w	r6, r6, #2048	@ 0x800
10002418:	f446 6680 	orr.w	r6, r6, #1024	@ 0x400
1000241c:	4638      	mov	r0, r7
1000241e:	962c      	str	r6, [sp, #176]	@ 0xb0
10002420:	e9dd 670a 	ldrd	r6, r7, [sp, #40]	@ 0x28
10002424:	4634      	mov	r4, r6
10002426:	f107 4500 	add.w	r5, r7, #2147483648	@ 0x80000000
1000242a:	465a      	mov	r2, fp
1000242c:	e9cd 8a2a 	strd	r8, sl, [sp, #168]	@ 0xa8
10002430:	e9cd 4528 	strd	r4, r5, [sp, #160]	@ 0xa0
10002434:	9b09      	ldr	r3, [sp, #36]	@ 0x24
10002436:	9908      	ldr	r1, [sp, #32]
10002438:	e6bc      	b.n	100021b4 <_etoa+0x1bc>
1000243a:	2205      	movs	r2, #5
1000243c:	9212      	str	r2, [sp, #72]	@ 0x48
1000243e:	e7ad      	b.n	1000239c <_etoa+0x3a4>
10002440:	2300      	movs	r3, #0
10002442:	2202      	movs	r2, #2
10002444:	e9cd 320f 	strd	r3, r2, [sp, #60]	@ 0x3c
10002448:	2204      	movs	r2, #4
1000244a:	930c      	str	r3, [sp, #48]	@ 0x30
1000244c:	9212      	str	r2, [sp, #72]	@ 0x48
1000244e:	e62c      	b.n	100020aa <_etoa+0xb2>
10002450:	f04f 0805 	mov.w	r8, #5
10002454:	e6c2      	b.n	100021dc <_etoa+0x1e4>
10002456:	f1ba 0f04 	cmp.w	sl, #4
1000245a:	d91f      	bls.n	1000249c <_etoa+0x4a4>
1000245c:	9b10      	ldr	r3, [sp, #64]	@ 0x40
1000245e:	2b00      	cmp	r3, #0
10002460:	d178      	bne.n	10002554 <_etoa+0x55c>
10002462:	2304      	movs	r3, #4
10002464:	9312      	str	r3, [sp, #72]	@ 0x48
10002466:	f1aa 0304 	sub.w	r3, sl, #4
1000246a:	930f      	str	r3, [sp, #60]	@ 0x3c
1000246c:	e004      	b.n	10002478 <_etoa+0x480>
1000246e:	9b12      	ldr	r3, [sp, #72]	@ 0x48
10002470:	459a      	cmp	sl, r3
10002472:	d831      	bhi.n	100024d8 <_etoa+0x4e0>
10002474:	9b0e      	ldr	r3, [sp, #56]	@ 0x38
10002476:	930f      	str	r3, [sp, #60]	@ 0x3c
10002478:	9b0c      	ldr	r3, [sp, #48]	@ 0x30
1000247a:	2b00      	cmp	r3, #0
1000247c:	f43f ae15 	beq.w	100020aa <_etoa+0xb2>
10002480:	e9dd 010a 	ldrd	r0, r1, [sp, #40]	@ 0x28
10002484:	4642      	mov	r2, r8
10002486:	464b      	mov	r3, r9
10002488:	f7ff f91e 	bl	100016c8 <__wrap___aeabi_ddiv>
1000248c:	e9cd 010a 	strd	r0, r1, [sp, #40]	@ 0x28
10002490:	e60b      	b.n	100020aa <_etoa+0xb2>
10002492:	2302      	movs	r3, #2
10002494:	9310      	str	r3, [sp, #64]	@ 0x40
10002496:	2305      	movs	r3, #5
10002498:	9312      	str	r3, [sp, #72]	@ 0x48
1000249a:	e7f1      	b.n	10002480 <_etoa+0x488>
1000249c:	2304      	movs	r3, #4
1000249e:	9312      	str	r3, [sp, #72]	@ 0x48
100024a0:	e7ea      	b.n	10002478 <_etoa+0x480>
100024a2:	e9dd 450a 	ldrd	r4, r5, [sp, #40]	@ 0x28
100024a6:	46a0      	mov	r8, r4
100024a8:	9b0f      	ldr	r3, [sp, #60]	@ 0x3c
100024aa:	f105 4900 	add.w	r9, r5, #2147483648	@ 0x80000000
100024ae:	9303      	str	r3, [sp, #12]
100024b0:	9b0e      	ldr	r3, [sp, #56]	@ 0x38
100024b2:	465a      	mov	r2, fp
100024b4:	9302      	str	r3, [sp, #8]
100024b6:	f426 6300 	bic.w	r3, r6, #2048	@ 0x800
100024ba:	9304      	str	r3, [sp, #16]
100024bc:	4638      	mov	r0, r7
100024be:	e9cd 8900 	strd	r8, r9, [sp]
100024c2:	9b09      	ldr	r3, [sp, #36]	@ 0x24
100024c4:	9908      	ldr	r1, [sp, #32]
100024c6:	f7ff fb37 	bl	10001b38 <_ftoa>
100024ca:	4602      	mov	r2, r0
100024cc:	e608      	b.n	100020e0 <_etoa+0xe8>
100024ce:	9b12      	ldr	r3, [sp, #72]	@ 0x48
100024d0:	459a      	cmp	sl, r3
100024d2:	d844      	bhi.n	1000255e <_etoa+0x566>
100024d4:	920f      	str	r2, [sp, #60]	@ 0x3c
100024d6:	e7cf      	b.n	10002478 <_etoa+0x480>
100024d8:	9b10      	ldr	r3, [sp, #64]	@ 0x40
100024da:	b38b      	cbz	r3, 10002540 <_etoa+0x548>
100024dc:	9b0e      	ldr	r3, [sp, #56]	@ 0x38
100024de:	930f      	str	r3, [sp, #60]	@ 0x3c
100024e0:	2302      	movs	r3, #2
100024e2:	9310      	str	r3, [sp, #64]	@ 0x40
100024e4:	e7c8      	b.n	10002478 <_etoa+0x480>
100024e6:	bf00      	nop
100024e8:	636f4361 	.word	0x636f4361
100024ec:	3fd287a7 	.word	0x3fd287a7
100024f0:	0979a371 	.word	0x0979a371
100024f4:	400a934f 	.word	0x400a934f
100024f8:	bbb55516 	.word	0xbbb55516
100024fc:	40026bb1 	.word	0x40026bb1
10002500:	fefa39ef 	.word	0xfefa39ef
10002504:	3fe62e42 	.word	0x3fe62e42
10002508:	eb1c432d 	.word	0xeb1c432d
1000250c:	3f1a36e2 	.word	0x3f1a36e2
10002510:	00000000 	.word	0x00000000
10002514:	412e8480 	.word	0x412e8480
10002518:	3ff80000 	.word	0x3ff80000
1000251c:	3fe00000 	.word	0x3fe00000
10002520:	402c0000 	.word	0x402c0000
10002524:	40240000 	.word	0x40240000
10002528:	40180000 	.word	0x40180000
1000252c:	3ff00000 	.word	0x3ff00000
10002530:	509f79fb 	.word	0x509f79fb
10002534:	3fd34413 	.word	0x3fd34413
10002538:	8b60c8b3 	.word	0x8b60c8b3
1000253c:	3fc68a28 	.word	0x3fc68a28
10002540:	9b12      	ldr	r3, [sp, #72]	@ 0x48
10002542:	ebaa 0303 	sub.w	r3, sl, r3
10002546:	930f      	str	r3, [sp, #60]	@ 0x3c
10002548:	e796      	b.n	10002478 <_etoa+0x480>
1000254a:	eba3 0802 	sub.w	r8, r3, r2
1000254e:	f108 38ff 	add.w	r8, r8, #4294967295
10002552:	e643      	b.n	100021dc <_etoa+0x1e4>
10002554:	2304      	movs	r3, #4
10002556:	9312      	str	r3, [sp, #72]	@ 0x48
10002558:	2302      	movs	r3, #2
1000255a:	9310      	str	r3, [sp, #64]	@ 0x40
1000255c:	e78c      	b.n	10002478 <_etoa+0x480>
1000255e:	9b10      	ldr	r3, [sp, #64]	@ 0x40
10002560:	2b00      	cmp	r3, #0
10002562:	d0ed      	beq.n	10002540 <_etoa+0x548>
10002564:	2302      	movs	r3, #2
10002566:	920f      	str	r2, [sp, #60]	@ 0x3c
10002568:	9310      	str	r3, [sp, #64]	@ 0x40
1000256a:	e785      	b.n	10002478 <_etoa+0x480>

1000256c <_vsnprintf>:
1000256c:	e92d 4ff0 	stmdb	sp!, {r4, r5, r6, r7, r8, r9, sl, fp, lr}
10002570:	b09b      	sub	sp, #108	@ 0x6c
10002572:	9c24      	ldr	r4, [sp, #144]	@ 0x90
10002574:	4d95      	ldr	r5, [pc, #596]	@ (100027cc <_vsnprintf+0x260>)
10002576:	940a      	str	r4, [sp, #40]	@ 0x28
10002578:	4c95      	ldr	r4, [pc, #596]	@ (100027d0 <_vsnprintf+0x264>)
1000257a:	f1b1 0a00 	subs.w	sl, r1, #0
1000257e:	bf18      	it	ne
10002580:	4683      	movne	fp, r0
10002582:	6025      	str	r5, [r4, #0]
10002584:	7818      	ldrb	r0, [r3, #0]
10002586:	4c93      	ldr	r4, [pc, #588]	@ (100027d4 <_vsnprintf+0x268>)
10002588:	4691      	mov	r9, r2
1000258a:	bf08      	it	eq
1000258c:	46a3      	moveq	fp, r4
1000258e:	9309      	str	r3, [sp, #36]	@ 0x24
10002590:	2800      	cmp	r0, #0
10002592:	f000 8293 	beq.w	10002abc <_vsnprintf+0x550>
10002596:	f04f 0800 	mov.w	r8, #0
1000259a:	e00a      	b.n	100025b2 <_vsnprintf+0x46>
1000259c:	4642      	mov	r2, r8
1000259e:	464b      	mov	r3, r9
100025a0:	4651      	mov	r1, sl
100025a2:	f108 0801 	add.w	r8, r8, #1
100025a6:	47d8      	blx	fp
100025a8:	9b09      	ldr	r3, [sp, #36]	@ 0x24
100025aa:	7818      	ldrb	r0, [r3, #0]
100025ac:	2800      	cmp	r0, #0
100025ae:	f000 80ce 	beq.w	1000274e <_vsnprintf+0x1e2>
100025b2:	9b09      	ldr	r3, [sp, #36]	@ 0x24
100025b4:	2825      	cmp	r0, #37	@ 0x25
100025b6:	f103 0301 	add.w	r3, r3, #1
100025ba:	9309      	str	r3, [sp, #36]	@ 0x24
100025bc:	d1ee      	bne.n	1000259c <_vsnprintf+0x30>
100025be:	461c      	mov	r4, r3
100025c0:	2300      	movs	r3, #0
100025c2:	4622      	mov	r2, r4
100025c4:	f812 0b01 	ldrb.w	r0, [r2], #1
100025c8:	f1a0 0120 	sub.w	r1, r0, #32
100025cc:	2910      	cmp	r1, #16
100025ce:	d80a      	bhi.n	100025e6 <_vsnprintf+0x7a>
100025d0:	e8df f001 	tbb	[pc, r1]
100025d4:	3c090940 	.word	0x3c090940
100025d8:	09090909 	.word	0x09090909
100025dc:	38090909 	.word	0x38090909
100025e0:	09093409 	.word	0x09093409
100025e4:	30          	.byte	0x30
100025e5:	00          	.byte	0x00
100025e6:	f1a0 0130 	sub.w	r1, r0, #48	@ 0x30
100025ea:	2909      	cmp	r1, #9
100025ec:	9409      	str	r4, [sp, #36]	@ 0x24
100025ee:	f240 808a 	bls.w	10002706 <_vsnprintf+0x19a>
100025f2:	282a      	cmp	r0, #42	@ 0x2a
100025f4:	f000 80f0 	beq.w	100027d8 <_vsnprintf+0x26c>
100025f8:	2500      	movs	r5, #0
100025fa:	282e      	cmp	r0, #46	@ 0x2e
100025fc:	f000 8096 	beq.w	1000272c <_vsnprintf+0x1c0>
10002600:	2600      	movs	r6, #0
10002602:	f1a0 0168 	sub.w	r1, r0, #104	@ 0x68
10002606:	2912      	cmp	r1, #18
10002608:	d82d      	bhi.n	10002666 <_vsnprintf+0xfa>
1000260a:	e8df f011 	tbh	[pc, r1, lsl #1]
1000260e:	0149      	.short	0x0149
10002610:	0143002c 	.word	0x0143002c
10002614:	0138002c 	.word	0x0138002c
10002618:	002c002c 	.word	0x002c002c
1000261c:	002c002c 	.word	0x002c002c
10002620:	002c002c 	.word	0x002c002c
10002624:	0027002c 	.word	0x0027002c
10002628:	002c002c 	.word	0x002c002c
1000262c:	002c002c 	.word	0x002c002c
10002630:	0027002c 	.word	0x0027002c
10002634:	4614      	mov	r4, r2
10002636:	f043 0301 	orr.w	r3, r3, #1
1000263a:	e7c2      	b.n	100025c2 <_vsnprintf+0x56>
1000263c:	4614      	mov	r4, r2
1000263e:	f043 0302 	orr.w	r3, r3, #2
10002642:	e7be      	b.n	100025c2 <_vsnprintf+0x56>
10002644:	4614      	mov	r4, r2
10002646:	f043 0304 	orr.w	r3, r3, #4
1000264a:	e7ba      	b.n	100025c2 <_vsnprintf+0x56>
1000264c:	4614      	mov	r4, r2
1000264e:	f043 0310 	orr.w	r3, r3, #16
10002652:	e7b6      	b.n	100025c2 <_vsnprintf+0x56>
10002654:	4614      	mov	r4, r2
10002656:	f043 0308 	orr.w	r3, r3, #8
1000265a:	e7b2      	b.n	100025c2 <_vsnprintf+0x56>
1000265c:	9909      	ldr	r1, [sp, #36]	@ 0x24
1000265e:	7848      	ldrb	r0, [r1, #1]
10002660:	f443 7380 	orr.w	r3, r3, #256	@ 0x100
10002664:	3201      	adds	r2, #1
10002666:	2867      	cmp	r0, #103	@ 0x67
10002668:	9209      	str	r2, [sp, #36]	@ 0x24
1000266a:	d87e      	bhi.n	1000276a <_vsnprintf+0x1fe>
1000266c:	2824      	cmp	r0, #36	@ 0x24
1000266e:	f240 80c1 	bls.w	100027f4 <_vsnprintf+0x288>
10002672:	f1a0 0225 	sub.w	r2, r0, #37	@ 0x25
10002676:	2a42      	cmp	r2, #66	@ 0x42
10002678:	f200 80bc 	bhi.w	100027f4 <_vsnprintf+0x288>
1000267c:	e8df f012 	tbh	[pc, r2, lsl #1]
10002680:	00ba0150 	.word	0x00ba0150
10002684:	00ba00ba 	.word	0x00ba00ba
10002688:	00ba00ba 	.word	0x00ba00ba
1000268c:	00ba00ba 	.word	0x00ba00ba
10002690:	00ba00ba 	.word	0x00ba00ba
10002694:	00ba00ba 	.word	0x00ba00ba
10002698:	00ba00ba 	.word	0x00ba00ba
1000269c:	00ba00ba 	.word	0x00ba00ba
100026a0:	00ba00ba 	.word	0x00ba00ba
100026a4:	00ba00ba 	.word	0x00ba00ba
100026a8:	00ba00ba 	.word	0x00ba00ba
100026ac:	00ba00ba 	.word	0x00ba00ba
100026b0:	00ba00ba 	.word	0x00ba00ba
100026b4:	00ba00ba 	.word	0x00ba00ba
100026b8:	00ba00ba 	.word	0x00ba00ba
100026bc:	00ba00ba 	.word	0x00ba00ba
100026c0:	01370119 	.word	0x01370119
100026c4:	00ba0119 	.word	0x00ba0119
100026c8:	00ba00ba 	.word	0x00ba00ba
100026cc:	00ba00ba 	.word	0x00ba00ba
100026d0:	00ba00ba 	.word	0x00ba00ba
100026d4:	00ba00ba 	.word	0x00ba00ba
100026d8:	00ba00ba 	.word	0x00ba00ba
100026dc:	00ba00ba 	.word	0x00ba00ba
100026e0:	00ba00ba 	.word	0x00ba00ba
100026e4:	01bc00ba 	.word	0x01bc00ba
100026e8:	00ba00ba 	.word	0x00ba00ba
100026ec:	00ba00ba 	.word	0x00ba00ba
100026f0:	00ba00ba 	.word	0x00ba00ba
100026f4:	00ba00ba 	.word	0x00ba00ba
100026f8:	01bc00ba 	.word	0x01bc00ba
100026fc:	01bc0158 	.word	0x01bc0158
10002700:	01370119 	.word	0x01370119
10002704:	0119      	.short	0x0119
10002706:	2500      	movs	r5, #0
10002708:	e000      	b.n	1000270c <_vsnprintf+0x1a0>
1000270a:	3201      	adds	r2, #1
1000270c:	eb05 0585 	add.w	r5, r5, r5, lsl #2
10002710:	eb00 0545 	add.w	r5, r0, r5, lsl #1
10002714:	7810      	ldrb	r0, [r2, #0]
10002716:	3d30      	subs	r5, #48	@ 0x30
10002718:	f1a0 0130 	sub.w	r1, r0, #48	@ 0x30
1000271c:	2909      	cmp	r1, #9
1000271e:	d9f4      	bls.n	1000270a <_vsnprintf+0x19e>
10002720:	282e      	cmp	r0, #46	@ 0x2e
10002722:	9209      	str	r2, [sp, #36]	@ 0x24
10002724:	f102 0201 	add.w	r2, r2, #1
10002728:	f47f af6a 	bne.w	10002600 <_vsnprintf+0x94>
1000272c:	9909      	ldr	r1, [sp, #36]	@ 0x24
1000272e:	f443 6380 	orr.w	r3, r3, #1024	@ 0x400
10002732:	7848      	ldrb	r0, [r1, #1]
10002734:	4611      	mov	r1, r2
10002736:	f1a0 0630 	sub.w	r6, r0, #48	@ 0x30
1000273a:	2e09      	cmp	r6, #9
1000273c:	f240 8121 	bls.w	10002982 <_vsnprintf+0x416>
10002740:	282a      	cmp	r0, #42	@ 0x2a
10002742:	f000 812f 	beq.w	100029a4 <_vsnprintf+0x438>
10002746:	9209      	str	r2, [sp, #36]	@ 0x24
10002748:	2600      	movs	r6, #0
1000274a:	3201      	adds	r2, #1
1000274c:	e759      	b.n	10002602 <_vsnprintf+0x96>
1000274e:	4644      	mov	r4, r8
10002750:	45c1      	cmp	r9, r8
10002752:	d801      	bhi.n	10002758 <_vsnprintf+0x1ec>
10002754:	f109 38ff 	add.w	r8, r9, #4294967295
10002758:	464b      	mov	r3, r9
1000275a:	4642      	mov	r2, r8
1000275c:	4651      	mov	r1, sl
1000275e:	2000      	movs	r0, #0
10002760:	47d8      	blx	fp
10002762:	4620      	mov	r0, r4
10002764:	b01b      	add	sp, #108	@ 0x6c
10002766:	e8bd 8ff0 	ldmia.w	sp!, {r4, r5, r6, r7, r8, r9, sl, fp, pc}
1000276a:	f1a0 0269 	sub.w	r2, r0, #105	@ 0x69
1000276e:	b2d2      	uxtb	r2, r2
10002770:	2a0f      	cmp	r2, #15
10002772:	d83f      	bhi.n	100027f4 <_vsnprintf+0x288>
10002774:	2101      	movs	r1, #1
10002776:	f249 0741 	movw	r7, #36929	@ 0x9041
1000277a:	4091      	lsls	r1, r2
1000277c:	4039      	ands	r1, r7
1000277e:	f040 80f3 	bne.w	10002968 <_vsnprintf+0x3fc>
10002782:	2a0a      	cmp	r2, #10
10002784:	d03d      	beq.n	10002802 <_vsnprintf+0x296>
10002786:	2a07      	cmp	r2, #7
10002788:	d134      	bne.n	100027f4 <_vsnprintf+0x288>
1000278a:	9d0a      	ldr	r5, [sp, #40]	@ 0x28
1000278c:	f855 2b04 	ldr.w	r2, [r5], #4
10002790:	2a00      	cmp	r2, #0
10002792:	f000 8113 	beq.w	100029bc <_vsnprintf+0x450>
10002796:	f043 0021 	orr.w	r0, r3, #33	@ 0x21
1000279a:	ab12      	add	r3, sp, #72	@ 0x48
1000279c:	461f      	mov	r7, r3
1000279e:	930b      	str	r3, [sp, #44]	@ 0x2c
100027a0:	e003      	b.n	100027aa <_vsnprintf+0x23e>
100027a2:	2920      	cmp	r1, #32
100027a4:	f000 8114 	beq.w	100029d0 <_vsnprintf+0x464>
100027a8:	461a      	mov	r2, r3
100027aa:	f002 040f 	and.w	r4, r2, #15
100027ae:	4623      	mov	r3, r4
100027b0:	2c09      	cmp	r4, #9
100027b2:	bf94      	ite	ls
100027b4:	3330      	addls	r3, #48	@ 0x30
100027b6:	3337      	addhi	r3, #55	@ 0x37
100027b8:	2a0f      	cmp	r2, #15
100027ba:	f807 3b01 	strb.w	r3, [r7], #1
100027be:	f101 0101 	add.w	r1, r1, #1
100027c2:	ea4f 1312 	mov.w	r3, r2, lsr #4
100027c6:	d8ec      	bhi.n	100027a2 <_vsnprintf+0x236>
100027c8:	e102      	b.n	100029d0 <_vsnprintf+0x464>
100027ca:	bf00      	nop
100027cc:	1000256d 	.word	0x1000256d
100027d0:	20000810 	.word	0x20000810
100027d4:	100018b1 	.word	0x100018b1
100027d8:	990a      	ldr	r1, [sp, #40]	@ 0x28
100027da:	9809      	ldr	r0, [sp, #36]	@ 0x24
100027dc:	f851 5b04 	ldr.w	r5, [r1], #4
100027e0:	7840      	ldrb	r0, [r0, #1]
100027e2:	2d00      	cmp	r5, #0
100027e4:	e9cd 2109 	strd	r2, r1, [sp, #36]	@ 0x24
100027e8:	bfbc      	itt	lt
100027ea:	f043 0302 	orrlt.w	r3, r3, #2
100027ee:	426d      	neglt	r5, r5
100027f0:	3201      	adds	r2, #1
100027f2:	e702      	b.n	100025fa <_vsnprintf+0x8e>
100027f4:	4642      	mov	r2, r8
100027f6:	464b      	mov	r3, r9
100027f8:	4651      	mov	r1, sl
100027fa:	f108 0801 	add.w	r8, r8, #1
100027fe:	47d8      	blx	fp
10002800:	e6d2      	b.n	100025a8 <_vsnprintf+0x3c>
10002802:	990a      	ldr	r1, [sp, #40]	@ 0x28
10002804:	2e00      	cmp	r6, #0
10002806:	f851 7b04 	ldr.w	r7, [r1], #4
1000280a:	bf18      	it	ne
1000280c:	4632      	movne	r2, r6
1000280e:	7838      	ldrb	r0, [r7, #0]
10002810:	bf08      	it	eq
10002812:	f04f 32ff 	moveq.w	r2, #4294967295
10002816:	2800      	cmp	r0, #0
10002818:	f000 837b 	beq.w	10002f12 <_vsnprintf+0x9a6>
1000281c:	18bc      	adds	r4, r7, r2
1000281e:	46a4      	mov	ip, r4
10002820:	463a      	mov	r2, r7
10002822:	e004      	b.n	1000282e <_vsnprintf+0x2c2>
10002824:	f812 4f01 	ldrb.w	r4, [r2, #1]!
10002828:	2c00      	cmp	r4, #0
1000282a:	f000 813f 	beq.w	10002aac <_vsnprintf+0x540>
1000282e:	4594      	cmp	ip, r2
10002830:	d1f8      	bne.n	10002824 <_vsnprintf+0x2b8>
10002832:	4664      	mov	r4, ip
10002834:	1be4      	subs	r4, r4, r7
10002836:	055a      	lsls	r2, r3, #21
10002838:	f140 8122 	bpl.w	10002a80 <_vsnprintf+0x514>
1000283c:	42b4      	cmp	r4, r6
1000283e:	bf28      	it	cs
10002840:	4634      	movcs	r4, r6
10002842:	f013 0302 	ands.w	r3, r3, #2
10002846:	f000 8288 	beq.w	10002d5a <_vsnprintf+0x7ee>
1000284a:	2302      	movs	r3, #2
1000284c:	e9cd 510a 	strd	r5, r1, [sp, #40]	@ 0x28
10002850:	4642      	mov	r2, r8
10002852:	461d      	mov	r5, r3
10002854:	4446      	add	r6, r8
10002856:	e008      	b.n	1000286a <_vsnprintf+0x2fe>
10002858:	464b      	mov	r3, r9
1000285a:	4651      	mov	r1, sl
1000285c:	47d8      	blx	fp
1000285e:	f817 0f01 	ldrb.w	r0, [r7, #1]!
10002862:	f108 0801 	add.w	r8, r8, #1
10002866:	b110      	cbz	r0, 1000286e <_vsnprintf+0x302>
10002868:	4642      	mov	r2, r8
1000286a:	4546      	cmp	r6, r8
1000286c:	d1f4      	bne.n	10002858 <_vsnprintf+0x2ec>
1000286e:	462b      	mov	r3, r5
10002870:	990b      	ldr	r1, [sp, #44]	@ 0x2c
10002872:	9d0a      	ldr	r5, [sp, #40]	@ 0x28
10002874:	2b00      	cmp	r3, #0
10002876:	f040 8141 	bne.w	10002afc <_vsnprintf+0x590>
1000287a:	910a      	str	r1, [sp, #40]	@ 0x28
1000287c:	e694      	b.n	100025a8 <_vsnprintf+0x3c>
1000287e:	9909      	ldr	r1, [sp, #36]	@ 0x24
10002880:	7848      	ldrb	r0, [r1, #1]
10002882:	286c      	cmp	r0, #108	@ 0x6c
10002884:	f47f aeec 	bne.w	10002660 <_vsnprintf+0xf4>
10002888:	460a      	mov	r2, r1
1000288a:	7888      	ldrb	r0, [r1, #2]
1000288c:	f443 7340 	orr.w	r3, r3, #768	@ 0x300
10002890:	3203      	adds	r2, #3
10002892:	e6e8      	b.n	10002666 <_vsnprintf+0xfa>
10002894:	9909      	ldr	r1, [sp, #36]	@ 0x24
10002896:	f443 7300 	orr.w	r3, r3, #512	@ 0x200
1000289a:	7848      	ldrb	r0, [r1, #1]
1000289c:	3201      	adds	r2, #1
1000289e:	e6e2      	b.n	10002666 <_vsnprintf+0xfa>
100028a0:	9909      	ldr	r1, [sp, #36]	@ 0x24
100028a2:	7848      	ldrb	r0, [r1, #1]
100028a4:	2868      	cmp	r0, #104	@ 0x68
100028a6:	f000 8103 	beq.w	10002ab0 <_vsnprintf+0x544>
100028aa:	f043 0380 	orr.w	r3, r3, #128	@ 0x80
100028ae:	3201      	adds	r2, #1
100028b0:	e6d9      	b.n	10002666 <_vsnprintf+0xfa>
100028b2:	2867      	cmp	r0, #103	@ 0x67
100028b4:	f000 80d9 	beq.w	10002a6a <_vsnprintf+0x4fe>
100028b8:	2847      	cmp	r0, #71	@ 0x47
100028ba:	f000 80dc 	beq.w	10002a76 <_vsnprintf+0x50a>
100028be:	2845      	cmp	r0, #69	@ 0x45
100028c0:	f000 80db 	beq.w	10002a7a <_vsnprintf+0x50e>
100028c4:	e9cd 5303 	strd	r5, r3, [sp, #12]
100028c8:	9b0a      	ldr	r3, [sp, #40]	@ 0x28
100028ca:	9602      	str	r6, [sp, #8]
100028cc:	3307      	adds	r3, #7
100028ce:	f023 0307 	bic.w	r3, r3, #7
100028d2:	461c      	mov	r4, r3
100028d4:	4642      	mov	r2, r8
100028d6:	e8f4 6702 	ldrd	r6, r7, [r4], #8
100028da:	464b      	mov	r3, r9
100028dc:	4651      	mov	r1, sl
100028de:	4658      	mov	r0, fp
100028e0:	e9cd 6700 	strd	r6, r7, [sp]
100028e4:	940a      	str	r4, [sp, #40]	@ 0x28
100028e6:	f7ff fb87 	bl	10001ff8 <_etoa>
100028ea:	4680      	mov	r8, r0
100028ec:	e65c      	b.n	100025a8 <_vsnprintf+0x3c>
100028ee:	2846      	cmp	r0, #70	@ 0x46
100028f0:	bf08      	it	eq
100028f2:	f043 0320 	orreq.w	r3, r3, #32
100028f6:	e9cd 5303 	strd	r5, r3, [sp, #12]
100028fa:	9b0a      	ldr	r3, [sp, #40]	@ 0x28
100028fc:	9602      	str	r6, [sp, #8]
100028fe:	3307      	adds	r3, #7
10002900:	f023 0307 	bic.w	r3, r3, #7
10002904:	461c      	mov	r4, r3
10002906:	4642      	mov	r2, r8
10002908:	e8f4 6702 	ldrd	r6, r7, [r4], #8
1000290c:	464b      	mov	r3, r9
1000290e:	4651      	mov	r1, sl
10002910:	4658      	mov	r0, fp
10002912:	e9cd 6700 	strd	r6, r7, [sp]
10002916:	940a      	str	r4, [sp, #40]	@ 0x28
10002918:	f7ff f90e 	bl	10001b38 <_ftoa>
1000291c:	4680      	mov	r8, r0
1000291e:	e643      	b.n	100025a8 <_vsnprintf+0x3c>
10002920:	4642      	mov	r2, r8
10002922:	464b      	mov	r3, r9
10002924:	4651      	mov	r1, sl
10002926:	2025      	movs	r0, #37	@ 0x25
10002928:	f108 0801 	add.w	r8, r8, #1
1000292c:	47d8      	blx	fp
1000292e:	e63b      	b.n	100025a8 <_vsnprintf+0x3c>
10002930:	9a0a      	ldr	r2, [sp, #40]	@ 0x28
10002932:	0799      	lsls	r1, r3, #30
10002934:	f102 0404 	add.w	r4, r2, #4
10002938:	f108 0601 	add.w	r6, r8, #1
1000293c:	f140 80c6 	bpl.w	10002acc <_vsnprintf+0x560>
10002940:	7810      	ldrb	r0, [r2, #0]
10002942:	464b      	mov	r3, r9
10002944:	4642      	mov	r2, r8
10002946:	4651      	mov	r1, sl
10002948:	47d8      	blx	fp
1000294a:	2d01      	cmp	r5, #1
1000294c:	bf88      	it	hi
1000294e:	44a8      	addhi	r8, r5
10002950:	f240 81bd 	bls.w	10002cce <_vsnprintf+0x762>
10002954:	4632      	mov	r2, r6
10002956:	464b      	mov	r3, r9
10002958:	4651      	mov	r1, sl
1000295a:	2020      	movs	r0, #32
1000295c:	3601      	adds	r6, #1
1000295e:	47d8      	blx	fp
10002960:	4546      	cmp	r6, r8
10002962:	d1f7      	bne.n	10002954 <_vsnprintf+0x3e8>
10002964:	940a      	str	r4, [sp, #40]	@ 0x28
10002966:	e61f      	b.n	100025a8 <_vsnprintf+0x3c>
10002968:	286f      	cmp	r0, #111	@ 0x6f
1000296a:	f000 8081 	beq.w	10002a70 <_vsnprintf+0x504>
1000296e:	f240 8248 	bls.w	10002e02 <_vsnprintf+0x896>
10002972:	2878      	cmp	r0, #120	@ 0x78
10002974:	f000 8190 	beq.w	10002c98 <_vsnprintf+0x72c>
10002978:	270a      	movs	r7, #10
1000297a:	f023 0310 	bic.w	r3, r3, #16
1000297e:	46bc      	mov	ip, r7
10002980:	e041      	b.n	10002a06 <_vsnprintf+0x49a>
10002982:	2600      	movs	r6, #0
10002984:	eb06 0686 	add.w	r6, r6, r6, lsl #2
10002988:	eb00 0046 	add.w	r0, r0, r6, lsl #1
1000298c:	f1a0 0630 	sub.w	r6, r0, #48	@ 0x30
10002990:	f811 0f01 	ldrb.w	r0, [r1, #1]!
10002994:	f1a0 0230 	sub.w	r2, r0, #48	@ 0x30
10002998:	2a09      	cmp	r2, #9
1000299a:	d9f3      	bls.n	10002984 <_vsnprintf+0x418>
1000299c:	460a      	mov	r2, r1
1000299e:	9109      	str	r1, [sp, #36]	@ 0x24
100029a0:	3201      	adds	r2, #1
100029a2:	e62e      	b.n	10002602 <_vsnprintf+0x96>
100029a4:	e9dd 2109 	ldrd	r2, r1, [sp, #36]	@ 0x24
100029a8:	f851 6b04 	ldr.w	r6, [r1], #4
100029ac:	7890      	ldrb	r0, [r2, #2]
100029ae:	3202      	adds	r2, #2
100029b0:	9209      	str	r2, [sp, #36]	@ 0x24
100029b2:	910a      	str	r1, [sp, #40]	@ 0x28
100029b4:	3201      	adds	r2, #1
100029b6:	ea26 76e6 	bic.w	r6, r6, r6, asr #31
100029ba:	e622      	b.n	10002602 <_vsnprintf+0x96>
100029bc:	f023 0010 	bic.w	r0, r3, #16
100029c0:	f413 6280 	ands.w	r2, r3, #1024	@ 0x400
100029c4:	f040 0021 	orr.w	r0, r0, #33	@ 0x21
100029c8:	f43f aee7 	beq.w	1000279a <_vsnprintf+0x22e>
100029cc:	ab12      	add	r3, sp, #72	@ 0x48
100029ce:	930b      	str	r3, [sp, #44]	@ 0x2c
100029d0:	9b0b      	ldr	r3, [sp, #44]	@ 0x2c
100029d2:	9006      	str	r0, [sp, #24]
100029d4:	9300      	str	r3, [sp, #0]
100029d6:	2308      	movs	r3, #8
100029d8:	2010      	movs	r0, #16
100029da:	9305      	str	r3, [sp, #20]
100029dc:	2300      	movs	r3, #0
100029de:	4642      	mov	r2, r8
100029e0:	e9cd 3002 	strd	r3, r0, [sp, #8]
100029e4:	9101      	str	r1, [sp, #4]
100029e6:	464b      	mov	r3, r9
100029e8:	4651      	mov	r1, sl
100029ea:	4658      	mov	r0, fp
100029ec:	9604      	str	r6, [sp, #16]
100029ee:	f7fe ffaf 	bl	10001950 <_ntoa_format>
100029f2:	950a      	str	r5, [sp, #40]	@ 0x28
100029f4:	4680      	mov	r8, r0
100029f6:	e5d7      	b.n	100025a8 <_vsnprintf+0x3c>
100029f8:	2858      	cmp	r0, #88	@ 0x58
100029fa:	d062      	beq.n	10002ac2 <_vsnprintf+0x556>
100029fc:	2862      	cmp	r0, #98	@ 0x62
100029fe:	f040 808f 	bne.w	10002b20 <_vsnprintf+0x5b4>
10002a02:	2702      	movs	r7, #2
10002a04:	46bc      	mov	ip, r7
10002a06:	f413 6080 	ands.w	r0, r3, #1024	@ 0x400
10002a0a:	f000 80dd 	beq.w	10002bc8 <_vsnprintf+0x65c>
10002a0e:	f023 030d 	bic.w	r3, r3, #13
10002a12:	f413 7200 	ands.w	r2, r3, #512	@ 0x200
10002a16:	f040 8181 	bne.w	10002d1c <_vsnprintf+0x7b0>
10002a1a:	990a      	ldr	r1, [sp, #40]	@ 0x28
10002a1c:	1d0f      	adds	r7, r1, #4
10002a1e:	f413 7180 	ands.w	r1, r3, #256	@ 0x100
10002a22:	f040 8237 	bne.w	10002e94 <_vsnprintf+0x928>
10002a26:	065c      	lsls	r4, r3, #25
10002a28:	9a0a      	ldr	r2, [sp, #40]	@ 0x28
10002a2a:	f140 813b 	bpl.w	10002ca4 <_vsnprintf+0x738>
10002a2e:	7812      	ldrb	r2, [r2, #0]
10002a30:	2a00      	cmp	r2, #0
10002a32:	f040 814e 	bne.w	10002cd2 <_vsnprintf+0x766>
10002a36:	f023 0310 	bic.w	r3, r3, #16
10002a3a:	2800      	cmp	r0, #0
10002a3c:	f000 8149 	beq.w	10002cd2 <_vsnprintf+0x766>
10002a40:	4611      	mov	r1, r2
10002a42:	aa12      	add	r2, sp, #72	@ 0x48
10002a44:	920b      	str	r2, [sp, #44]	@ 0x2c
10002a46:	e9cd 5305 	strd	r5, r3, [sp, #20]
10002a4a:	e9cd c603 	strd	ip, r6, [sp, #12]
10002a4e:	9101      	str	r1, [sp, #4]
10002a50:	9b0b      	ldr	r3, [sp, #44]	@ 0x2c
10002a52:	4642      	mov	r2, r8
10002a54:	9300      	str	r3, [sp, #0]
10002a56:	2300      	movs	r3, #0
10002a58:	4651      	mov	r1, sl
10002a5a:	9302      	str	r3, [sp, #8]
10002a5c:	4658      	mov	r0, fp
10002a5e:	464b      	mov	r3, r9
10002a60:	f7fe ff76 	bl	10001950 <_ntoa_format>
10002a64:	970a      	str	r7, [sp, #40]	@ 0x28
10002a66:	4680      	mov	r8, r0
10002a68:	e59e      	b.n	100025a8 <_vsnprintf+0x3c>
10002a6a:	f443 6300 	orr.w	r3, r3, #2048	@ 0x800
10002a6e:	e729      	b.n	100028c4 <_vsnprintf+0x358>
10002a70:	2708      	movs	r7, #8
10002a72:	46bc      	mov	ip, r7
10002a74:	e7c7      	b.n	10002a06 <_vsnprintf+0x49a>
10002a76:	f443 6300 	orr.w	r3, r3, #2048	@ 0x800
10002a7a:	f043 0320 	orr.w	r3, r3, #32
10002a7e:	e721      	b.n	100028c4 <_vsnprintf+0x358>
10002a80:	f013 0302 	ands.w	r3, r3, #2
10002a84:	f000 818e 	beq.w	10002da4 <_vsnprintf+0x838>
10002a88:	2302      	movs	r3, #2
10002a8a:	950a      	str	r5, [sp, #40]	@ 0x28
10002a8c:	461e      	mov	r6, r3
10002a8e:	460d      	mov	r5, r1
10002a90:	4642      	mov	r2, r8
10002a92:	464b      	mov	r3, r9
10002a94:	4651      	mov	r1, sl
10002a96:	47d8      	blx	fp
10002a98:	f817 0f01 	ldrb.w	r0, [r7, #1]!
10002a9c:	f108 0801 	add.w	r8, r8, #1
10002aa0:	2800      	cmp	r0, #0
10002aa2:	d1f5      	bne.n	10002a90 <_vsnprintf+0x524>
10002aa4:	4629      	mov	r1, r5
10002aa6:	4633      	mov	r3, r6
10002aa8:	9d0a      	ldr	r5, [sp, #40]	@ 0x28
10002aaa:	e6e3      	b.n	10002874 <_vsnprintf+0x308>
10002aac:	1bd4      	subs	r4, r2, r7
10002aae:	e6c2      	b.n	10002836 <_vsnprintf+0x2ca>
10002ab0:	460a      	mov	r2, r1
10002ab2:	7888      	ldrb	r0, [r1, #2]
10002ab4:	f043 03c0 	orr.w	r3, r3, #192	@ 0xc0
10002ab8:	3203      	adds	r2, #3
10002aba:	e5d4      	b.n	10002666 <_vsnprintf+0xfa>
10002abc:	4604      	mov	r4, r0
10002abe:	4680      	mov	r8, r0
10002ac0:	e646      	b.n	10002750 <_vsnprintf+0x1e4>
10002ac2:	2710      	movs	r7, #16
10002ac4:	f043 0320 	orr.w	r3, r3, #32
10002ac8:	46bc      	mov	ip, r7
10002aca:	e79c      	b.n	10002a06 <_vsnprintf+0x49a>
10002acc:	2d01      	cmp	r5, #1
10002ace:	f240 80f8 	bls.w	10002cc2 <_vsnprintf+0x756>
10002ad2:	4646      	mov	r6, r8
10002ad4:	f108 37ff 	add.w	r7, r8, #4294967295
10002ad8:	442f      	add	r7, r5
10002ada:	4632      	mov	r2, r6
10002adc:	464b      	mov	r3, r9
10002ade:	4651      	mov	r1, sl
10002ae0:	2020      	movs	r0, #32
10002ae2:	3601      	adds	r6, #1
10002ae4:	47d8      	blx	fp
10002ae6:	42be      	cmp	r6, r7
10002ae8:	d1f7      	bne.n	10002ada <_vsnprintf+0x56e>
10002aea:	9b0a      	ldr	r3, [sp, #40]	@ 0x28
10002aec:	4632      	mov	r2, r6
10002aee:	7818      	ldrb	r0, [r3, #0]
10002af0:	4651      	mov	r1, sl
10002af2:	464b      	mov	r3, r9
10002af4:	47d8      	blx	fp
10002af6:	44a8      	add	r8, r5
10002af8:	940a      	str	r4, [sp, #40]	@ 0x28
10002afa:	e555      	b.n	100025a8 <_vsnprintf+0x3c>
10002afc:	4646      	mov	r6, r8
10002afe:	42a5      	cmp	r5, r4
10002b00:	f67f aebb 	bls.w	1000287a <_vsnprintf+0x30e>
10002b04:	44a8      	add	r8, r5
10002b06:	eba8 0804 	sub.w	r8, r8, r4
10002b0a:	460c      	mov	r4, r1
10002b0c:	4632      	mov	r2, r6
10002b0e:	464b      	mov	r3, r9
10002b10:	4651      	mov	r1, sl
10002b12:	2020      	movs	r0, #32
10002b14:	3601      	adds	r6, #1
10002b16:	47d8      	blx	fp
10002b18:	4546      	cmp	r6, r8
10002b1a:	d1f7      	bne.n	10002b0c <_vsnprintf+0x5a0>
10002b1c:	4621      	mov	r1, r4
10002b1e:	e6ac      	b.n	1000287a <_vsnprintf+0x30e>
10002b20:	f413 6280 	ands.w	r2, r3, #1024	@ 0x400
10002b24:	f000 80bb 	beq.w	10002c9e <_vsnprintf+0x732>
10002b28:	f44f 6280 	mov.w	r2, #1024	@ 0x400
10002b2c:	f023 0c11 	bic.w	ip, r3, #17
10002b30:	f41c 7700 	ands.w	r7, ip, #512	@ 0x200
10002b34:	9b0a      	ldr	r3, [sp, #40]	@ 0x28
10002b36:	d14a      	bne.n	10002bce <_vsnprintf+0x662>
10002b38:	f41c 7080 	ands.w	r0, ip, #256	@ 0x100
10002b3c:	f103 0404 	add.w	r4, r3, #4
10002b40:	f040 8134 	bne.w	10002dac <_vsnprintf+0x840>
10002b44:	f01c 0f40 	tst.w	ip, #64	@ 0x40
10002b48:	f040 80a3 	bne.w	10002c92 <_vsnprintf+0x726>
10002b4c:	f01c 0f80 	tst.w	ip, #128	@ 0x80
10002b50:	f000 81d3 	beq.w	10002efa <_vsnprintf+0x98e>
10002b54:	f9b3 1000 	ldrsh.w	r1, [r3]
10002b58:	ea81 77e1 	eor.w	r7, r1, r1, asr #31
10002b5c:	eba7 77e1 	sub.w	r7, r7, r1, asr #31
10002b60:	b2bf      	uxth	r7, r7
10002b62:	0fcb      	lsrs	r3, r1, #31
10002b64:	2900      	cmp	r1, #0
10002b66:	f000 8156 	beq.w	10002e16 <_vsnprintf+0x8aa>
10002b6a:	463a      	mov	r2, r7
10002b6c:	a912      	add	r1, sp, #72	@ 0x48
10002b6e:	460f      	mov	r7, r1
10002b70:	f8df e3d8 	ldr.w	lr, [pc, #984]	@ 10002f4c <_vsnprintf+0x9e0>
10002b74:	910b      	str	r1, [sp, #44]	@ 0x2c
10002b76:	930a      	str	r3, [sp, #40]	@ 0x28
10002b78:	950c      	str	r5, [sp, #48]	@ 0x30
10002b7a:	e001      	b.n	10002b80 <_vsnprintf+0x614>
10002b7c:	2820      	cmp	r0, #32
10002b7e:	d00f      	beq.n	10002ba0 <_vsnprintf+0x634>
10002b80:	4615      	mov	r5, r2
10002b82:	fbae 1302 	umull	r1, r3, lr, r2
10002b86:	08db      	lsrs	r3, r3, #3
10002b88:	eb03 0183 	add.w	r1, r3, r3, lsl #2
10002b8c:	eba2 0141 	sub.w	r1, r2, r1, lsl #1
10002b90:	3130      	adds	r1, #48	@ 0x30
10002b92:	2d09      	cmp	r5, #9
10002b94:	461a      	mov	r2, r3
10002b96:	f100 0001 	add.w	r0, r0, #1
10002b9a:	f807 1b01 	strb.w	r1, [r7], #1
10002b9e:	d8ed      	bhi.n	10002b7c <_vsnprintf+0x610>
10002ba0:	9b0a      	ldr	r3, [sp, #40]	@ 0x28
10002ba2:	9d0c      	ldr	r5, [sp, #48]	@ 0x30
10002ba4:	e9cd 5c05 	strd	r5, ip, [sp, #20]
10002ba8:	e9cd 0301 	strd	r0, r3, [sp, #4]
10002bac:	9604      	str	r6, [sp, #16]
10002bae:	9b0b      	ldr	r3, [sp, #44]	@ 0x2c
10002bb0:	4642      	mov	r2, r8
10002bb2:	9300      	str	r3, [sp, #0]
10002bb4:	230a      	movs	r3, #10
10002bb6:	4651      	mov	r1, sl
10002bb8:	9303      	str	r3, [sp, #12]
10002bba:	4658      	mov	r0, fp
10002bbc:	464b      	mov	r3, r9
10002bbe:	f7fe fec7 	bl	10001950 <_ntoa_format>
10002bc2:	940a      	str	r4, [sp, #40]	@ 0x28
10002bc4:	4680      	mov	r8, r0
10002bc6:	e4ef      	b.n	100025a8 <_vsnprintf+0x3c>
10002bc8:	f023 030c 	bic.w	r3, r3, #12
10002bcc:	e721      	b.n	10002a12 <_vsnprintf+0x4a6>
10002bce:	3307      	adds	r3, #7
10002bd0:	f023 0307 	bic.w	r3, r3, #7
10002bd4:	4619      	mov	r1, r3
10002bd6:	4608      	mov	r0, r1
10002bd8:	685b      	ldr	r3, [r3, #4]
10002bda:	f850 1b08 	ldr.w	r1, [r0], #8
10002bde:	0fdf      	lsrs	r7, r3, #31
10002be0:	900a      	str	r0, [sp, #40]	@ 0x28
10002be2:	ea51 0003 	orrs.w	r0, r1, r3
10002be6:	d162      	bne.n	10002cae <_vsnprintf+0x742>
10002be8:	2a00      	cmp	r2, #0
10002bea:	f040 819f 	bne.w	10002f2c <_vsnprintf+0x9c0>
10002bee:	4613      	mov	r3, r2
10002bf0:	4611      	mov	r1, r2
10002bf2:	aa12      	add	r2, sp, #72	@ 0x48
10002bf4:	e9cd 750c 	strd	r7, r5, [sp, #48]	@ 0x30
10002bf8:	2000      	movs	r0, #0
10002bfa:	4615      	mov	r5, r2
10002bfc:	e9cd 680e 	strd	r6, r8, [sp, #56]	@ 0x38
10002c00:	f8df e348 	ldr.w	lr, [pc, #840]	@ 10002f4c <_vsnprintf+0x9e0>
10002c04:	920b      	str	r2, [sp, #44]	@ 0x2c
10002c06:	e001      	b.n	10002c0c <_vsnprintf+0x6a0>
10002c08:	2820      	cmp	r0, #32
10002c0a:	d02d      	beq.n	10002c68 <_vsnprintf+0x6fc>
10002c0c:	185a      	adds	r2, r3, r1
10002c0e:	f142 0200 	adc.w	r2, r2, #0
10002c12:	fbae 7802 	umull	r7, r8, lr, r2
10002c16:	f028 0703 	bic.w	r7, r8, #3
10002c1a:	eb07 0798 	add.w	r7, r7, r8, lsr #2
10002c1e:	1bd2      	subs	r2, r2, r7
10002c20:	461e      	mov	r6, r3
10002c22:	1a9b      	subs	r3, r3, r2
10002c24:	f161 0700 	sbc.w	r7, r1, #0
10002c28:	460c      	mov	r4, r1
10002c2a:	f04f 31cc 	mov.w	r1, #3435973836	@ 0xcccccccc
10002c2e:	fb01 f103 	mul.w	r1, r1, r3
10002c32:	fb0e 1107 	mla	r1, lr, r7, r1
10002c36:	fba3 730e 	umull	r7, r3, r3, lr
10002c3a:	4419      	add	r1, r3
10002c3c:	2305      	movs	r3, #5
10002c3e:	f007 0801 	and.w	r8, r7, #1
10002c42:	fba8 3803 	umull	r3, r8, r8, r3
10002c46:	189b      	adds	r3, r3, r2
10002c48:	2e0a      	cmp	r6, #10
10002c4a:	f103 0330 	add.w	r3, r3, #48	@ 0x30
10002c4e:	ea4f 0757 	mov.w	r7, r7, lsr #1
10002c52:	f174 0400 	sbcs.w	r4, r4, #0
10002c56:	f805 3b01 	strb.w	r3, [r5], #1
10002c5a:	f100 0001 	add.w	r0, r0, #1
10002c5e:	ea47 73c1 	orr.w	r3, r7, r1, lsl #31
10002c62:	ea4f 0151 	mov.w	r1, r1, lsr #1
10002c66:	d2cf      	bcs.n	10002c08 <_vsnprintf+0x69c>
10002c68:	e9dd 750c 	ldrd	r7, r5, [sp, #48]	@ 0x30
10002c6c:	e9dd 680e 	ldrd	r6, r8, [sp, #56]	@ 0x38
10002c70:	9b0b      	ldr	r3, [sp, #44]	@ 0x2c
10002c72:	4642      	mov	r2, r8
10002c74:	9300      	str	r3, [sp, #0]
10002c76:	230a      	movs	r3, #10
10002c78:	e9cd 5c05 	strd	r5, ip, [sp, #20]
10002c7c:	e9cd 0701 	strd	r0, r7, [sp, #4]
10002c80:	9604      	str	r6, [sp, #16]
10002c82:	9303      	str	r3, [sp, #12]
10002c84:	464b      	mov	r3, r9
10002c86:	4651      	mov	r1, sl
10002c88:	4658      	mov	r0, fp
10002c8a:	f7fe fe61 	bl	10001950 <_ntoa_format>
10002c8e:	4680      	mov	r8, r0
10002c90:	e48a      	b.n	100025a8 <_vsnprintf+0x3c>
10002c92:	7819      	ldrb	r1, [r3, #0]
10002c94:	460f      	mov	r7, r1
10002c96:	e764      	b.n	10002b62 <_vsnprintf+0x5f6>
10002c98:	2710      	movs	r7, #16
10002c9a:	46bc      	mov	ip, r7
10002c9c:	e6b3      	b.n	10002a06 <_vsnprintf+0x49a>
10002c9e:	f023 0c10 	bic.w	ip, r3, #16
10002ca2:	e745      	b.n	10002b30 <_vsnprintf+0x5c4>
10002ca4:	061c      	lsls	r4, r3, #24
10002ca6:	bf4c      	ite	mi
10002ca8:	8812      	ldrhmi	r2, [r2, #0]
10002caa:	6812      	ldrpl	r2, [r2, #0]
10002cac:	e6c0      	b.n	10002a30 <_vsnprintf+0x4c4>
10002cae:	460a      	mov	r2, r1
10002cb0:	1e19      	subs	r1, r3, #0
10002cb2:	db01      	blt.n	10002cb8 <_vsnprintf+0x74c>
10002cb4:	4613      	mov	r3, r2
10002cb6:	e79c      	b.n	10002bf2 <_vsnprintf+0x686>
10002cb8:	4252      	negs	r2, r2
10002cba:	4613      	mov	r3, r2
10002cbc:	eb61 0141 	sbc.w	r1, r1, r1, lsl #1
10002cc0:	e797      	b.n	10002bf2 <_vsnprintf+0x686>
10002cc2:	4613      	mov	r3, r2
10002cc4:	4651      	mov	r1, sl
10002cc6:	7818      	ldrb	r0, [r3, #0]
10002cc8:	4642      	mov	r2, r8
10002cca:	464b      	mov	r3, r9
10002ccc:	47d8      	blx	fp
10002cce:	46b0      	mov	r8, r6
10002cd0:	e648      	b.n	10002964 <_vsnprintf+0x3f8>
10002cd2:	f013 0f20 	tst.w	r3, #32
10002cd6:	bf14      	ite	ne
10002cd8:	2041      	movne	r0, #65	@ 0x41
10002cda:	2061      	moveq	r0, #97	@ 0x61
10002cdc:	ac12      	add	r4, sp, #72	@ 0x48
10002cde:	46a6      	mov	lr, r4
10002ce0:	940b      	str	r4, [sp, #44]	@ 0x2c
10002ce2:	930a      	str	r3, [sp, #40]	@ 0x28
10002ce4:	f1a0 040a 	sub.w	r4, r0, #10
10002ce8:	950c      	str	r5, [sp, #48]	@ 0x30
10002cea:	e002      	b.n	10002cf2 <_vsnprintf+0x786>
10002cec:	2920      	cmp	r1, #32
10002cee:	d012      	beq.n	10002d16 <_vsnprintf+0x7aa>
10002cf0:	462a      	mov	r2, r5
10002cf2:	fbb2 f5fc 	udiv	r5, r2, ip
10002cf6:	fb0c 2015 	mls	r0, ip, r5, r2
10002cfa:	b2c3      	uxtb	r3, r0
10002cfc:	2809      	cmp	r0, #9
10002cfe:	f103 0030 	add.w	r0, r3, #48	@ 0x30
10002d02:	bf8a      	itet	hi
10002d04:	191b      	addhi	r3, r3, r4
10002d06:	b2c3      	uxtbls	r3, r0
10002d08:	b2db      	uxtbhi	r3, r3
10002d0a:	4562      	cmp	r2, ip
10002d0c:	f80e 3b01 	strb.w	r3, [lr], #1
10002d10:	f101 0101 	add.w	r1, r1, #1
10002d14:	d2ea      	bcs.n	10002cec <_vsnprintf+0x780>
10002d16:	9b0a      	ldr	r3, [sp, #40]	@ 0x28
10002d18:	9d0c      	ldr	r5, [sp, #48]	@ 0x30
10002d1a:	e694      	b.n	10002a46 <_vsnprintf+0x4da>
10002d1c:	9a0a      	ldr	r2, [sp, #40]	@ 0x28
10002d1e:	3207      	adds	r2, #7
10002d20:	f022 0207 	bic.w	r2, r2, #7
10002d24:	6851      	ldr	r1, [r2, #4]
10002d26:	f852 4b08 	ldr.w	r4, [r2], #8
10002d2a:	468e      	mov	lr, r1
10002d2c:	920a      	str	r2, [sp, #40]	@ 0x28
10002d2e:	ea54 0201 	orrs.w	r2, r4, r1
10002d32:	d176      	bne.n	10002e22 <_vsnprintf+0x8b6>
10002d34:	f023 0310 	bic.w	r3, r3, #16
10002d38:	2800      	cmp	r0, #0
10002d3a:	d072      	beq.n	10002e22 <_vsnprintf+0x8b6>
10002d3c:	2200      	movs	r2, #0
10002d3e:	4611      	mov	r1, r2
10002d40:	aa12      	add	r2, sp, #72	@ 0x48
10002d42:	920b      	str	r2, [sp, #44]	@ 0x2c
10002d44:	e9cd 5305 	strd	r5, r3, [sp, #20]
10002d48:	9b0b      	ldr	r3, [sp, #44]	@ 0x2c
10002d4a:	4642      	mov	r2, r8
10002d4c:	9300      	str	r3, [sp, #0]
10002d4e:	2300      	movs	r3, #0
10002d50:	e9cd c603 	strd	ip, r6, [sp, #12]
10002d54:	9101      	str	r1, [sp, #4]
10002d56:	9302      	str	r3, [sp, #8]
10002d58:	e794      	b.n	10002c84 <_vsnprintf+0x718>
10002d5a:	42a5      	cmp	r5, r4
10002d5c:	bf98      	it	ls
10002d5e:	3401      	addls	r4, #1
10002d60:	f67f ad74 	bls.w	1000284c <_vsnprintf+0x2e0>
10002d64:	f44f 6380 	mov.w	r3, #1024	@ 0x400
10002d68:	e9cd 750a 	strd	r7, r5, [sp, #40]	@ 0x28
10002d6c:	eb05 0208 	add.w	r2, r5, r8
10002d70:	461f      	mov	r7, r3
10002d72:	460d      	mov	r5, r1
10002d74:	1b14      	subs	r4, r2, r4
10002d76:	4642      	mov	r2, r8
10002d78:	464b      	mov	r3, r9
10002d7a:	4651      	mov	r1, sl
10002d7c:	2020      	movs	r0, #32
10002d7e:	f108 0801 	add.w	r8, r8, #1
10002d82:	47d8      	blx	fp
10002d84:	45a0      	cmp	r8, r4
10002d86:	d1f6      	bne.n	10002d76 <_vsnprintf+0x80a>
10002d88:	463b      	mov	r3, r7
10002d8a:	9f0a      	ldr	r7, [sp, #40]	@ 0x28
10002d8c:	4629      	mov	r1, r5
10002d8e:	7838      	ldrb	r0, [r7, #0]
10002d90:	9d0b      	ldr	r5, [sp, #44]	@ 0x2c
10002d92:	1c6c      	adds	r4, r5, #1
10002d94:	2800      	cmp	r0, #0
10002d96:	f43f ad70 	beq.w	1000287a <_vsnprintf+0x30e>
10002d9a:	2b00      	cmp	r3, #0
10002d9c:	f43f ae75 	beq.w	10002a8a <_vsnprintf+0x51e>
10002da0:	2300      	movs	r3, #0
10002da2:	e553      	b.n	1000284c <_vsnprintf+0x2e0>
10002da4:	42a5      	cmp	r5, r4
10002da6:	d8df      	bhi.n	10002d68 <_vsnprintf+0x7fc>
10002da8:	3401      	adds	r4, #1
10002daa:	e66e      	b.n	10002a8a <_vsnprintf+0x51e>
10002dac:	6819      	ldr	r1, [r3, #0]
10002dae:	0fcb      	lsrs	r3, r1, #31
10002db0:	2900      	cmp	r1, #0
10002db2:	f000 80a8 	beq.w	10002f06 <_vsnprintf+0x99a>
10002db6:	ea81 72e1 	eor.w	r2, r1, r1, asr #31
10002dba:	eba2 72e1 	sub.w	r2, r2, r1, asr #31
10002dbe:	a912      	add	r1, sp, #72	@ 0x48
10002dc0:	4608      	mov	r0, r1
10002dc2:	f8df e188 	ldr.w	lr, [pc, #392]	@ 10002f4c <_vsnprintf+0x9e0>
10002dc6:	910b      	str	r1, [sp, #44]	@ 0x2c
10002dc8:	930a      	str	r3, [sp, #40]	@ 0x28
10002dca:	950c      	str	r5, [sp, #48]	@ 0x30
10002dcc:	e001      	b.n	10002dd2 <_vsnprintf+0x866>
10002dce:	2f20      	cmp	r7, #32
10002dd0:	d00f      	beq.n	10002df2 <_vsnprintf+0x886>
10002dd2:	4615      	mov	r5, r2
10002dd4:	fbae 1302 	umull	r1, r3, lr, r2
10002dd8:	08db      	lsrs	r3, r3, #3
10002dda:	eb03 0183 	add.w	r1, r3, r3, lsl #2
10002dde:	eba2 0141 	sub.w	r1, r2, r1, lsl #1
10002de2:	3130      	adds	r1, #48	@ 0x30
10002de4:	2d09      	cmp	r5, #9
10002de6:	461a      	mov	r2, r3
10002de8:	f107 0701 	add.w	r7, r7, #1
10002dec:	f800 1b01 	strb.w	r1, [r0], #1
10002df0:	d8ed      	bhi.n	10002dce <_vsnprintf+0x862>
10002df2:	9b0a      	ldr	r3, [sp, #40]	@ 0x28
10002df4:	9d0c      	ldr	r5, [sp, #48]	@ 0x30
10002df6:	e9cd 5c05 	strd	r5, ip, [sp, #20]
10002dfa:	e9cd 7301 	strd	r7, r3, [sp, #4]
10002dfe:	9604      	str	r6, [sp, #16]
10002e00:	e6d5      	b.n	10002bae <_vsnprintf+0x642>
10002e02:	2869      	cmp	r0, #105	@ 0x69
10002e04:	f023 0c10 	bic.w	ip, r3, #16
10002e08:	f040 808c 	bne.w	10002f24 <_vsnprintf+0x9b8>
10002e0c:	f413 6280 	ands.w	r2, r3, #1024	@ 0x400
10002e10:	f43f ae8e 	beq.w	10002b30 <_vsnprintf+0x5c4>
10002e14:	e688      	b.n	10002b28 <_vsnprintf+0x5bc>
10002e16:	2a00      	cmp	r2, #0
10002e18:	f43f aea8 	beq.w	10002b6c <_vsnprintf+0x600>
10002e1c:	aa12      	add	r2, sp, #72	@ 0x48
10002e1e:	920b      	str	r2, [sp, #44]	@ 0x2c
10002e20:	e6c0      	b.n	10002ba4 <_vsnprintf+0x638>
10002e22:	f013 0f20 	tst.w	r3, #32
10002e26:	bf14      	ite	ne
10002e28:	2241      	movne	r2, #65	@ 0x41
10002e2a:	2261      	moveq	r2, #97	@ 0x61
10002e2c:	2000      	movs	r0, #0
10002e2e:	a912      	add	r1, sp, #72	@ 0x48
10002e30:	3a0a      	subs	r2, #10
10002e32:	e9cd 680e 	strd	r6, r8, [sp, #56]	@ 0x38
10002e36:	e9cd 350c 	strd	r3, r5, [sp, #48]	@ 0x30
10002e3a:	f8cd b044 	str.w	fp, [sp, #68]	@ 0x44
10002e3e:	4606      	mov	r6, r0
10002e40:	4688      	mov	r8, r1
10002e42:	4675      	mov	r5, lr
10002e44:	4693      	mov	fp, r2
10002e46:	910b      	str	r1, [sp, #44]	@ 0x2c
10002e48:	f8cd c040 	str.w	ip, [sp, #64]	@ 0x40
10002e4c:	e003      	b.n	10002e56 <_vsnprintf+0x8ea>
10002e4e:	2e20      	cmp	r6, #32
10002e50:	d017      	beq.n	10002e82 <_vsnprintf+0x916>
10002e52:	4604      	mov	r4, r0
10002e54:	460d      	mov	r5, r1
10002e56:	4629      	mov	r1, r5
10002e58:	463a      	mov	r2, r7
10002e5a:	2300      	movs	r3, #0
10002e5c:	4620      	mov	r0, r4
10002e5e:	f000 fc47 	bl	100036f0 <____aeabi_uldivmod_veneer>
10002e62:	b2d2      	uxtb	r2, r2
10002e64:	2a09      	cmp	r2, #9
10002e66:	f102 0330 	add.w	r3, r2, #48	@ 0x30
10002e6a:	bf88      	it	hi
10002e6c:	eb02 030b 	addhi.w	r3, r2, fp
10002e70:	42bc      	cmp	r4, r7
10002e72:	b2db      	uxtb	r3, r3
10002e74:	f175 0500 	sbcs.w	r5, r5, #0
10002e78:	f808 3b01 	strb.w	r3, [r8], #1
10002e7c:	f106 0601 	add.w	r6, r6, #1
10002e80:	d2e5      	bcs.n	10002e4e <_vsnprintf+0x8e2>
10002e82:	4631      	mov	r1, r6
10002e84:	e9dd 350c 	ldrd	r3, r5, [sp, #48]	@ 0x30
10002e88:	e9dd cb10 	ldrd	ip, fp, [sp, #64]	@ 0x40
10002e8c:	f8dd 803c 	ldr.w	r8, [sp, #60]	@ 0x3c
10002e90:	9e0e      	ldr	r6, [sp, #56]	@ 0x38
10002e92:	e757      	b.n	10002d44 <_vsnprintf+0x7d8>
10002e94:	990a      	ldr	r1, [sp, #40]	@ 0x28
10002e96:	6809      	ldr	r1, [r1, #0]
10002e98:	b951      	cbnz	r1, 10002eb0 <_vsnprintf+0x944>
10002e9a:	f023 0310 	bic.w	r3, r3, #16
10002e9e:	b138      	cbz	r0, 10002eb0 <_vsnprintf+0x944>
10002ea0:	a912      	add	r1, sp, #72	@ 0x48
10002ea2:	910b      	str	r1, [sp, #44]	@ 0x2c
10002ea4:	e9cd 5305 	strd	r5, r3, [sp, #20]
10002ea8:	e9cd c603 	strd	ip, r6, [sp, #12]
10002eac:	9201      	str	r2, [sp, #4]
10002eae:	e5cf      	b.n	10002a50 <_vsnprintf+0x4e4>
10002eb0:	f013 0f20 	tst.w	r3, #32
10002eb4:	bf14      	ite	ne
10002eb6:	2041      	movne	r0, #65	@ 0x41
10002eb8:	2061      	moveq	r0, #97	@ 0x61
10002eba:	ac12      	add	r4, sp, #72	@ 0x48
10002ebc:	46a6      	mov	lr, r4
10002ebe:	940b      	str	r4, [sp, #44]	@ 0x2c
10002ec0:	930a      	str	r3, [sp, #40]	@ 0x28
10002ec2:	f1a0 040a 	sub.w	r4, r0, #10
10002ec6:	950c      	str	r5, [sp, #48]	@ 0x30
10002ec8:	e002      	b.n	10002ed0 <_vsnprintf+0x964>
10002eca:	2a20      	cmp	r2, #32
10002ecc:	d012      	beq.n	10002ef4 <_vsnprintf+0x988>
10002ece:	4629      	mov	r1, r5
10002ed0:	fbb1 f5fc 	udiv	r5, r1, ip
10002ed4:	fb0c 1015 	mls	r0, ip, r5, r1
10002ed8:	b2c3      	uxtb	r3, r0
10002eda:	2809      	cmp	r0, #9
10002edc:	f103 0030 	add.w	r0, r3, #48	@ 0x30
10002ee0:	bf8a      	itet	hi
10002ee2:	191b      	addhi	r3, r3, r4
10002ee4:	b2c3      	uxtbls	r3, r0
10002ee6:	b2db      	uxtbhi	r3, r3
10002ee8:	4561      	cmp	r1, ip
10002eea:	f80e 3b01 	strb.w	r3, [lr], #1
10002eee:	f102 0201 	add.w	r2, r2, #1
10002ef2:	d2ea      	bcs.n	10002eca <_vsnprintf+0x95e>
10002ef4:	9b0a      	ldr	r3, [sp, #40]	@ 0x28
10002ef6:	9d0c      	ldr	r5, [sp, #48]	@ 0x30
10002ef8:	e7d4      	b.n	10002ea4 <_vsnprintf+0x938>
10002efa:	6819      	ldr	r1, [r3, #0]
10002efc:	ea81 77e1 	eor.w	r7, r1, r1, asr #31
10002f00:	eba7 77e1 	sub.w	r7, r7, r1, asr #31
10002f04:	e62d      	b.n	10002b62 <_vsnprintf+0x5f6>
10002f06:	2a00      	cmp	r2, #0
10002f08:	f43f af59 	beq.w	10002dbe <_vsnprintf+0x852>
10002f0c:	aa12      	add	r2, sp, #72	@ 0x48
10002f0e:	920b      	str	r2, [sp, #44]	@ 0x2c
10002f10:	e771      	b.n	10002df6 <_vsnprintf+0x88a>
10002f12:	f413 6480 	ands.w	r4, r3, #1024	@ 0x400
10002f16:	d00d      	beq.n	10002f34 <_vsnprintf+0x9c8>
10002f18:	f013 0402 	ands.w	r4, r3, #2
10002f1c:	d012      	beq.n	10002f44 <_vsnprintf+0x9d8>
10002f1e:	4604      	mov	r4, r0
10002f20:	4646      	mov	r6, r8
10002f22:	e5ec      	b.n	10002afe <_vsnprintf+0x592>
10002f24:	270a      	movs	r7, #10
10002f26:	4663      	mov	r3, ip
10002f28:	46bc      	mov	ip, r7
10002f2a:	e56c      	b.n	10002a06 <_vsnprintf+0x49a>
10002f2c:	ab12      	add	r3, sp, #72	@ 0x48
10002f2e:	2000      	movs	r0, #0
10002f30:	930b      	str	r3, [sp, #44]	@ 0x2c
10002f32:	e69d      	b.n	10002c70 <_vsnprintf+0x704>
10002f34:	f013 0302 	ands.w	r3, r3, #2
10002f38:	f47f ade0 	bne.w	10002afc <_vsnprintf+0x590>
10002f3c:	2d00      	cmp	r5, #0
10002f3e:	f47f af13 	bne.w	10002d68 <_vsnprintf+0x7fc>
10002f42:	e49a      	b.n	1000287a <_vsnprintf+0x30e>
10002f44:	2d00      	cmp	r5, #0
10002f46:	f47f af0d 	bne.w	10002d64 <_vsnprintf+0x7f8>
10002f4a:	e496      	b.n	1000287a <_vsnprintf+0x30e>
10002f4c:	cccccccd 	.word	0xcccccccd

10002f50 <vfctprintf>:
10002f50:	b570      	push	{r4, r5, r6, lr}
10002f52:	4694      	mov	ip, r2
10002f54:	461e      	mov	r6, r3
10002f56:	4605      	mov	r5, r0
10002f58:	460c      	mov	r4, r1
10002f5a:	b084      	sub	sp, #16
10002f5c:	f04f 32ff 	mov.w	r2, #4294967295
10002f60:	4663      	mov	r3, ip
10002f62:	a902      	add	r1, sp, #8
10002f64:	9600      	str	r6, [sp, #0]
10002f66:	4803      	ldr	r0, [pc, #12]	@ (10002f74 <vfctprintf+0x24>)
10002f68:	e9cd 5402 	strd	r5, r4, [sp, #8]
10002f6c:	f7ff fafe 	bl	1000256c <_vsnprintf>
10002f70:	b004      	add	sp, #16
10002f72:	bd70      	pop	{r4, r5, r6, pc}
10002f74:	10001b2d 	.word	0x10001b2d

10002f78 <weak_raw_vprintf>:
10002f78:	b510      	push	{r4, lr}
10002f7a:	4b09      	ldr	r3, [pc, #36]	@ (10002fa0 <weak_raw_vprintf+0x28>)
10002f7c:	b084      	sub	sp, #16
10002f7e:	681c      	ldr	r4, [r3, #0]
10002f80:	b14c      	cbz	r4, 10002f96 <weak_raw_vprintf+0x1e>
10002f82:	4603      	mov	r3, r0
10002f84:	9100      	str	r1, [sp, #0]
10002f86:	f04f 32ff 	mov.w	r2, #4294967295
10002f8a:	a903      	add	r1, sp, #12
10002f8c:	4805      	ldr	r0, [pc, #20]	@ (10002fa4 <weak_raw_vprintf+0x2c>)
10002f8e:	47a0      	blx	r4
10002f90:	2001      	movs	r0, #1
10002f92:	b004      	add	sp, #16
10002f94:	bd10      	pop	{r4, pc}
10002f96:	f000 f97d 	bl	10003294 <__wrap_puts>
10002f9a:	4620      	mov	r0, r4
10002f9c:	b004      	add	sp, #16
10002f9e:	bd10      	pop	{r4, pc}
10002fa0:	20000810 	.word	0x20000810
10002fa4:	10001b25 	.word	0x10001b25

10002fa8 <_exit>:
10002fa8:	be00      	bkpt	0x0000
10002faa:	e7fd      	b.n	10002fa8 <_exit>

10002fac <exit>:
10002fac:	b508      	push	{r3, lr}
10002fae:	f7ff fffb 	bl	10002fa8 <_exit>
10002fb2:	bf00      	nop

10002fb4 <runtime_init>:
10002fb4:	b538      	push	{r3, r4, r5, lr}
10002fb6:	4c06      	ldr	r4, [pc, #24]	@ (10002fd0 <runtime_init+0x1c>)
10002fb8:	4d06      	ldr	r5, [pc, #24]	@ (10002fd4 <runtime_init+0x20>)
10002fba:	f7fe fa07 	bl	100013cc <runtime_run_initializers>
10002fbe:	42ac      	cmp	r4, r5
10002fc0:	d204      	bcs.n	10002fcc <runtime_init+0x18>
10002fc2:	f854 3b04 	ldr.w	r3, [r4], #4
10002fc6:	4798      	blx	r3
10002fc8:	42ac      	cmp	r4, r5
10002fca:	d3fa      	bcc.n	10002fc2 <runtime_init+0xe>
10002fcc:	bd38      	pop	{r3, r4, r5, pc}
10002fce:	bf00      	nop
10002fd0:	10003748 	.word	0x10003748
10002fd4:	1000374c 	.word	0x1000374c

10002fd8 <stdio_out_chars_no_crlf>:
10002fd8:	6803      	ldr	r3, [r0, #0]
10002fda:	4608      	mov	r0, r1
10002fdc:	4611      	mov	r1, r2
10002fde:	4718      	bx	r3

10002fe0 <stdio_out_chars_crlf>:
10002fe0:	e92d 41f0 	stmdb	sp!, {r4, r5, r6, r7, r8, lr}
10002fe4:	4615      	mov	r5, r2
10002fe6:	7d42      	ldrb	r2, [r0, #21]
10002fe8:	4607      	mov	r7, r0
10002fea:	4688      	mov	r8, r1
10002fec:	2a00      	cmp	r2, #0
10002fee:	d046      	beq.n	1000307e <stdio_out_chars_crlf+0x9e>
10002ff0:	2d00      	cmp	r5, #0
10002ff2:	dd1d      	ble.n	10003030 <stdio_out_chars_crlf+0x50>
10002ff4:	780b      	ldrb	r3, [r1, #0]
10002ff6:	2b0a      	cmp	r3, #10
10002ff8:	d023      	beq.n	10003042 <stdio_out_chars_crlf+0x62>
10002ffa:	2d01      	cmp	r5, #1
10002ffc:	f04f 0c00 	mov.w	ip, #0
10003000:	d018      	beq.n	10003034 <stdio_out_chars_crlf+0x54>
10003002:	4646      	mov	r6, r8
10003004:	2401      	movs	r4, #1
10003006:	f816 2f01 	ldrb.w	r2, [r6, #1]!
1000300a:	4621      	mov	r1, r4
1000300c:	2a0a      	cmp	r2, #10
1000300e:	f104 0401 	add.w	r4, r4, #1
10003012:	d022      	beq.n	1000305a <stdio_out_chars_crlf+0x7a>
10003014:	42a5      	cmp	r5, r4
10003016:	d1f6      	bne.n	10003006 <stdio_out_chars_crlf+0x26>
10003018:	4565      	cmp	r5, ip
1000301a:	dc0b      	bgt.n	10003034 <stdio_out_chars_crlf+0x54>
1000301c:	eb08 0305 	add.w	r3, r8, r5
10003020:	f813 3c01 	ldrb.w	r3, [r3, #-1]
10003024:	f1a3 030d 	sub.w	r3, r3, #13
10003028:	fab3 f383 	clz	r3, r3
1000302c:	095b      	lsrs	r3, r3, #5
1000302e:	753b      	strb	r3, [r7, #20]
10003030:	e8bd 81f0 	ldmia.w	sp!, {r4, r5, r6, r7, r8, pc}
10003034:	683b      	ldr	r3, [r7, #0]
10003036:	eba5 010c 	sub.w	r1, r5, ip
1000303a:	eb08 000c 	add.w	r0, r8, ip
1000303e:	4798      	blx	r3
10003040:	e7ec      	b.n	1000301c <stdio_out_chars_crlf+0x3c>
10003042:	7d03      	ldrb	r3, [r0, #20]
10003044:	2b00      	cmp	r3, #0
10003046:	d1d8      	bne.n	10002ffa <stdio_out_chars_crlf+0x1a>
10003048:	6803      	ldr	r3, [r0, #0]
1000304a:	2102      	movs	r1, #2
1000304c:	480f      	ldr	r0, [pc, #60]	@ (1000308c <stdio_out_chars_crlf+0xac>)
1000304e:	4798      	blx	r3
10003050:	2d01      	cmp	r5, #1
10003052:	d0e3      	beq.n	1000301c <stdio_out_chars_crlf+0x3c>
10003054:	f04f 0c01 	mov.w	ip, #1
10003058:	e7d3      	b.n	10003002 <stdio_out_chars_crlf+0x22>
1000305a:	f816 3c01 	ldrb.w	r3, [r6, #-1]
1000305e:	2b0d      	cmp	r3, #13
10003060:	d0d8      	beq.n	10003014 <stdio_out_chars_crlf+0x34>
10003062:	458c      	cmp	ip, r1
10003064:	eb08 000c 	add.w	r0, r8, ip
10003068:	eba1 010c 	sub.w	r1, r1, ip
1000306c:	da01      	bge.n	10003072 <stdio_out_chars_crlf+0x92>
1000306e:	683b      	ldr	r3, [r7, #0]
10003070:	4798      	blx	r3
10003072:	2102      	movs	r1, #2
10003074:	4805      	ldr	r0, [pc, #20]	@ (1000308c <stdio_out_chars_crlf+0xac>)
10003076:	683b      	ldr	r3, [r7, #0]
10003078:	4798      	blx	r3
1000307a:	46a4      	mov	ip, r4
1000307c:	e7ca      	b.n	10003014 <stdio_out_chars_crlf+0x34>
1000307e:	4629      	mov	r1, r5
10003080:	4640      	mov	r0, r8
10003082:	683b      	ldr	r3, [r7, #0]
10003084:	e8bd 41f0 	ldmia.w	sp!, {r4, r5, r6, r7, r8, lr}
10003088:	4718      	bx	r3
1000308a:	bf00      	nop
1000308c:	10003938 	.word	0x10003938

10003090 <stdio_buffered_printer>:
10003090:	680b      	ldr	r3, [r1, #0]
10003092:	e92d 41f0 	stmdb	sp!, {r4, r5, r6, r7, r8, lr}
10003096:	2b80      	cmp	r3, #128	@ 0x80
10003098:	460d      	mov	r5, r1
1000309a:	4606      	mov	r6, r0
1000309c:	d005      	beq.n	100030aa <stdio_buffered_printer+0x1a>
1000309e:	1c5a      	adds	r2, r3, #1
100030a0:	442b      	add	r3, r5
100030a2:	602a      	str	r2, [r5, #0]
100030a4:	711e      	strb	r6, [r3, #4]
100030a6:	e8bd 81f0 	ldmia.w	sp!, {r4, r5, r6, r7, r8, pc}
100030aa:	4b0f      	ldr	r3, [pc, #60]	@ (100030e8 <stdio_buffered_printer+0x58>)
100030ac:	681c      	ldr	r4, [r3, #0]
100030ae:	b1a4      	cbz	r4, 100030da <stdio_buffered_printer+0x4a>
100030b0:	4f0e      	ldr	r7, [pc, #56]	@ (100030ec <stdio_buffered_printer+0x5c>)
100030b2:	f101 0804 	add.w	r8, r1, #4
100030b6:	e001      	b.n	100030bc <stdio_buffered_printer+0x2c>
100030b8:	6924      	ldr	r4, [r4, #16]
100030ba:	b174      	cbz	r4, 100030da <stdio_buffered_printer+0x4a>
100030bc:	6823      	ldr	r3, [r4, #0]
100030be:	2b00      	cmp	r3, #0
100030c0:	d0fa      	beq.n	100030b8 <stdio_buffered_printer+0x28>
100030c2:	683b      	ldr	r3, [r7, #0]
100030c4:	b10b      	cbz	r3, 100030ca <stdio_buffered_printer+0x3a>
100030c6:	42a3      	cmp	r3, r4
100030c8:	d1f6      	bne.n	100030b8 <stdio_buffered_printer+0x28>
100030ca:	4620      	mov	r0, r4
100030cc:	4641      	mov	r1, r8
100030ce:	682a      	ldr	r2, [r5, #0]
100030d0:	f7ff ff86 	bl	10002fe0 <stdio_out_chars_crlf>
100030d4:	6924      	ldr	r4, [r4, #16]
100030d6:	2c00      	cmp	r4, #0
100030d8:	d1f0      	bne.n	100030bc <stdio_buffered_printer+0x2c>
100030da:	2300      	movs	r3, #0
100030dc:	2201      	movs	r2, #1
100030de:	442b      	add	r3, r5
100030e0:	602a      	str	r2, [r5, #0]
100030e2:	711e      	strb	r6, [r3, #4]
100030e4:	e8bd 81f0 	ldmia.w	sp!, {r4, r5, r6, r7, r8, pc}
100030e8:	20000804 	.word	0x20000804
100030ec:	20000808 	.word	0x20000808

100030f0 <stdio_put_string>:
100030f0:	e92d 47f0 	stmdb	sp!, {r4, r5, r6, r7, r8, r9, sl, lr}
100030f4:	b082      	sub	sp, #8
100030f6:	460d      	mov	r5, r1
100030f8:	4691      	mov	r9, r2
100030fa:	461c      	mov	r4, r3
100030fc:	4606      	mov	r6, r0
100030fe:	f7fd ffa7 	bl	10001050 <time_us_64>
10003102:	f04f 3cff 	mov.w	ip, #4294967295
10003106:	f06f 4700 	mvn.w	r7, #2147483648	@ 0x80000000
1000310a:	4a2e      	ldr	r2, [pc, #184]	@ (100031c4 <stdio_put_string+0xd4>)
1000310c:	1882      	adds	r2, r0, r2
1000310e:	f141 0300 	adc.w	r3, r1, #0
10003112:	4594      	cmp	ip, r2
10003114:	eb77 0103 	sbcs.w	r1, r7, r3
10003118:	bf3c      	itt	cc
1000311a:	4662      	movcc	r2, ip
1000311c:	463b      	movcc	r3, r7
1000311e:	482a      	ldr	r0, [pc, #168]	@ (100031c8 <stdio_put_string+0xd8>)
10003120:	f000 faee 	bl	10003700 <__mutex_try_enter_block_until_veneer>
10003124:	1c6b      	adds	r3, r5, #1
10003126:	4680      	mov	r8, r0
10003128:	d040      	beq.n	100031ac <stdio_put_string+0xbc>
1000312a:	b30c      	cbz	r4, 10003170 <stdio_put_string+0x80>
1000312c:	4f27      	ldr	r7, [pc, #156]	@ (100031cc <stdio_put_string+0xdc>)
1000312e:	4b28      	ldr	r3, [pc, #160]	@ (100031d0 <stdio_put_string+0xe0>)
10003130:	681c      	ldr	r4, [r3, #0]
10003132:	b1b4      	cbz	r4, 10003162 <stdio_put_string+0x72>
10003134:	f1b9 0f00 	cmp.w	r9, #0
10003138:	d11c      	bne.n	10003174 <stdio_put_string+0x84>
1000313a:	f8df 909c 	ldr.w	r9, [pc, #156]	@ 100031d8 <stdio_put_string+0xe8>
1000313e:	e001      	b.n	10003144 <stdio_put_string+0x54>
10003140:	6924      	ldr	r4, [r4, #16]
10003142:	b174      	cbz	r4, 10003162 <stdio_put_string+0x72>
10003144:	6823      	ldr	r3, [r4, #0]
10003146:	2b00      	cmp	r3, #0
10003148:	d0fa      	beq.n	10003140 <stdio_put_string+0x50>
1000314a:	f8d9 3000 	ldr.w	r3, [r9]
1000314e:	b10b      	cbz	r3, 10003154 <stdio_put_string+0x64>
10003150:	429c      	cmp	r4, r3
10003152:	d1f5      	bne.n	10003140 <stdio_put_string+0x50>
10003154:	4620      	mov	r0, r4
10003156:	462a      	mov	r2, r5
10003158:	4631      	mov	r1, r6
1000315a:	47b8      	blx	r7
1000315c:	6924      	ldr	r4, [r4, #16]
1000315e:	2c00      	cmp	r4, #0
10003160:	d1f0      	bne.n	10003144 <stdio_put_string+0x54>
10003162:	f1b8 0f00 	cmp.w	r8, #0
10003166:	d126      	bne.n	100031b6 <stdio_put_string+0xc6>
10003168:	4628      	mov	r0, r5
1000316a:	b002      	add	sp, #8
1000316c:	e8bd 87f0 	ldmia.w	sp!, {r4, r5, r6, r7, r8, r9, sl, pc}
10003170:	4f18      	ldr	r7, [pc, #96]	@ (100031d4 <stdio_put_string+0xe4>)
10003172:	e7dc      	b.n	1000312e <stdio_put_string+0x3e>
10003174:	f04f 0a0a 	mov.w	sl, #10
10003178:	f8df 905c 	ldr.w	r9, [pc, #92]	@ 100031d8 <stdio_put_string+0xe8>
1000317c:	e002      	b.n	10003184 <stdio_put_string+0x94>
1000317e:	6924      	ldr	r4, [r4, #16]
10003180:	2c00      	cmp	r4, #0
10003182:	d0ee      	beq.n	10003162 <stdio_put_string+0x72>
10003184:	6823      	ldr	r3, [r4, #0]
10003186:	2b00      	cmp	r3, #0
10003188:	d0f9      	beq.n	1000317e <stdio_put_string+0x8e>
1000318a:	f8d9 3000 	ldr.w	r3, [r9]
1000318e:	b10b      	cbz	r3, 10003194 <stdio_put_string+0xa4>
10003190:	42a3      	cmp	r3, r4
10003192:	d1f4      	bne.n	1000317e <stdio_put_string+0x8e>
10003194:	462a      	mov	r2, r5
10003196:	4631      	mov	r1, r6
10003198:	4620      	mov	r0, r4
1000319a:	47b8      	blx	r7
1000319c:	2201      	movs	r2, #1
1000319e:	4620      	mov	r0, r4
100031a0:	f10d 0107 	add.w	r1, sp, #7
100031a4:	f88d a007 	strb.w	sl, [sp, #7]
100031a8:	47b8      	blx	r7
100031aa:	e7e8      	b.n	1000317e <stdio_put_string+0x8e>
100031ac:	4630      	mov	r0, r6
100031ae:	f000 fa6f 	bl	10003690 <strlen>
100031b2:	4605      	mov	r5, r0
100031b4:	e7b9      	b.n	1000312a <stdio_put_string+0x3a>
100031b6:	4804      	ldr	r0, [pc, #16]	@ (100031c8 <stdio_put_string+0xd8>)
100031b8:	f000 fa9e 	bl	100036f8 <__mutex_exit_veneer>
100031bc:	4628      	mov	r0, r5
100031be:	b002      	add	sp, #8
100031c0:	e8bd 87f0 	ldmia.w	sp!, {r4, r5, r6, r7, r8, r9, sl, pc}
100031c4:	000f4240 	.word	0x000f4240
100031c8:	20000624 	.word	0x20000624
100031cc:	10002fe1 	.word	0x10002fe1
100031d0:	20000804 	.word	0x20000804
100031d4:	10002fd9 	.word	0x10002fd9
100031d8:	20000808 	.word	0x20000808

100031dc <stdio_set_driver_enabled>:
100031dc:	4a08      	ldr	r2, [pc, #32]	@ (10003200 <stdio_set_driver_enabled+0x24>)
100031de:	6813      	ldr	r3, [r2, #0]
100031e0:	b923      	cbnz	r3, 100031ec <stdio_set_driver_enabled+0x10>
100031e2:	e00a      	b.n	100031fa <stdio_set_driver_enabled+0x1e>
100031e4:	f103 0210 	add.w	r2, r3, #16
100031e8:	691b      	ldr	r3, [r3, #16]
100031ea:	b133      	cbz	r3, 100031fa <stdio_set_driver_enabled+0x1e>
100031ec:	4283      	cmp	r3, r0
100031ee:	d1f9      	bne.n	100031e4 <stdio_set_driver_enabled+0x8>
100031f0:	b929      	cbnz	r1, 100031fe <stdio_set_driver_enabled+0x22>
100031f2:	6918      	ldr	r0, [r3, #16]
100031f4:	6010      	str	r0, [r2, #0]
100031f6:	6119      	str	r1, [r3, #16]
100031f8:	4770      	bx	lr
100031fa:	b101      	cbz	r1, 100031fe <stdio_set_driver_enabled+0x22>
100031fc:	6010      	str	r0, [r2, #0]
100031fe:	4770      	bx	lr
10003200:	20000804 	.word	0x20000804

10003204 <stdio_init_all>:
10003204:	b508      	push	{r3, lr}
10003206:	f000 f9a3 	bl	10003550 <stdio_uart_init>
1000320a:	2001      	movs	r0, #1
1000320c:	bd08      	pop	{r3, pc}
1000320e:	bf00      	nop

10003210 <__wrap_putchar>:
10003210:	b5f0      	push	{r4, r5, r6, r7, lr}
10003212:	b083      	sub	sp, #12
10003214:	4606      	mov	r6, r0
10003216:	f88d 0007 	strb.w	r0, [sp, #7]
1000321a:	f7fd ff19 	bl	10001050 <time_us_64>
1000321e:	f04f 35ff 	mov.w	r5, #4294967295
10003222:	f06f 4400 	mvn.w	r4, #2147483648	@ 0x80000000
10003226:	4a17      	ldr	r2, [pc, #92]	@ (10003284 <__wrap_putchar+0x74>)
10003228:	1882      	adds	r2, r0, r2
1000322a:	f141 0300 	adc.w	r3, r1, #0
1000322e:	4295      	cmp	r5, r2
10003230:	eb74 0103 	sbcs.w	r1, r4, r3
10003234:	bf3c      	itt	cc
10003236:	4623      	movcc	r3, r4
10003238:	462a      	movcc	r2, r5
1000323a:	4813      	ldr	r0, [pc, #76]	@ (10003288 <__wrap_putchar+0x78>)
1000323c:	f000 fa60 	bl	10003700 <__mutex_try_enter_block_until_veneer>
10003240:	4b12      	ldr	r3, [pc, #72]	@ (1000328c <__wrap_putchar+0x7c>)
10003242:	4607      	mov	r7, r0
10003244:	681c      	ldr	r4, [r3, #0]
10003246:	b19c      	cbz	r4, 10003270 <__wrap_putchar+0x60>
10003248:	4d11      	ldr	r5, [pc, #68]	@ (10003290 <__wrap_putchar+0x80>)
1000324a:	e001      	b.n	10003250 <__wrap_putchar+0x40>
1000324c:	6924      	ldr	r4, [r4, #16]
1000324e:	b17c      	cbz	r4, 10003270 <__wrap_putchar+0x60>
10003250:	6823      	ldr	r3, [r4, #0]
10003252:	2b00      	cmp	r3, #0
10003254:	d0fa      	beq.n	1000324c <__wrap_putchar+0x3c>
10003256:	682b      	ldr	r3, [r5, #0]
10003258:	b10b      	cbz	r3, 1000325e <__wrap_putchar+0x4e>
1000325a:	429c      	cmp	r4, r3
1000325c:	d1f6      	bne.n	1000324c <__wrap_putchar+0x3c>
1000325e:	4620      	mov	r0, r4
10003260:	2201      	movs	r2, #1
10003262:	f10d 0107 	add.w	r1, sp, #7
10003266:	f7ff febb 	bl	10002fe0 <stdio_out_chars_crlf>
1000326a:	6924      	ldr	r4, [r4, #16]
1000326c:	2c00      	cmp	r4, #0
1000326e:	d1ef      	bne.n	10003250 <__wrap_putchar+0x40>
10003270:	b917      	cbnz	r7, 10003278 <__wrap_putchar+0x68>
10003272:	4630      	mov	r0, r6
10003274:	b003      	add	sp, #12
10003276:	bdf0      	pop	{r4, r5, r6, r7, pc}
10003278:	4803      	ldr	r0, [pc, #12]	@ (10003288 <__wrap_putchar+0x78>)
1000327a:	f000 fa3d 	bl	100036f8 <__mutex_exit_veneer>
1000327e:	4630      	mov	r0, r6
10003280:	b003      	add	sp, #12
10003282:	bdf0      	pop	{r4, r5, r6, r7, pc}
10003284:	000f4240 	.word	0x000f4240
10003288:	20000624 	.word	0x20000624
1000328c:	20000804 	.word	0x20000804
10003290:	20000808 	.word	0x20000808

10003294 <__wrap_puts>:
10003294:	b538      	push	{r3, r4, r5, lr}
10003296:	4604      	mov	r4, r0
10003298:	f000 f9fa 	bl	10003690 <strlen>
1000329c:	2301      	movs	r3, #1
1000329e:	4605      	mov	r5, r0
100032a0:	461a      	mov	r2, r3
100032a2:	4620      	mov	r0, r4
100032a4:	4629      	mov	r1, r5
100032a6:	f7ff ff23 	bl	100030f0 <stdio_put_string>
100032aa:	4b08      	ldr	r3, [pc, #32]	@ (100032cc <__wrap_puts+0x38>)
100032ac:	681c      	ldr	r4, [r3, #0]
100032ae:	b12c      	cbz	r4, 100032bc <__wrap_puts+0x28>
100032b0:	6863      	ldr	r3, [r4, #4]
100032b2:	b12b      	cbz	r3, 100032c0 <__wrap_puts+0x2c>
100032b4:	4798      	blx	r3
100032b6:	6924      	ldr	r4, [r4, #16]
100032b8:	2c00      	cmp	r4, #0
100032ba:	d1f9      	bne.n	100032b0 <__wrap_puts+0x1c>
100032bc:	4628      	mov	r0, r5
100032be:	bd38      	pop	{r3, r4, r5, pc}
100032c0:	6924      	ldr	r4, [r4, #16]
100032c2:	2c00      	cmp	r4, #0
100032c4:	d1f4      	bne.n	100032b0 <__wrap_puts+0x1c>
100032c6:	4628      	mov	r0, r5
100032c8:	bd38      	pop	{r3, r4, r5, pc}
100032ca:	bf00      	nop
100032cc:	20000804 	.word	0x20000804

100032d0 <__wrap_vprintf>:
100032d0:	e92d 41f0 	stmdb	sp!, {r4, r5, r6, r7, r8, lr}
100032d4:	b0a2      	sub	sp, #136	@ 0x88
100032d6:	4604      	mov	r4, r0
100032d8:	460d      	mov	r5, r1
100032da:	f7fd feb9 	bl	10001050 <time_us_64>
100032de:	f04f 37ff 	mov.w	r7, #4294967295
100032e2:	f06f 4600 	mvn.w	r6, #2147483648	@ 0x80000000
100032e6:	4a26      	ldr	r2, [pc, #152]	@ (10003380 <__wrap_vprintf+0xb0>)
100032e8:	f8df 80a4 	ldr.w	r8, [pc, #164]	@ 10003390 <__wrap_vprintf+0xc0>
100032ec:	1882      	adds	r2, r0, r2
100032ee:	f141 0300 	adc.w	r3, r1, #0
100032f2:	4297      	cmp	r7, r2
100032f4:	eb76 0103 	sbcs.w	r1, r6, r3
100032f8:	bf3c      	itt	cc
100032fa:	463a      	movcc	r2, r7
100032fc:	4633      	movcc	r3, r6
100032fe:	4821      	ldr	r0, [pc, #132]	@ (10003384 <__wrap_vprintf+0xb4>)
10003300:	f000 f9fe 	bl	10003700 <__mutex_try_enter_block_until_veneer>
10003304:	2700      	movs	r7, #0
10003306:	462b      	mov	r3, r5
10003308:	4622      	mov	r2, r4
1000330a:	4606      	mov	r6, r0
1000330c:	a901      	add	r1, sp, #4
1000330e:	481e      	ldr	r0, [pc, #120]	@ (10003388 <__wrap_vprintf+0xb8>)
10003310:	9701      	str	r7, [sp, #4]
10003312:	f7ff fe1d 	bl	10002f50 <vfctprintf>
10003316:	9b01      	ldr	r3, [sp, #4]
10003318:	4605      	mov	r5, r0
1000331a:	f8d8 4000 	ldr.w	r4, [r8]
1000331e:	b1c3      	cbz	r3, 10003352 <__wrap_vprintf+0x82>
10003320:	2c00      	cmp	r4, #0
10003322:	d02b      	beq.n	1000337c <__wrap_vprintf+0xac>
10003324:	4f19      	ldr	r7, [pc, #100]	@ (1000338c <__wrap_vprintf+0xbc>)
10003326:	e001      	b.n	1000332c <__wrap_vprintf+0x5c>
10003328:	6924      	ldr	r4, [r4, #16]
1000332a:	b174      	cbz	r4, 1000334a <__wrap_vprintf+0x7a>
1000332c:	6823      	ldr	r3, [r4, #0]
1000332e:	2b00      	cmp	r3, #0
10003330:	d0fa      	beq.n	10003328 <__wrap_vprintf+0x58>
10003332:	683b      	ldr	r3, [r7, #0]
10003334:	b10b      	cbz	r3, 1000333a <__wrap_vprintf+0x6a>
10003336:	42a3      	cmp	r3, r4
10003338:	d1f6      	bne.n	10003328 <__wrap_vprintf+0x58>
1000333a:	4620      	mov	r0, r4
1000333c:	9a01      	ldr	r2, [sp, #4]
1000333e:	a902      	add	r1, sp, #8
10003340:	f7ff fe4e 	bl	10002fe0 <stdio_out_chars_crlf>
10003344:	6924      	ldr	r4, [r4, #16]
10003346:	2c00      	cmp	r4, #0
10003348:	d1f0      	bne.n	1000332c <__wrap_vprintf+0x5c>
1000334a:	2300      	movs	r3, #0
1000334c:	f8d8 4000 	ldr.w	r4, [r8]
10003350:	9301      	str	r3, [sp, #4]
10003352:	b12c      	cbz	r4, 10003360 <__wrap_vprintf+0x90>
10003354:	6863      	ldr	r3, [r4, #4]
10003356:	b143      	cbz	r3, 1000336a <__wrap_vprintf+0x9a>
10003358:	4798      	blx	r3
1000335a:	6924      	ldr	r4, [r4, #16]
1000335c:	2c00      	cmp	r4, #0
1000335e:	d1f9      	bne.n	10003354 <__wrap_vprintf+0x84>
10003360:	b92e      	cbnz	r6, 1000336e <__wrap_vprintf+0x9e>
10003362:	4628      	mov	r0, r5
10003364:	b022      	add	sp, #136	@ 0x88
10003366:	e8bd 81f0 	ldmia.w	sp!, {r4, r5, r6, r7, r8, pc}
1000336a:	6924      	ldr	r4, [r4, #16]
1000336c:	e7f1      	b.n	10003352 <__wrap_vprintf+0x82>
1000336e:	4805      	ldr	r0, [pc, #20]	@ (10003384 <__wrap_vprintf+0xb4>)
10003370:	f000 f9c2 	bl	100036f8 <__mutex_exit_veneer>
10003374:	4628      	mov	r0, r5
10003376:	b022      	add	sp, #136	@ 0x88
10003378:	e8bd 81f0 	ldmia.w	sp!, {r4, r5, r6, r7, r8, pc}
1000337c:	9401      	str	r4, [sp, #4]
1000337e:	e7ef      	b.n	10003360 <__wrap_vprintf+0x90>
10003380:	000f4240 	.word	0x000f4240
10003384:	20000624 	.word	0x20000624
10003388:	10003091 	.word	0x10003091
1000338c:	20000808 	.word	0x20000808
10003390:	20000804 	.word	0x20000804

10003394 <__wrap_printf>:
10003394:	b40f      	push	{r0, r1, r2, r3}
10003396:	b500      	push	{lr}
10003398:	b083      	sub	sp, #12
1000339a:	a904      	add	r1, sp, #16
1000339c:	f851 0b04 	ldr.w	r0, [r1], #4
100033a0:	9101      	str	r1, [sp, #4]
100033a2:	f7ff ff95 	bl	100032d0 <__wrap_vprintf>
100033a6:	b003      	add	sp, #12
100033a8:	f85d eb04 	ldr.w	lr, [sp], #4
100033ac:	b004      	add	sp, #16
100033ae:	4770      	bx	lr

100033b0 <stdio_uart_out_chars>:
100033b0:	f1b1 0c00 	subs.w	ip, r1, #0
100033b4:	dd1d      	ble.n	100033f2 <stdio_uart_out_chars+0x42>
100033b6:	4a0f      	ldr	r2, [pc, #60]	@ (100033f4 <stdio_uart_out_chars+0x44>)
100033b8:	4b0f      	ldr	r3, [pc, #60]	@ (100033f8 <stdio_uart_out_chars+0x48>)
100033ba:	6812      	ldr	r2, [r2, #0]
100033bc:	b530      	push	{r4, r5, lr}
100033be:	1ad3      	subs	r3, r2, r3
100033c0:	fab3 f383 	clz	r3, r3
100033c4:	240d      	movs	r4, #13
100033c6:	4d0d      	ldr	r5, [pc, #52]	@ (100033fc <stdio_uart_out_chars+0x4c>)
100033c8:	095b      	lsrs	r3, r3, #5
100033ca:	1e41      	subs	r1, r0, #1
100033cc:	f935 e013 	ldrsh.w	lr, [r5, r3, lsl #1]
100033d0:	448c      	add	ip, r1
100033d2:	f811 0f01 	ldrb.w	r0, [r1, #1]!
100033d6:	4586      	cmp	lr, r0
100033d8:	d006      	beq.n	100033e8 <stdio_uart_out_chars+0x38>
100033da:	6993      	ldr	r3, [r2, #24]
100033dc:	069b      	lsls	r3, r3, #26
100033de:	d4fc      	bmi.n	100033da <stdio_uart_out_chars+0x2a>
100033e0:	4561      	cmp	r1, ip
100033e2:	6010      	str	r0, [r2, #0]
100033e4:	d1f5      	bne.n	100033d2 <stdio_uart_out_chars+0x22>
100033e6:	bd30      	pop	{r4, r5, pc}
100033e8:	6993      	ldr	r3, [r2, #24]
100033ea:	069d      	lsls	r5, r3, #26
100033ec:	d4fc      	bmi.n	100033e8 <stdio_uart_out_chars+0x38>
100033ee:	6014      	str	r4, [r2, #0]
100033f0:	e7f3      	b.n	100033da <stdio_uart_out_chars+0x2a>
100033f2:	4770      	bx	lr
100033f4:	20000854 	.word	0x20000854
100033f8:	40078000 	.word	0x40078000
100033fc:	20000850 	.word	0x20000850

10003400 <stdio_uart_in_chars>:
10003400:	4b22      	ldr	r3, [pc, #136]	@ (1000348c <stdio_uart_in_chars+0x8c>)
10003402:	f1b1 0c00 	subs.w	ip, r1, #0
10003406:	b410      	push	{r4}
10003408:	681c      	ldr	r4, [r3, #0]
1000340a:	dd2e      	ble.n	1000346a <stdio_uart_in_chars+0x6a>
1000340c:	4603      	mov	r3, r0
1000340e:	2000      	movs	r0, #0
10003410:	4a1f      	ldr	r2, [pc, #124]	@ (10003490 <stdio_uart_in_chars+0x90>)
10003412:	1e59      	subs	r1, r3, #1
10003414:	6812      	ldr	r2, [r2, #0]
10003416:	6993      	ldr	r3, [r2, #24]
10003418:	06db      	lsls	r3, r3, #27
1000341a:	d417      	bmi.n	1000344c <stdio_uart_in_chars+0x4c>
1000341c:	3001      	adds	r0, #1
1000341e:	6993      	ldr	r3, [r2, #24]
10003420:	06db      	lsls	r3, r3, #27
10003422:	d4fc      	bmi.n	1000341e <stdio_uart_in_chars+0x1e>
10003424:	6813      	ldr	r3, [r2, #0]
10003426:	4584      	cmp	ip, r0
10003428:	f801 3f01 	strb.w	r3, [r1, #1]!
1000342c:	d1f3      	bne.n	10003416 <stdio_uart_in_chars+0x16>
1000342e:	b14c      	cbz	r4, 10003444 <stdio_uart_in_chars+0x44>
10003430:	2150      	movs	r1, #80	@ 0x50
10003432:	4613      	mov	r3, r2
10003434:	6391      	str	r1, [r2, #56]	@ 0x38
10003436:	f853 2f34 	ldr.w	r2, [r3, #52]!
1000343a:	f002 0238 	and.w	r2, r2, #56	@ 0x38
1000343e:	f503 5380 	add.w	r3, r3, #4096	@ 0x1000
10003442:	601a      	str	r2, [r3, #0]
10003444:	4660      	mov	r0, ip
10003446:	f85d 4b04 	ldr.w	r4, [sp], #4
1000344a:	4770      	bx	lr
1000344c:	b14c      	cbz	r4, 10003462 <stdio_uart_in_chars+0x62>
1000344e:	2150      	movs	r1, #80	@ 0x50
10003450:	4613      	mov	r3, r2
10003452:	6391      	str	r1, [r2, #56]	@ 0x38
10003454:	f853 2f34 	ldr.w	r2, [r3, #52]!
10003458:	f002 0238 	and.w	r2, r2, #56	@ 0x38
1000345c:	f503 5380 	add.w	r3, r3, #4096	@ 0x1000
10003460:	601a      	str	r2, [r3, #0]
10003462:	b178      	cbz	r0, 10003484 <stdio_uart_in_chars+0x84>
10003464:	f85d 4b04 	ldr.w	r4, [sp], #4
10003468:	4770      	bx	lr
1000346a:	b15c      	cbz	r4, 10003484 <stdio_uart_in_chars+0x84>
1000346c:	4b08      	ldr	r3, [pc, #32]	@ (10003490 <stdio_uart_in_chars+0x90>)
1000346e:	2150      	movs	r1, #80	@ 0x50
10003470:	681a      	ldr	r2, [r3, #0]
10003472:	4613      	mov	r3, r2
10003474:	6391      	str	r1, [r2, #56]	@ 0x38
10003476:	f853 2f34 	ldr.w	r2, [r3, #52]!
1000347a:	f002 0238 	and.w	r2, r2, #56	@ 0x38
1000347e:	f503 5380 	add.w	r3, r3, #4096	@ 0x1000
10003482:	601a      	str	r2, [r3, #0]
10003484:	f06f 0002 	mvn.w	r0, #2
10003488:	e7dd      	b.n	10003446 <stdio_uart_in_chars+0x46>
1000348a:	bf00      	nop
1000348c:	200007d0 	.word	0x200007d0
10003490:	20000854 	.word	0x20000854

10003494 <on_uart_rx>:
10003494:	4b05      	ldr	r3, [pc, #20]	@ (100034ac <on_uart_rx+0x18>)
10003496:	681b      	ldr	r3, [r3, #0]
10003498:	b133      	cbz	r3, 100034a8 <on_uart_rx+0x14>
1000349a:	2100      	movs	r1, #0
1000349c:	4a04      	ldr	r2, [pc, #16]	@ (100034b0 <on_uart_rx+0x1c>)
1000349e:	4805      	ldr	r0, [pc, #20]	@ (100034b4 <on_uart_rx+0x20>)
100034a0:	6812      	ldr	r2, [r2, #0]
100034a2:	6800      	ldr	r0, [r0, #0]
100034a4:	6391      	str	r1, [r2, #56]	@ 0x38
100034a6:	4718      	bx	r3
100034a8:	4770      	bx	lr
100034aa:	bf00      	nop
100034ac:	200007d0 	.word	0x200007d0
100034b0:	20000854 	.word	0x20000854
100034b4:	200007d4 	.word	0x200007d4

100034b8 <stdio_uart_out_flush>:
100034b8:	4b02      	ldr	r3, [pc, #8]	@ (100034c4 <stdio_uart_out_flush+0xc>)
100034ba:	681a      	ldr	r2, [r3, #0]
100034bc:	6993      	ldr	r3, [r2, #24]
100034be:	071b      	lsls	r3, r3, #28
100034c0:	d4fc      	bmi.n	100034bc <stdio_uart_out_flush+0x4>
100034c2:	4770      	bx	lr
100034c4:	20000854 	.word	0x20000854

100034c8 <stdio_uart_set_chars_available_callback>:
100034c8:	b5f8      	push	{r3, r4, r5, r6, r7, lr}
100034ca:	4f1c      	ldr	r7, [pc, #112]	@ (1000353c <stdio_uart_set_chars_available_callback+0x74>)
100034cc:	4d1c      	ldr	r5, [pc, #112]	@ (10003540 <stdio_uart_set_chars_available_callback+0x78>)
100034ce:	683a      	ldr	r2, [r7, #0]
100034d0:	4e1c      	ldr	r6, [pc, #112]	@ (10003544 <stdio_uart_set_chars_available_callback+0x7c>)
100034d2:	42aa      	cmp	r2, r5
100034d4:	bf14      	ite	ne
100034d6:	2521      	movne	r5, #33	@ 0x21
100034d8:	2522      	moveq	r5, #34	@ 0x22
100034da:	4604      	mov	r4, r0
100034dc:	f8d6 c000 	ldr.w	ip, [r6]
100034e0:	b118      	cbz	r0, 100034ea <stdio_uart_set_chars_available_callback+0x22>
100034e2:	f1bc 0f00 	cmp.w	ip, #0
100034e6:	d010      	beq.n	1000350a <stdio_uart_set_chars_available_callback+0x42>
100034e8:	bdf8      	pop	{r3, r4, r5, r6, r7, pc}
100034ea:	f1bc 0f00 	cmp.w	ip, #0
100034ee:	d0fb      	beq.n	100034e8 <stdio_uart_set_chars_available_callback+0x20>
100034f0:	4601      	mov	r1, r0
100034f2:	6390      	str	r0, [r2, #56]	@ 0x38
100034f4:	4628      	mov	r0, r5
100034f6:	f7fd f8a1 	bl	1000063c <irq_set_enabled>
100034fa:	4628      	mov	r0, r5
100034fc:	4912      	ldr	r1, [pc, #72]	@ (10003548 <stdio_uart_set_chars_available_callback+0x80>)
100034fe:	f7fd f8e3 	bl	100006c8 <irq_remove_handler>
10003502:	4b12      	ldr	r3, [pc, #72]	@ (1000354c <stdio_uart_set_chars_available_callback+0x84>)
10003504:	6034      	str	r4, [r6, #0]
10003506:	601c      	str	r4, [r3, #0]
10003508:	bdf8      	pop	{r3, r4, r5, r6, r7, pc}
1000350a:	460b      	mov	r3, r1
1000350c:	4a0f      	ldr	r2, [pc, #60]	@ (1000354c <stdio_uart_set_chars_available_callback+0x84>)
1000350e:	490e      	ldr	r1, [pc, #56]	@ (10003548 <stdio_uart_set_chars_available_callback+0x80>)
10003510:	6030      	str	r0, [r6, #0]
10003512:	4628      	mov	r0, r5
10003514:	6013      	str	r3, [r2, #0]
10003516:	f7fd f8a7 	bl	10000668 <irq_set_exclusive_handler>
1000351a:	2101      	movs	r1, #1
1000351c:	4628      	mov	r0, r5
1000351e:	f7fd f88d 	bl	1000063c <irq_set_enabled>
10003522:	683a      	ldr	r2, [r7, #0]
10003524:	2150      	movs	r1, #80	@ 0x50
10003526:	4613      	mov	r3, r2
10003528:	6391      	str	r1, [r2, #56]	@ 0x38
1000352a:	f853 2f34 	ldr.w	r2, [r3, #52]!
1000352e:	f002 0238 	and.w	r2, r2, #56	@ 0x38
10003532:	f503 5380 	add.w	r3, r3, #4096	@ 0x1000
10003536:	601a      	str	r2, [r3, #0]
10003538:	bdf8      	pop	{r3, r4, r5, r6, r7, pc}
1000353a:	bf00      	nop
1000353c:	20000854 	.word	0x20000854
10003540:	40078000 	.word	0x40078000
10003544:	200007d0 	.word	0x200007d0
10003548:	10003495 	.word	0x10003495
1000354c:	200007d4 	.word	0x200007d4

10003550 <stdio_uart_init>:
10003550:	b510      	push	{r4, lr}
10003552:	490e      	ldr	r1, [pc, #56]	@ (1000358c <stdio_uart_init+0x3c>)
10003554:	4c0e      	ldr	r4, [pc, #56]	@ (10003590 <stdio_uart_init+0x40>)
10003556:	480f      	ldr	r0, [pc, #60]	@ (10003594 <stdio_uart_init+0x44>)
10003558:	4a0f      	ldr	r2, [pc, #60]	@ (10003598 <stdio_uart_init+0x48>)
1000355a:	4b10      	ldr	r3, [pc, #64]	@ (1000359c <stdio_uart_init+0x4c>)
1000355c:	7800      	ldrb	r0, [r0, #0]
1000355e:	6021      	str	r1, [r4, #0]
10003560:	2000      	movs	r0, #0
10003562:	2102      	movs	r1, #2
10003564:	7812      	ldrb	r2, [r2, #0]
10003566:	781b      	ldrb	r3, [r3, #0]
10003568:	f7fc ff8e 	bl	10000488 <gpio_set_function>
1000356c:	2102      	movs	r1, #2
1000356e:	2001      	movs	r0, #1
10003570:	f7fc ff8a 	bl	10000488 <gpio_set_function>
10003574:	f44f 31e1 	mov.w	r1, #115200	@ 0x1c200
10003578:	6820      	ldr	r0, [r4, #0]
1000357a:	f7fd fda1 	bl	100010c0 <uart_init>
1000357e:	e8bd 4010 	ldmia.w	sp!, {r4, lr}
10003582:	2101      	movs	r1, #1
10003584:	4806      	ldr	r0, [pc, #24]	@ (100035a0 <stdio_uart_init+0x50>)
10003586:	f7ff be29 	b.w	100031dc <stdio_set_driver_enabled>
1000358a:	bf00      	nop
1000358c:	40070000 	.word	0x40070000
10003590:	20000854 	.word	0x20000854
10003594:	10003988 	.word	0x10003988
10003598:	10003984 	.word	0x10003984
1000359c:	10003980 	.word	0x10003980
100035a0:	2000060c 	.word	0x2000060c

100035a4 <memcpy>:
100035a4:	4684      	mov	ip, r0
100035a6:	ea41 0300 	orr.w	r3, r1, r0
100035aa:	f013 0303 	ands.w	r3, r3, #3
100035ae:	d149      	bne.n	10003644 <memcpy+0xa0>
100035b0:	3a40      	subs	r2, #64	@ 0x40
100035b2:	d323      	bcc.n	100035fc <memcpy+0x58>
100035b4:	680b      	ldr	r3, [r1, #0]
100035b6:	6003      	str	r3, [r0, #0]
100035b8:	684b      	ldr	r3, [r1, #4]
100035ba:	6043      	str	r3, [r0, #4]
100035bc:	688b      	ldr	r3, [r1, #8]
100035be:	6083      	str	r3, [r0, #8]
100035c0:	68cb      	ldr	r3, [r1, #12]
100035c2:	60c3      	str	r3, [r0, #12]
100035c4:	690b      	ldr	r3, [r1, #16]
100035c6:	6103      	str	r3, [r0, #16]
100035c8:	694b      	ldr	r3, [r1, #20]
100035ca:	6143      	str	r3, [r0, #20]
100035cc:	698b      	ldr	r3, [r1, #24]
100035ce:	6183      	str	r3, [r0, #24]
100035d0:	69cb      	ldr	r3, [r1, #28]
100035d2:	61c3      	str	r3, [r0, #28]
100035d4:	6a0b      	ldr	r3, [r1, #32]
100035d6:	6203      	str	r3, [r0, #32]
100035d8:	6a4b      	ldr	r3, [r1, #36]	@ 0x24
100035da:	6243      	str	r3, [r0, #36]	@ 0x24
100035dc:	6a8b      	ldr	r3, [r1, #40]	@ 0x28
100035de:	6283      	str	r3, [r0, #40]	@ 0x28
100035e0:	6acb      	ldr	r3, [r1, #44]	@ 0x2c
100035e2:	62c3      	str	r3, [r0, #44]	@ 0x2c
100035e4:	6b0b      	ldr	r3, [r1, #48]	@ 0x30
100035e6:	6303      	str	r3, [r0, #48]	@ 0x30
100035e8:	6b4b      	ldr	r3, [r1, #52]	@ 0x34
100035ea:	6343      	str	r3, [r0, #52]	@ 0x34
100035ec:	6b8b      	ldr	r3, [r1, #56]	@ 0x38
100035ee:	6383      	str	r3, [r0, #56]	@ 0x38
100035f0:	6bcb      	ldr	r3, [r1, #60]	@ 0x3c
100035f2:	63c3      	str	r3, [r0, #60]	@ 0x3c
100035f4:	3040      	adds	r0, #64	@ 0x40
100035f6:	3140      	adds	r1, #64	@ 0x40
100035f8:	3a40      	subs	r2, #64	@ 0x40
100035fa:	d2db      	bcs.n	100035b4 <memcpy+0x10>
100035fc:	3230      	adds	r2, #48	@ 0x30
100035fe:	d30b      	bcc.n	10003618 <memcpy+0x74>
10003600:	680b      	ldr	r3, [r1, #0]
10003602:	6003      	str	r3, [r0, #0]
10003604:	684b      	ldr	r3, [r1, #4]
10003606:	6043      	str	r3, [r0, #4]
10003608:	688b      	ldr	r3, [r1, #8]
1000360a:	6083      	str	r3, [r0, #8]
1000360c:	68cb      	ldr	r3, [r1, #12]
1000360e:	60c3      	str	r3, [r0, #12]
10003610:	3010      	adds	r0, #16
10003612:	3110      	adds	r1, #16
10003614:	3a10      	subs	r2, #16
10003616:	d2f3      	bcs.n	10003600 <memcpy+0x5c>
10003618:	320c      	adds	r2, #12
1000361a:	d305      	bcc.n	10003628 <memcpy+0x84>
1000361c:	f851 3b04 	ldr.w	r3, [r1], #4
10003620:	f840 3b04 	str.w	r3, [r0], #4
10003624:	3a04      	subs	r2, #4
10003626:	d2f9      	bcs.n	1000361c <memcpy+0x78>
10003628:	3204      	adds	r2, #4
1000362a:	d008      	beq.n	1000363e <memcpy+0x9a>
1000362c:	07d2      	lsls	r2, r2, #31
1000362e:	bf1c      	itt	ne
10003630:	f811 3b01 	ldrbne.w	r3, [r1], #1
10003634:	f800 3b01 	strbne.w	r3, [r0], #1
10003638:	d301      	bcc.n	1000363e <memcpy+0x9a>
1000363a:	880b      	ldrh	r3, [r1, #0]
1000363c:	8003      	strh	r3, [r0, #0]
1000363e:	4660      	mov	r0, ip
10003640:	4770      	bx	lr
10003642:	bf00      	nop
10003644:	2a08      	cmp	r2, #8
10003646:	d313      	bcc.n	10003670 <memcpy+0xcc>
10003648:	078b      	lsls	r3, r1, #30
1000364a:	d0b1      	beq.n	100035b0 <memcpy+0xc>
1000364c:	f010 0303 	ands.w	r3, r0, #3
10003650:	d0ae      	beq.n	100035b0 <memcpy+0xc>
10003652:	f1c3 0304 	rsb	r3, r3, #4
10003656:	1ad2      	subs	r2, r2, r3
10003658:	07db      	lsls	r3, r3, #31
1000365a:	bf1c      	itt	ne
1000365c:	f811 3b01 	ldrbne.w	r3, [r1], #1
10003660:	f800 3b01 	strbne.w	r3, [r0], #1
10003664:	d3a4      	bcc.n	100035b0 <memcpy+0xc>
10003666:	f831 3b02 	ldrh.w	r3, [r1], #2
1000366a:	f820 3b02 	strh.w	r3, [r0], #2
1000366e:	e79f      	b.n	100035b0 <memcpy+0xc>
10003670:	3a04      	subs	r2, #4
10003672:	d3d9      	bcc.n	10003628 <memcpy+0x84>
10003674:	3a01      	subs	r2, #1
10003676:	f811 3b01 	ldrb.w	r3, [r1], #1
1000367a:	f800 3b01 	strb.w	r3, [r0], #1
1000367e:	d2f9      	bcs.n	10003674 <memcpy+0xd0>
10003680:	780b      	ldrb	r3, [r1, #0]
10003682:	7003      	strb	r3, [r0, #0]
10003684:	784b      	ldrb	r3, [r1, #1]
10003686:	7043      	strb	r3, [r0, #1]
10003688:	788b      	ldrb	r3, [r1, #2]
1000368a:	7083      	strb	r3, [r0, #2]
1000368c:	4660      	mov	r0, ip
1000368e:	4770      	bx	lr

10003690 <strlen>:
10003690:	f020 0103 	bic.w	r1, r0, #3
10003694:	f010 0003 	ands.w	r0, r0, #3
10003698:	f1c0 0000 	rsb	r0, r0, #0
1000369c:	f851 3b04 	ldr.w	r3, [r1], #4
100036a0:	f100 0c04 	add.w	ip, r0, #4
100036a4:	ea4f 0ccc 	mov.w	ip, ip, lsl #3
100036a8:	f06f 0200 	mvn.w	r2, #0
100036ac:	bf1c      	itt	ne
100036ae:	fa22 f20c 	lsrne.w	r2, r2, ip
100036b2:	4313      	orrne	r3, r2
100036b4:	f04f 0c01 	mov.w	ip, #1
100036b8:	ea4c 2c0c 	orr.w	ip, ip, ip, lsl #8
100036bc:	ea4c 4c0c 	orr.w	ip, ip, ip, lsl #16
100036c0:	eba3 020c 	sub.w	r2, r3, ip
100036c4:	ea22 0203 	bic.w	r2, r2, r3
100036c8:	ea12 12cc 	ands.w	r2, r2, ip, lsl #7
100036cc:	bf04      	itt	eq
100036ce:	f851 3b04 	ldreq.w	r3, [r1], #4
100036d2:	3004      	addeq	r0, #4
100036d4:	d0f4      	beq.n	100036c0 <strlen+0x30>
100036d6:	f1c2 0100 	rsb	r1, r2, #0
100036da:	ea02 0201 	and.w	r2, r2, r1
100036de:	fab2 f282 	clz	r2, r2
100036e2:	f1c2 021f 	rsb	r2, r2, #31
100036e6:	eb00 00d2 	add.w	r0, r0, r2, lsr #3
100036ea:	4770      	bx	lr

100036ec <_fini>:
100036ec:	b5f8      	push	{r3, r4, r5, r6, r7, lr}
100036ee:	bf00      	nop

100036f0 <____aeabi_uldivmod_veneer>:
100036f0:	f85f f000 	ldr.w	pc, [pc]	@ 100036f4 <____aeabi_uldivmod_veneer+0x4>
100036f4:	20000221 	.word	0x20000221

100036f8 <__mutex_exit_veneer>:
100036f8:	f85f f000 	ldr.w	pc, [pc]	@ 100036fc <__mutex_exit_veneer+0x4>
100036fc:	200001e5 	.word	0x200001e5

10003700 <__mutex_try_enter_block_until_veneer>:
10003700:	f85f f000 	ldr.w	pc, [pc]	@ 10003704 <__mutex_try_enter_block_until_veneer+0x4>
10003704:	2000017d 	.word	0x2000017d

10003708 <__pre_init_runtime_init_bootrom_reset>:
10003708:	10001479                                y...

1000370c <__pre_init_runtime_init_early_resets>:
1000370c:	100013ed                                ....

10003710 <__pre_init_runtime_init_usb_power_down>:
10003710:	10001421                                !...

10003714 <__pre_init_runtime_init_clocks>:
10003714:	1000150d                                ....

10003718 <__pre_init_runtime_init_post_clock_resets>:
10003718:	10001459                                Y...

1000371c <__pre_init_runtime_init_boot_locks_reset>:
1000371c:	10001371                                q...

10003720 <__pre_init_runtime_init_spin_locks_reset>:
10003720:	100014a1                                ....

10003724 <__pre_init_runtime_init_bootrom_locking_enable>:
10003724:	1000135d                                ]...

10003728 <__pre_init_runtime_init_mutex>:
10003728:	10000985                                ....

1000372c <__pre_init_runtime_init_install_ram_vector_table>:
1000372c:	100014a5                                ....

10003730 <__pre_init_runtime_init_default_alarm_pool>:
10003730:	10000d01                                ....

10003734 <__pre_init_first_per_core_initializer>:
10003734:	100013bd                                ....

10003738 <__pre_init_runtime_init_per_core_bootrom_reset>:
10003738:	1000148d                                ....

1000373c <__pre_init_runtime_init_per_core_enable_coprocessors>:
1000373c:	1000143d                                =...

10003740 <__pre_init_spinlock_set_extexclall>:
10003740:	100005d5                                ....

10003744 <__pre_init_runtime_init_per_core_irq_priorities>:
10003744:	100005fd                                ....

10003748 <__frame_dummy_init_array_entry>:
10003748:	10000211                                ....

Disassembly of section .data:

20000110 <mutex_enter_block_until>:
20000110:	f04f 4150 	mov.w	r1, #3489660928	@ 0xd0000000
20000114:	e92d 41f0 	stmdb	sp!, {r4, r5, r6, r7, r8, lr}
20000118:	2700      	movs	r7, #0
2000011a:	4604      	mov	r4, r0
2000011c:	4616      	mov	r6, r2
2000011e:	461d      	mov	r5, r3
20000120:	f8d1 8000 	ldr.w	r8, [r1]
20000124:	e008      	b.n	20000138 <mutex_enter_block_until+0x28>
20000126:	e8c1 7f8f 	stlb	r7, [r1]
2000012a:	f38c 8810 	msr	PRIMASK, ip
2000012e:	4630      	mov	r0, r6
20000130:	4629      	mov	r1, r5
20000132:	f000 fa35 	bl	200005a0 <__best_effort_wfe_or_timeout_veneer>
20000136:	b9e8      	cbnz	r0, 20000174 <mutex_enter_block_until+0x64>
20000138:	6821      	ldr	r1, [r4, #0]
2000013a:	f3ef 8c10 	mrs	ip, PRIMASK
2000013e:	b672      	cpsid	i
20000140:	e8d1 2fcf 	ldaexb	r2, [r1]
20000144:	2301      	movs	r3, #1
20000146:	2a00      	cmp	r2, #0
20000148:	d1fa      	bne.n	20000140 <mutex_enter_block_until+0x30>
2000014a:	e8c1 3f42 	strexb	r2, r3, [r1]
2000014e:	2a00      	cmp	r2, #0
20000150:	d1f6      	bne.n	20000140 <mutex_enter_block_until+0x30>
20000152:	f3bf 8f5f 	dmb	sy
20000156:	f994 3004 	ldrsb.w	r3, [r4, #4]
2000015a:	6821      	ldr	r1, [r4, #0]
2000015c:	2b00      	cmp	r3, #0
2000015e:	dae2      	bge.n	20000126 <mutex_enter_block_until+0x16>
20000160:	2300      	movs	r3, #0
20000162:	f884 8004 	strb.w	r8, [r4, #4]
20000166:	e8c1 3f8f 	stlb	r3, [r1]
2000016a:	f38c 8810 	msr	PRIMASK, ip
2000016e:	2001      	movs	r0, #1
20000170:	e8bd 81f0 	ldmia.w	sp!, {r4, r5, r6, r7, r8, pc}
20000174:	2000      	movs	r0, #0
20000176:	e8bd 81f0 	ldmia.w	sp!, {r4, r5, r6, r7, r8, pc}
2000017a:	bf00      	nop

2000017c <mutex_try_enter_block_until>:
2000017c:	b530      	push	{r4, r5, lr}
2000017e:	6804      	ldr	r4, [r0, #0]
20000180:	f3ef 8c10 	mrs	ip, PRIMASK
20000184:	b672      	cpsid	i
20000186:	e8d4 efcf 	ldaexb	lr, [r4]
2000018a:	2501      	movs	r5, #1
2000018c:	f1be 0f00 	cmp.w	lr, #0
20000190:	d1f9      	bne.n	20000186 <mutex_try_enter_block_until+0xa>
20000192:	e8c4 5f4e 	strexb	lr, r5, [r4]
20000196:	f1be 0f00 	cmp.w	lr, #0
2000019a:	d1f4      	bne.n	20000186 <mutex_try_enter_block_until+0xa>
2000019c:	f3bf 8f5f 	dmb	sy
200001a0:	f990 4004 	ldrsb.w	r4, [r0, #4]
200001a4:	6805      	ldr	r5, [r0, #0]
200001a6:	2c00      	cmp	r4, #0
200001a8:	db10      	blt.n	200001cc <mutex_try_enter_block_until+0x50>
200001aa:	2100      	movs	r1, #0
200001ac:	e8c5 1f8f 	stlb	r1, [r5]
200001b0:	f38c 8810 	msr	PRIMASK, ip
200001b4:	f04f 4550 	mov.w	r5, #3489660928	@ 0xd0000000
200001b8:	f995 5000 	ldrsb.w	r5, [r5]
200001bc:	42a5      	cmp	r5, r4
200001be:	d101      	bne.n	200001c4 <mutex_try_enter_block_until+0x48>
200001c0:	4608      	mov	r0, r1
200001c2:	bd30      	pop	{r4, r5, pc}
200001c4:	e8bd 4030 	ldmia.w	sp!, {r4, r5, lr}
200001c8:	f7ff bfa2 	b.w	20000110 <mutex_enter_block_until>
200001cc:	f04f 4250 	mov.w	r2, #3489660928	@ 0xd0000000
200001d0:	6812      	ldr	r2, [r2, #0]
200001d2:	2300      	movs	r3, #0
200001d4:	7102      	strb	r2, [r0, #4]
200001d6:	e8c5 3f8f 	stlb	r3, [r5]
200001da:	f38c 8810 	msr	PRIMASK, ip
200001de:	2001      	movs	r0, #1
200001e0:	bd30      	pop	{r4, r5, pc}
200001e2:	bf00      	nop

200001e4 <mutex_exit>:
200001e4:	6803      	ldr	r3, [r0, #0]
200001e6:	f3ef 8210 	mrs	r2, PRIMASK
200001ea:	b672      	cpsid	i
200001ec:	e8d3 cfcf 	ldaexb	ip, [r3]
200001f0:	2101      	movs	r1, #1
200001f2:	f1bc 0f00 	cmp.w	ip, #0
200001f6:	d1f9      	bne.n	200001ec <mutex_exit+0x8>
200001f8:	e8c3 1f4c 	strexb	ip, r1, [r3]
200001fc:	f1bc 0f00 	cmp.w	ip, #0
20000200:	d1f4      	bne.n	200001ec <mutex_exit+0x8>
20000202:	f3bf 8f5f 	dmb	sy
20000206:	f04f 0cff 	mov.w	ip, #255	@ 0xff
2000020a:	2300      	movs	r3, #0
2000020c:	6801      	ldr	r1, [r0, #0]
2000020e:	f880 c004 	strb.w	ip, [r0, #4]
20000212:	e8c1 3f8f 	stlb	r3, [r1]
20000216:	f382 8810 	msr	PRIMASK, r2
2000021a:	bf40      	sev
2000021c:	4770      	bx	lr
2000021e:	bf00      	nop

20000220 <__aeabi_uldivmod>:
20000220:	b953      	cbnz	r3, 20000238 <__aeabi_uldivmod+0x18>
20000222:	b94a      	cbnz	r2, 20000238 <__aeabi_uldivmod+0x18>
20000224:	2900      	cmp	r1, #0
20000226:	bf08      	it	eq
20000228:	2800      	cmpeq	r0, #0
2000022a:	bf1c      	itt	ne
2000022c:	f04f 31ff 	movne.w	r1, #4294967295
20000230:	f04f 30ff 	movne.w	r0, #4294967295
20000234:	f000 b9b2 	b.w	2000059c <__aeabi_idiv0>
20000238:	f1ad 0c08 	sub.w	ip, sp, #8
2000023c:	e96d ce04 	strd	ip, lr, [sp, #-16]!
20000240:	f000 f806 	bl	20000250 <__udivmoddi4>
20000244:	f8dd e004 	ldr.w	lr, [sp, #4]
20000248:	e9dd 2302 	ldrd	r2, r3, [sp, #8]
2000024c:	b004      	add	sp, #16
2000024e:	4770      	bx	lr

20000250 <__udivmoddi4>:
20000250:	e92d 4ff0 	stmdb	sp!, {r4, r5, r6, r7, r8, r9, sl, fp, lr}
20000254:	468c      	mov	ip, r1
20000256:	9e09      	ldr	r6, [sp, #36]	@ 0x24
20000258:	4604      	mov	r4, r0
2000025a:	460f      	mov	r7, r1
2000025c:	2b00      	cmp	r3, #0
2000025e:	d148      	bne.n	200002f2 <__udivmoddi4+0xa2>
20000260:	428a      	cmp	r2, r1
20000262:	4615      	mov	r5, r2
20000264:	d95e      	bls.n	20000324 <__udivmoddi4+0xd4>
20000266:	fab2 f382 	clz	r3, r2
2000026a:	b13b      	cbz	r3, 2000027c <__udivmoddi4+0x2c>
2000026c:	f1c3 0220 	rsb	r2, r3, #32
20000270:	409f      	lsls	r7, r3
20000272:	409d      	lsls	r5, r3
20000274:	409c      	lsls	r4, r3
20000276:	fa20 f202 	lsr.w	r2, r0, r2
2000027a:	4317      	orrs	r7, r2
2000027c:	ea4f 4e15 	mov.w	lr, r5, lsr #16
20000280:	fa1f fc85 	uxth.w	ip, r5
20000284:	0c22      	lsrs	r2, r4, #16
20000286:	fbb7 f1fe 	udiv	r1, r7, lr
2000028a:	fb0e 7711 	mls	r7, lr, r1, r7
2000028e:	fb01 f00c 	mul.w	r0, r1, ip
20000292:	ea42 4207 	orr.w	r2, r2, r7, lsl #16
20000296:	4290      	cmp	r0, r2
20000298:	d907      	bls.n	200002aa <__udivmoddi4+0x5a>
2000029a:	18aa      	adds	r2, r5, r2
2000029c:	f101 37ff 	add.w	r7, r1, #4294967295
200002a0:	d202      	bcs.n	200002a8 <__udivmoddi4+0x58>
200002a2:	4290      	cmp	r0, r2
200002a4:	f200 8158 	bhi.w	20000558 <__udivmoddi4+0x308>
200002a8:	4639      	mov	r1, r7
200002aa:	1a12      	subs	r2, r2, r0
200002ac:	b2a4      	uxth	r4, r4
200002ae:	fbb2 f0fe 	udiv	r0, r2, lr
200002b2:	fb0e 2210 	mls	r2, lr, r0, r2
200002b6:	fb00 fc0c 	mul.w	ip, r0, ip
200002ba:	ea44 4402 	orr.w	r4, r4, r2, lsl #16
200002be:	45a4      	cmp	ip, r4
200002c0:	d90b      	bls.n	200002da <__udivmoddi4+0x8a>
200002c2:	192c      	adds	r4, r5, r4
200002c4:	f100 32ff 	add.w	r2, r0, #4294967295
200002c8:	bf2c      	ite	cs
200002ca:	2701      	movcs	r7, #1
200002cc:	2700      	movcc	r7, #0
200002ce:	45a4      	cmp	ip, r4
200002d0:	d902      	bls.n	200002d8 <__udivmoddi4+0x88>
200002d2:	2f00      	cmp	r7, #0
200002d4:	f000 8143 	beq.w	2000055e <__udivmoddi4+0x30e>
200002d8:	4610      	mov	r0, r2
200002da:	ea40 4001 	orr.w	r0, r0, r1, lsl #16
200002de:	eba4 040c 	sub.w	r4, r4, ip
200002e2:	2100      	movs	r1, #0
200002e4:	b11e      	cbz	r6, 200002ee <__udivmoddi4+0x9e>
200002e6:	40dc      	lsrs	r4, r3
200002e8:	2300      	movs	r3, #0
200002ea:	e9c6 4300 	strd	r4, r3, [r6]
200002ee:	e8bd 8ff0 	ldmia.w	sp!, {r4, r5, r6, r7, r8, r9, sl, fp, pc}
200002f2:	428b      	cmp	r3, r1
200002f4:	d906      	bls.n	20000304 <__udivmoddi4+0xb4>
200002f6:	b10e      	cbz	r6, 200002fc <__udivmoddi4+0xac>
200002f8:	e9c6 0100 	strd	r0, r1, [r6]
200002fc:	2100      	movs	r1, #0
200002fe:	4608      	mov	r0, r1
20000300:	e8bd 8ff0 	ldmia.w	sp!, {r4, r5, r6, r7, r8, r9, sl, fp, pc}
20000304:	fab3 f183 	clz	r1, r3
20000308:	2900      	cmp	r1, #0
2000030a:	d151      	bne.n	200003b0 <__udivmoddi4+0x160>
2000030c:	4563      	cmp	r3, ip
2000030e:	f0c0 8116 	bcc.w	2000053e <__udivmoddi4+0x2ee>
20000312:	4282      	cmp	r2, r0
20000314:	f240 8113 	bls.w	2000053e <__udivmoddi4+0x2ee>
20000318:	4608      	mov	r0, r1
2000031a:	2e00      	cmp	r6, #0
2000031c:	d0e7      	beq.n	200002ee <__udivmoddi4+0x9e>
2000031e:	e9c6 4700 	strd	r4, r7, [r6]
20000322:	e7e4      	b.n	200002ee <__udivmoddi4+0x9e>
20000324:	2a00      	cmp	r2, #0
20000326:	f000 80af 	beq.w	20000488 <__udivmoddi4+0x238>
2000032a:	fab2 f382 	clz	r3, r2
2000032e:	2b00      	cmp	r3, #0
20000330:	f040 80c2 	bne.w	200004b8 <__udivmoddi4+0x268>
20000334:	1a8a      	subs	r2, r1, r2
20000336:	ea4f 4e15 	mov.w	lr, r5, lsr #16
2000033a:	b2af      	uxth	r7, r5
2000033c:	2101      	movs	r1, #1
2000033e:	0c20      	lsrs	r0, r4, #16
20000340:	fbb2 fcfe 	udiv	ip, r2, lr
20000344:	fb0e 221c 	mls	r2, lr, ip, r2
20000348:	ea40 4202 	orr.w	r2, r0, r2, lsl #16
2000034c:	fb07 f00c 	mul.w	r0, r7, ip
20000350:	4290      	cmp	r0, r2
20000352:	d90e      	bls.n	20000372 <__udivmoddi4+0x122>
20000354:	18aa      	adds	r2, r5, r2
20000356:	f10c 38ff 	add.w	r8, ip, #4294967295
2000035a:	bf2c      	ite	cs
2000035c:	f04f 0901 	movcs.w	r9, #1
20000360:	f04f 0900 	movcc.w	r9, #0
20000364:	4290      	cmp	r0, r2
20000366:	d903      	bls.n	20000370 <__udivmoddi4+0x120>
20000368:	f1b9 0f00 	cmp.w	r9, #0
2000036c:	f000 80f0 	beq.w	20000550 <__udivmoddi4+0x300>
20000370:	46c4      	mov	ip, r8
20000372:	1a12      	subs	r2, r2, r0
20000374:	b2a4      	uxth	r4, r4
20000376:	fbb2 f0fe 	udiv	r0, r2, lr
2000037a:	fb0e 2210 	mls	r2, lr, r0, r2
2000037e:	fb00 f707 	mul.w	r7, r0, r7
20000382:	ea44 4402 	orr.w	r4, r4, r2, lsl #16
20000386:	42a7      	cmp	r7, r4
20000388:	d90e      	bls.n	200003a8 <__udivmoddi4+0x158>
2000038a:	192c      	adds	r4, r5, r4
2000038c:	f100 32ff 	add.w	r2, r0, #4294967295
20000390:	bf2c      	ite	cs
20000392:	f04f 0e01 	movcs.w	lr, #1
20000396:	f04f 0e00 	movcc.w	lr, #0
2000039a:	42a7      	cmp	r7, r4
2000039c:	d903      	bls.n	200003a6 <__udivmoddi4+0x156>
2000039e:	f1be 0f00 	cmp.w	lr, #0
200003a2:	f000 80d2 	beq.w	2000054a <__udivmoddi4+0x2fa>
200003a6:	4610      	mov	r0, r2
200003a8:	1be4      	subs	r4, r4, r7
200003aa:	ea40 400c 	orr.w	r0, r0, ip, lsl #16
200003ae:	e799      	b.n	200002e4 <__udivmoddi4+0x94>
200003b0:	f1c1 0520 	rsb	r5, r1, #32
200003b4:	408b      	lsls	r3, r1
200003b6:	fa0c f401 	lsl.w	r4, ip, r1
200003ba:	fa00 f901 	lsl.w	r9, r0, r1
200003be:	fa22 f705 	lsr.w	r7, r2, r5
200003c2:	fa2c fc05 	lsr.w	ip, ip, r5
200003c6:	408a      	lsls	r2, r1
200003c8:	431f      	orrs	r7, r3
200003ca:	fa20 f305 	lsr.w	r3, r0, r5
200003ce:	0c38      	lsrs	r0, r7, #16
200003d0:	4323      	orrs	r3, r4
200003d2:	fa1f fe87 	uxth.w	lr, r7
200003d6:	0c1c      	lsrs	r4, r3, #16
200003d8:	fbbc f8f0 	udiv	r8, ip, r0
200003dc:	fb00 cc18 	mls	ip, r0, r8, ip
200003e0:	ea44 440c 	orr.w	r4, r4, ip, lsl #16
200003e4:	fb08 fc0e 	mul.w	ip, r8, lr
200003e8:	45a4      	cmp	ip, r4
200003ea:	d90e      	bls.n	2000040a <__udivmoddi4+0x1ba>
200003ec:	193c      	adds	r4, r7, r4
200003ee:	f108 3aff 	add.w	sl, r8, #4294967295
200003f2:	bf2c      	ite	cs
200003f4:	f04f 0b01 	movcs.w	fp, #1
200003f8:	f04f 0b00 	movcc.w	fp, #0
200003fc:	45a4      	cmp	ip, r4
200003fe:	d903      	bls.n	20000408 <__udivmoddi4+0x1b8>
20000400:	f1bb 0f00 	cmp.w	fp, #0
20000404:	f000 80b8 	beq.w	20000578 <__udivmoddi4+0x328>
20000408:	46d0      	mov	r8, sl
2000040a:	eba4 040c 	sub.w	r4, r4, ip
2000040e:	fa1f fc83 	uxth.w	ip, r3
20000412:	fbb4 f3f0 	udiv	r3, r4, r0
20000416:	fb00 4413 	mls	r4, r0, r3, r4
2000041a:	fb03 fe0e 	mul.w	lr, r3, lr
2000041e:	ea4c 4404 	orr.w	r4, ip, r4, lsl #16
20000422:	45a6      	cmp	lr, r4
20000424:	d90e      	bls.n	20000444 <__udivmoddi4+0x1f4>
20000426:	193c      	adds	r4, r7, r4
20000428:	f103 30ff 	add.w	r0, r3, #4294967295
2000042c:	bf2c      	ite	cs
2000042e:	f04f 0c01 	movcs.w	ip, #1
20000432:	f04f 0c00 	movcc.w	ip, #0
20000436:	45a6      	cmp	lr, r4
20000438:	d903      	bls.n	20000442 <__udivmoddi4+0x1f2>
2000043a:	f1bc 0f00 	cmp.w	ip, #0
2000043e:	f000 809f 	beq.w	20000580 <__udivmoddi4+0x330>
20000442:	4603      	mov	r3, r0
20000444:	ea43 4008 	orr.w	r0, r3, r8, lsl #16
20000448:	eba4 040e 	sub.w	r4, r4, lr
2000044c:	fba0 ec02 	umull	lr, ip, r0, r2
20000450:	4564      	cmp	r4, ip
20000452:	4673      	mov	r3, lr
20000454:	46e0      	mov	r8, ip
20000456:	d302      	bcc.n	2000045e <__udivmoddi4+0x20e>
20000458:	d107      	bne.n	2000046a <__udivmoddi4+0x21a>
2000045a:	45f1      	cmp	r9, lr
2000045c:	d205      	bcs.n	2000046a <__udivmoddi4+0x21a>
2000045e:	ebbe 0302 	subs.w	r3, lr, r2
20000462:	eb6c 0c07 	sbc.w	ip, ip, r7
20000466:	3801      	subs	r0, #1
20000468:	46e0      	mov	r8, ip
2000046a:	b15e      	cbz	r6, 20000484 <__udivmoddi4+0x234>
2000046c:	ebb9 0203 	subs.w	r2, r9, r3
20000470:	eb64 0408 	sbc.w	r4, r4, r8
20000474:	fa04 f505 	lsl.w	r5, r4, r5
20000478:	fa22 f301 	lsr.w	r3, r2, r1
2000047c:	40cc      	lsrs	r4, r1
2000047e:	431d      	orrs	r5, r3
20000480:	e9c6 5400 	strd	r5, r4, [r6]
20000484:	2100      	movs	r1, #0
20000486:	e732      	b.n	200002ee <__udivmoddi4+0x9e>
20000488:	0842      	lsrs	r2, r0, #1
2000048a:	462f      	mov	r7, r5
2000048c:	084b      	lsrs	r3, r1, #1
2000048e:	46ac      	mov	ip, r5
20000490:	ea42 72c1 	orr.w	r2, r2, r1, lsl #31
20000494:	46ae      	mov	lr, r5
20000496:	07c4      	lsls	r4, r0, #31
20000498:	0c11      	lsrs	r1, r2, #16
2000049a:	b292      	uxth	r2, r2
2000049c:	ea41 4103 	orr.w	r1, r1, r3, lsl #16
200004a0:	ea42 4201 	orr.w	r2, r2, r1, lsl #16
200004a4:	fbb1 f1f5 	udiv	r1, r1, r5
200004a8:	fbb3 f0f5 	udiv	r0, r3, r5
200004ac:	231f      	movs	r3, #31
200004ae:	eba2 020c 	sub.w	r2, r2, ip
200004b2:	ea41 4100 	orr.w	r1, r1, r0, lsl #16
200004b6:	e742      	b.n	2000033e <__udivmoddi4+0xee>
200004b8:	409d      	lsls	r5, r3
200004ba:	f1c3 0220 	rsb	r2, r3, #32
200004be:	4099      	lsls	r1, r3
200004c0:	409c      	lsls	r4, r3
200004c2:	fa2c fc02 	lsr.w	ip, ip, r2
200004c6:	ea4f 4e15 	mov.w	lr, r5, lsr #16
200004ca:	fa20 f202 	lsr.w	r2, r0, r2
200004ce:	b2af      	uxth	r7, r5
200004d0:	fbbc f8fe 	udiv	r8, ip, lr
200004d4:	430a      	orrs	r2, r1
200004d6:	fb0e cc18 	mls	ip, lr, r8, ip
200004da:	0c11      	lsrs	r1, r2, #16
200004dc:	ea41 410c 	orr.w	r1, r1, ip, lsl #16
200004e0:	fb08 fc07 	mul.w	ip, r8, r7
200004e4:	458c      	cmp	ip, r1
200004e6:	d950      	bls.n	2000058a <__udivmoddi4+0x33a>
200004e8:	1869      	adds	r1, r5, r1
200004ea:	f108 30ff 	add.w	r0, r8, #4294967295
200004ee:	bf2c      	ite	cs
200004f0:	f04f 0901 	movcs.w	r9, #1
200004f4:	f04f 0900 	movcc.w	r9, #0
200004f8:	458c      	cmp	ip, r1
200004fa:	d902      	bls.n	20000502 <__udivmoddi4+0x2b2>
200004fc:	f1b9 0f00 	cmp.w	r9, #0
20000500:	d030      	beq.n	20000564 <__udivmoddi4+0x314>
20000502:	eba1 010c 	sub.w	r1, r1, ip
20000506:	fbb1 f8fe 	udiv	r8, r1, lr
2000050a:	fb08 fc07 	mul.w	ip, r8, r7
2000050e:	fb0e 1118 	mls	r1, lr, r8, r1
20000512:	b292      	uxth	r2, r2
20000514:	ea42 4201 	orr.w	r2, r2, r1, lsl #16
20000518:	4562      	cmp	r2, ip
2000051a:	d234      	bcs.n	20000586 <__udivmoddi4+0x336>
2000051c:	18aa      	adds	r2, r5, r2
2000051e:	f108 31ff 	add.w	r1, r8, #4294967295
20000522:	bf2c      	ite	cs
20000524:	f04f 0901 	movcs.w	r9, #1
20000528:	f04f 0900 	movcc.w	r9, #0
2000052c:	4562      	cmp	r2, ip
2000052e:	d2be      	bcs.n	200004ae <__udivmoddi4+0x25e>
20000530:	f1b9 0f00 	cmp.w	r9, #0
20000534:	d1bb      	bne.n	200004ae <__udivmoddi4+0x25e>
20000536:	f1a8 0102 	sub.w	r1, r8, #2
2000053a:	442a      	add	r2, r5
2000053c:	e7b7      	b.n	200004ae <__udivmoddi4+0x25e>
2000053e:	1a84      	subs	r4, r0, r2
20000540:	eb6c 0203 	sbc.w	r2, ip, r3
20000544:	2001      	movs	r0, #1
20000546:	4617      	mov	r7, r2
20000548:	e6e7      	b.n	2000031a <__udivmoddi4+0xca>
2000054a:	442c      	add	r4, r5
2000054c:	3802      	subs	r0, #2
2000054e:	e72b      	b.n	200003a8 <__udivmoddi4+0x158>
20000550:	f1ac 0c02 	sub.w	ip, ip, #2
20000554:	442a      	add	r2, r5
20000556:	e70c      	b.n	20000372 <__udivmoddi4+0x122>
20000558:	3902      	subs	r1, #2
2000055a:	442a      	add	r2, r5
2000055c:	e6a5      	b.n	200002aa <__udivmoddi4+0x5a>
2000055e:	442c      	add	r4, r5
20000560:	3802      	subs	r0, #2
20000562:	e6ba      	b.n	200002da <__udivmoddi4+0x8a>
20000564:	eba5 0c0c 	sub.w	ip, r5, ip
20000568:	f1a8 0002 	sub.w	r0, r8, #2
2000056c:	4461      	add	r1, ip
2000056e:	fbb1 f8fe 	udiv	r8, r1, lr
20000572:	fb08 fc07 	mul.w	ip, r8, r7
20000576:	e7ca      	b.n	2000050e <__udivmoddi4+0x2be>
20000578:	f1a8 0802 	sub.w	r8, r8, #2
2000057c:	443c      	add	r4, r7
2000057e:	e744      	b.n	2000040a <__udivmoddi4+0x1ba>
20000580:	3b02      	subs	r3, #2
20000582:	443c      	add	r4, r7
20000584:	e75e      	b.n	20000444 <__udivmoddi4+0x1f4>
20000586:	4641      	mov	r1, r8
20000588:	e791      	b.n	200004ae <__udivmoddi4+0x25e>
2000058a:	eba1 010c 	sub.w	r1, r1, ip
2000058e:	4640      	mov	r0, r8
20000590:	fbb1 f8fe 	udiv	r8, r1, lr
20000594:	fb08 fc07 	mul.w	ip, r8, r7
20000598:	e7b9      	b.n	2000050e <__udivmoddi4+0x2be>
2000059a:	bf00      	nop

2000059c <__aeabi_idiv0>:
2000059c:	4770      	bx	lr
2000059e:	bf00      	nop

200005a0 <__best_effort_wfe_or_timeout_veneer>:
200005a0:	f85f f000 	ldr.w	pc, [pc]	@ 200005a4 <__best_effort_wfe_or_timeout_veneer+0x4>
200005a4:	10000f49 	.word	0x10000f49

200005a8 <striped_spin_lock_num>:
200005a8:	00000010                                ....

200005ac <irq_handler_chain_slots>:
200005ac:	00000000 	.word	0x00000000
200005b0:	00010000 	.word	0x00010000
	...
200005bc:	00020000 	.word	0x00020000
	...
200005c8:	00030000 	.word	0x00030000
	...
200005d4:	00ff0000 	.word	0x00ff0000
200005d8:	00000000 	.word	0x00000000

200005dc <irq_handler_chain_first_slot>:
200005dc:	b501      	push	{r0, lr}
200005de:	6848      	ldr	r0, [r1, #4]
200005e0:	3101      	adds	r1, #1
200005e2:	468e      	mov	lr, r1
200005e4:	4700      	bx	r0

200005e6 <irq_handler_chain_remove_tail>:
200005e6:	4670      	mov	r0, lr
200005e8:	3809      	subs	r0, #9
200005ea:	4901      	ldr	r1, [pc, #4]	@ (200005f0 <irq_handler_chain_remove_tail+0xa>)
200005ec:	4788      	blx	r1
200005ee:	bd01      	pop	{r0, pc}
200005f0:	100008bd 	.word	0x100008bd

200005f4 <default_alarm_pool>:
	...
20000608:	20000630                                0.. 

2000060c <stdio_uart>:
2000060c:	100033b1 100034b9 10003401 100034c9     .3...4...4...4..
2000061c:	00000000 00000100                       ........

20000624 <print_mutex>:
	...
