
C:/Users/assem.KEVINTHOMAS/OneDrive/Documents/Embedded-Hacking/drivers/0x0b_spi/build/0x0b_spi.elf:     file format elf32-littlearm

Sections:
Idx Name          Size      VMA       LMA       File off  Algn
  0 .text         000037c4  10000000  10000000  00001000  2**3
                  CONTENTS, ALLOC, LOAD, READONLY, CODE
  1 .rodata       000001c8  100037c8  100037c8  000047c8  2**3
                  CONTENTS, ALLOC, LOAD, READONLY, DATA
  2 .ARM.exidx    00000008  10003990  10003990  00004990  2**2
                  CONTENTS, ALLOC, LOAD, READONLY, DATA
  3 .binary_info  0000002c  10003998  10003998  00004998  2**2
                  CONTENTS, ALLOC, LOAD, READONLY, DATA
  4 .ram_vector_table 00000110  20000000  20000000  00006000  2**2
                  ALLOC
  5 .uninitialized_data 00000000  20000110  20000110  00005f84  2**0
                  CONTENTS
  6 .data         000005ac  20000110  100039c4  00005110  2**3
                  CONTENTS, ALLOC, LOAD, READONLY, CODE
  7 .tdata        00000000  200006bc  200006bc  00005f84  2**0
                  CONTENTS, ALLOC, LOAD, DATA, THREAD_LOCAL
  8 .tbss         00000000  200006bc  200006bc  00000000  2**0
                  ALLOC, THREAD_LOCAL
  9 .bss          00000228  200006c0  10003f70  000066c0  2**3
                  ALLOC
 10 .heap         00000800  200008e8  10003f70  000068e8  2**2
                  ALLOC, READONLY
 11 .scratch_x    00000000  20080000  20080000  00005f84  2**0
                  CONTENTS
 12 .scratch_y    00000000  20081000  20081000  00005f84  2**0
                  CONTENTS
 13 .stack_dummy  00000800  20081000  20081000  00006000  2**5
                  ALLOC, READONLY
 14 .flash_end    00000014  10003f70  10003f70  00005f70  2**2
                  CONTENTS, ALLOC, LOAD, READONLY, DATA
 15 .ARM.attributes 00000034  00000000  00000000  00005f84  2**0
                  CONTENTS, READONLY
 16 .comment      00000045  00000000  00000000  00005fb8  2**0
                  CONTENTS, READONLY
 17 .debug_info   000222a6  00000000  00000000  00005ffd  2**0
                  CONTENTS, READONLY, DEBUGGING, OCTETS
 18 .debug_abbrev 00005bbd  00000000  00000000  000282a3  2**0
                  CONTENTS, READONLY, DEBUGGING, OCTETS
 19 .debug_loclists 00010c92  00000000  00000000  0002de60  2**0
                  CONTENTS, READONLY, DEBUGGING, OCTETS
 20 .debug_aranges 00000c88  00000000  00000000  0003eaf8  2**3
                  CONTENTS, READONLY, DEBUGGING, OCTETS
 21 .debug_rnglists 0000332f  00000000  00000000  0003f780  2**0
                  CONTENTS, READONLY, DEBUGGING, OCTETS
 22 .debug_line   00017dc5  00000000  00000000  00042aaf  2**0
                  CONTENTS, READONLY, DEBUGGING, OCTETS
 23 .debug_str    00005b61  00000000  00000000  0005a874  2**0
                  CONTENTS, READONLY, DEBUGGING, OCTETS
 24 .debug_frame  000020d0  00000000  00000000  000603d8  2**2
                  CONTENTS, READONLY, DEBUGGING, OCTETS
 25 .debug_line_str 000002c6  00000000  00000000  000624a8  2**0
                  CONTENTS, READONLY, DEBUGGING, OCTETS

C:/Users/assem.KEVINTHOMAS/OneDrive/Documents/Embedded-Hacking/drivers/0x0b_spi/build/0x0b_spi.elf:     file format elf32-littlearm


Disassembly of section .text:

10000000 <__VECTOR_TABLE>:
10000000:	20082000 	.word	0x20082000
10000004:	1000015d 	.word	0x1000015d
10000008:	1000011b 	.word	0x1000011b
1000000c:	1000011d 	.word	0x1000011d
10000010:	10000111 	.word	0x10000111
10000014:	10000111 	.word	0x10000111
10000018:	10000111 	.word	0x10000111
1000001c:	10000111 	.word	0x10000111
10000020:	10000119 	.word	0x10000119
10000024:	10000119 	.word	0x10000119
10000028:	10000119 	.word	0x10000119
1000002c:	1000011f 	.word	0x1000011f
10000030:	10000111 	.word	0x10000111
10000034:	10000119 	.word	0x10000119
10000038:	10000121 	.word	0x10000121
1000003c:	10000123 	.word	0x10000123
10000040:	10000111 	.word	0x10000111
10000044:	10000111 	.word	0x10000111
10000048:	10000111 	.word	0x10000111
1000004c:	10000111 	.word	0x10000111
10000050:	10000111 	.word	0x10000111
10000054:	10000111 	.word	0x10000111
10000058:	10000111 	.word	0x10000111
1000005c:	10000111 	.word	0x10000111
10000060:	10000111 	.word	0x10000111
10000064:	10000111 	.word	0x10000111
10000068:	10000111 	.word	0x10000111
1000006c:	10000111 	.word	0x10000111
10000070:	10000111 	.word	0x10000111
10000074:	10000111 	.word	0x10000111
10000078:	10000111 	.word	0x10000111
1000007c:	10000111 	.word	0x10000111
10000080:	10000111 	.word	0x10000111
10000084:	10000111 	.word	0x10000111
10000088:	10000111 	.word	0x10000111
1000008c:	10000111 	.word	0x10000111
10000090:	10000111 	.word	0x10000111
10000094:	10000111 	.word	0x10000111
10000098:	10000111 	.word	0x10000111
1000009c:	10000111 	.word	0x10000111
100000a0:	10000111 	.word	0x10000111
100000a4:	10000111 	.word	0x10000111
100000a8:	10000111 	.word	0x10000111
100000ac:	10000111 	.word	0x10000111
100000b0:	10000111 	.word	0x10000111
100000b4:	10000111 	.word	0x10000111
100000b8:	10000111 	.word	0x10000111
100000bc:	10000111 	.word	0x10000111
100000c0:	10000111 	.word	0x10000111
100000c4:	10000111 	.word	0x10000111
100000c8:	10000111 	.word	0x10000111
100000cc:	10000111 	.word	0x10000111
100000d0:	10000111 	.word	0x10000111
100000d4:	10000111 	.word	0x10000111
100000d8:	10000111 	.word	0x10000111
100000dc:	10000111 	.word	0x10000111
100000e0:	10000111 	.word	0x10000111
100000e4:	10000111 	.word	0x10000111
100000e8:	10000111 	.word	0x10000111
100000ec:	10000111 	.word	0x10000111
100000f0:	10000111 	.word	0x10000111
100000f4:	10000111 	.word	0x10000111
100000f8:	10000111 	.word	0x10000111
100000fc:	10000111 	.word	0x10000111
10000100:	10000111 	.word	0x10000111
10000104:	10000111 	.word	0x10000111
10000108:	10000111 	.word	0x10000111
1000010c:	10000111 	.word	0x10000111

10000110 <__unhandled_user_irq>:
10000110:	f3ef 8005 	mrs	r0, IPSR
10000114:	3810      	subs	r0, #16

10000116 <unhandled_user_irq_num_in_r0>:
10000116:	be00      	bkpt	0x0000

10000118 <isr_invalid>:
10000118:	be00      	bkpt	0x0000

1000011a <isr_nmi>:
1000011a:	be00      	bkpt	0x0000

1000011c <isr_hardfault>:
1000011c:	be00      	bkpt	0x0000

1000011e <isr_svcall>:
1000011e:	be00      	bkpt	0x0000

10000120 <isr_pendsv>:
10000120:	be00      	bkpt	0x0000

10000122 <isr_systick>:
10000122:	be00      	bkpt	0x0000

10000124 <__default_isrs_end>:
10000124:	7188ebf2 	.word	0x7188ebf2
10000128:	10003998 	.word	0x10003998
1000012c:	100039c4 	.word	0x100039c4
10000130:	100001a0 	.word	0x100001a0
10000134:	e71aa390 	.word	0xe71aa390

10000138 <__binary_info_header_end>:
10000138:	ffffded3 	.word	0xffffded3
1000013c:	10210142 	.word	0x10210142
10000140:	000001ff 	.word	0x000001ff
10000144:	00003e38 	.word	0x00003e38
10000148:	ab123579 	.word	0xab123579

1000014c <_entry_point>:
1000014c:	f04f 0000 	mov.w	r0, #0

10000150 <_enter_vtable_in_r0>:
10000150:	491e      	ldr	r1, [pc, #120]	@ (100001cc <data_cpy_table+0x2c>)
10000152:	6008      	str	r0, [r1, #0]
10000154:	c806      	ldmia	r0!, {r1, r2}
10000156:	f381 8808 	msr	MSP, r1
1000015a:	4710      	bx	r2

1000015c <_reset_handler>:
1000015c:	f04f 4050 	mov.w	r0, #3489660928	@ 0xd0000000
10000160:	6800      	ldr	r0, [r0, #0]
10000162:	b110      	cbz	r0, 1000016a <hold_non_core0_in_bootrom+0x6>

10000164 <hold_non_core0_in_bootrom>:
10000164:	f04f 0000 	mov.w	r0, #0
10000168:	e7f2      	b.n	10000150 <_enter_vtable_in_r0>
1000016a:	a40d      	add	r4, pc, #52	@ (adr r4, 100001a0 <data_cpy_table>)
1000016c:	cc0e      	ldmia	r4!, {r1, r2, r3}
1000016e:	2900      	cmp	r1, #0
10000170:	d002      	beq.n	10000178 <hold_non_core0_in_bootrom+0x14>
10000172:	f000 f812 	bl	1000019a <data_cpy>
10000176:	e7f9      	b.n	1000016c <hold_non_core0_in_bootrom+0x8>
10000178:	4915      	ldr	r1, [pc, #84]	@ (100001d0 <data_cpy_table+0x30>)
1000017a:	4a16      	ldr	r2, [pc, #88]	@ (100001d4 <data_cpy_table+0x34>)
1000017c:	2000      	movs	r0, #0
1000017e:	e000      	b.n	10000182 <bss_fill_test>

10000180 <bss_fill_loop>:
10000180:	c101      	stmia	r1!, {r0}

10000182 <bss_fill_test>:
10000182:	4291      	cmp	r1, r2
10000184:	d1fc      	bne.n	10000180 <bss_fill_loop>

10000186 <platform_entry>:
10000186:	4914      	ldr	r1, [pc, #80]	@ (100001d8 <data_cpy_table+0x38>)
10000188:	4788      	blx	r1
1000018a:	4914      	ldr	r1, [pc, #80]	@ (100001dc <data_cpy_table+0x3c>)
1000018c:	4788      	blx	r1
1000018e:	4914      	ldr	r1, [pc, #80]	@ (100001e0 <data_cpy_table+0x40>)
10000190:	4788      	blx	r1
10000192:	be00      	bkpt	0x0000
10000194:	e7fd      	b.n	10000192 <platform_entry+0xc>

10000196 <data_cpy_loop>:
10000196:	c901      	ldmia	r1!, {r0}
10000198:	c201      	stmia	r2!, {r0}

1000019a <data_cpy>:
1000019a:	429a      	cmp	r2, r3
1000019c:	d3fb      	bcc.n	10000196 <data_cpy_loop>
1000019e:	4770      	bx	lr

100001a0 <data_cpy_table>:
100001a0:	100039c4 	.word	0x100039c4
100001a4:	20000110 	.word	0x20000110
100001a8:	200006bc 	.word	0x200006bc
100001ac:	10003f70 	.word	0x10003f70
100001b0:	20080000 	.word	0x20080000
100001b4:	20080000 	.word	0x20080000
100001b8:	10003f70 	.word	0x10003f70
100001bc:	20081000 	.word	0x20081000
100001c0:	20081000 	.word	0x20081000
100001c4:	00000000 	.word	0x00000000
100001c8:	4770      	bx	lr
100001ca:	0000      	.short	0x0000
100001cc:	e000ed08 	.word	0xe000ed08
100001d0:	200006bc 	.word	0x200006bc
100001d4:	200008e8 	.word	0x200008e8
100001d8:	10002f2d 	.word	0x10002f2d
100001dc:	10000235 	.word	0x10000235
100001e0:	10002f25 	.word	0x10002f25

100001e4 <_init>:
100001e4:	b5f8      	push	{r3, r4, r5, r6, r7, lr}
100001e6:	bf00      	nop

100001e8 <register_tm_clones>:
100001e8:	4b06      	ldr	r3, [pc, #24]	@ (10000204 <register_tm_clones+0x1c>)
100001ea:	4907      	ldr	r1, [pc, #28]	@ (10000208 <register_tm_clones+0x20>)
100001ec:	1ac9      	subs	r1, r1, r3
100001ee:	1089      	asrs	r1, r1, #2
100001f0:	bf48      	it	mi
100001f2:	3101      	addmi	r1, #1
100001f4:	1049      	asrs	r1, r1, #1
100001f6:	d003      	beq.n	10000200 <register_tm_clones+0x18>
100001f8:	4b04      	ldr	r3, [pc, #16]	@ (1000020c <register_tm_clones+0x24>)
100001fa:	b10b      	cbz	r3, 10000200 <register_tm_clones+0x18>
100001fc:	4801      	ldr	r0, [pc, #4]	@ (10000204 <register_tm_clones+0x1c>)
100001fe:	4718      	bx	r3
10000200:	4770      	bx	lr
10000202:	bf00      	nop
10000204:	200006bc 	.word	0x200006bc
10000208:	200006bc 	.word	0x200006bc
1000020c:	00000000 	.word	0x00000000

10000210 <frame_dummy>:
10000210:	b508      	push	{r3, lr}
10000212:	4b05      	ldr	r3, [pc, #20]	@ (10000228 <frame_dummy+0x18>)
10000214:	b11b      	cbz	r3, 1000021e <frame_dummy+0xe>
10000216:	4905      	ldr	r1, [pc, #20]	@ (1000022c <frame_dummy+0x1c>)
10000218:	4805      	ldr	r0, [pc, #20]	@ (10000230 <frame_dummy+0x20>)
1000021a:	f3af 8000 	nop.w
1000021e:	e8bd 4008 	ldmia.w	sp!, {r3, lr}
10000222:	f7ff bfe1 	b.w	100001e8 <register_tm_clones>
10000226:	bf00      	nop
10000228:	00000000 	.word	0x00000000
1000022c:	200008a0 	.word	0x200008a0
10000230:	100037c4 	.word	0x100037c4

10000234 <main>:
10000234:	2411      	movs	r4, #17
10000236:	b500      	push	{lr}
10000238:	4d19      	ldr	r5, [pc, #100]	@ (100002a0 <main+0x6c>)
1000023a:	b08b      	sub	sp, #44	@ 0x2c
1000023c:	f002 ff9e 	bl	1000317c <stdio_init_all>
10000240:	e9cd 4500 	strd	r4, r5, [sp]
10000244:	2400      	movs	r4, #0
10000246:	2312      	movs	r3, #18
10000248:	2210      	movs	r2, #16
1000024a:	2113      	movs	r1, #19
1000024c:	2000      	movs	r0, #0
1000024e:	f000 f82f 	bl	100002b0 <spi_driver_init>
10000252:	4b14      	ldr	r3, [pc, #80]	@ (100002a4 <main+0x70>)
10000254:	ad02      	add	r5, sp, #8
10000256:	cb0f      	ldmia	r3, {r0, r1, r2, r3}
10000258:	e885 000f 	stmia.w	r5, {r0, r1, r2, r3}
1000025c:	e9cd 4406 	strd	r4, r4, [sp, #24]
10000260:	e9cd 4408 	strd	r4, r4, [sp, #32]
10000264:	2011      	movs	r0, #17
10000266:	f000 f849 	bl	100002fc <spi_driver_cs_select>
1000026a:	2310      	movs	r3, #16
1000026c:	aa06      	add	r2, sp, #24
1000026e:	4629      	mov	r1, r5
10000270:	2000      	movs	r0, #0
10000272:	f000 f84f 	bl	10000314 <spi_driver_transfer>
10000276:	2011      	movs	r0, #17
10000278:	f000 f846 	bl	10000308 <spi_driver_cs_deselect>
1000027c:	4629      	mov	r1, r5
1000027e:	480a      	ldr	r0, [pc, #40]	@ (100002a8 <main+0x74>)
10000280:	f003 f844 	bl	1000330c <__wrap_printf>
10000284:	a906      	add	r1, sp, #24
10000286:	4809      	ldr	r0, [pc, #36]	@ (100002ac <main+0x78>)
10000288:	f003 f840 	bl	1000330c <__wrap_printf>
1000028c:	f44f 707a 	mov.w	r0, #1000	@ 0x3e8
10000290:	e9cd 4406 	strd	r4, r4, [sp, #24]
10000294:	e9cd 4408 	strd	r4, r4, [sp, #32]
10000298:	f000 fd92 	bl	10000dc0 <sleep_ms>
1000029c:	e7e2      	b.n	10000264 <main+0x30>
1000029e:	bf00      	nop
100002a0:	000f4240 	.word	0x000f4240
100002a4:	100037e0 	.word	0x100037e0
100002a8:	100037c8 	.word	0x100037c8
100002ac:	100037d4 	.word	0x100037d4

100002b0 <spi_driver_init>:
100002b0:	b5f8      	push	{r3, r4, r5, r6, r7, lr}
100002b2:	9c06      	ldr	r4, [sp, #24]
100002b4:	460f      	mov	r7, r1
100002b6:	4616      	mov	r6, r2
100002b8:	461d      	mov	r5, r3
100002ba:	b9c8      	cbnz	r0, 100002f0 <spi_driver_init+0x40>
100002bc:	480d      	ldr	r0, [pc, #52]	@ (100002f4 <spi_driver_init+0x44>)
100002be:	9907      	ldr	r1, [sp, #28]
100002c0:	f003 f92c 	bl	1000351c <spi_init>
100002c4:	4638      	mov	r0, r7
100002c6:	2101      	movs	r1, #1
100002c8:	f000 f830 	bl	1000032c <gpio_set_function>
100002cc:	4630      	mov	r0, r6
100002ce:	2101      	movs	r1, #1
100002d0:	f000 f82c 	bl	1000032c <gpio_set_function>
100002d4:	2101      	movs	r1, #1
100002d6:	4628      	mov	r0, r5
100002d8:	f000 f828 	bl	1000032c <gpio_set_function>
100002dc:	4620      	mov	r0, r4
100002de:	f000 f843 	bl	10000368 <gpio_init>
100002e2:	f04f 0301 	mov.w	r3, #1
100002e6:	ec43 4044 	gpioc_bit_oe_put r4, r3
100002ea:	ec43 4040 	gpioc_bit_out_put r4, r3
100002ee:	bdf8      	pop	{r3, r4, r5, r6, r7, pc}
100002f0:	4801      	ldr	r0, [pc, #4]	@ (100002f8 <spi_driver_init+0x48>)
100002f2:	e7e4      	b.n	100002be <spi_driver_init+0xe>
100002f4:	40080000 	.word	0x40080000
100002f8:	40088000 	.word	0x40088000

100002fc <spi_driver_cs_select>:
100002fc:	f04f 0300 	mov.w	r3, #0
10000300:	ec43 0040 	gpioc_bit_out_put r0, r3
10000304:	4770      	bx	lr
10000306:	bf00      	nop

10000308 <spi_driver_cs_deselect>:
10000308:	f04f 0301 	mov.w	r3, #1
1000030c:	ec43 0040 	gpioc_bit_out_put r0, r3
10000310:	4770      	bx	lr
10000312:	bf00      	nop

10000314 <spi_driver_transfer>:
10000314:	b910      	cbnz	r0, 1000031c <spi_driver_transfer+0x8>
10000316:	4803      	ldr	r0, [pc, #12]	@ (10000324 <spi_driver_transfer+0x10>)
10000318:	f003 ba2a 	b.w	10003770 <__spi_write_read_blocking_veneer>
1000031c:	4802      	ldr	r0, [pc, #8]	@ (10000328 <spi_driver_transfer+0x14>)
1000031e:	f003 ba27 	b.w	10003770 <__spi_write_read_blocking_veneer>
10000322:	bf00      	nop
10000324:	40080000 	.word	0x40080000
10000328:	40088000 	.word	0x40088000

1000032c <gpio_set_function>:
1000032c:	b410      	push	{r4}
1000032e:	f44f 7480 	mov.w	r4, #256	@ 0x100
10000332:	4b0c      	ldr	r3, [pc, #48]	@ (10000364 <gpio_set_function+0x38>)
10000334:	f853 2020 	ldr.w	r2, [r3, r0, lsl #2]
10000338:	eb03 0380 	add.w	r3, r3, r0, lsl #2
1000033c:	00c0      	lsls	r0, r0, #3
1000033e:	f082 0240 	eor.w	r2, r2, #64	@ 0x40
10000342:	f100 4080 	add.w	r0, r0, #1073741824	@ 0x40000000
10000346:	f503 5c80 	add.w	ip, r3, #4096	@ 0x1000
1000034a:	f002 02c0 	and.w	r2, r2, #192	@ 0xc0
1000034e:	f500 3020 	add.w	r0, r0, #163840	@ 0x28000
10000352:	f503 5340 	add.w	r3, r3, #12288	@ 0x3000
10000356:	f8cc 2000 	str.w	r2, [ip]
1000035a:	6041      	str	r1, [r0, #4]
1000035c:	601c      	str	r4, [r3, #0]
1000035e:	f85d 4b04 	ldr.w	r4, [sp], #4
10000362:	4770      	bx	lr
10000364:	40038004 	.word	0x40038004

10000368 <gpio_init>:
10000368:	b430      	push	{r4, r5}
1000036a:	f04f 0300 	mov.w	r3, #0
1000036e:	ec43 0044 	gpioc_bit_oe_put r0, r3
10000372:	ec43 0040 	gpioc_bit_out_put r0, r3
10000376:	2505      	movs	r5, #5
10000378:	f44f 7480 	mov.w	r4, #256	@ 0x100
1000037c:	4b0b      	ldr	r3, [pc, #44]	@ (100003ac <gpio_init+0x44>)
1000037e:	00c2      	lsls	r2, r0, #3
10000380:	f853 1020 	ldr.w	r1, [r3, r0, lsl #2]
10000384:	eb03 0080 	add.w	r0, r3, r0, lsl #2
10000388:	f081 0140 	eor.w	r1, r1, #64	@ 0x40
1000038c:	f102 4380 	add.w	r3, r2, #1073741824	@ 0x40000000
10000390:	f503 3320 	add.w	r3, r3, #163840	@ 0x28000
10000394:	f001 02c0 	and.w	r2, r1, #192	@ 0xc0
10000398:	f500 5180 	add.w	r1, r0, #4096	@ 0x1000
1000039c:	f500 5040 	add.w	r0, r0, #12288	@ 0x3000
100003a0:	600a      	str	r2, [r1, #0]
100003a2:	605d      	str	r5, [r3, #4]
100003a4:	6004      	str	r4, [r0, #0]
100003a6:	bc30      	pop	{r4, r5}
100003a8:	4770      	bx	lr
100003aa:	bf00      	nop
100003ac:	40038004 	.word	0x40038004

100003b0 <panic>:
100003b0:	b40f      	push	{r0, r1, r2, r3}
100003b2:	b500      	push	{lr}
100003b4:	b083      	sub	sp, #12
100003b6:	9c04      	ldr	r4, [sp, #16]
100003b8:	4807      	ldr	r0, [pc, #28]	@ (100003d8 <panic+0x28>)
100003ba:	f002 ff27 	bl	1000320c <__wrap_puts>
100003be:	b13c      	cbz	r4, 100003d0 <panic+0x20>
100003c0:	a905      	add	r1, sp, #20
100003c2:	4620      	mov	r0, r4
100003c4:	9101      	str	r1, [sp, #4]
100003c6:	f002 fd93 	bl	10002ef0 <weak_raw_vprintf>
100003ca:	4804      	ldr	r0, [pc, #16]	@ (100003dc <panic+0x2c>)
100003cc:	f002 ff1e 	bl	1000320c <__wrap_puts>
100003d0:	2001      	movs	r0, #1
100003d2:	f002 fda5 	bl	10002f20 <_exit>
100003d6:	bf00      	nop
100003d8:	100037f0 	.word	0x100037f0
100003dc:	10003800 	.word	0x10003800

100003e0 <hw_claim_or_assert>:
100003e0:	b570      	push	{r4, r5, r6, lr}
100003e2:	4686      	mov	lr, r0
100003e4:	f3ef 8510 	mrs	r5, PRIMASK
100003e8:	b672      	cpsid	i
100003ea:	4c12      	ldr	r4, [pc, #72]	@ (10000434 <hw_claim_or_assert+0x54>)
100003ec:	e8d4 6fcf 	ldaexb	r6, [r4]
100003f0:	2001      	movs	r0, #1
100003f2:	2e00      	cmp	r6, #0
100003f4:	d1fa      	bne.n	100003ec <hw_claim_or_assert+0xc>
100003f6:	e8c4 0f46 	strexb	r6, r0, [r4]
100003fa:	2e00      	cmp	r6, #0
100003fc:	d1f6      	bne.n	100003ec <hw_claim_or_assert+0xc>
100003fe:	f3bf 8f5f 	dmb	sy
10000402:	f04f 0c01 	mov.w	ip, #1
10000406:	08c8      	lsrs	r0, r1, #3
10000408:	f001 0307 	and.w	r3, r1, #7
1000040c:	fa0c f303 	lsl.w	r3, ip, r3
10000410:	f81e c000 	ldrb.w	ip, [lr, r0]
10000414:	ea1c 0603 	ands.w	r6, ip, r3
10000418:	d108      	bne.n	1000042c <hw_claim_or_assert+0x4c>
1000041a:	ea4c 0c03 	orr.w	ip, ip, r3
1000041e:	f80e c000 	strb.w	ip, [lr, r0]
10000422:	e8c4 6f8f 	stlb	r6, [r4]
10000426:	f385 8810 	msr	PRIMASK, r5
1000042a:	bd70      	pop	{r4, r5, r6, pc}
1000042c:	4610      	mov	r0, r2
1000042e:	f7ff ffbf 	bl	100003b0 <panic>
10000432:	bf00      	nop
10000434:	2000084b 	.word	0x2000084b

10000438 <next_striped_spin_lock_num>:
10000438:	4a04      	ldr	r2, [pc, #16]	@ (1000044c <next_striped_spin_lock_num+0x14>)
1000043a:	7810      	ldrb	r0, [r2, #0]
1000043c:	1c43      	adds	r3, r0, #1
1000043e:	b2db      	uxtb	r3, r3
10000440:	2b18      	cmp	r3, #24
10000442:	bf28      	it	cs
10000444:	2310      	movcs	r3, #16
10000446:	7013      	strb	r3, [r2, #0]
10000448:	4770      	bx	lr
1000044a:	bf00      	nop
1000044c:	20000638 	.word	0x20000638

10000450 <spinlock_set_extexclall>:
10000450:	f04f 22e0 	mov.w	r2, #3758153728	@ 0xe000e000
10000454:	6893      	ldr	r3, [r2, #8]
10000456:	f043 5300 	orr.w	r3, r3, #536870912	@ 0x20000000
1000045a:	6093      	str	r3, [r2, #8]
1000045c:	4770      	bx	lr
1000045e:	bf00      	nop

10000460 <spin_locks_reset>:
10000460:	2100      	movs	r1, #0
10000462:	4b04      	ldr	r3, [pc, #16]	@ (10000474 <spin_locks_reset+0x14>)
10000464:	f103 0220 	add.w	r2, r3, #32
10000468:	e8c3 1f8f 	stlb	r1, [r3]
1000046c:	3301      	adds	r3, #1
1000046e:	4293      	cmp	r3, r2
10000470:	d1fa      	bne.n	10000468 <spin_locks_reset+0x8>
10000472:	4770      	bx	lr
10000474:	20000840 	.word	0x20000840

10000478 <runtime_init_per_core_irq_priorities>:
10000478:	f04f 23e0 	mov.w	r3, #3758153728	@ 0xe000e000
1000047c:	f04f 3280 	mov.w	r2, #2155905152	@ 0x80808080
10000480:	f8c3 2400 	str.w	r2, [r3, #1024]	@ 0x400
10000484:	f8c3 2404 	str.w	r2, [r3, #1028]	@ 0x404
10000488:	f8c3 2408 	str.w	r2, [r3, #1032]	@ 0x408
1000048c:	f8c3 240c 	str.w	r2, [r3, #1036]	@ 0x40c
10000490:	f8c3 2410 	str.w	r2, [r3, #1040]	@ 0x410
10000494:	f8c3 2414 	str.w	r2, [r3, #1044]	@ 0x414
10000498:	f8c3 2418 	str.w	r2, [r3, #1048]	@ 0x418
1000049c:	f8c3 241c 	str.w	r2, [r3, #1052]	@ 0x41c
100004a0:	f8c3 2420 	str.w	r2, [r3, #1056]	@ 0x420
100004a4:	f8c3 2424 	str.w	r2, [r3, #1060]	@ 0x424
100004a8:	f8c3 2428 	str.w	r2, [r3, #1064]	@ 0x428
100004ac:	f8c3 242c 	str.w	r2, [r3, #1068]	@ 0x42c
100004b0:	f8c3 2430 	str.w	r2, [r3, #1072]	@ 0x430
100004b4:	b662      	cpsie	i
100004b6:	4770      	bx	lr

100004b8 <irq_set_enabled>:
100004b8:	2301      	movs	r3, #1
100004ba:	f000 021f 	and.w	r2, r0, #31
100004be:	4093      	lsls	r3, r2
100004c0:	0940      	lsrs	r0, r0, #5
100004c2:	b141      	cbz	r1, 100004d6 <irq_set_enabled+0x1e>
100004c4:	0080      	lsls	r0, r0, #2
100004c6:	f100 4060 	add.w	r0, r0, #3758096384	@ 0xe0000000
100004ca:	f500 4061 	add.w	r0, r0, #57600	@ 0xe100
100004ce:	f8c0 3180 	str.w	r3, [r0, #384]	@ 0x180
100004d2:	6003      	str	r3, [r0, #0]
100004d4:	4770      	bx	lr
100004d6:	4a02      	ldr	r2, [pc, #8]	@ (100004e0 <irq_set_enabled+0x28>)
100004d8:	3020      	adds	r0, #32
100004da:	f842 3020 	str.w	r3, [r2, r0, lsl #2]
100004de:	4770      	bx	lr
100004e0:	e000e100 	.word	0xe000e100

100004e4 <irq_set_exclusive_handler>:
100004e4:	b5f8      	push	{r3, r4, r5, r6, r7, lr}
100004e6:	460d      	mov	r5, r1
100004e8:	f3ef 8710 	mrs	r7, PRIMASK
100004ec:	b672      	cpsid	i
100004ee:	4e12      	ldr	r6, [pc, #72]	@ (10000538 <irq_set_exclusive_handler+0x54>)
100004f0:	e8d6 2fcf 	ldaexb	r2, [r6]
100004f4:	2301      	movs	r3, #1
100004f6:	2a00      	cmp	r2, #0
100004f8:	d1fa      	bne.n	100004f0 <irq_set_exclusive_handler+0xc>
100004fa:	e8c6 3f42 	strexb	r2, r3, [r6]
100004fe:	2a00      	cmp	r2, #0
10000500:	d1f6      	bne.n	100004f0 <irq_set_exclusive_handler+0xc>
10000502:	f3bf 8f5f 	dmb	sy
10000506:	4b0d      	ldr	r3, [pc, #52]	@ (1000053c <irq_set_exclusive_handler+0x58>)
10000508:	f100 0410 	add.w	r4, r0, #16
1000050c:	689b      	ldr	r3, [r3, #8]
1000050e:	4a0c      	ldr	r2, [pc, #48]	@ (10000540 <irq_set_exclusive_handler+0x5c>)
10000510:	f853 3024 	ldr.w	r3, [r3, r4, lsl #2]
10000514:	4293      	cmp	r3, r2
10000516:	d003      	beq.n	10000520 <irq_set_exclusive_handler+0x3c>
10000518:	4299      	cmp	r1, r3
1000051a:	d001      	beq.n	10000520 <irq_set_exclusive_handler+0x3c>
1000051c:	f000 ff0c 	bl	10001338 <hard_assertion_failure>
10000520:	4b06      	ldr	r3, [pc, #24]	@ (1000053c <irq_set_exclusive_handler+0x58>)
10000522:	689b      	ldr	r3, [r3, #8]
10000524:	f843 5024 	str.w	r5, [r3, r4, lsl #2]
10000528:	f3bf 8f5f 	dmb	sy
1000052c:	2300      	movs	r3, #0
1000052e:	e8c6 3f8f 	stlb	r3, [r6]
10000532:	f387 8810 	msr	PRIMASK, r7
10000536:	bdf8      	pop	{r3, r4, r5, r6, r7, pc}
10000538:	20000849 	.word	0x20000849
1000053c:	e000ed00 	.word	0xe000ed00
10000540:	10000111 	.word	0x10000111

10000544 <irq_remove_handler>:
10000544:	e92d 4ff0 	stmdb	sp!, {r4, r5, r6, r7, r8, r9, sl, fp, lr}
10000548:	b083      	sub	sp, #12
1000054a:	f3ef 8a10 	mrs	sl, PRIMASK
1000054e:	b672      	cpsid	i
10000550:	4e71      	ldr	r6, [pc, #452]	@ (10000718 <irq_remove_handler+0x1d4>)
10000552:	e8d6 2fcf 	ldaexb	r2, [r6]
10000556:	2301      	movs	r3, #1
10000558:	2a00      	cmp	r2, #0
1000055a:	d1fa      	bne.n	10000552 <irq_remove_handler+0xe>
1000055c:	e8c6 3f42 	strexb	r2, r3, [r6]
10000560:	2a00      	cmp	r2, #0
10000562:	d1f6      	bne.n	10000552 <irq_remove_handler+0xe>
10000564:	f3bf 8f5f 	dmb	sy
10000568:	4b6c      	ldr	r3, [pc, #432]	@ (1000071c <irq_remove_handler+0x1d8>)
1000056a:	f100 0810 	add.w	r8, r0, #16
1000056e:	689b      	ldr	r3, [r3, #8]
10000570:	4a6b      	ldr	r2, [pc, #428]	@ (10000720 <irq_remove_handler+0x1dc>)
10000572:	f853 5028 	ldr.w	r5, [r3, r8, lsl #2]
10000576:	4295      	cmp	r5, r2
10000578:	d045      	beq.n	10000606 <irq_remove_handler+0xc2>
1000057a:	428d      	cmp	r5, r1
1000057c:	460c      	mov	r4, r1
1000057e:	d050      	beq.n	10000622 <irq_remove_handler+0xde>
10000580:	4f68      	ldr	r7, [pc, #416]	@ (10000724 <irq_remove_handler+0x1e0>)
10000582:	1beb      	subs	r3, r5, r7
10000584:	2b2f      	cmp	r3, #47	@ 0x2f
10000586:	d83e      	bhi.n	10000606 <irq_remove_handler+0xc2>
10000588:	2101      	movs	r1, #1
1000058a:	ea4f 1950 	mov.w	r9, r0, lsr #5
1000058e:	ea4f 0989 	mov.w	r9, r9, lsl #2
10000592:	f109 4960 	add.w	r9, r9, #3758096384	@ 0xe0000000
10000596:	f509 4961 	add.w	r9, r9, #57600	@ 0xe100
1000059a:	f000 031f 	and.w	r3, r0, #31
1000059e:	fa01 f003 	lsl.w	r0, r1, r3
100005a2:	f8d9 3000 	ldr.w	r3, [r9]
100005a6:	f8c9 0080 	str.w	r0, [r9, #128]	@ 0x80
100005aa:	ea00 0b03 	and.w	fp, r0, r3
100005ae:	f3bf 8f5f 	dmb	sy
100005b2:	f3ef 8105 	mrs	r1, IPSR
100005b6:	b2c9      	uxtb	r1, r1
100005b8:	2900      	cmp	r1, #0
100005ba:	d034      	beq.n	10000626 <irq_remove_handler+0xe2>
100005bc:	4588      	cmp	r8, r1
100005be:	d005      	beq.n	100005cc <irq_remove_handler+0x88>
100005c0:	e9cd 1000 	strd	r1, r0, [sp]
100005c4:	f000 feb8 	bl	10001338 <hard_assertion_failure>
100005c8:	e9dd 1000 	ldrd	r1, r0, [sp]
100005cc:	f025 0e01 	bic.w	lr, r5, #1
100005d0:	f8de c008 	ldr.w	ip, [lr, #8]
100005d4:	4564      	cmp	r4, ip
100005d6:	d105      	bne.n	100005e4 <irq_remove_handler+0xa0>
100005d8:	e089      	b.n	100006ee <irq_remove_handler+0x1aa>
100005da:	f8d3 c008 	ldr.w	ip, [r3, #8]
100005de:	4564      	cmp	r4, ip
100005e0:	d031      	beq.n	10000646 <irq_remove_handler+0x102>
100005e2:	469e      	mov	lr, r3
100005e4:	f99e 2006 	ldrsb.w	r2, [lr, #6]
100005e8:	eb02 0342 	add.w	r3, r2, r2, lsl #1
100005ec:	2a00      	cmp	r2, #0
100005ee:	eb07 0383 	add.w	r3, r7, r3, lsl #2
100005f2:	daf2      	bge.n	100005da <irq_remove_handler+0x96>
100005f4:	4564      	cmp	r4, ip
100005f6:	d061      	beq.n	100006bc <irq_remove_handler+0x178>
100005f8:	f1bb 0f00 	cmp.w	fp, #0
100005fc:	d020      	beq.n	10000640 <irq_remove_handler+0xfc>
100005fe:	f8c9 0180 	str.w	r0, [r9, #384]	@ 0x180
10000602:	f8c9 0000 	str.w	r0, [r9]
10000606:	4b45      	ldr	r3, [pc, #276]	@ (1000071c <irq_remove_handler+0x1d8>)
10000608:	689b      	ldr	r3, [r3, #8]
1000060a:	f843 5028 	str.w	r5, [r3, r8, lsl #2]
1000060e:	f3bf 8f5f 	dmb	sy
10000612:	2300      	movs	r3, #0
10000614:	e8c6 3f8f 	stlb	r3, [r6]
10000618:	f38a 8810 	msr	PRIMASK, sl
1000061c:	b003      	add	sp, #12
1000061e:	e8bd 8ff0 	ldmia.w	sp!, {r4, r5, r6, r7, r8, r9, sl, fp, pc}
10000622:	4615      	mov	r5, r2
10000624:	e7ef      	b.n	10000606 <irq_remove_handler+0xc2>
10000626:	f025 0e01 	bic.w	lr, r5, #1
1000062a:	f8de c008 	ldr.w	ip, [lr, #8]
1000062e:	4564      	cmp	r4, ip
10000630:	d1d8      	bne.n	100005e4 <irq_remove_handler+0xa0>
10000632:	f99e 4006 	ldrsb.w	r4, [lr, #6]
10000636:	4673      	mov	r3, lr
10000638:	2c00      	cmp	r4, #0
1000063a:	da08      	bge.n	1000064e <irq_remove_handler+0x10a>
1000063c:	4615      	mov	r5, r2
1000063e:	e046      	b.n	100006ce <irq_remove_handler+0x18a>
10000640:	f8c9 0080 	str.w	r0, [r9, #128]	@ 0x80
10000644:	e7df      	b.n	10000606 <irq_remove_handler+0xc2>
10000646:	f993 4006 	ldrsb.w	r4, [r3, #6]
1000064a:	2c00      	cmp	r4, #0
1000064c:	db37      	blt.n	100006be <irq_remove_handler+0x17a>
1000064e:	eb04 0c44 	add.w	ip, r4, r4, lsl #1
10000652:	eb07 0c8c 	add.w	ip, r7, ip, lsl #2
10000656:	f89c 1007 	ldrb.w	r1, [ip, #7]
1000065a:	f8dc 2008 	ldr.w	r2, [ip, #8]
1000065e:	71d9      	strb	r1, [r3, #7]
10000660:	609a      	str	r2, [r3, #8]
10000662:	f99c 2006 	ldrsb.w	r2, [ip, #6]
10000666:	0061      	lsls	r1, r4, #1
10000668:	2a00      	cmp	r2, #0
1000066a:	719a      	strb	r2, [r3, #6]
1000066c:	db3d      	blt.n	100006ea <irq_remove_handler+0x1a6>
1000066e:	f8bc e004 	ldrh.w	lr, [ip, #4]
10000672:	ea5f 5e4e 	movs.w	lr, lr, lsl #21
10000676:	d505      	bpl.n	10000684 <irq_remove_handler+0x140>
10000678:	f50e 1eff 	add.w	lr, lr, #2088960	@ 0x1fe000
1000067c:	f50e 5eff 	add.w	lr, lr, #8160	@ 0x1fe0
10000680:	f10e 0e1f 	add.w	lr, lr, #31
10000684:	f06f 0c07 	mvn.w	ip, #7
10000688:	190a      	adds	r2, r1, r4
1000068a:	ea4f 5e6e 	mov.w	lr, lr, asr #21
1000068e:	0092      	lsls	r2, r2, #2
10000690:	eb02 024e 	add.w	r2, r2, lr, lsl #1
10000694:	3208      	adds	r2, #8
10000696:	443a      	add	r2, r7
10000698:	ebac 0c03 	sub.w	ip, ip, r3
1000069c:	4462      	add	r2, ip
1000069e:	f3c2 024a 	ubfx	r2, r2, #1, #11
100006a2:	ea6f 42c2 	mvn.w	r2, r2, lsl #19
100006a6:	ea6f 42d2 	mvn.w	r2, r2, lsr #19
100006aa:	809a      	strh	r2, [r3, #4]
100006ac:	4b1e      	ldr	r3, [pc, #120]	@ (10000728 <irq_remove_handler+0x1e4>)
100006ae:	4421      	add	r1, r4
100006b0:	781a      	ldrb	r2, [r3, #0]
100006b2:	eb07 0181 	add.w	r1, r7, r1, lsl #2
100006b6:	701c      	strb	r4, [r3, #0]
100006b8:	718a      	strb	r2, [r1, #6]
100006ba:	e79d      	b.n	100005f8 <irq_remove_handler+0xb4>
100006bc:	4673      	mov	r3, lr
100006be:	b9d9      	cbnz	r1, 100006f8 <irq_remove_handler+0x1b4>
100006c0:	22ff      	movs	r2, #255	@ 0xff
100006c2:	f88e 2006 	strb.w	r2, [lr, #6]
100006c6:	f64b 5201 	movw	r2, #48385	@ 0xbd01
100006ca:	f8ae 2004 	strh.w	r2, [lr, #4]
100006ce:	4c16      	ldr	r4, [pc, #88]	@ (10000728 <irq_remove_handler+0x1e4>)
100006d0:	f64a 22aa 	movw	r2, #43690	@ 0xaaaa
100006d4:	f894 c000 	ldrb.w	ip, [r4]
100006d8:	4619      	mov	r1, r3
100006da:	1bc9      	subs	r1, r1, r7
100006dc:	4149      	adcs	r1, r1
100006de:	434a      	muls	r2, r1
100006e0:	0d12      	lsrs	r2, r2, #20
100006e2:	f883 c006 	strb.w	ip, [r3, #6]
100006e6:	7022      	strb	r2, [r4, #0]
100006e8:	e786      	b.n	100005f8 <irq_remove_handler+0xb4>
100006ea:	4a10      	ldr	r2, [pc, #64]	@ (1000072c <irq_remove_handler+0x1e8>)
100006ec:	e7dd      	b.n	100006aa <irq_remove_handler+0x166>
100006ee:	f99e 4006 	ldrsb.w	r4, [lr, #6]
100006f2:	4673      	mov	r3, lr
100006f4:	2c00      	cmp	r4, #0
100006f6:	daaa      	bge.n	1000064e <irq_remove_handler+0x10a>
100006f8:	4a0d      	ldr	r2, [pc, #52]	@ (10000730 <irq_remove_handler+0x1ec>)
100006fa:	4c0e      	ldr	r4, [pc, #56]	@ (10000734 <irq_remove_handler+0x1f0>)
100006fc:	1ad2      	subs	r2, r2, r3
100006fe:	3a08      	subs	r2, #8
10000700:	f3c2 310a 	ubfx	r1, r2, #12, #11
10000704:	ea6f 5101 	mvn.w	r1, r1, lsl #20
10000708:	ea6f 5111 	mvn.w	r1, r1, lsr #20
1000070c:	ea44 0252 	orr.w	r2, r4, r2, lsr #1
10000710:	80da      	strh	r2, [r3, #6]
10000712:	8099      	strh	r1, [r3, #4]
10000714:	e770      	b.n	100005f8 <irq_remove_handler+0xb4>
10000716:	bf00      	nop
10000718:	20000849 	.word	0x20000849
1000071c:	e000ed00 	.word	0xe000ed00
10000720:	10000111 	.word	0x10000111
10000724:	2000063c 	.word	0x2000063c
10000728:	200008e4 	.word	0x200008e4
1000072c:	ffffbd01 	.word	0xffffbd01
10000730:	20000676 	.word	0x20000676
10000734:	fffff800 	.word	0xfffff800

10000738 <irq_add_tail_to_free_list>:
10000738:	b5f0      	push	{r4, r5, r6, r7, lr}
1000073a:	f3ef 8505 	mrs	r5, IPSR
1000073e:	b2ed      	uxtb	r5, r5
10000740:	f3ef 8c10 	mrs	ip, PRIMASK
10000744:	b672      	cpsid	i
10000746:	4926      	ldr	r1, [pc, #152]	@ (100007e0 <irq_add_tail_to_free_list+0xa8>)
10000748:	e8d1 2fcf 	ldaexb	r2, [r1]
1000074c:	2301      	movs	r3, #1
1000074e:	2a00      	cmp	r2, #0
10000750:	d1fa      	bne.n	10000748 <irq_add_tail_to_free_list+0x10>
10000752:	e8c1 3f42 	strexb	r2, r3, [r1]
10000756:	2a00      	cmp	r2, #0
10000758:	d1f6      	bne.n	10000748 <irq_add_tail_to_free_list+0x10>
1000075a:	f3bf 8f5f 	dmb	sy
1000075e:	4e21      	ldr	r6, [pc, #132]	@ (100007e4 <irq_add_tail_to_free_list+0xac>)
10000760:	f040 0e01 	orr.w	lr, r0, #1
10000764:	68b4      	ldr	r4, [r6, #8]
10000766:	f64a 23aa 	movw	r3, #43690	@ 0xaaaa
1000076a:	f854 7025 	ldr.w	r7, [r4, r5, lsl #2]
1000076e:	4a1e      	ldr	r2, [pc, #120]	@ (100007e8 <irq_add_tail_to_free_list+0xb0>)
10000770:	4604      	mov	r4, r0
10000772:	1aa4      	subs	r4, r4, r2
10000774:	4164      	adcs	r4, r4
10000776:	4363      	muls	r3, r4
10000778:	0d1b      	lsrs	r3, r3, #20
1000077a:	4577      	cmp	r7, lr
1000077c:	b25b      	sxtb	r3, r3
1000077e:	d01b      	beq.n	100007b8 <irq_add_tail_to_free_list+0x80>
10000780:	f992 4006 	ldrsb.w	r4, [r2, #6]
10000784:	429c      	cmp	r4, r3
10000786:	d01c      	beq.n	100007c2 <irq_add_tail_to_free_list+0x8a>
10000788:	f992 4012 	ldrsb.w	r4, [r2, #18]
1000078c:	429c      	cmp	r4, r3
1000078e:	d023      	beq.n	100007d8 <irq_add_tail_to_free_list+0xa0>
10000790:	f992 401e 	ldrsb.w	r4, [r2, #30]
10000794:	429c      	cmp	r4, r3
10000796:	d021      	beq.n	100007dc <irq_add_tail_to_free_list+0xa4>
10000798:	f992 402a 	ldrsb.w	r4, [r2, #42]	@ 0x2a
1000079c:	429c      	cmp	r4, r3
1000079e:	bf08      	it	eq
100007a0:	2403      	moveq	r4, #3
100007a2:	d00f      	beq.n	100007c4 <irq_add_tail_to_free_list+0x8c>
100007a4:	4a11      	ldr	r2, [pc, #68]	@ (100007ec <irq_add_tail_to_free_list+0xb4>)
100007a6:	2400      	movs	r4, #0
100007a8:	7815      	ldrb	r5, [r2, #0]
100007aa:	7013      	strb	r3, [r2, #0]
100007ac:	7185      	strb	r5, [r0, #6]
100007ae:	e8c1 4f8f 	stlb	r4, [r1]
100007b2:	f38c 8810 	msr	PRIMASK, ip
100007b6:	bdf0      	pop	{r4, r5, r6, r7, pc}
100007b8:	68b2      	ldr	r2, [r6, #8]
100007ba:	4c0d      	ldr	r4, [pc, #52]	@ (100007f0 <irq_add_tail_to_free_list+0xb8>)
100007bc:	f842 4025 	str.w	r4, [r2, r5, lsl #2]
100007c0:	e7f0      	b.n	100007a4 <irq_add_tail_to_free_list+0x6c>
100007c2:	2400      	movs	r4, #0
100007c4:	eb04 0444 	add.w	r4, r4, r4, lsl #1
100007c8:	eb02 0284 	add.w	r2, r2, r4, lsl #2
100007cc:	24ff      	movs	r4, #255	@ 0xff
100007ce:	7194      	strb	r4, [r2, #6]
100007d0:	f64b 5401 	movw	r4, #48385	@ 0xbd01
100007d4:	8094      	strh	r4, [r2, #4]
100007d6:	e7e5      	b.n	100007a4 <irq_add_tail_to_free_list+0x6c>
100007d8:	2401      	movs	r4, #1
100007da:	e7f3      	b.n	100007c4 <irq_add_tail_to_free_list+0x8c>
100007dc:	2402      	movs	r4, #2
100007de:	e7f1      	b.n	100007c4 <irq_add_tail_to_free_list+0x8c>
100007e0:	20000849 	.word	0x20000849
100007e4:	e000ed00 	.word	0xe000ed00
100007e8:	2000063c 	.word	0x2000063c
100007ec:	200008e4 	.word	0x200008e4
100007f0:	10000111 	.word	0x10000111

100007f4 <lock_init>:
100007f4:	4b01      	ldr	r3, [pc, #4]	@ (100007fc <lock_init+0x8>)
100007f6:	440b      	add	r3, r1
100007f8:	6003      	str	r3, [r0, #0]
100007fa:	4770      	bx	lr
100007fc:	20000840 	.word	0x20000840

10000800 <runtime_init_mutex>:
10000800:	b570      	push	{r4, r5, r6, lr}
10000802:	4c10      	ldr	r4, [pc, #64]	@ (10000844 <runtime_init_mutex+0x44>)
10000804:	4d10      	ldr	r5, [pc, #64]	@ (10000848 <runtime_init_mutex+0x48>)
10000806:	42ac      	cmp	r4, r5
10000808:	d20e      	bcs.n	10000828 <runtime_init_mutex+0x28>
1000080a:	26ff      	movs	r6, #255	@ 0xff
1000080c:	6823      	ldr	r3, [r4, #0]
1000080e:	b163      	cbz	r3, 1000082a <runtime_init_mutex+0x2a>
10000810:	f7ff fe12 	bl	10000438 <next_striped_spin_lock_num>
10000814:	4601      	mov	r1, r0
10000816:	4620      	mov	r0, r4
10000818:	f7ff ffec 	bl	100007f4 <lock_init>
1000081c:	80a6      	strh	r6, [r4, #4]
1000081e:	f3bf 8f5f 	dmb	sy
10000822:	3408      	adds	r4, #8
10000824:	42ac      	cmp	r4, r5
10000826:	d3f1      	bcc.n	1000080c <runtime_init_mutex+0xc>
10000828:	bd70      	pop	{r4, r5, r6, pc}
1000082a:	f7ff fe05 	bl	10000438 <next_striped_spin_lock_num>
1000082e:	4601      	mov	r1, r0
10000830:	4620      	mov	r0, r4
10000832:	f7ff ffdf 	bl	100007f4 <lock_init>
10000836:	7126      	strb	r6, [r4, #4]
10000838:	f3bf 8f5f 	dmb	sy
1000083c:	3408      	adds	r4, #8
1000083e:	42ac      	cmp	r4, r5
10000840:	d3e4      	bcc.n	1000080c <runtime_init_mutex+0xc>
10000842:	bd70      	pop	{r4, r5, r6, pc}
10000844:	200006b4 	.word	0x200006b4
10000848:	200006bc 	.word	0x200006bc

1000084c <sleep_until_callback>:
1000084c:	4b0d      	ldr	r3, [pc, #52]	@ (10000884 <sleep_until_callback+0x38>)
1000084e:	681a      	ldr	r2, [r3, #0]
10000850:	f3ef 8110 	mrs	r1, PRIMASK
10000854:	b672      	cpsid	i
10000856:	e8d2 cfcf 	ldaexb	ip, [r2]
1000085a:	2001      	movs	r0, #1
1000085c:	f1bc 0f00 	cmp.w	ip, #0
10000860:	d1f9      	bne.n	10000856 <sleep_until_callback+0xa>
10000862:	e8c2 0f4c 	strexb	ip, r0, [r2]
10000866:	f1bc 0f00 	cmp.w	ip, #0
1000086a:	d1f4      	bne.n	10000856 <sleep_until_callback+0xa>
1000086c:	f3bf 8f5f 	dmb	sy
10000870:	2200      	movs	r2, #0
10000872:	681b      	ldr	r3, [r3, #0]
10000874:	e8c3 2f8f 	stlb	r2, [r3]
10000878:	f381 8810 	msr	PRIMASK, r1
1000087c:	bf40      	sev
1000087e:	2000      	movs	r0, #0
10000880:	2100      	movs	r1, #0
10000882:	4770      	bx	lr
10000884:	200008d8 	.word	0x200008d8

10000888 <alarm_pool_irq_handler>:
10000888:	e92d 4ff0 	stmdb	sp!, {r4, r5, r6, r7, r8, r9, sl, fp, lr}
1000088c:	ed2d 8b02 	vpush	{d8}
10000890:	b085      	sub	sp, #20
10000892:	f3ef 8305 	mrs	r3, IPSR
10000896:	b2db      	uxtb	r3, r3
10000898:	3b10      	subs	r3, #16
1000089a:	089a      	lsrs	r2, r3, #2
1000089c:	bf18      	it	ne
1000089e:	2201      	movne	r2, #1
100008a0:	f04f 0101 	mov.w	r1, #1
100008a4:	f003 0b03 	and.w	fp, r3, #3
100008a8:	bf18      	it	ne
100008aa:	4daf      	ldrne	r5, [pc, #700]	@ (10000b68 <alarm_pool_irq_handler+0x2e0>)
100008ac:	4baf      	ldr	r3, [pc, #700]	@ (10000b6c <alarm_pool_irq_handler+0x2e4>)
100008ae:	bf08      	it	eq
100008b0:	4daf      	ldreq	r5, [pc, #700]	@ (10000b70 <alarm_pool_irq_handler+0x2e8>)
100008b2:	eb0b 0282 	add.w	r2, fp, r2, lsl #2
100008b6:	f853 6022 	ldr.w	r6, [r3, r2, lsl #2]
100008ba:	fa01 f20b 	lsl.w	r2, r1, fp
100008be:	f505 5341 	add.w	r3, r5, #12352	@ 0x3040
100008c2:	ed9f 8ba7 	vldr	d8, [pc, #668]	@ 10000b60 <alarm_pool_irq_handler+0x2d8>
100008c6:	9201      	str	r2, [sp, #4]
100008c8:	605a      	str	r2, [r3, #4]
100008ca:	e02f      	b.n	1000092c <alarm_pool_irq_handler+0xa4>
100008cc:	88b3      	ldrh	r3, [r6, #4]
100008ce:	041c      	lsls	r4, r3, #16
100008d0:	f140 8093 	bpl.w	100009fa <alarm_pool_irq_handler+0x172>
100008d4:	79b3      	ldrb	r3, [r6, #6]
100008d6:	2b00      	cmp	r3, #0
100008d8:	f040 80dd 	bne.w	10000a96 <alarm_pool_irq_handler+0x20e>
100008dc:	f9b6 2008 	ldrsh.w	r2, [r6, #8]
100008e0:	2a00      	cmp	r2, #0
100008e2:	f2c0 811e 	blt.w	10000b22 <alarm_pool_irq_handler+0x29a>
100008e6:	6973      	ldr	r3, [r6, #20]
100008e8:	eb02 0242 	add.w	r2, r2, r2, lsl #1
100008ec:	eb03 03c2 	add.w	r3, r3, r2, lsl #3
100008f0:	e9d3 4702 	ldrd	r4, r7, [r3, #8]
100008f4:	f1b7 3fff 	cmp.w	r7, #4294967295
100008f8:	bf08      	it	eq
100008fa:	f1b4 3fff 	cmpeq.w	r4, #4294967295
100008fe:	d00e      	beq.n	1000091e <alarm_pool_irq_handler+0x96>
10000900:	eb05 018b 	add.w	r1, r5, fp, lsl #2
10000904:	6aab      	ldr	r3, [r5, #40]	@ 0x28
10000906:	690a      	ldr	r2, [r1, #16]
10000908:	1ad2      	subs	r2, r2, r3
1000090a:	1ae3      	subs	r3, r4, r3
1000090c:	4293      	cmp	r3, r2
1000090e:	d305      	bcc.n	1000091c <alarm_pool_irq_handler+0x94>
10000910:	2301      	movs	r3, #1
10000912:	6a2a      	ldr	r2, [r5, #32]
10000914:	fa03 f30b 	lsl.w	r3, r3, fp
10000918:	4213      	tst	r3, r2
1000091a:	d100      	bne.n	1000091e <alarm_pool_irq_handler+0x96>
1000091c:	610c      	str	r4, [r1, #16]
1000091e:	4628      	mov	r0, r5
10000920:	f000 fb38 	bl	10000f94 <timer_time_us_64>
10000924:	42a0      	cmp	r0, r4
10000926:	41b9      	sbcs	r1, r7
10000928:	f2c0 80fb 	blt.w	10000b22 <alarm_pool_irq_handler+0x29a>
1000092c:	f9b6 3008 	ldrsh.w	r3, [r6, #8]
10000930:	9a01      	ldr	r2, [sp, #4]
10000932:	2b00      	cmp	r3, #0
10000934:	9300      	str	r3, [sp, #0]
10000936:	63ea      	str	r2, [r5, #60]	@ 0x3c
10000938:	dbc8      	blt.n	100008cc <alarm_pool_irq_handler+0x44>
1000093a:	f8d6 8014 	ldr.w	r8, [r6, #20]
1000093e:	eb03 0943 	add.w	r9, r3, r3, lsl #1
10000942:	4628      	mov	r0, r5
10000944:	eb08 07c9 	add.w	r7, r8, r9, lsl #3
10000948:	e9d7 4a02 	ldrd	r4, sl, [r7, #8]
1000094c:	f000 fb22 	bl	10000f94 <timer_time_us_64>
10000950:	42a0      	cmp	r0, r4
10000952:	eb71 010a 	sbcs.w	r1, r1, sl
10000956:	dbb9      	blt.n	100008cc <alarm_pool_irq_handler+0x44>
10000958:	f1ba 0f00 	cmp.w	sl, #0
1000095c:	f2c0 80c3 	blt.w	10000ae6 <alarm_pool_irq_handler+0x25e>
10000960:	e9d7 3104 	ldrd	r3, r1, [r7, #16]
10000964:	4a83      	ldr	r2, [pc, #524]	@ (10000b74 <alarm_pool_irq_handler+0x2ec>)
10000966:	4293      	cmp	r3, r2
10000968:	f000 80ed 	beq.w	10000b46 <alarm_pool_irq_handler+0x2be>
1000096c:	887a      	ldrh	r2, [r7, #2]
1000096e:	f9b6 0008 	ldrsh.w	r0, [r6, #8]
10000972:	b292      	uxth	r2, r2
10000974:	ea42 4000 	orr.w	r0, r2, r0, lsl #16
10000978:	4798      	blx	r3
1000097a:	4602      	mov	r2, r0
1000097c:	460b      	mov	r3, r1
1000097e:	ea52 0103 	orrs.w	r1, r2, r3
10000982:	f000 80b0 	beq.w	10000ae6 <alarm_pool_irq_handler+0x25e>
10000986:	2b00      	cmp	r3, #0
10000988:	f280 80d1 	bge.w	10000b2e <alarm_pool_irq_handler+0x2a6>
1000098c:	ebb4 0e02 	subs.w	lr, r4, r2
10000990:	eb6a 0a03 	sbc.w	sl, sl, r3
10000994:	f938 3039 	ldrsh.w	r3, [r8, r9, lsl #3]
10000998:	e9c7 ea02 	strd	lr, sl, [r7, #8]
1000099c:	2b00      	cmp	r3, #0
1000099e:	db95      	blt.n	100008cc <alarm_pool_irq_handler+0x44>
100009a0:	6971      	ldr	r1, [r6, #20]
100009a2:	eb03 0243 	add.w	r2, r3, r3, lsl #1
100009a6:	eb01 02c2 	add.w	r2, r1, r2, lsl #3
100009aa:	e9d2 7002 	ldrd	r7, r0, [r2, #8]
100009ae:	45be      	cmp	lr, r7
100009b0:	eb7a 0c00 	sbcs.w	ip, sl, r0
100009b4:	ea4f 0243 	mov.w	r2, r3, lsl #1
100009b8:	db88      	blt.n	100008cc <alarm_pool_irq_handler+0x44>
100009ba:	46b4      	mov	ip, r6
100009bc:	f82c 3f08 	strh.w	r3, [ip, #8]!
100009c0:	e006      	b.n	100009d0 <alarm_pool_irq_handler+0x148>
100009c2:	eb03 0043 	add.w	r0, r3, r3, lsl #1
100009c6:	eb01 00c0 	add.w	r0, r1, r0, lsl #3
100009ca:	005a      	lsls	r2, r3, #1
100009cc:	e9d0 7002 	ldrd	r7, r0, [r0, #8]
100009d0:	45be      	cmp	lr, r7
100009d2:	441a      	add	r2, r3
100009d4:	eb7a 0000 	sbcs.w	r0, sl, r0
100009d8:	eb01 04c2 	add.w	r4, r1, r2, lsl #3
100009dc:	db04      	blt.n	100009e8 <alarm_pool_irq_handler+0x160>
100009de:	f931 3032 	ldrsh.w	r3, [r1, r2, lsl #3]
100009e2:	46a4      	mov	ip, r4
100009e4:	2b00      	cmp	r3, #0
100009e6:	daec      	bge.n	100009c2 <alarm_pool_irq_handler+0x13a>
100009e8:	f828 3039 	strh.w	r3, [r8, r9, lsl #3]
100009ec:	9b00      	ldr	r3, [sp, #0]
100009ee:	f8ac 3000 	strh.w	r3, [ip]
100009f2:	88b3      	ldrh	r3, [r6, #4]
100009f4:	041c      	lsls	r4, r3, #16
100009f6:	f53f af6d 	bmi.w	100008d4 <alarm_pool_irq_handler+0x4c>
100009fa:	6933      	ldr	r3, [r6, #16]
100009fc:	f3ef 8210 	mrs	r2, PRIMASK
10000a00:	b672      	cpsid	i
10000a02:	e8d3 0fcf 	ldaexb	r0, [r3]
10000a06:	2101      	movs	r1, #1
10000a08:	2800      	cmp	r0, #0
10000a0a:	d1fa      	bne.n	10000a02 <alarm_pool_irq_handler+0x17a>
10000a0c:	e8c3 1f40 	strexb	r0, r1, [r3]
10000a10:	2800      	cmp	r0, #0
10000a12:	d1f6      	bne.n	10000a02 <alarm_pool_irq_handler+0x17a>
10000a14:	f3bf 8f5f 	dmb	sy
10000a18:	f64f 74ff 	movw	r4, #65535	@ 0xffff
10000a1c:	88b0      	ldrh	r0, [r6, #4]
10000a1e:	2300      	movs	r3, #0
10000a20:	6931      	ldr	r1, [r6, #16]
10000a22:	b200      	sxth	r0, r0
10000a24:	80b4      	strh	r4, [r6, #4]
10000a26:	e8c1 3f8f 	stlb	r3, [r1]
10000a2a:	f382 8810 	msr	PRIMASK, r2
10000a2e:	4298      	cmp	r0, r3
10000a30:	f6ff af50 	blt.w	100008d4 <alarm_pool_irq_handler+0x4c>
10000a34:	4607      	mov	r7, r0
10000a36:	46a9      	mov	r9, r5
10000a38:	6974      	ldr	r4, [r6, #20]
10000a3a:	f106 0808 	add.w	r8, r6, #8
10000a3e:	eb07 0e47 	add.w	lr, r7, r7, lsl #1
10000a42:	eb04 03ce 	add.w	r3, r4, lr, lsl #3
10000a46:	e9d3 5002 	ldrd	r5, r0, [r3, #8]
10000a4a:	f9b6 3008 	ldrsh.w	r3, [r6, #8]
10000a4e:	46c4      	mov	ip, r8
10000a50:	2b00      	cmp	r3, #0
10000a52:	db13      	blt.n	10000a7c <alarm_pool_irq_handler+0x1f4>
10000a54:	46b2      	mov	sl, r6
10000a56:	9700      	str	r7, [sp, #0]
10000a58:	e004      	b.n	10000a64 <alarm_pool_irq_handler+0x1dc>
10000a5a:	f934 3036 	ldrsh.w	r3, [r4, r6, lsl #3]
10000a5e:	4694      	mov	ip, r2
10000a60:	2b00      	cmp	r3, #0
10000a62:	db09      	blt.n	10000a78 <alarm_pool_irq_handler+0x1f0>
10000a64:	eb03 0643 	add.w	r6, r3, r3, lsl #1
10000a68:	eb04 02c6 	add.w	r2, r4, r6, lsl #3
10000a6c:	e9d2 7102 	ldrd	r7, r1, [r2, #8]
10000a70:	42bd      	cmp	r5, r7
10000a72:	eb70 0101 	sbcs.w	r1, r0, r1
10000a76:	daf0      	bge.n	10000a5a <alarm_pool_irq_handler+0x1d2>
10000a78:	4656      	mov	r6, sl
10000a7a:	9f00      	ldr	r7, [sp, #0]
10000a7c:	f8ac 7000 	strh.w	r7, [ip]
10000a80:	f934 703e 	ldrsh.w	r7, [r4, lr, lsl #3]
10000a84:	f824 303e 	strh.w	r3, [r4, lr, lsl #3]
10000a88:	2f00      	cmp	r7, #0
10000a8a:	dad8      	bge.n	10000a3e <alarm_pool_irq_handler+0x1b6>
10000a8c:	79b3      	ldrb	r3, [r6, #6]
10000a8e:	464d      	mov	r5, r9
10000a90:	2b00      	cmp	r3, #0
10000a92:	f43f af23 	beq.w	100008dc <alarm_pool_irq_handler+0x54>
10000a96:	2300      	movs	r3, #0
10000a98:	71b3      	strb	r3, [r6, #6]
10000a9a:	f9b6 3008 	ldrsh.w	r3, [r6, #8]
10000a9e:	f106 0808 	add.w	r8, r6, #8
10000aa2:	1c58      	adds	r0, r3, #1
10000aa4:	d03d      	beq.n	10000b22 <alarm_pool_irq_handler+0x29a>
10000aa6:	461a      	mov	r2, r3
10000aa8:	6977      	ldr	r7, [r6, #20]
10000aaa:	e003      	b.n	10000ab4 <alarm_pool_irq_handler+0x22c>
10000aac:	4680      	mov	r8, r0
10000aae:	1c59      	adds	r1, r3, #1
10000ab0:	f43f af16 	beq.w	100008e0 <alarm_pool_irq_handler+0x58>
10000ab4:	eb03 0143 	add.w	r1, r3, r3, lsl #1
10000ab8:	eb07 00c1 	add.w	r0, r7, r1, lsl #3
10000abc:	f8b0 c002 	ldrh.w	ip, [r0, #2]
10000ac0:	461c      	mov	r4, r3
10000ac2:	f41c 4f00 	tst.w	ip, #32768	@ 0x8000
10000ac6:	469e      	mov	lr, r3
10000ac8:	f937 3031 	ldrsh.w	r3, [r7, r1, lsl #3]
10000acc:	d0ee      	beq.n	10000aac <alarm_pool_irq_handler+0x224>
10000ace:	4294      	cmp	r4, r2
10000ad0:	ed80 8b02 	vstr	d8, [r0, #8]
10000ad4:	d005      	beq.n	10000ae2 <alarm_pool_irq_handler+0x25a>
10000ad6:	f8a8 3000 	strh.w	r3, [r8]
10000ada:	8932      	ldrh	r2, [r6, #8]
10000adc:	f827 2031 	strh.w	r2, [r7, r1, lsl #3]
10000ae0:	8134      	strh	r4, [r6, #8]
10000ae2:	4672      	mov	r2, lr
10000ae4:	e7e3      	b.n	10000aae <alarm_pool_irq_handler+0x226>
10000ae6:	f838 3039 	ldrh.w	r3, [r8, r9, lsl #3]
10000aea:	8133      	strh	r3, [r6, #8]
10000aec:	6933      	ldr	r3, [r6, #16]
10000aee:	f3ef 8210 	mrs	r2, PRIMASK
10000af2:	b672      	cpsid	i
10000af4:	e8d3 0fcf 	ldaexb	r0, [r3]
10000af8:	2101      	movs	r1, #1
10000afa:	2800      	cmp	r0, #0
10000afc:	d1fa      	bne.n	10000af4 <alarm_pool_irq_handler+0x26c>
10000afe:	e8c3 1f40 	strexb	r0, r1, [r3]
10000b02:	2800      	cmp	r0, #0
10000b04:	d1f6      	bne.n	10000af4 <alarm_pool_irq_handler+0x26c>
10000b06:	f3bf 8f5f 	dmb	sy
10000b0a:	8873      	ldrh	r3, [r6, #2]
10000b0c:	6931      	ldr	r1, [r6, #16]
10000b0e:	f828 3039 	strh.w	r3, [r8, r9, lsl #3]
10000b12:	9b00      	ldr	r3, [sp, #0]
10000b14:	8073      	strh	r3, [r6, #2]
10000b16:	2300      	movs	r3, #0
10000b18:	e8c1 3f8f 	stlb	r3, [r1]
10000b1c:	f382 8810 	msr	PRIMASK, r2
10000b20:	e6d4      	b.n	100008cc <alarm_pool_irq_handler+0x44>
10000b22:	bf40      	sev
10000b24:	b005      	add	sp, #20
10000b26:	ecbd 8b02 	vpop	{d8}
10000b2a:	e8bd 8ff0 	ldmia.w	sp!, {r4, r5, r6, r7, r8, r9, sl, fp, pc}
10000b2e:	4628      	mov	r0, r5
10000b30:	e9cd 2302 	strd	r2, r3, [sp, #8]
10000b34:	f000 fa2e 	bl	10000f94 <timer_time_us_64>
10000b38:	9a02      	ldr	r2, [sp, #8]
10000b3a:	9b03      	ldr	r3, [sp, #12]
10000b3c:	eb10 0e02 	adds.w	lr, r0, r2
10000b40:	eb43 0a01 	adc.w	sl, r3, r1
10000b44:	e726      	b.n	10000994 <alarm_pool_irq_handler+0x10c>
10000b46:	4608      	mov	r0, r1
10000b48:	690b      	ldr	r3, [r1, #16]
10000b4a:	9102      	str	r1, [sp, #8]
10000b4c:	4798      	blx	r3
10000b4e:	2800      	cmp	r0, #0
10000b50:	d0c9      	beq.n	10000ae6 <alarm_pool_irq_handler+0x25e>
10000b52:	9902      	ldr	r1, [sp, #8]
10000b54:	e9d1 2300 	ldrd	r2, r3, [r1]
10000b58:	e711      	b.n	1000097e <alarm_pool_irq_handler+0xf6>
10000b5a:	bf00      	nop
10000b5c:	f3af 8000 	nop.w
10000b60:	ffffffff 	.word	0xffffffff
10000b64:	ffffffff 	.word	0xffffffff
10000b68:	400b8000 	.word	0x400b8000
10000b6c:	200008b8 	.word	0x200008b8
10000b70:	400b0000 	.word	0x400b0000
10000b74:	10000889 	.word	0x10000889

10000b78 <runtime_init_default_alarm_pool>:
10000b78:	e92d 4ff8 	stmdb	sp!, {r3, r4, r5, r6, r7, r8, r9, sl, fp, lr}
10000b7c:	4c36      	ldr	r4, [pc, #216]	@ (10000c58 <runtime_init_default_alarm_pool+0xe0>)
10000b7e:	6925      	ldr	r5, [r4, #16]
10000b80:	b12d      	cbz	r5, 10000b8e <runtime_init_default_alarm_pool+0x16>
10000b82:	e8bd 4ff8 	ldmia.w	sp!, {r3, r4, r5, r6, r7, r8, r9, sl, fp, lr}
10000b86:	210a      	movs	r1, #10
10000b88:	4834      	ldr	r0, [pc, #208]	@ (10000c5c <runtime_init_default_alarm_pool+0xe4>)
10000b8a:	f7ff be33 	b.w	100007f4 <lock_init>
10000b8e:	f8df 80e4 	ldr.w	r8, [pc, #228]	@ 10000c74 <runtime_init_default_alarm_pool+0xfc>
10000b92:	2103      	movs	r1, #3
10000b94:	4640      	mov	r0, r8
10000b96:	f000 f9eb 	bl	10000f70 <timer_hardware_alarm_claim>
10000b9a:	2603      	movs	r6, #3
10000b9c:	f8c4 800c 	str.w	r8, [r4, #12]
10000ba0:	f7ff fc4a 	bl	10000438 <next_striped_spin_lock_num>
10000ba4:	f04f 4c50 	mov.w	ip, #3489660928	@ 0xd0000000
10000ba8:	4b2d      	ldr	r3, [pc, #180]	@ (10000c60 <runtime_init_default_alarm_pool+0xe8>)
10000baa:	7026      	strb	r6, [r4, #0]
10000bac:	4403      	add	r3, r0
10000bae:	6123      	str	r3, [r4, #16]
10000bb0:	f8dc 3000 	ldr.w	r3, [ip]
10000bb4:	210f      	movs	r1, #15
10000bb6:	7063      	strb	r3, [r4, #1]
10000bb8:	6963      	ldr	r3, [r4, #20]
10000bba:	8061      	strh	r1, [r4, #2]
10000bbc:	831d      	strh	r5, [r3, #24]
10000bbe:	f04f 0504 	mov.w	r5, #4
10000bc2:	f8a3 5078 	strh.w	r5, [r3, #120]	@ 0x78
10000bc6:	f04f 0505 	mov.w	r5, #5
10000bca:	f8a3 5090 	strh.w	r5, [r3, #144]	@ 0x90
10000bce:	f04f 0506 	mov.w	r5, #6
10000bd2:	f8a3 50a8 	strh.w	r5, [r3, #168]	@ 0xa8
10000bd6:	f04f 0507 	mov.w	r5, #7
10000bda:	210e      	movs	r1, #14
10000bdc:	f64f 72ff 	movw	r2, #65535	@ 0xffff
10000be0:	2708      	movs	r7, #8
10000be2:	f04f 0e0a 	mov.w	lr, #10
10000be6:	f8a3 50c0 	strh.w	r5, [r3, #192]	@ 0xc0
10000bea:	f04f 0901 	mov.w	r9, #1
10000bee:	f04f 0c0c 	mov.w	ip, #12
10000bf2:	f04f 0b02 	mov.w	fp, #2
10000bf6:	f04f 0a09 	mov.w	sl, #9
10000bfa:	200d      	movs	r0, #13
10000bfc:	f04f 050b 	mov.w	r5, #11
10000c00:	f8a3 1168 	strh.w	r1, [r3, #360]	@ 0x168
10000c04:	4917      	ldr	r1, [pc, #92]	@ (10000c64 <runtime_init_default_alarm_pool+0xec>)
10000c06:	80a2      	strh	r2, [r4, #4]
10000c08:	f8a3 e108 	strh.w	lr, [r3, #264]	@ 0x108
10000c0c:	60a1      	str	r1, [r4, #8]
10000c0e:	f8a3 b048 	strh.w	fp, [r3, #72]	@ 0x48
10000c12:	f8a3 a0f0 	strh.w	sl, [r3, #240]	@ 0xf0
10000c16:	f8a3 5120 	strh.w	r5, [r3, #288]	@ 0x120
10000c1a:	f8a3 c138 	strh.w	ip, [r3, #312]	@ 0x138
10000c1e:	f8a3 0150 	strh.w	r0, [r3, #336]	@ 0x150
10000c22:	f8a3 9030 	strh.w	r9, [r3, #48]	@ 0x30
10000c26:	f8a3 6060 	strh.w	r6, [r3, #96]	@ 0x60
10000c2a:	f8a3 70d8 	strh.w	r7, [r3, #216]	@ 0xd8
10000c2e:	801a      	strh	r2, [r3, #0]
10000c30:	4b0d      	ldr	r3, [pc, #52]	@ (10000c68 <runtime_init_default_alarm_pool+0xf0>)
10000c32:	4630      	mov	r0, r6
10000c34:	f8c8 7020 	str.w	r7, [r8, #32]
10000c38:	490c      	ldr	r1, [pc, #48]	@ (10000c6c <runtime_init_default_alarm_pool+0xf4>)
10000c3a:	60dc      	str	r4, [r3, #12]
10000c3c:	f7ff fc52 	bl	100004e4 <irq_set_exclusive_handler>
10000c40:	4649      	mov	r1, r9
10000c42:	4630      	mov	r0, r6
10000c44:	f7ff fc38 	bl	100004b8 <irq_set_enabled>
10000c48:	4b09      	ldr	r3, [pc, #36]	@ (10000c70 <runtime_init_default_alarm_pool+0xf8>)
10000c4a:	210a      	movs	r1, #10
10000c4c:	641f      	str	r7, [r3, #64]	@ 0x40
10000c4e:	4803      	ldr	r0, [pc, #12]	@ (10000c5c <runtime_init_default_alarm_pool+0xe4>)
10000c50:	e8bd 4ff8 	ldmia.w	sp!, {r3, r4, r5, r6, r7, r8, r9, sl, fp, lr}
10000c54:	f7ff bdce 	b.w	100007f4 <lock_init>
10000c58:	20000684 	.word	0x20000684
10000c5c:	200008d8 	.word	0x200008d8
10000c60:	20000840 	.word	0x20000840
10000c64:	0010ffff 	.word	0x0010ffff
10000c68:	200008b8 	.word	0x200008b8
10000c6c:	10000889 	.word	0x10000889
10000c70:	400b2000 	.word	0x400b2000
10000c74:	400b0000 	.word	0x400b0000

10000c78 <alarm_pool_add_alarm_at_force_in_context>:
10000c78:	4601      	mov	r1, r0
10000c7a:	b5f0      	push	{r4, r5, r6, r7, lr}
10000c7c:	6900      	ldr	r0, [r0, #16]
10000c7e:	f3ef 8710 	mrs	r7, PRIMASK
10000c82:	b672      	cpsid	i
10000c84:	e8d0 5fcf 	ldaexb	r5, [r0]
10000c88:	2401      	movs	r4, #1
10000c8a:	2d00      	cmp	r5, #0
10000c8c:	d1fa      	bne.n	10000c84 <alarm_pool_add_alarm_at_force_in_context+0xc>
10000c8e:	e8c0 4f45 	strexb	r5, r4, [r0]
10000c92:	2d00      	cmp	r5, #0
10000c94:	d1f6      	bne.n	10000c84 <alarm_pool_add_alarm_at_force_in_context+0xc>
10000c96:	f3bf 8f5f 	dmb	sy
10000c9a:	f9b1 e002 	ldrsh.w	lr, [r1, #2]
10000c9e:	694c      	ldr	r4, [r1, #20]
10000ca0:	eb0e 0c4e 	add.w	ip, lr, lr, lsl #1
10000ca4:	f1be 0f00 	cmp.w	lr, #0
10000ca8:	ea4f 05cc 	mov.w	r5, ip, lsl #3
10000cac:	6908      	ldr	r0, [r1, #16]
10000cae:	eb04 0ccc 	add.w	ip, r4, ip, lsl #3
10000cb2:	db3c      	blt.n	10000d2e <alarm_pool_add_alarm_at_force_in_context+0xb6>
10000cb4:	5b66      	ldrh	r6, [r4, r5]
10000cb6:	804e      	strh	r6, [r1, #2]
10000cb8:	2600      	movs	r6, #0
10000cba:	e8c0 6f8f 	stlb	r6, [r0]
10000cbe:	f387 8810 	msr	PRIMASK, r7
10000cc2:	f8bc 0002 	ldrh.w	r0, [ip, #2]
10000cc6:	e9cc 2302 	strd	r2, r3, [ip, #8]
10000cca:	3001      	adds	r0, #1
10000ccc:	f3c0 000e 	ubfx	r0, r0, #0, #15
10000cd0:	2801      	cmp	r0, #1
10000cd2:	bf38      	it	cc
10000cd4:	2001      	movcc	r0, #1
10000cd6:	9b05      	ldr	r3, [sp, #20]
10000cd8:	f8ac 0002 	strh.w	r0, [ip, #2]
10000cdc:	f8cc 3010 	str.w	r3, [ip, #16]
10000ce0:	9b06      	ldr	r3, [sp, #24]
10000ce2:	ea40 400e 	orr.w	r0, r0, lr, lsl #16
10000ce6:	f8cc 3014 	str.w	r3, [ip, #20]
10000cea:	690b      	ldr	r3, [r1, #16]
10000cec:	f3ef 8210 	mrs	r2, PRIMASK
10000cf0:	b672      	cpsid	i
10000cf2:	e8d3 cfcf 	ldaexb	ip, [r3]
10000cf6:	2701      	movs	r7, #1
10000cf8:	f1bc 0f00 	cmp.w	ip, #0
10000cfc:	d1f9      	bne.n	10000cf2 <alarm_pool_add_alarm_at_force_in_context+0x7a>
10000cfe:	e8c3 7f4c 	strexb	ip, r7, [r3]
10000d02:	f1bc 0f00 	cmp.w	ip, #0
10000d06:	d1f4      	bne.n	10000cf2 <alarm_pool_add_alarm_at_force_in_context+0x7a>
10000d08:	f3bf 8f5f 	dmb	sy
10000d0c:	888b      	ldrh	r3, [r1, #4]
10000d0e:	5363      	strh	r3, [r4, r5]
10000d10:	f8a1 e004 	strh.w	lr, [r1, #4]
10000d14:	690b      	ldr	r3, [r1, #16]
10000d16:	e8c3 6f8f 	stlb	r6, [r3]
10000d1a:	f382 8810 	msr	PRIMASK, r2
10000d1e:	2201      	movs	r2, #1
10000d20:	68cb      	ldr	r3, [r1, #12]
10000d22:	7809      	ldrb	r1, [r1, #0]
10000d24:	f503 5301 	add.w	r3, r3, #8256	@ 0x2040
10000d28:	408a      	lsls	r2, r1
10000d2a:	605a      	str	r2, [r3, #4]
10000d2c:	bdf0      	pop	{r4, r5, r6, r7, pc}
10000d2e:	2300      	movs	r3, #0
10000d30:	e8c0 3f8f 	stlb	r3, [r0]
10000d34:	f387 8810 	msr	PRIMASK, r7
10000d38:	f04f 30ff 	mov.w	r0, #4294967295
10000d3c:	bdf0      	pop	{r4, r5, r6, r7, pc}
10000d3e:	bf00      	nop

10000d40 <alarm_pool_cancel_alarm>:
10000d40:	4603      	mov	r3, r0
10000d42:	8940      	ldrh	r0, [r0, #10]
10000d44:	ebb0 4f21 	cmp.w	r0, r1, asr #16
10000d48:	dd37      	ble.n	10000dba <alarm_pool_cancel_alarm+0x7a>
10000d4a:	6958      	ldr	r0, [r3, #20]
10000d4c:	140a      	asrs	r2, r1, #16
10000d4e:	eb02 0242 	add.w	r2, r2, r2, lsl #1
10000d52:	b510      	push	{r4, lr}
10000d54:	eb00 00c2 	add.w	r0, r0, r2, lsl #3
10000d58:	691c      	ldr	r4, [r3, #16]
10000d5a:	f3ef 8c10 	mrs	ip, PRIMASK
10000d5e:	b672      	cpsid	i
10000d60:	e8d4 efcf 	ldaexb	lr, [r4]
10000d64:	2201      	movs	r2, #1
10000d66:	f1be 0f00 	cmp.w	lr, #0
10000d6a:	d1f9      	bne.n	10000d60 <alarm_pool_cancel_alarm+0x20>
10000d6c:	e8c4 2f4e 	strexb	lr, r2, [r4]
10000d70:	f1be 0f00 	cmp.w	lr, #0
10000d74:	d1f4      	bne.n	10000d60 <alarm_pool_cancel_alarm+0x20>
10000d76:	f3bf 8f5f 	dmb	sy
10000d7a:	8842      	ldrh	r2, [r0, #2]
10000d7c:	b289      	uxth	r1, r1
10000d7e:	b292      	uxth	r2, r2
10000d80:	428a      	cmp	r2, r1
10000d82:	d007      	beq.n	10000d94 <alarm_pool_cancel_alarm+0x54>
10000d84:	2200      	movs	r2, #0
10000d86:	691b      	ldr	r3, [r3, #16]
10000d88:	e8c3 2f8f 	stlb	r2, [r3]
10000d8c:	f38c 8810 	msr	PRIMASK, ip
10000d90:	2000      	movs	r0, #0
10000d92:	bd10      	pop	{r4, pc}
10000d94:	f442 4200 	orr.w	r2, r2, #32768	@ 0x8000
10000d98:	8042      	strh	r2, [r0, #2]
10000d9a:	2101      	movs	r1, #1
10000d9c:	2200      	movs	r2, #0
10000d9e:	6918      	ldr	r0, [r3, #16]
10000da0:	7199      	strb	r1, [r3, #6]
10000da2:	e8c0 2f8f 	stlb	r2, [r0]
10000da6:	f38c 8810 	msr	PRIMASK, ip
10000daa:	781c      	ldrb	r4, [r3, #0]
10000dac:	68da      	ldr	r2, [r3, #12]
10000dae:	4608      	mov	r0, r1
10000db0:	f502 5301 	add.w	r3, r2, #8256	@ 0x2040
10000db4:	40a1      	lsls	r1, r4
10000db6:	6059      	str	r1, [r3, #4]
10000db8:	bd10      	pop	{r4, pc}
10000dba:	2000      	movs	r0, #0
10000dbc:	4770      	bx	lr
10000dbe:	bf00      	nop

10000dc0 <sleep_ms>:
10000dc0:	e92d 41f0 	stmdb	sp!, {r4, r5, r6, r7, r8, lr}
10000dc4:	b082      	sub	sp, #8
10000dc6:	4606      	mov	r6, r0
10000dc8:	f000 f8ec 	bl	10000fa4 <time_us_64>
10000dcc:	f44f 737a 	mov.w	r3, #1000	@ 0x3e8
10000dd0:	4604      	mov	r4, r0
10000dd2:	f04f 30ff 	mov.w	r0, #4294967295
10000dd6:	f06f 4200 	mvn.w	r2, #2147483648	@ 0x80000000
10000dda:	fbe6 4103 	umlal	r4, r1, r6, r3
10000dde:	42a0      	cmp	r0, r4
10000de0:	eb72 0301 	sbcs.w	r3, r2, r1
10000de4:	bf3a      	itte	cc
10000de6:	4604      	movcc	r4, r0
10000de8:	4615      	movcc	r5, r2
10000dea:	460d      	movcs	r5, r1
10000dec:	1fa6      	subs	r6, r4, #6
10000dee:	f145 37ff 	adc.w	r7, r5, #4294967295
10000df2:	42b4      	cmp	r4, r6
10000df4:	eb75 0307 	sbcs.w	r3, r5, r7
10000df8:	bf3c      	itt	cc
10000dfa:	2600      	movcc	r6, #0
10000dfc:	4637      	movcc	r7, r6
10000dfe:	f000 f8d1 	bl	10000fa4 <time_us_64>
10000e02:	1a30      	subs	r0, r6, r0
10000e04:	eb67 0101 	sbc.w	r1, r7, r1
10000e08:	2801      	cmp	r0, #1
10000e0a:	f171 0100 	sbcs.w	r1, r1, #0
10000e0e:	da06      	bge.n	10000e1e <sleep_ms+0x5e>
10000e10:	4620      	mov	r0, r4
10000e12:	4629      	mov	r1, r5
10000e14:	b002      	add	sp, #8
10000e16:	e8bd 41f0 	ldmia.w	sp!, {r4, r5, r6, r7, r8, lr}
10000e1a:	f000 b8fb 	b.w	10001014 <busy_wait_until>
10000e1e:	f000 f8c1 	bl	10000fa4 <time_us_64>
10000e22:	4286      	cmp	r6, r0
10000e24:	eb67 0101 	sbc.w	r1, r7, r1
10000e28:	2900      	cmp	r1, #0
10000e2a:	db0a      	blt.n	10000e42 <sleep_ms+0x82>
10000e2c:	2100      	movs	r1, #0
10000e2e:	4b17      	ldr	r3, [pc, #92]	@ (10000e8c <sleep_ms+0xcc>)
10000e30:	4632      	mov	r2, r6
10000e32:	9300      	str	r3, [sp, #0]
10000e34:	4816      	ldr	r0, [pc, #88]	@ (10000e90 <sleep_ms+0xd0>)
10000e36:	463b      	mov	r3, r7
10000e38:	9101      	str	r1, [sp, #4]
10000e3a:	f7ff ff1d 	bl	10000c78 <alarm_pool_add_alarm_at_force_in_context>
10000e3e:	3001      	adds	r0, #1
10000e40:	d0e6      	beq.n	10000e10 <sleep_ms+0x50>
10000e42:	f04f 0c00 	mov.w	ip, #0
10000e46:	4a13      	ldr	r2, [pc, #76]	@ (10000e94 <sleep_ms+0xd4>)
10000e48:	4913      	ldr	r1, [pc, #76]	@ (10000e98 <sleep_ms+0xd8>)
10000e4a:	6a53      	ldr	r3, [r2, #36]	@ 0x24
10000e4c:	429f      	cmp	r7, r3
10000e4e:	d804      	bhi.n	10000e5a <sleep_ms+0x9a>
10000e50:	6a90      	ldr	r0, [r2, #40]	@ 0x28
10000e52:	42b0      	cmp	r0, r6
10000e54:	d2dc      	bcs.n	10000e10 <sleep_ms+0x50>
10000e56:	429f      	cmp	r7, r3
10000e58:	d1da      	bne.n	10000e10 <sleep_ms+0x50>
10000e5a:	680b      	ldr	r3, [r1, #0]
10000e5c:	f3ef 8010 	mrs	r0, PRIMASK
10000e60:	b672      	cpsid	i
10000e62:	e8d3 8fcf 	ldaexb	r8, [r3]
10000e66:	f05f 0e01 	movs.w	lr, #1
10000e6a:	f1b8 0f00 	cmp.w	r8, #0
10000e6e:	d1f8      	bne.n	10000e62 <sleep_ms+0xa2>
10000e70:	e8c3 ef48 	strexb	r8, lr, [r3]
10000e74:	f1b8 0f00 	cmp.w	r8, #0
10000e78:	d1f3      	bne.n	10000e62 <sleep_ms+0xa2>
10000e7a:	f3bf 8f5f 	dmb	sy
10000e7e:	680b      	ldr	r3, [r1, #0]
10000e80:	e8c3 cf8f 	stlb	ip, [r3]
10000e84:	f380 8810 	msr	PRIMASK, r0
10000e88:	bf20      	wfe
10000e8a:	e7de      	b.n	10000e4a <sleep_ms+0x8a>
10000e8c:	1000084d 	.word	0x1000084d
10000e90:	20000684 	.word	0x20000684
10000e94:	400b0000 	.word	0x400b0000
10000e98:	200008d8 	.word	0x200008d8

10000e9c <best_effort_wfe_or_timeout>:
10000e9c:	e92d 43f0 	stmdb	sp!, {r4, r5, r6, r7, r8, r9, lr}
10000ea0:	4606      	mov	r6, r0
10000ea2:	460d      	mov	r5, r1
10000ea4:	b083      	sub	sp, #12
10000ea6:	f3ef 8405 	mrs	r4, IPSR
10000eaa:	b2e4      	uxtb	r4, r4
10000eac:	b13c      	cbz	r4, 10000ebe <best_effort_wfe_or_timeout+0x22>
10000eae:	4b2d      	ldr	r3, [pc, #180]	@ (10000f64 <best_effort_wfe_or_timeout+0xc8>)
10000eb0:	6a5a      	ldr	r2, [r3, #36]	@ 0x24
10000eb2:	42aa      	cmp	r2, r5
10000eb4:	d21c      	bcs.n	10000ef0 <best_effort_wfe_or_timeout+0x54>
10000eb6:	2000      	movs	r0, #0
10000eb8:	b003      	add	sp, #12
10000eba:	e8bd 83f0 	ldmia.w	sp!, {r4, r5, r6, r7, r8, r9, pc}
10000ebe:	4f2a      	ldr	r7, [pc, #168]	@ (10000f68 <best_effort_wfe_or_timeout+0xcc>)
10000ec0:	f8d7 900c 	ldr.w	r9, [r7, #12]
10000ec4:	f897 8000 	ldrb.w	r8, [r7]
10000ec8:	4648      	mov	r0, r9
10000eca:	f000 f863 	bl	10000f94 <timer_time_us_64>
10000ece:	f108 0804 	add.w	r8, r8, #4
10000ed2:	f859 3028 	ldr.w	r3, [r9, r8, lsl #2]
10000ed6:	1a1b      	subs	r3, r3, r0
10000ed8:	1a30      	subs	r0, r6, r0
10000eda:	eb65 0101 	sbc.w	r1, r5, r1
10000ede:	4298      	cmp	r0, r3
10000ee0:	f171 0100 	sbcs.w	r1, r1, #0
10000ee4:	db10      	blt.n	10000f08 <best_effort_wfe_or_timeout+0x6c>
10000ee6:	bf20      	wfe
10000ee8:	4b1e      	ldr	r3, [pc, #120]	@ (10000f64 <best_effort_wfe_or_timeout+0xc8>)
10000eea:	6a5a      	ldr	r2, [r3, #36]	@ 0x24
10000eec:	42aa      	cmp	r2, r5
10000eee:	d3e2      	bcc.n	10000eb6 <best_effort_wfe_or_timeout+0x1a>
10000ef0:	bf14      	ite	ne
10000ef2:	2401      	movne	r4, #1
10000ef4:	2400      	moveq	r4, #0
10000ef6:	6a9b      	ldr	r3, [r3, #40]	@ 0x28
10000ef8:	42b3      	cmp	r3, r6
10000efa:	bf34      	ite	cc
10000efc:	4620      	movcc	r0, r4
10000efe:	f044 0001 	orrcs.w	r0, r4, #1
10000f02:	b003      	add	sp, #12
10000f04:	e8bd 83f0 	ldmia.w	sp!, {r4, r5, r6, r7, r8, r9, pc}
10000f08:	f000 f84c 	bl	10000fa4 <time_us_64>
10000f0c:	4286      	cmp	r6, r0
10000f0e:	eb65 0101 	sbc.w	r1, r5, r1
10000f12:	2900      	cmp	r1, #0
10000f14:	db14      	blt.n	10000f40 <best_effort_wfe_or_timeout+0xa4>
10000f16:	4b15      	ldr	r3, [pc, #84]	@ (10000f6c <best_effort_wfe_or_timeout+0xd0>)
10000f18:	4638      	mov	r0, r7
10000f1a:	e9cd 3400 	strd	r3, r4, [sp]
10000f1e:	4632      	mov	r2, r6
10000f20:	462b      	mov	r3, r5
10000f22:	f7ff fea9 	bl	10000c78 <alarm_pool_add_alarm_at_force_in_context>
10000f26:	1e01      	subs	r1, r0, #0
10000f28:	dd0a      	ble.n	10000f40 <best_effort_wfe_or_timeout+0xa4>
10000f2a:	4b0e      	ldr	r3, [pc, #56]	@ (10000f64 <best_effort_wfe_or_timeout+0xc8>)
10000f2c:	6a5a      	ldr	r2, [r3, #36]	@ 0x24
10000f2e:	42aa      	cmp	r2, r5
10000f30:	d316      	bcc.n	10000f60 <best_effort_wfe_or_timeout+0xc4>
10000f32:	6a9b      	ldr	r3, [r3, #40]	@ 0x28
10000f34:	42b3      	cmp	r3, r6
10000f36:	d311      	bcc.n	10000f5c <best_effort_wfe_or_timeout+0xc0>
10000f38:	480b      	ldr	r0, [pc, #44]	@ (10000f68 <best_effort_wfe_or_timeout+0xcc>)
10000f3a:	f7ff ff01 	bl	10000d40 <alarm_pool_cancel_alarm>
10000f3e:	e7b6      	b.n	10000eae <best_effort_wfe_or_timeout+0x12>
10000f40:	4b08      	ldr	r3, [pc, #32]	@ (10000f64 <best_effort_wfe_or_timeout+0xc8>)
10000f42:	6a5c      	ldr	r4, [r3, #36]	@ 0x24
10000f44:	42ac      	cmp	r4, r5
10000f46:	d3b6      	bcc.n	10000eb6 <best_effort_wfe_or_timeout+0x1a>
10000f48:	1b64      	subs	r4, r4, r5
10000f4a:	bf18      	it	ne
10000f4c:	2401      	movne	r4, #1
10000f4e:	6a9b      	ldr	r3, [r3, #40]	@ 0x28
10000f50:	42b3      	cmp	r3, r6
10000f52:	bf34      	ite	cc
10000f54:	4620      	movcc	r0, r4
10000f56:	f044 0001 	orrcs.w	r0, r4, #1
10000f5a:	e7ad      	b.n	10000eb8 <best_effort_wfe_or_timeout+0x1c>
10000f5c:	42aa      	cmp	r2, r5
10000f5e:	d1eb      	bne.n	10000f38 <best_effort_wfe_or_timeout+0x9c>
10000f60:	bf20      	wfe
10000f62:	e7e9      	b.n	10000f38 <best_effort_wfe_or_timeout+0x9c>
10000f64:	400b0000 	.word	0x400b0000
10000f68:	20000684 	.word	0x20000684
10000f6c:	1000084d 	.word	0x1000084d

10000f70 <timer_hardware_alarm_claim>:
10000f70:	b410      	push	{r4}
10000f72:	4b05      	ldr	r3, [pc, #20]	@ (10000f88 <timer_hardware_alarm_claim+0x18>)
10000f74:	4c05      	ldr	r4, [pc, #20]	@ (10000f8c <timer_hardware_alarm_claim+0x1c>)
10000f76:	4a06      	ldr	r2, [pc, #24]	@ (10000f90 <timer_hardware_alarm_claim+0x20>)
10000f78:	42a0      	cmp	r0, r4
10000f7a:	bf14      	ite	ne
10000f7c:	4618      	movne	r0, r3
10000f7e:	1c58      	addeq	r0, r3, #1
10000f80:	f85d 4b04 	ldr.w	r4, [sp], #4
10000f84:	f7ff ba2c 	b.w	100003e0 <hw_claim_or_assert>
10000f88:	20000868 	.word	0x20000868
10000f8c:	400b8000 	.word	0x400b8000
10000f90:	10003804 	.word	0x10003804

10000f94 <timer_time_us_64>:
10000f94:	4603      	mov	r3, r0
10000f96:	6a41      	ldr	r1, [r0, #36]	@ 0x24
10000f98:	460a      	mov	r2, r1
10000f9a:	6a98      	ldr	r0, [r3, #40]	@ 0x28
10000f9c:	6a59      	ldr	r1, [r3, #36]	@ 0x24
10000f9e:	428a      	cmp	r2, r1
10000fa0:	d1fa      	bne.n	10000f98 <timer_time_us_64+0x4>
10000fa2:	4770      	bx	lr

10000fa4 <time_us_64>:
10000fa4:	4b03      	ldr	r3, [pc, #12]	@ (10000fb4 <time_us_64+0x10>)
10000fa6:	6a59      	ldr	r1, [r3, #36]	@ 0x24
10000fa8:	460a      	mov	r2, r1
10000faa:	6a98      	ldr	r0, [r3, #40]	@ 0x28
10000fac:	6a59      	ldr	r1, [r3, #36]	@ 0x24
10000fae:	4291      	cmp	r1, r2
10000fb0:	d1fa      	bne.n	10000fa8 <time_us_64+0x4>
10000fb2:	4770      	bx	lr
10000fb4:	400b0000 	.word	0x400b0000

10000fb8 <busy_wait_us>:
10000fb8:	b430      	push	{r4, r5}
10000fba:	4a15      	ldr	r2, [pc, #84]	@ (10001010 <busy_wait_us+0x58>)
10000fbc:	6a53      	ldr	r3, [r2, #36]	@ 0x24
10000fbe:	469c      	mov	ip, r3
10000fc0:	6a94      	ldr	r4, [r2, #40]	@ 0x28
10000fc2:	6a53      	ldr	r3, [r2, #36]	@ 0x24
10000fc4:	4563      	cmp	r3, ip
10000fc6:	d1fa      	bne.n	10000fbe <busy_wait_us+0x6>
10000fc8:	1902      	adds	r2, r0, r4
10000fca:	4159      	adcs	r1, r3
10000fcc:	f04f 0500 	mov.w	r5, #0
10000fd0:	bf28      	it	cs
10000fd2:	2501      	movcs	r5, #1
10000fd4:	4b0e      	ldr	r3, [pc, #56]	@ (10001010 <busy_wait_us+0x58>)
10000fd6:	6a5b      	ldr	r3, [r3, #36]	@ 0x24
10000fd8:	b1b5      	cbz	r5, 10001008 <busy_wait_us+0x50>
10000fda:	1c5a      	adds	r2, r3, #1
10000fdc:	bf08      	it	eq
10000fde:	461a      	moveq	r2, r3
10000fe0:	d008      	beq.n	10000ff4 <busy_wait_us+0x3c>
10000fe2:	f04f 31ff 	mov.w	r1, #4294967295
10000fe6:	460a      	mov	r2, r1
10000fe8:	4809      	ldr	r0, [pc, #36]	@ (10001010 <busy_wait_us+0x58>)
10000fea:	6a43      	ldr	r3, [r0, #36]	@ 0x24
10000fec:	428b      	cmp	r3, r1
10000fee:	d3fc      	bcc.n	10000fea <busy_wait_us+0x32>
10000ff0:	428b      	cmp	r3, r1
10000ff2:	d107      	bne.n	10001004 <busy_wait_us+0x4c>
10000ff4:	4906      	ldr	r1, [pc, #24]	@ (10001010 <busy_wait_us+0x58>)
10000ff6:	e002      	b.n	10000ffe <busy_wait_us+0x46>
10000ff8:	6a48      	ldr	r0, [r1, #36]	@ 0x24
10000ffa:	4298      	cmp	r0, r3
10000ffc:	d102      	bne.n	10001004 <busy_wait_us+0x4c>
10000ffe:	6a88      	ldr	r0, [r1, #40]	@ 0x28
10001000:	4290      	cmp	r0, r2
10001002:	d3f9      	bcc.n	10000ff8 <busy_wait_us+0x40>
10001004:	bc30      	pop	{r4, r5}
10001006:	4770      	bx	lr
10001008:	4299      	cmp	r1, r3
1000100a:	d8ed      	bhi.n	10000fe8 <busy_wait_us+0x30>
1000100c:	e7f0      	b.n	10000ff0 <busy_wait_us+0x38>
1000100e:	bf00      	nop
10001010:	400b0000 	.word	0x400b0000

10001014 <busy_wait_until>:
10001014:	4a07      	ldr	r2, [pc, #28]	@ (10001034 <busy_wait_until+0x20>)
10001016:	6a53      	ldr	r3, [r2, #36]	@ 0x24
10001018:	4299      	cmp	r1, r3
1000101a:	d8fc      	bhi.n	10001016 <busy_wait_until+0x2>
1000101c:	4299      	cmp	r1, r3
1000101e:	d107      	bne.n	10001030 <busy_wait_until+0x1c>
10001020:	4b04      	ldr	r3, [pc, #16]	@ (10001034 <busy_wait_until+0x20>)
10001022:	e002      	b.n	1000102a <busy_wait_until+0x16>
10001024:	6a5a      	ldr	r2, [r3, #36]	@ 0x24
10001026:	4291      	cmp	r1, r2
10001028:	d102      	bne.n	10001030 <busy_wait_until+0x1c>
1000102a:	6a9a      	ldr	r2, [r3, #40]	@ 0x28
1000102c:	4290      	cmp	r0, r2
1000102e:	d8f9      	bhi.n	10001024 <busy_wait_until+0x10>
10001030:	4770      	bx	lr
10001032:	bf00      	nop
10001034:	400b0000 	.word	0x400b0000

10001038 <uart_init>:
10001038:	b5f8      	push	{r3, r4, r5, r6, r7, lr}
1000103a:	4605      	mov	r5, r0
1000103c:	2006      	movs	r0, #6
1000103e:	460e      	mov	r6, r1
10001040:	f000 f8e4 	bl	1000120c <clock_get_hz>
10001044:	2800      	cmp	r0, #0
10001046:	d042      	beq.n	100010ce <uart_init+0x96>
10001048:	4a35      	ldr	r2, [pc, #212]	@ (10001120 <uart_init+0xe8>)
1000104a:	4836      	ldr	r0, [pc, #216]	@ (10001124 <uart_init+0xec>)
1000104c:	4295      	cmp	r5, r2
1000104e:	bf14      	ite	ne
10001050:	f04f 6280 	movne.w	r2, #67108864	@ 0x4000000
10001054:	f04f 6200 	moveq.w	r2, #134217728	@ 0x8000000
10001058:	4b33      	ldr	r3, [pc, #204]	@ (10001128 <uart_init+0xf0>)
1000105a:	4934      	ldr	r1, [pc, #208]	@ (1000112c <uart_init+0xf4>)
1000105c:	6002      	str	r2, [r0, #0]
1000105e:	601a      	str	r2, [r3, #0]
10001060:	688c      	ldr	r4, [r1, #8]
10001062:	ea32 0404 	bics.w	r4, r2, r4
10001066:	d1fb      	bne.n	10001060 <uart_init+0x28>
10001068:	4b2d      	ldr	r3, [pc, #180]	@ (10001120 <uart_init+0xe8>)
1000106a:	f44f 7180 	mov.w	r1, #256	@ 0x100
1000106e:	1aeb      	subs	r3, r5, r3
10001070:	fab3 f383 	clz	r3, r3
10001074:	4a2e      	ldr	r2, [pc, #184]	@ (10001130 <uart_init+0xf8>)
10001076:	095b      	lsrs	r3, r3, #5
10001078:	2006      	movs	r0, #6
1000107a:	f822 1013 	strh.w	r1, [r2, r3, lsl #1]
1000107e:	f000 f8c5 	bl	1000120c <clock_get_hz>
10001082:	00c3      	lsls	r3, r0, #3
10001084:	fbb3 f3f6 	udiv	r3, r3, r6
10001088:	3301      	adds	r3, #1
1000108a:	09da      	lsrs	r2, r3, #7
1000108c:	d120      	bne.n	100010d0 <uart_init+0x98>
1000108e:	2640      	movs	r6, #64	@ 0x40
10001090:	2101      	movs	r1, #1
10001092:	6269      	str	r1, [r5, #36]	@ 0x24
10001094:	62aa      	str	r2, [r5, #40]	@ 0x28
10001096:	6b2f      	ldr	r7, [r5, #48]	@ 0x30
10001098:	07fb      	lsls	r3, r7, #31
1000109a:	d422      	bmi.n	100010e2 <uart_init+0xaa>
1000109c:	462b      	mov	r3, r5
1000109e:	2200      	movs	r2, #0
100010a0:	f853 1f2c 	ldr.w	r1, [r3, #44]!
100010a4:	2006      	movs	r0, #6
100010a6:	f503 5480 	add.w	r4, r3, #4096	@ 0x1000
100010aa:	6022      	str	r2, [r4, #0]
100010ac:	632f      	str	r7, [r5, #48]	@ 0x30
100010ae:	f000 f8ad 	bl	1000120c <clock_get_hz>
100010b2:	f240 3101 	movw	r1, #769	@ 0x301
100010b6:	2203      	movs	r2, #3
100010b8:	0080      	lsls	r0, r0, #2
100010ba:	fbb0 f0f6 	udiv	r0, r0, r6
100010be:	6aeb      	ldr	r3, [r5, #44]	@ 0x2c
100010c0:	f083 0370 	eor.w	r3, r3, #112	@ 0x70
100010c4:	f003 037e 	and.w	r3, r3, #126	@ 0x7e
100010c8:	6023      	str	r3, [r4, #0]
100010ca:	6329      	str	r1, [r5, #48]	@ 0x30
100010cc:	64aa      	str	r2, [r5, #72]	@ 0x48
100010ce:	bdf8      	pop	{r3, r4, r5, r6, r7, pc}
100010d0:	f64f 71fe 	movw	r1, #65534	@ 0xfffe
100010d4:	428a      	cmp	r2, r1
100010d6:	d91b      	bls.n	10001110 <uart_init+0xd8>
100010d8:	4622      	mov	r2, r4
100010da:	f64f 71ff 	movw	r1, #65535	@ 0xffff
100010de:	4e15      	ldr	r6, [pc, #84]	@ (10001134 <uart_init+0xfc>)
100010e0:	e7d7      	b.n	10001092 <uart_init+0x5a>
100010e2:	f240 3201 	movw	r2, #769	@ 0x301
100010e6:	f505 5340 	add.w	r3, r5, #12288	@ 0x3000
100010ea:	631a      	str	r2, [r3, #48]	@ 0x30
100010ec:	6a6b      	ldr	r3, [r5, #36]	@ 0x24
100010ee:	6aac      	ldr	r4, [r5, #40]	@ 0x28
100010f0:	2006      	movs	r0, #6
100010f2:	eb04 1483 	add.w	r4, r4, r3, lsl #6
100010f6:	f000 f889 	bl	1000120c <clock_get_hz>
100010fa:	4b0f      	ldr	r3, [pc, #60]	@ (10001138 <uart_init+0x100>)
100010fc:	02a4      	lsls	r4, r4, #10
100010fe:	fba3 2300 	umull	r2, r3, r3, r0
10001102:	0adb      	lsrs	r3, r3, #11
10001104:	2100      	movs	r1, #0
10001106:	fbb4 f0f3 	udiv	r0, r4, r3
1000110a:	f7ff ff55 	bl	10000fb8 <busy_wait_us>
1000110e:	e7c5      	b.n	1000109c <uart_init+0x64>
10001110:	f3c3 0345 	ubfx	r3, r3, #1, #6
10001114:	4611      	mov	r1, r2
10001116:	eb03 1682 	add.w	r6, r3, r2, lsl #6
1000111a:	461a      	mov	r2, r3
1000111c:	e7b9      	b.n	10001092 <uart_init+0x5a>
1000111e:	bf00      	nop
10001120:	40078000 	.word	0x40078000
10001124:	40022000 	.word	0x40022000
10001128:	40023000 	.word	0x40023000
1000112c:	40020000 	.word	0x40020000
10001130:	200008dc 	.word	0x200008dc
10001134:	003fffc0 	.word	0x003fffc0
10001138:	8f2b7b75 	.word	0x8f2b7b75

1000113c <clock_configure_undivided>:
1000113c:	eb00 0c40 	add.w	ip, r0, r0, lsl #1
10001140:	ea4f 0c8c 	mov.w	ip, ip, lsl #2
10001144:	f10c 4c80 	add.w	ip, ip, #1073741824	@ 0x40000000
10001148:	f50c 3c80 	add.w	ip, ip, #65536	@ 0x10000
1000114c:	b5f0      	push	{r4, r5, r6, r7, lr}
1000114e:	4616      	mov	r6, r2
10001150:	f8dc 2004 	ldr.w	r2, [ip, #4]
10001154:	1f05      	subs	r5, r0, #4
10001156:	f5b2 3f80 	cmp.w	r2, #65536	@ 0x10000
1000115a:	bf38      	it	cc
1000115c:	f44f 3280 	movcc.w	r2, #65536	@ 0x10000
10001160:	b2ed      	uxtb	r5, r5
10001162:	bf38      	it	cc
10001164:	f8cc 2004 	strcc.w	r2, [ip, #4]
10001168:	2d01      	cmp	r5, #1
1000116a:	d92a      	bls.n	100011c2 <clock_configure_undivided+0x86>
1000116c:	f44f 6700 	mov.w	r7, #2048	@ 0x800
10001170:	4c25      	ldr	r4, [pc, #148]	@ (10001208 <clock_configure_undivided+0xcc>)
10001172:	f50c 5240 	add.w	r2, ip, #12288	@ 0x3000
10001176:	6017      	str	r7, [r2, #0]
10001178:	f854 2020 	ldr.w	r2, [r4, r0, lsl #2]
1000117c:	b9b2      	cbnz	r2, 100011ac <clock_configure_undivided+0x70>
1000117e:	f8dc 2000 	ldr.w	r2, [ip]
10001182:	2d01      	cmp	r5, #1
10001184:	ea82 1246 	eor.w	r2, r2, r6, lsl #5
10001188:	f002 02e0 	and.w	r2, r2, #224	@ 0xe0
1000118c:	f50c 5680 	add.w	r6, ip, #4096	@ 0x1000
10001190:	6032      	str	r2, [r6, #0]
10001192:	d92a      	bls.n	100011ea <clock_configure_undivided+0xae>
10001194:	f44f 6100 	mov.w	r1, #2048	@ 0x800
10001198:	f844 3020 	str.w	r3, [r4, r0, lsl #2]
1000119c:	f44f 3380 	mov.w	r3, #65536	@ 0x10000
100011a0:	f50c 5200 	add.w	r2, ip, #8192	@ 0x2000
100011a4:	6011      	str	r1, [r2, #0]
100011a6:	f8cc 3004 	str.w	r3, [ip, #4]
100011aa:	bdf0      	pop	{r4, r5, r6, r7, pc}
100011ac:	6967      	ldr	r7, [r4, #20]
100011ae:	fbb7 fef2 	udiv	lr, r7, r2
100011b2:	f10e 0e01 	add.w	lr, lr, #1
100011b6:	eb0e 0e4e 	add.w	lr, lr, lr, lsl #1
100011ba:	f1be 0e03 	subs.w	lr, lr, #3
100011be:	d2fc      	bcs.n	100011ba <clock_configure_undivided+0x7e>
100011c0:	e7dd      	b.n	1000117e <clock_configure_undivided+0x42>
100011c2:	2901      	cmp	r1, #1
100011c4:	d1d2      	bne.n	1000116c <clock_configure_undivided+0x30>
100011c6:	2403      	movs	r4, #3
100011c8:	f50c 5240 	add.w	r2, ip, #12288	@ 0x3000
100011cc:	6014      	str	r4, [r2, #0]
100011ce:	f8dc 2008 	ldr.w	r2, [ip, #8]
100011d2:	07d2      	lsls	r2, r2, #31
100011d4:	d5fb      	bpl.n	100011ce <clock_configure_undivided+0x92>
100011d6:	f8dc 2000 	ldr.w	r2, [ip]
100011da:	4c0b      	ldr	r4, [pc, #44]	@ (10001208 <clock_configure_undivided+0xcc>)
100011dc:	ea82 1246 	eor.w	r2, r2, r6, lsl #5
100011e0:	f002 02e0 	and.w	r2, r2, #224	@ 0xe0
100011e4:	f50c 5680 	add.w	r6, ip, #4096	@ 0x1000
100011e8:	6032      	str	r2, [r6, #0]
100011ea:	2201      	movs	r2, #1
100011ec:	f8dc 5000 	ldr.w	r5, [ip]
100011f0:	404d      	eors	r5, r1
100011f2:	f005 0503 	and.w	r5, r5, #3
100011f6:	6035      	str	r5, [r6, #0]
100011f8:	fa02 f101 	lsl.w	r1, r2, r1
100011fc:	f8dc 2008 	ldr.w	r2, [ip, #8]
10001200:	420a      	tst	r2, r1
10001202:	d0fb      	beq.n	100011fc <clock_configure_undivided+0xc0>
10001204:	e7c6      	b.n	10001194 <clock_configure_undivided+0x58>
10001206:	bf00      	nop
10001208:	2000086c 	.word	0x2000086c

1000120c <clock_get_hz>:
1000120c:	4b01      	ldr	r3, [pc, #4]	@ (10001214 <clock_get_hz+0x8>)
1000120e:	f853 0020 	ldr.w	r0, [r3, r0, lsl #2]
10001212:	4770      	bx	lr
10001214:	2000086c 	.word	0x2000086c

10001218 <pll_init>:
10001218:	b470      	push	{r4, r5, r6}
1000121a:	9d03      	ldr	r5, [sp, #12]
1000121c:	6804      	ldr	r4, [r0, #0]
1000121e:	032d      	lsls	r5, r5, #12
10001220:	ea45 4503 	orr.w	r5, r5, r3, lsl #16
10001224:	4b1b      	ldr	r3, [pc, #108]	@ (10001294 <pll_init+0x7c>)
10001226:	2c00      	cmp	r4, #0
10001228:	fbb3 f3f1 	udiv	r3, r3, r1
1000122c:	fbb2 f6f3 	udiv	r6, r2, r3
10001230:	db1f      	blt.n	10001272 <pll_init+0x5a>
10001232:	4a19      	ldr	r2, [pc, #100]	@ (10001298 <pll_init+0x80>)
10001234:	4b19      	ldr	r3, [pc, #100]	@ (1000129c <pll_init+0x84>)
10001236:	4290      	cmp	r0, r2
10001238:	bf14      	ite	ne
1000123a:	f44f 4280 	movne.w	r2, #16384	@ 0x4000
1000123e:	f44f 4200 	moveq.w	r2, #32768	@ 0x8000
10001242:	4c17      	ldr	r4, [pc, #92]	@ (100012a0 <pll_init+0x88>)
10001244:	601a      	str	r2, [r3, #0]
10001246:	f503 5380 	add.w	r3, r3, #4096	@ 0x1000
1000124a:	601a      	str	r2, [r3, #0]
1000124c:	68a3      	ldr	r3, [r4, #8]
1000124e:	ea32 0303 	bics.w	r3, r2, r3
10001252:	d1fb      	bne.n	1000124c <pll_init+0x34>
10001254:	2221      	movs	r2, #33	@ 0x21
10001256:	f500 5340 	add.w	r3, r0, #12288	@ 0x3000
1000125a:	3304      	adds	r3, #4
1000125c:	6001      	str	r1, [r0, #0]
1000125e:	6086      	str	r6, [r0, #8]
10001260:	601a      	str	r2, [r3, #0]
10001262:	6802      	ldr	r2, [r0, #0]
10001264:	2a00      	cmp	r2, #0
10001266:	dafc      	bge.n	10001262 <pll_init+0x4a>
10001268:	2208      	movs	r2, #8
1000126a:	60c5      	str	r5, [r0, #12]
1000126c:	601a      	str	r2, [r3, #0]
1000126e:	bc70      	pop	{r4, r5, r6}
10001270:	4770      	bx	lr
10001272:	6803      	ldr	r3, [r0, #0]
10001274:	f003 033f 	and.w	r3, r3, #63	@ 0x3f
10001278:	428b      	cmp	r3, r1
1000127a:	d1da      	bne.n	10001232 <pll_init+0x1a>
1000127c:	6883      	ldr	r3, [r0, #8]
1000127e:	f3c3 030b 	ubfx	r3, r3, #0, #12
10001282:	42b3      	cmp	r3, r6
10001284:	d1d5      	bne.n	10001232 <pll_init+0x1a>
10001286:	68c3      	ldr	r3, [r0, #12]
10001288:	f403 23ee 	and.w	r3, r3, #487424	@ 0x77000
1000128c:	42ab      	cmp	r3, r5
1000128e:	d1d0      	bne.n	10001232 <pll_init+0x1a>
10001290:	e7ed      	b.n	1000126e <pll_init+0x56>
10001292:	bf00      	nop
10001294:	00b71b00 	.word	0x00b71b00
10001298:	40058000 	.word	0x40058000
1000129c:	40022000 	.word	0x40022000
100012a0:	40020000 	.word	0x40020000

100012a4 <tick_start>:
100012a4:	2301      	movs	r3, #1
100012a6:	eb00 0040 	add.w	r0, r0, r0, lsl #1
100012aa:	0080      	lsls	r0, r0, #2
100012ac:	f100 4080 	add.w	r0, r0, #1073741824	@ 0x40000000
100012b0:	f500 1084 	add.w	r0, r0, #1081344	@ 0x108000
100012b4:	6041      	str	r1, [r0, #4]
100012b6:	6003      	str	r3, [r0, #0]
100012b8:	4770      	bx	lr
100012ba:	bf00      	nop

100012bc <rom_func_lookup>:
100012bc:	2300      	movs	r3, #0
100012be:	8adb      	ldrh	r3, [r3, #22]
100012c0:	2200      	movs	r2, #0
100012c2:	e842 f200 	tt	r2, r2
100012c6:	0252      	lsls	r2, r2, #9
100012c8:	d401      	bmi.n	100012ce <rom_func_lookup+0x12>
100012ca:	2110      	movs	r1, #16
100012cc:	4718      	bx	r3
100012ce:	2104      	movs	r1, #4
100012d0:	4718      	bx	r3
100012d2:	bf00      	nop

100012d4 <runtime_init_bootrom_locking_enable>:
100012d4:	4a03      	ldr	r2, [pc, #12]	@ (100012e4 <runtime_init_bootrom_locking_enable+0x10>)
100012d6:	f8d2 3828 	ldr.w	r3, [r2, #2088]	@ 0x828
100012da:	2b00      	cmp	r3, #0
100012dc:	d0fb      	beq.n	100012d6 <runtime_init_bootrom_locking_enable+0x2>
100012de:	f3bf 8f5f 	dmb	sy
100012e2:	4770      	bx	lr
100012e4:	400e0000 	.word	0x400e0000

100012e8 <runtime_init_boot_locks_reset>:
100012e8:	2100      	movs	r1, #0
100012ea:	4b04      	ldr	r3, [pc, #16]	@ (100012fc <runtime_init_boot_locks_reset+0x14>)
100012ec:	4a04      	ldr	r2, [pc, #16]	@ (10001300 <runtime_init_boot_locks_reset+0x18>)
100012ee:	f3bf 8f5f 	dmb	sy
100012f2:	f843 1b04 	str.w	r1, [r3], #4
100012f6:	4293      	cmp	r3, r2
100012f8:	d1f9      	bne.n	100012ee <runtime_init_boot_locks_reset+0x6>
100012fa:	4770      	bx	lr
100012fc:	400e080c 	.word	0x400e080c
10001300:	400e082c 	.word	0x400e082c

10001304 <xosc_init>:
10001304:	b410      	push	{r4}
10001306:	f44f 708d 	mov.w	r0, #282	@ 0x11a
1000130a:	f44f 642a 	mov.w	r4, #2720	@ 0xaa0
1000130e:	4a06      	ldr	r2, [pc, #24]	@ (10001328 <xosc_init+0x24>)
10001310:	4b06      	ldr	r3, [pc, #24]	@ (1000132c <xosc_init+0x28>)
10001312:	4907      	ldr	r1, [pc, #28]	@ (10001330 <xosc_init+0x2c>)
10001314:	6014      	str	r4, [r2, #0]
10001316:	60d0      	str	r0, [r2, #12]
10001318:	6019      	str	r1, [r3, #0]
1000131a:	6853      	ldr	r3, [r2, #4]
1000131c:	2b00      	cmp	r3, #0
1000131e:	dafc      	bge.n	1000131a <xosc_init+0x16>
10001320:	f85d 4b04 	ldr.w	r4, [sp], #4
10001324:	4770      	bx	lr
10001326:	bf00      	nop
10001328:	40048000 	.word	0x40048000
1000132c:	4004a000 	.word	0x4004a000
10001330:	00fab000 	.word	0x00fab000

10001334 <first_per_core_initializer>:
10001334:	4770      	bx	lr
10001336:	bf00      	nop

10001338 <hard_assertion_failure>:
10001338:	b508      	push	{r3, lr}
1000133a:	4801      	ldr	r0, [pc, #4]	@ (10001340 <hard_assertion_failure+0x8>)
1000133c:	f7ff f838 	bl	100003b0 <panic>
10001340:	10003828 	.word	0x10003828

10001344 <runtime_run_initializers>:
10001344:	b538      	push	{r3, r4, r5, lr}
10001346:	4c05      	ldr	r4, [pc, #20]	@ (1000135c <runtime_run_initializers+0x18>)
10001348:	4d05      	ldr	r5, [pc, #20]	@ (10001360 <runtime_run_initializers+0x1c>)
1000134a:	42ac      	cmp	r4, r5
1000134c:	d204      	bcs.n	10001358 <runtime_run_initializers+0x14>
1000134e:	f854 3b04 	ldr.w	r3, [r4], #4
10001352:	4798      	blx	r3
10001354:	42ac      	cmp	r4, r5
10001356:	d3fa      	bcc.n	1000134e <runtime_run_initializers+0xa>
10001358:	bd38      	pop	{r3, r4, r5, pc}
1000135a:	bf00      	nop
1000135c:	10003780 	.word	0x10003780
10001360:	100037c0 	.word	0x100037c0

10001364 <runtime_init_early_resets>:
10001364:	b410      	push	{r4}
10001366:	4807      	ldr	r0, [pc, #28]	@ (10001384 <runtime_init_early_resets+0x20>)
10001368:	4c07      	ldr	r4, [pc, #28]	@ (10001388 <runtime_init_early_resets+0x24>)
1000136a:	4b08      	ldr	r3, [pc, #32]	@ (1000138c <runtime_init_early_resets+0x28>)
1000136c:	4a08      	ldr	r2, [pc, #32]	@ (10001390 <runtime_init_early_resets+0x2c>)
1000136e:	4909      	ldr	r1, [pc, #36]	@ (10001394 <runtime_init_early_resets+0x30>)
10001370:	6004      	str	r4, [r0, #0]
10001372:	601a      	str	r2, [r3, #0]
10001374:	688b      	ldr	r3, [r1, #8]
10001376:	ea32 0303 	bics.w	r3, r2, r3
1000137a:	d1fb      	bne.n	10001374 <runtime_init_early_resets+0x10>
1000137c:	f85d 4b04 	ldr.w	r4, [sp], #4
10001380:	4770      	bx	lr
10001382:	bf00      	nop
10001384:	40022000 	.word	0x40022000
10001388:	efef3b7f 	.word	0xefef3b7f
1000138c:	40023000 	.word	0x40023000
10001390:	03f3fff6 	.word	0x03f3fff6
10001394:	40020000 	.word	0x40020000

10001398 <runtime_init_usb_power_down>:
10001398:	4b04      	ldr	r3, [pc, #16]	@ (100013ac <runtime_init_usb_power_down+0x14>)
1000139a:	6cdb      	ldr	r3, [r3, #76]	@ 0x4c
1000139c:	f5b3 4f00 	cmp.w	r3, #32768	@ 0x8000
100013a0:	d103      	bne.n	100013aa <runtime_init_usb_power_down+0x12>
100013a2:	f44f 2280 	mov.w	r2, #262144	@ 0x40000
100013a6:	4b02      	ldr	r3, [pc, #8]	@ (100013b0 <runtime_init_usb_power_down+0x18>)
100013a8:	64da      	str	r2, [r3, #76]	@ 0x4c
100013aa:	4770      	bx	lr
100013ac:	50110000 	.word	0x50110000
100013b0:	50112000 	.word	0x50112000

100013b4 <runtime_init_per_core_enable_coprocessors>:
100013b4:	f04f 22e0 	mov.w	r2, #3758153728	@ 0xe000e000
100013b8:	4b04      	ldr	r3, [pc, #16]	@ (100013cc <runtime_init_per_core_enable_coprocessors+0x18>)
100013ba:	f8d2 1d88 	ldr.w	r1, [r2, #3464]	@ 0xd88
100013be:	430b      	orrs	r3, r1
100013c0:	f8c2 3d88 	str.w	r3, [r2, #3464]	@ 0xd88
100013c4:	ee10 0430 			dcp_rcmp r0
100013c8:	4770      	bx	lr
100013ca:	bf00      	nop
100013cc:	00300303 	.word	0x00300303

100013d0 <runtime_init_post_clock_resets>:
100013d0:	f06f 4160 	mvn.w	r1, #3758096384	@ 0xe0000000
100013d4:	4b04      	ldr	r3, [pc, #16]	@ (100013e8 <runtime_init_post_clock_resets+0x18>)
100013d6:	4a05      	ldr	r2, [pc, #20]	@ (100013ec <runtime_init_post_clock_resets+0x1c>)
100013d8:	6019      	str	r1, [r3, #0]
100013da:	6893      	ldr	r3, [r2, #8]
100013dc:	43db      	mvns	r3, r3
100013de:	f033 4360 	bics.w	r3, r3, #3758096384	@ 0xe0000000
100013e2:	d1fa      	bne.n	100013da <runtime_init_post_clock_resets+0xa>
100013e4:	4770      	bx	lr
100013e6:	bf00      	nop
100013e8:	40023000 	.word	0x40023000
100013ec:	40020000 	.word	0x40020000

100013f0 <runtime_init_bootrom_reset>:
100013f0:	b510      	push	{r4, lr}
100013f2:	f245 2053 	movw	r0, #21075	@ 0x5253
100013f6:	f7ff ff61 	bl	100012bc <rom_func_lookup>
100013fa:	e8bd 4010 	ldmia.w	sp!, {r4, lr}
100013fe:	4603      	mov	r3, r0
10001400:	2004      	movs	r0, #4
10001402:	4718      	bx	r3

10001404 <runtime_init_per_core_bootrom_reset>:
10001404:	b510      	push	{r4, lr}
10001406:	f245 2053 	movw	r0, #21075	@ 0x5253
1000140a:	f7ff ff57 	bl	100012bc <rom_func_lookup>
1000140e:	e8bd 4010 	ldmia.w	sp!, {r4, lr}
10001412:	4603      	mov	r3, r0
10001414:	2001      	movs	r0, #1
10001416:	4718      	bx	r3

10001418 <runtime_init_spin_locks_reset>:
10001418:	f7ff b822 	b.w	10000460 <spin_locks_reset>

1000141c <runtime_init_install_ram_vector_table>:
1000141c:	4914      	ldr	r1, [pc, #80]	@ (10001470 <runtime_init_install_ram_vector_table+0x54>)
1000141e:	4b15      	ldr	r3, [pc, #84]	@ (10001474 <runtime_init_install_ram_vector_table+0x58>)
10001420:	b570      	push	{r4, r5, r6, lr}
10001422:	1a5c      	subs	r4, r3, r1
10001424:	10a6      	asrs	r6, r4, #2
10001426:	2e44      	cmp	r6, #68	@ 0x44
10001428:	4632      	mov	r2, r6
1000142a:	bf28      	it	cs
1000142c:	2244      	movcs	r2, #68	@ 0x44
1000142e:	4d12      	ldr	r5, [pc, #72]	@ (10001478 <runtime_init_install_ram_vector_table+0x5c>)
10001430:	0092      	lsls	r2, r2, #2
10001432:	4628      	mov	r0, r5
10001434:	f002 f8ec 	bl	10003610 <memcpy>
10001438:	f5b4 7f86 	cmp.w	r4, #268	@ 0x10c
1000143c:	d813      	bhi.n	10001466 <runtime_init_install_ram_vector_table+0x4a>
1000143e:	4a0f      	ldr	r2, [pc, #60]	@ (1000147c <runtime_init_install_ram_vector_table+0x60>)
10001440:	f1c6 0044 	rsb	r0, r6, #68	@ 0x44
10001444:	d012      	beq.n	1000146c <runtime_init_install_ram_vector_table+0x50>
10001446:	192b      	adds	r3, r5, r4
10001448:	0841      	lsrs	r1, r0, #1
1000144a:	eb03 01c1 	add.w	r1, r3, r1, lsl #3
1000144e:	e9c3 2200 	strd	r2, r2, [r3]
10001452:	3308      	adds	r3, #8
10001454:	428b      	cmp	r3, r1
10001456:	d1fa      	bne.n	1000144e <runtime_init_install_ram_vector_table+0x32>
10001458:	07c3      	lsls	r3, r0, #31
1000145a:	d504      	bpl.n	10001466 <runtime_init_install_ram_vector_table+0x4a>
1000145c:	f020 0001 	bic.w	r0, r0, #1
10001460:	4430      	add	r0, r6
10001462:	f845 2020 	str.w	r2, [r5, r0, lsl #2]
10001466:	4b06      	ldr	r3, [pc, #24]	@ (10001480 <runtime_init_install_ram_vector_table+0x64>)
10001468:	609d      	str	r5, [r3, #8]
1000146a:	bd70      	pop	{r4, r5, r6, pc}
1000146c:	2043      	movs	r0, #67	@ 0x43
1000146e:	e7f8      	b.n	10001462 <runtime_init_install_ram_vector_table+0x46>
10001470:	10000000 	.word	0x10000000
10001474:	10000110 	.word	0x10000110
10001478:	20000000 	.word	0x20000000
1000147c:	10000111 	.word	0x10000111
10001480:	e000ed00 	.word	0xe000ed00

10001484 <runtime_init_clocks>:
10001484:	2300      	movs	r3, #0
10001486:	b570      	push	{r4, r5, r6, lr}
10001488:	4c2b      	ldr	r4, [pc, #172]	@ (10001538 <runtime_init_clocks+0xb4>)
1000148a:	b082      	sub	sp, #8
1000148c:	f8c4 3084 	str.w	r3, [r4, #132]	@ 0x84
10001490:	f7ff ff38 	bl	10001304 <xosc_init>
10001494:	2201      	movs	r2, #1
10001496:	4b29      	ldr	r3, [pc, #164]	@ (1000153c <runtime_init_clocks+0xb8>)
10001498:	63da      	str	r2, [r3, #60]	@ 0x3c
1000149a:	6c63      	ldr	r3, [r4, #68]	@ 0x44
1000149c:	2b01      	cmp	r3, #1
1000149e:	d1fc      	bne.n	1000149a <runtime_init_clocks+0x16>
100014a0:	2103      	movs	r1, #3
100014a2:	4a26      	ldr	r2, [pc, #152]	@ (1000153c <runtime_init_clocks+0xb8>)
100014a4:	4b24      	ldr	r3, [pc, #144]	@ (10001538 <runtime_init_clocks+0xb4>)
100014a6:	6311      	str	r1, [r2, #48]	@ 0x30
100014a8:	6b9c      	ldr	r4, [r3, #56]	@ 0x38
100014aa:	2c01      	cmp	r4, #1
100014ac:	d1fc      	bne.n	100014a8 <runtime_init_clocks+0x24>
100014ae:	2602      	movs	r6, #2
100014b0:	2505      	movs	r5, #5
100014b2:	4621      	mov	r1, r4
100014b4:	2305      	movs	r3, #5
100014b6:	4a22      	ldr	r2, [pc, #136]	@ (10001540 <runtime_init_clocks+0xbc>)
100014b8:	4822      	ldr	r0, [pc, #136]	@ (10001544 <runtime_init_clocks+0xc0>)
100014ba:	9600      	str	r6, [sp, #0]
100014bc:	f7ff feac 	bl	10001218 <pll_init>
100014c0:	4621      	mov	r1, r4
100014c2:	462b      	mov	r3, r5
100014c4:	4a20      	ldr	r2, [pc, #128]	@ (10001548 <runtime_init_clocks+0xc4>)
100014c6:	4821      	ldr	r0, [pc, #132]	@ (1000154c <runtime_init_clocks+0xc8>)
100014c8:	9500      	str	r5, [sp, #0]
100014ca:	f7ff fea5 	bl	10001218 <pll_init>
100014ce:	2200      	movs	r2, #0
100014d0:	2004      	movs	r0, #4
100014d2:	4631      	mov	r1, r6
100014d4:	4b1e      	ldr	r3, [pc, #120]	@ (10001550 <runtime_init_clocks+0xcc>)
100014d6:	f7ff fe31 	bl	1000113c <clock_configure_undivided>
100014da:	4621      	mov	r1, r4
100014dc:	4628      	mov	r0, r5
100014de:	2200      	movs	r2, #0
100014e0:	4b1c      	ldr	r3, [pc, #112]	@ (10001554 <runtime_init_clocks+0xd0>)
100014e2:	f7ff fe2b 	bl	1000113c <clock_configure_undivided>
100014e6:	2200      	movs	r2, #0
100014e8:	2008      	movs	r0, #8
100014ea:	4611      	mov	r1, r2
100014ec:	4b1a      	ldr	r3, [pc, #104]	@ (10001558 <runtime_init_clocks+0xd4>)
100014ee:	f7ff fe25 	bl	1000113c <clock_configure_undivided>
100014f2:	2200      	movs	r2, #0
100014f4:	2009      	movs	r0, #9
100014f6:	4611      	mov	r1, r2
100014f8:	4b17      	ldr	r3, [pc, #92]	@ (10001558 <runtime_init_clocks+0xd4>)
100014fa:	f7ff fe1f 	bl	1000113c <clock_configure_undivided>
100014fe:	2200      	movs	r2, #0
10001500:	2006      	movs	r0, #6
10001502:	4611      	mov	r1, r2
10001504:	4b13      	ldr	r3, [pc, #76]	@ (10001554 <runtime_init_clocks+0xd0>)
10001506:	f7ff fe19 	bl	1000113c <clock_configure_undivided>
1000150a:	2200      	movs	r2, #0
1000150c:	4b11      	ldr	r3, [pc, #68]	@ (10001554 <runtime_init_clocks+0xd0>)
1000150e:	2007      	movs	r0, #7
10001510:	4611      	mov	r1, r2
10001512:	f7ff fe13 	bl	1000113c <clock_configure_undivided>
10001516:	2004      	movs	r0, #4
10001518:	f7ff fe78 	bl	1000120c <clock_get_hz>
1000151c:	2400      	movs	r4, #0
1000151e:	4b0f      	ldr	r3, [pc, #60]	@ (1000155c <runtime_init_clocks+0xd8>)
10001520:	fba3 3500 	umull	r3, r5, r3, r0
10001524:	0cad      	lsrs	r5, r5, #18
10001526:	b2e0      	uxtb	r0, r4
10001528:	4629      	mov	r1, r5
1000152a:	3401      	adds	r4, #1
1000152c:	f7ff feba 	bl	100012a4 <tick_start>
10001530:	2c06      	cmp	r4, #6
10001532:	d1f8      	bne.n	10001526 <runtime_init_clocks+0xa2>
10001534:	b002      	add	sp, #8
10001536:	bd70      	pop	{r4, r5, r6, pc}
10001538:	40010000 	.word	0x40010000
1000153c:	40013000 	.word	0x40013000
10001540:	59682f00 	.word	0x59682f00
10001544:	40050000 	.word	0x40050000
10001548:	47868c00 	.word	0x47868c00
1000154c:	40058000 	.word	0x40058000
10001550:	00b71b00 	.word	0x00b71b00
10001554:	08f0d180 	.word	0x08f0d180
10001558:	02dc6c00 	.word	0x02dc6c00
1000155c:	431bde83 	.word	0x431bde83

10001560 <generic_save_state>:
10001560:	b086      	sub	sp, #24
10001562:	b403      	push	{r0, r1}
10001564:	fc51 0408 	dcp_pxmd r0, r1
10001568:	e9cd 0102 	strd	r0, r1, [sp, #8]
1000156c:	fc51 0409 	dcp_pymd r0, r1
10001570:	e9cd 0104 	strd	r0, r1, [sp, #16]
10001574:	ec51 040a 	dcp_refd r0, r1
10001578:	e9cd 0106 	strd	r0, r1, [sp, #24]
1000157c:	bc03      	pop	{r0, r1}
1000157e:	47f0      	blx	lr

10001580 <generic_restore_state>:
10001580:	e8bd 5000 	ldmia.w	sp!, {ip, lr}
10001584:	ec4e c400 	dcp_wxmd ip, lr
10001588:	e8bd 5000 	ldmia.w	sp!, {ip, lr}
1000158c:	ec4e c401 	dcp_wymd ip, lr
10001590:	e8bd 5000 	ldmia.w	sp!, {ip, lr}
10001594:	ec4e c402 	dcp_wefd ip, lr
10001598:	bd00      	pop	{pc}
1000159a:	0000      	movs	r0, r0
1000159c:	b500      	push	{lr}
1000159e:	f7ff ffdf 	bl	10001560 <generic_save_state>
100015a2:	e002      	b.n	100015aa <__wrap___aeabi_dadd+0x6>

100015a4 <__wrap___aeabi_dadd>:
100015a4:	fe10 f430 	dcp_pcmp APSR_nzcv
100015a8:	d4f8      	bmi.n	1000159c <generic_restore_state+0x1c>
100015aa:	ec41 0410 	dcp_wxup r0, r1
100015ae:	ec43 2411 	dcp_wyup r2, r3
100015b2:	ee00 0401 			dcp_add0
100015b6:	ee10 0401 			dcp_add1
100015ba:	ee80 0420 			dcp_nrdd
100015be:	ec51 0410 	dcp_rdda r0, r1
100015c2:	4770      	bx	lr
100015c4:	b500      	push	{lr}
100015c6:	f7ff ffcb 	bl	10001560 <generic_save_state>
100015ca:	e002      	b.n	100015d2 <__wrap___aeabi_dsub+0x6>

100015cc <__wrap___aeabi_dsub>:
100015cc:	fe10 f430 	dcp_pcmp APSR_nzcv
100015d0:	d4f8      	bmi.n	100015c4 <__wrap___aeabi_dadd+0x20>
100015d2:	ec41 0410 	dcp_wxup r0, r1
100015d6:	ec43 2411 	dcp_wyup r2, r3
100015da:	ee00 0401 			dcp_add0
100015de:	ee10 0421 			dcp_sub1
100015e2:	ee80 0420 			dcp_nrdd
100015e6:	ec51 0430 	dcp_rdds r0, r1
100015ea:	4770      	bx	lr
100015ec:	b500      	push	{lr}
100015ee:	f7ff ffb7 	bl	10001560 <generic_save_state>
100015f2:	e002      	b.n	100015fa <__wrap___aeabi_dmul+0x6>

100015f4 <__wrap___aeabi_dmul>:
100015f4:	fe10 f430 	dcp_pcmp APSR_nzcv
100015f8:	d4f8      	bmi.n	100015ec <__wrap___aeabi_dsub+0x20>
100015fa:	b510      	push	{r4, lr}
100015fc:	ec41 0410 	dcp_wxup r0, r1
10001600:	ec43 2411 	dcp_wyup r2, r3
10001604:	ec51 0404 	dcp_rxms r0, r1, #0x0
10001608:	ec53 2405 	dcp_ryms r2, r3, #0x0
1000160c:	fba0 4c02 	umull	r4, ip, r0, r2
10001610:	f05f 0e00 	movs.w	lr, #0
10001614:	fbe0 ce03 	umlal	ip, lr, r0, r3
10001618:	fbe1 ce02 	umlal	ip, lr, r1, r2
1000161c:	ec4c 4420 	dcp_wxms r4, ip
10001620:	2400      	movs	r4, #0
10001622:	fbe1 e403 	umlal	lr, r4, r1, r3
10001626:	ec44 e430 	dcp_wxmo lr, r4
1000162a:	ee80 0420 			dcp_nrdd
1000162e:	ec51 0450 	dcp_rddm r0, r1
10001632:	e8bd 4010 	ldmia.w	sp!, {r4, lr}
10001636:	4770      	bx	lr
10001638:	b500      	push	{lr}
1000163a:	f7ff ff91 	bl	10001560 <generic_save_state>
1000163e:	e002      	b.n	10001646 <__wrap___aeabi_ddiv+0x6>

10001640 <__wrap___aeabi_ddiv>:
10001640:	fe10 f430 	dcp_pcmp APSR_nzcv
10001644:	d4f8      	bmi.n	10001638 <__wrap___aeabi_dmul+0x44>
10001646:	ec41 0410 	dcp_wxup r0, r1
1000164a:	ec43 2411 	dcp_wyup r2, r3
1000164e:	ec51 0421 	dcp_rymr r0, r1
10001652:	fba0 1201 	umull	r1, r2, r0, r1
10001656:	ea6f 0282 	mvn.w	r2, r2, lsl #2
1000165a:	fb52 0010 	smmlar	r0, r2, r0, r0
1000165e:	fb52 f212 	smmulr	r2, r2, r2
10001662:	fb52 0010 	smmlar	r0, r2, r0, r0
10001666:	eba0 7cd0 	sub.w	ip, r0, r0, lsr #31
1000166a:	ec53 2404 	dcp_rxms r2, r3, #0x0
1000166e:	fb5c f113 	smmulr	r1, ip, r3
10001672:	ec53 2415 	dcp_ryms r2, r3, #0x1
10001676:	fba1 2002 	umull	r2, r0, r1, r2
1000167a:	fb01 0003 	mla	r0, r1, r3, r0
1000167e:	ec53 2444 	dcp_rxms r2, r3, #0x4
10001682:	eba2 0000 	sub.w	r0, r2, r0
10001686:	fb50 f21c 	smmulr	r2, r0, ip
1000168a:	ea4f 1311 	mov.w	r3, r1, lsr #4
1000168e:	eb12 7001 	adds.w	r0, r2, r1, lsl #28
10001692:	eb43 71e2 	adc.w	r1, r3, r2, asr #31
10001696:	ea40 5051 	orr.w	r0, r0, r1, lsr #21
1000169a:	ea20 5091 	bic.w	r0, r0, r1, lsr #22
1000169e:	f020 0007 	bic.w	r0, r0, #7
100016a2:	ec53 2475 	dcp_ryms r2, r3, #0x7
100016a6:	fba0 3c02 	umull	r3, ip, r0, r2
100016aa:	ec53 2475 	dcp_ryms r2, r3, #0x7
100016ae:	fb00 cc03 	mla	ip, r0, r3, ip
100016b2:	fb01 cc02 	mla	ip, r1, r2, ip
100016b6:	ec53 2404 	dcp_rxms r2, r3, #0x0
100016ba:	ebac 4c82 	sub.w	ip, ip, r2, lsl #18
100016be:	ea40 705c 	orr.w	r0, r0, ip, lsr #29
100016c2:	f1a0 0001 	sub.w	r0, r0, #1
100016c6:	ec41 0440 	dcp_wxdd r0, r1
100016ca:	ee80 0420 			dcp_nrdd
100016ce:	ec51 0470 	dcp_rddd r0, r1
100016d2:	4770      	bx	lr
100016d4:	b500      	push	{lr}
100016d6:	f7ff ff43 	bl	10001560 <generic_save_state>
100016da:	e002      	b.n	100016e2 <__wrap___aeabi_i2d+0x6>

100016dc <__wrap___aeabi_i2d>:
100016dc:	fe10 f430 	dcp_pcmp APSR_nzcv
100016e0:	d4f8      	bmi.n	100016d4 <__wrap___aeabi_ddiv+0x94>
100016e2:	ec40 0470 	dcp_wxic r0, r0
100016e6:	ee00 0401 			dcp_add0
100016ea:	ee10 0421 			dcp_sub1
100016ee:	ee80 0420 			dcp_nrdd
100016f2:	ec51 0430 	dcp_rdds r0, r1
100016f6:	4770      	bx	lr
100016f8:	b500      	push	{lr}
100016fa:	f7ff ff31 	bl	10001560 <generic_save_state>
100016fe:	e002      	b.n	10001706 <__wrap___aeabi_ui2d+0x6>

10001700 <__wrap___aeabi_ui2d>:
10001700:	fe10 f430 	dcp_pcmp APSR_nzcv
10001704:	d4f8      	bmi.n	100016f8 <__wrap___aeabi_i2d+0x1c>
10001706:	ec40 0460 	dcp_wxuc r0, r0
1000170a:	ee00 0401 			dcp_add0
1000170e:	ee10 0421 			dcp_sub1
10001712:	ee80 0420 			dcp_nrdd
10001716:	ec51 0430 	dcp_rdds r0, r1
1000171a:	4770      	bx	lr
1000171c:	b500      	push	{lr}
1000171e:	f7ff ff1f 	bl	10001560 <generic_save_state>
10001722:	e002      	b.n	1000172a <double2int_z_entry>

10001724 <__wrap___aeabi_d2iz>:
10001724:	fe10 f430 	dcp_pcmp APSR_nzcv
10001728:	d4f8      	bmi.n	1000171c <__wrap___aeabi_ui2d+0x1c>

1000172a <double2int_z_entry>:
1000172a:	ec41 0480 	dcp_wxdc r0, r1
1000172e:	ee00 0401 			dcp_add0
10001732:	ee10 0401 			dcp_add1
10001736:	ee80 0440 			dcp_ntdc
1000173a:	ee10 0413 			dcp_rdic r0
1000173e:	4770      	bx	lr
10001740:	b500      	push	{lr}
10001742:	f7ff ff0d 	bl	10001560 <generic_save_state>
10001746:	e002      	b.n	1000174e <double2uint_z_entry>

10001748 <__wrap___aeabi_d2uiz>:
10001748:	fe10 f430 	dcp_pcmp APSR_nzcv
1000174c:	d4f8      	bmi.n	10001740 <double2int_z_entry+0x16>

1000174e <double2uint_z_entry>:
1000174e:	ec41 0480 	dcp_wxdc r0, r1
10001752:	ee00 0401 			dcp_add0
10001756:	ee10 0401 			dcp_add1
1000175a:	ee80 0440 			dcp_ntdc
1000175e:	ee10 0433 			dcp_rduc r0
10001762:	4770      	bx	lr
10001764:	b500      	push	{lr}
10001766:	f7ff fefb 	bl	10001560 <generic_save_state>
1000176a:	e002      	b.n	10001772 <__wrap___aeabi_dcmpun+0x6>

1000176c <__wrap___aeabi_dcmpun>:
1000176c:	fe10 f430 	dcp_pcmp APSR_nzcv
10001770:	d4f8      	bmi.n	10001764 <double2uint_z_entry+0x16>
10001772:	ec41 0410 	dcp_wxup r0, r1
10001776:	ec43 2411 	dcp_wyup r2, r3
1000177a:	ee00 0401 			dcp_add0
1000177e:	ee10 0430 			dcp_rcmp r0
10001782:	f3c0 7000 	ubfx	r0, r0, #28, #1
10001786:	4770      	bx	lr
10001788:	b500      	push	{lr}
1000178a:	f7ff fee9 	bl	10001560 <generic_save_state>
1000178e:	e002      	b.n	10001796 <__wrap___aeabi_dcmplt+0x6>

10001790 <__wrap___aeabi_dcmplt>:
10001790:	fe10 f430 	dcp_pcmp APSR_nzcv
10001794:	d4f8      	bmi.n	10001788 <__wrap___aeabi_dcmpun+0x1c>
10001796:	ec43 2410 	dcp_wxup r2, r3
1000179a:	ec41 0411 	dcp_wyup r0, r1
1000179e:	ee00 0401 			dcp_add0
100017a2:	ee10 f430 			dcp_rcmp APSR_nzcv
100017a6:	bf8c      	ite	hi
100017a8:	2001      	movhi	r0, #1
100017aa:	2000      	movls	r0, #0
100017ac:	4770      	bx	lr
100017ae:	bf00      	nop
100017b0:	b500      	push	{lr}
100017b2:	f7ff fed5 	bl	10001560 <generic_save_state>
100017b6:	e002      	b.n	100017be <__wrap___aeabi_dcmple+0x6>

100017b8 <__wrap___aeabi_dcmple>:
100017b8:	fe10 f430 	dcp_pcmp APSR_nzcv
100017bc:	d4f8      	bmi.n	100017b0 <__wrap___aeabi_dcmplt+0x20>
100017be:	ec43 2410 	dcp_wxup r2, r3
100017c2:	ec41 0411 	dcp_wyup r0, r1
100017c6:	ee00 0401 			dcp_add0
100017ca:	ee10 f430 			dcp_rcmp APSR_nzcv
100017ce:	bf2c      	ite	cs
100017d0:	2001      	movcs	r0, #1
100017d2:	2000      	movcc	r0, #0
100017d4:	4770      	bx	lr
100017d6:	bf00      	nop
100017d8:	b500      	push	{lr}
100017da:	f7ff fec1 	bl	10001560 <generic_save_state>
100017de:	e002      	b.n	100017e6 <__wrap___aeabi_dcmpge+0x6>

100017e0 <__wrap___aeabi_dcmpge>:
100017e0:	fe10 f430 	dcp_pcmp APSR_nzcv
100017e4:	d4f8      	bmi.n	100017d8 <__wrap___aeabi_dcmple+0x20>
100017e6:	ec41 0410 	dcp_wxup r0, r1
100017ea:	ec43 2411 	dcp_wyup r2, r3
100017ee:	ee00 0401 			dcp_add0
100017f2:	ee10 f430 			dcp_rcmp APSR_nzcv
100017f6:	bf2c      	ite	cs
100017f8:	2001      	movcs	r0, #1
100017fa:	2000      	movcc	r0, #0
100017fc:	4770      	bx	lr
100017fe:	bf00      	nop
10001800:	b500      	push	{lr}
10001802:	f7ff fead 	bl	10001560 <generic_save_state>
10001806:	e002      	b.n	1000180e <__wrap___aeabi_dcmpgt+0x6>

10001808 <__wrap___aeabi_dcmpgt>:
10001808:	fe10 f430 	dcp_pcmp APSR_nzcv
1000180c:	d4f8      	bmi.n	10001800 <__wrap___aeabi_dcmpge+0x20>
1000180e:	ec41 0410 	dcp_wxup r0, r1
10001812:	ec43 2411 	dcp_wyup r2, r3
10001816:	ee00 0401 			dcp_add0
1000181a:	ee10 f430 			dcp_rcmp APSR_nzcv
1000181e:	bf8c      	ite	hi
10001820:	2001      	movhi	r0, #1
10001822:	2000      	movls	r0, #0
10001824:	4770      	bx	lr
10001826:	bf00      	nop

10001828 <_out_null>:
10001828:	4770      	bx	lr
1000182a:	bf00      	nop

1000182c <_out_rev>:
1000182c:	e92d 4ff0 	stmdb	sp!, {r4, r5, r6, r7, r8, r9, sl, fp, lr}
10001830:	b083      	sub	sp, #12
10001832:	4699      	mov	r9, r3
10001834:	e9dd ab0d 	ldrd	sl, fp, [sp, #52]	@ 0x34
10001838:	9b0f      	ldr	r3, [sp, #60]	@ 0x3c
1000183a:	4688      	mov	r8, r1
1000183c:	4611      	mov	r1, r2
1000183e:	079a      	lsls	r2, r3, #30
10001840:	4607      	mov	r7, r0
10001842:	d116      	bne.n	10001872 <_out_rev+0x46>
10001844:	45da      	cmp	sl, fp
10001846:	d23a      	bcs.n	100018be <_out_rev+0x92>
10001848:	460c      	mov	r4, r1
1000184a:	460d      	mov	r5, r1
1000184c:	ebab 060a 	sub.w	r6, fp, sl
10001850:	440e      	add	r6, r1
10001852:	4622      	mov	r2, r4
10001854:	464b      	mov	r3, r9
10001856:	4641      	mov	r1, r8
10001858:	2020      	movs	r0, #32
1000185a:	3401      	adds	r4, #1
1000185c:	47b8      	blx	r7
1000185e:	42b4      	cmp	r4, r6
10001860:	d1f7      	bne.n	10001852 <_out_rev+0x26>
10001862:	4629      	mov	r1, r5
10001864:	f1ba 0f00 	cmp.w	sl, #0
10001868:	d108      	bne.n	1000187c <_out_rev+0x50>
1000186a:	4620      	mov	r0, r4
1000186c:	b003      	add	sp, #12
1000186e:	e8bd 8ff0 	ldmia.w	sp!, {r4, r5, r6, r7, r8, r9, sl, fp, pc}
10001872:	460c      	mov	r4, r1
10001874:	f1ba 0f00 	cmp.w	sl, #0
10001878:	d010      	beq.n	1000189c <_out_rev+0x70>
1000187a:	460e      	mov	r6, r1
1000187c:	4655      	mov	r5, sl
1000187e:	9b0c      	ldr	r3, [sp, #48]	@ 0x30
10001880:	442e      	add	r6, r5
10001882:	449a      	add	sl, r3
10001884:	9101      	str	r1, [sp, #4]
10001886:	1b72      	subs	r2, r6, r5
10001888:	464b      	mov	r3, r9
1000188a:	3d01      	subs	r5, #1
1000188c:	4641      	mov	r1, r8
1000188e:	f81a 0d01 	ldrb.w	r0, [sl, #-1]!
10001892:	4634      	mov	r4, r6
10001894:	47b8      	blx	r7
10001896:	2d00      	cmp	r5, #0
10001898:	d1f5      	bne.n	10001886 <_out_rev+0x5a>
1000189a:	9901      	ldr	r1, [sp, #4]
1000189c:	9b0f      	ldr	r3, [sp, #60]	@ 0x3c
1000189e:	079b      	lsls	r3, r3, #30
100018a0:	d5e3      	bpl.n	1000186a <_out_rev+0x3e>
100018a2:	1a65      	subs	r5, r4, r1
100018a4:	45ab      	cmp	fp, r5
100018a6:	d9e0      	bls.n	1000186a <_out_rev+0x3e>
100018a8:	4622      	mov	r2, r4
100018aa:	464b      	mov	r3, r9
100018ac:	4641      	mov	r1, r8
100018ae:	2020      	movs	r0, #32
100018b0:	3501      	adds	r5, #1
100018b2:	47b8      	blx	r7
100018b4:	455d      	cmp	r5, fp
100018b6:	f104 0401 	add.w	r4, r4, #1
100018ba:	d3f5      	bcc.n	100018a8 <_out_rev+0x7c>
100018bc:	e7d5      	b.n	1000186a <_out_rev+0x3e>
100018be:	460c      	mov	r4, r1
100018c0:	f1ba 0f00 	cmp.w	sl, #0
100018c4:	d1d9      	bne.n	1000187a <_out_rev+0x4e>
100018c6:	e7d0      	b.n	1000186a <_out_rev+0x3e>

100018c8 <_ntoa_format>:
100018c8:	e92d 4ff0 	stmdb	sp!, {r4, r5, r6, r7, r8, r9, sl, fp, lr}
100018cc:	9f0f      	ldr	r7, [sp, #60]	@ 0x3c
100018ce:	f8dd 8024 	ldr.w	r8, [sp, #36]	@ 0x24
100018d2:	f017 0f02 	tst.w	r7, #2
100018d6:	9c0a      	ldr	r4, [sp, #40]	@ 0x28
100018d8:	f89d a02c 	ldrb.w	sl, [sp, #44]	@ 0x2c
100018dc:	9d0e      	ldr	r5, [sp, #56]	@ 0x38
100018de:	e9dd 960c 	ldrd	r9, r6, [sp, #48]	@ 0x30
100018e2:	d144      	bne.n	1000196e <_ntoa_format+0xa6>
100018e4:	bbf5      	cbnz	r5, 10001964 <_ntoa_format+0x9c>
100018e6:	42b4      	cmp	r4, r6
100018e8:	d241      	bcs.n	1000196e <_ntoa_format+0xa6>
100018ea:	f007 0b01 	and.w	fp, r7, #1
100018ee:	f104 3cff 	add.w	ip, r4, #4294967295
100018f2:	f04f 0e30 	mov.w	lr, #48	@ 0x30
100018f6:	44c4      	add	ip, r8
100018f8:	e004      	b.n	10001904 <_ntoa_format+0x3c>
100018fa:	3401      	adds	r4, #1
100018fc:	42a6      	cmp	r6, r4
100018fe:	f80c ef01 	strb.w	lr, [ip, #1]!
10001902:	d901      	bls.n	10001908 <_ntoa_format+0x40>
10001904:	2c20      	cmp	r4, #32
10001906:	d1f8      	bne.n	100018fa <_ntoa_format+0x32>
10001908:	f1bb 0f00 	cmp.w	fp, #0
1000190c:	f000 8088 	beq.w	10001a20 <_ntoa_format+0x158>
10001910:	42a5      	cmp	r5, r4
10001912:	d92c      	bls.n	1000196e <_ntoa_format+0xa6>
10001914:	f104 3cff 	add.w	ip, r4, #4294967295
10001918:	f04f 0e30 	mov.w	lr, #48	@ 0x30
1000191c:	44c4      	add	ip, r8
1000191e:	e004      	b.n	1000192a <_ntoa_format+0x62>
10001920:	3401      	adds	r4, #1
10001922:	42ac      	cmp	r4, r5
10001924:	f80c ef01 	strb.w	lr, [ip, #1]!
10001928:	d021      	beq.n	1000196e <_ntoa_format+0xa6>
1000192a:	2c20      	cmp	r4, #32
1000192c:	d1f8      	bne.n	10001920 <_ntoa_format+0x58>
1000192e:	f017 0f10 	tst.w	r7, #16
10001932:	d00e      	beq.n	10001952 <_ntoa_format+0x8a>
10001934:	f417 6f80 	tst.w	r7, #1024	@ 0x400
10001938:	d154      	bne.n	100019e4 <_ntoa_format+0x11c>
1000193a:	42a6      	cmp	r6, r4
1000193c:	d063      	beq.n	10001a06 <_ntoa_format+0x13e>
1000193e:	42a5      	cmp	r5, r4
10001940:	d061      	beq.n	10001a06 <_ntoa_format+0x13e>
10001942:	f1b9 0f10 	cmp.w	r9, #16
10001946:	d050      	beq.n	100019ea <_ntoa_format+0x122>
10001948:	f1b9 0f02 	cmp.w	r9, #2
1000194c:	d056      	beq.n	100019fc <_ntoa_format+0x134>
1000194e:	2c20      	cmp	r4, #32
10001950:	d129      	bne.n	100019a6 <_ntoa_format+0xde>
10001952:	2420      	movs	r4, #32
10001954:	e9cd 570b 	strd	r5, r7, [sp, #44]	@ 0x2c
10001958:	e9cd 8409 	strd	r8, r4, [sp, #36]	@ 0x24
1000195c:	e8bd 4ff0 	ldmia.w	sp!, {r4, r5, r6, r7, r8, r9, sl, fp, lr}
10001960:	f7ff bf64 	b.w	1000182c <_out_rev>
10001964:	f017 0b01 	ands.w	fp, r7, #1
10001968:	d134      	bne.n	100019d4 <_ntoa_format+0x10c>
1000196a:	42b4      	cmp	r4, r6
1000196c:	d3bf      	bcc.n	100018ee <_ntoa_format+0x26>
1000196e:	f017 0f10 	tst.w	r7, #16
10001972:	d01e      	beq.n	100019b2 <_ntoa_format+0xea>
10001974:	f417 6f80 	tst.w	r7, #1024	@ 0x400
10001978:	d1e3      	bne.n	10001942 <_ntoa_format+0x7a>
1000197a:	2c00      	cmp	r4, #0
1000197c:	d1dd      	bne.n	1000193a <_ntoa_format+0x72>
1000197e:	f1b9 0f10 	cmp.w	r9, #16
10001982:	d063      	beq.n	10001a4c <_ntoa_format+0x184>
10001984:	f1b9 0f02 	cmp.w	r9, #2
10001988:	d077      	beq.n	10001a7a <_ntoa_format+0x1b2>
1000198a:	2430      	movs	r4, #48	@ 0x30
1000198c:	f888 4000 	strb.w	r4, [r8]
10001990:	2401      	movs	r4, #1
10001992:	f1ba 0f00 	cmp.w	sl, #0
10001996:	d111      	bne.n	100019bc <_ntoa_format+0xf4>
10001998:	077e      	lsls	r6, r7, #29
1000199a:	d548      	bpl.n	10001a2e <_ntoa_format+0x166>
1000199c:	262b      	movs	r6, #43	@ 0x2b
1000199e:	f808 6004 	strb.w	r6, [r8, r4]
100019a2:	3401      	adds	r4, #1
100019a4:	e7d6      	b.n	10001954 <_ntoa_format+0x8c>
100019a6:	4626      	mov	r6, r4
100019a8:	3401      	adds	r4, #1
100019aa:	f04f 0c30 	mov.w	ip, #48	@ 0x30
100019ae:	f808 c006 	strb.w	ip, [r8, r6]
100019b2:	2c20      	cmp	r4, #32
100019b4:	d0cd      	beq.n	10001952 <_ntoa_format+0x8a>
100019b6:	f1ba 0f00 	cmp.w	sl, #0
100019ba:	d0ed      	beq.n	10001998 <_ntoa_format+0xd0>
100019bc:	262d      	movs	r6, #45	@ 0x2d
100019be:	f808 6004 	strb.w	r6, [r8, r4]
100019c2:	3401      	adds	r4, #1
100019c4:	e9cd 570b 	strd	r5, r7, [sp, #44]	@ 0x2c
100019c8:	e9cd 8409 	strd	r8, r4, [sp, #36]	@ 0x24
100019cc:	e8bd 4ff0 	ldmia.w	sp!, {r4, r5, r6, r7, r8, r9, sl, fp, lr}
100019d0:	f7ff bf2c 	b.w	1000182c <_out_rev>
100019d4:	f1ba 0f00 	cmp.w	sl, #0
100019d8:	d030      	beq.n	10001a3c <_ntoa_format+0x174>
100019da:	42b4      	cmp	r4, r6
100019dc:	f105 35ff 	add.w	r5, r5, #4294967295
100019e0:	d385      	bcc.n	100018ee <_ntoa_format+0x26>
100019e2:	e795      	b.n	10001910 <_ntoa_format+0x48>
100019e4:	f1b9 0f10 	cmp.w	r9, #16
100019e8:	d1b3      	bne.n	10001952 <_ntoa_format+0x8a>
100019ea:	06be      	lsls	r6, r7, #26
100019ec:	d53b      	bpl.n	10001a66 <_ntoa_format+0x19e>
100019ee:	2c20      	cmp	r4, #32
100019f0:	d0af      	beq.n	10001952 <_ntoa_format+0x8a>
100019f2:	2658      	movs	r6, #88	@ 0x58
100019f4:	f808 6004 	strb.w	r6, [r8, r4]
100019f8:	3401      	adds	r4, #1
100019fa:	e7a8      	b.n	1000194e <_ntoa_format+0x86>
100019fc:	2c20      	cmp	r4, #32
100019fe:	d0a8      	beq.n	10001952 <_ntoa_format+0x8a>
10001a00:	4626      	mov	r6, r4
10001a02:	3401      	adds	r4, #1
10001a04:	e007      	b.n	10001a16 <_ntoa_format+0x14e>
10001a06:	1e66      	subs	r6, r4, #1
10001a08:	d0b9      	beq.n	1000197e <_ntoa_format+0xb6>
10001a0a:	f1b9 0f10 	cmp.w	r9, #16
10001a0e:	d036      	beq.n	10001a7e <_ntoa_format+0x1b6>
10001a10:	f1b9 0f02 	cmp.w	r9, #2
10001a14:	d1c9      	bne.n	100019aa <_ntoa_format+0xe2>
10001a16:	f04f 0c62 	mov.w	ip, #98	@ 0x62
10001a1a:	f808 c006 	strb.w	ip, [r8, r6]
10001a1e:	e796      	b.n	1000194e <_ntoa_format+0x86>
10001a20:	f017 0f10 	tst.w	r7, #16
10001a24:	d0c5      	beq.n	100019b2 <_ntoa_format+0xea>
10001a26:	f417 6f80 	tst.w	r7, #1024	@ 0x400
10001a2a:	d086      	beq.n	1000193a <_ntoa_format+0x72>
10001a2c:	e789      	b.n	10001942 <_ntoa_format+0x7a>
10001a2e:	073e      	lsls	r6, r7, #28
10001a30:	d590      	bpl.n	10001954 <_ntoa_format+0x8c>
10001a32:	2620      	movs	r6, #32
10001a34:	f808 6004 	strb.w	r6, [r8, r4]
10001a38:	3401      	adds	r4, #1
10001a3a:	e78b      	b.n	10001954 <_ntoa_format+0x8c>
10001a3c:	f017 0f0c 	tst.w	r7, #12
10001a40:	d000      	beq.n	10001a44 <_ntoa_format+0x17c>
10001a42:	3d01      	subs	r5, #1
10001a44:	42b4      	cmp	r4, r6
10001a46:	f4ff af52 	bcc.w	100018ee <_ntoa_format+0x26>
10001a4a:	e761      	b.n	10001910 <_ntoa_format+0x48>
10001a4c:	06bc      	lsls	r4, r7, #26
10001a4e:	d412      	bmi.n	10001a76 <_ntoa_format+0x1ae>
10001a50:	2478      	movs	r4, #120	@ 0x78
10001a52:	f888 4000 	strb.w	r4, [r8]
10001a56:	2430      	movs	r4, #48	@ 0x30
10001a58:	f888 4001 	strb.w	r4, [r8, #1]
10001a5c:	2402      	movs	r4, #2
10001a5e:	f1ba 0f00 	cmp.w	sl, #0
10001a62:	d099      	beq.n	10001998 <_ntoa_format+0xd0>
10001a64:	e7aa      	b.n	100019bc <_ntoa_format+0xf4>
10001a66:	2c20      	cmp	r4, #32
10001a68:	f43f af73 	beq.w	10001952 <_ntoa_format+0x8a>
10001a6c:	2678      	movs	r6, #120	@ 0x78
10001a6e:	f808 6004 	strb.w	r6, [r8, r4]
10001a72:	3401      	adds	r4, #1
10001a74:	e76b      	b.n	1000194e <_ntoa_format+0x86>
10001a76:	2458      	movs	r4, #88	@ 0x58
10001a78:	e7eb      	b.n	10001a52 <_ntoa_format+0x18a>
10001a7a:	2462      	movs	r4, #98	@ 0x62
10001a7c:	e7e9      	b.n	10001a52 <_ntoa_format+0x18a>
10001a7e:	f017 0f20 	tst.w	r7, #32
10001a82:	f1a4 0c02 	sub.w	ip, r4, #2
10001a86:	d004      	beq.n	10001a92 <_ntoa_format+0x1ca>
10001a88:	f04f 0e58 	mov.w	lr, #88	@ 0x58
10001a8c:	f808 e00c 	strb.w	lr, [r8, ip]
10001a90:	e78b      	b.n	100019aa <_ntoa_format+0xe2>
10001a92:	f04f 0e78 	mov.w	lr, #120	@ 0x78
10001a96:	f808 e00c 	strb.w	lr, [r8, ip]
10001a9a:	e786      	b.n	100019aa <_ntoa_format+0xe2>

10001a9c <_out_char>:
10001a9c:	b900      	cbnz	r0, 10001aa0 <_out_char+0x4>
10001a9e:	4770      	bx	lr
10001aa0:	f001 bb72 	b.w	10003188 <__wrap_putchar>

10001aa4 <_out_fct>:
10001aa4:	b110      	cbz	r0, 10001aac <_out_fct+0x8>
10001aa6:	e9d1 3100 	ldrd	r3, r1, [r1]
10001aaa:	4718      	bx	r3
10001aac:	4770      	bx	lr
10001aae:	bf00      	nop

10001ab0 <_ftoa>:
10001ab0:	e92d 4ff0 	stmdb	sp!, {r4, r5, r6, r7, r8, r9, sl, fp, lr}
10001ab4:	b097      	sub	sp, #92	@ 0x5c
10001ab6:	ed9d 7b20 	vldr	d7, [sp, #128]	@ 0x80
10001aba:	e9dd 5b22 	ldrd	r5, fp, [sp, #136]	@ 0x88
10001abe:	4607      	mov	r7, r0
10001ac0:	4688      	mov	r8, r1
10001ac2:	ec51 0b17 	vmov	r0, r1, d7
10001ac6:	9c24      	ldr	r4, [sp, #144]	@ 0x90
10001ac8:	4699      	mov	r9, r3
10001aca:	920c      	str	r2, [sp, #48]	@ 0x30
10001acc:	460b      	mov	r3, r1
10001ace:	4602      	mov	r2, r0
10001ad0:	ed8d 7b04 	vstr	d7, [sp, #16]
10001ad4:	9407      	str	r4, [sp, #28]
10001ad6:	f7ff fe49 	bl	1000176c <__wrap___aeabi_dcmpun>
10001ada:	2800      	cmp	r0, #0
10001adc:	f040 81f4 	bne.w	10001ec8 <_ftoa+0x418>
10001ae0:	e9dd 0104 	ldrd	r0, r1, [sp, #16]
10001ae4:	f04f 32ff 	mov.w	r2, #4294967295
10001ae8:	f46f 1380 	mvn.w	r3, #1048576	@ 0x100000
10001aec:	f7ff fe50 	bl	10001790 <__wrap___aeabi_dcmplt>
10001af0:	2800      	cmp	r0, #0
10001af2:	f040 811b 	bne.w	10001d2c <_ftoa+0x27c>
10001af6:	e9dd 0104 	ldrd	r0, r1, [sp, #16]
10001afa:	f04f 32ff 	mov.w	r2, #4294967295
10001afe:	4bac      	ldr	r3, [pc, #688]	@ (10001db0 <_ftoa+0x300>)
10001b00:	f7ff fe82 	bl	10001808 <__wrap___aeabi_dcmpgt>
10001b04:	2800      	cmp	r0, #0
10001b06:	f040 80ee 	bne.w	10001ce6 <_ftoa+0x236>
10001b0a:	e9dd 0104 	ldrd	r0, r1, [sp, #16]
10001b0e:	a3a4      	add	r3, pc, #656	@ (adr r3, 10001da0 <_ftoa+0x2f0>)
10001b10:	e9d3 2300 	ldrd	r2, r3, [r3]
10001b14:	f7ff fe78 	bl	10001808 <__wrap___aeabi_dcmpgt>
10001b18:	2800      	cmp	r0, #0
10001b1a:	f040 80d3 	bne.w	10001cc4 <_ftoa+0x214>
10001b1e:	e9dd 0104 	ldrd	r0, r1, [sp, #16]
10001b22:	a3a1      	add	r3, pc, #644	@ (adr r3, 10001da8 <_ftoa+0x2f8>)
10001b24:	e9d3 2300 	ldrd	r2, r3, [r3]
10001b28:	f7ff fe32 	bl	10001790 <__wrap___aeabi_dcmplt>
10001b2c:	2800      	cmp	r0, #0
10001b2e:	f040 80c9 	bne.w	10001cc4 <_ftoa+0x214>
10001b32:	e9dd 0104 	ldrd	r0, r1, [sp, #16]
10001b36:	2200      	movs	r2, #0
10001b38:	2300      	movs	r3, #0
10001b3a:	f7ff fe29 	bl	10001790 <__wrap___aeabi_dcmplt>
10001b3e:	2800      	cmp	r0, #0
10001b40:	f040 80e8 	bne.w	10001d14 <_ftoa+0x264>
10001b44:	4623      	mov	r3, r4
10001b46:	900d      	str	r0, [sp, #52]	@ 0x34
10001b48:	f413 6f80 	tst.w	r3, #1024	@ 0x400
10001b4c:	bf08      	it	eq
10001b4e:	2506      	moveq	r5, #6
10001b50:	2130      	movs	r1, #48	@ 0x30
10001b52:	462b      	mov	r3, r5
10001b54:	aa0e      	add	r2, sp, #56	@ 0x38
10001b56:	f1a5 0620 	sub.w	r6, r5, #32
10001b5a:	e005      	b.n	10001b68 <_ftoa+0xb8>
10001b5c:	3b01      	subs	r3, #1
10001b5e:	42b3      	cmp	r3, r6
10001b60:	f802 1b01 	strb.w	r1, [r2], #1
10001b64:	f000 8193 	beq.w	10001e8e <_ftoa+0x3de>
10001b68:	2b09      	cmp	r3, #9
10001b6a:	d8f7      	bhi.n	10001b5c <_ftoa+0xac>
10001b6c:	461e      	mov	r6, r3
10001b6e:	1aed      	subs	r5, r5, r3
10001b70:	e9dd 0104 	ldrd	r0, r1, [sp, #16]
10001b74:	f7ff fdd6 	bl	10001724 <__wrap___aeabi_d2iz>
10001b78:	4b8e      	ldr	r3, [pc, #568]	@ (10001db4 <_ftoa+0x304>)
10001b7a:	4604      	mov	r4, r0
10001b7c:	eb03 03c6 	add.w	r3, r3, r6, lsl #3
10001b80:	ed93 7b00 	vldr	d7, [r3]
10001b84:	ed8d 7b08 	vstr	d7, [sp, #32]
10001b88:	f7ff fda8 	bl	100016dc <__wrap___aeabi_i2d>
10001b8c:	4602      	mov	r2, r0
10001b8e:	460b      	mov	r3, r1
10001b90:	e9dd 0104 	ldrd	r0, r1, [sp, #16]
10001b94:	f7ff fd1a 	bl	100015cc <__wrap___aeabi_dsub>
10001b98:	e9dd 2308 	ldrd	r2, r3, [sp, #32]
10001b9c:	f7ff fd2a 	bl	100015f4 <__wrap___aeabi_dmul>
10001ba0:	4602      	mov	r2, r0
10001ba2:	460b      	mov	r3, r1
10001ba4:	e9cd 230a 	strd	r2, r3, [sp, #40]	@ 0x28
10001ba8:	f7ff fdce 	bl	10001748 <__wrap___aeabi_d2uiz>
10001bac:	4682      	mov	sl, r0
10001bae:	f7ff fda7 	bl	10001700 <__wrap___aeabi_ui2d>
10001bb2:	4602      	mov	r2, r0
10001bb4:	460b      	mov	r3, r1
10001bb6:	e9dd 010a 	ldrd	r0, r1, [sp, #40]	@ 0x28
10001bba:	f7ff fd07 	bl	100015cc <__wrap___aeabi_dsub>
10001bbe:	4602      	mov	r2, r0
10001bc0:	460b      	mov	r3, r1
10001bc2:	e9cd 230a 	strd	r2, r3, [sp, #40]	@ 0x28
10001bc6:	2200      	movs	r2, #0
10001bc8:	4b7b      	ldr	r3, [pc, #492]	@ (10001db8 <_ftoa+0x308>)
10001bca:	f7ff fe1d 	bl	10001808 <__wrap___aeabi_dcmpgt>
10001bce:	2800      	cmp	r0, #0
10001bd0:	f000 80fe 	beq.w	10001dd0 <_ftoa+0x320>
10001bd4:	f10a 0a01 	add.w	sl, sl, #1
10001bd8:	4650      	mov	r0, sl
10001bda:	f7ff fd91 	bl	10001700 <__wrap___aeabi_ui2d>
10001bde:	4602      	mov	r2, r0
10001be0:	460b      	mov	r3, r1
10001be2:	e9dd 0108 	ldrd	r0, r1, [sp, #32]
10001be6:	f7ff fde7 	bl	100017b8 <__wrap___aeabi_dcmple>
10001bea:	b110      	cbz	r0, 10001bf2 <_ftoa+0x142>
10001bec:	f04f 0a00 	mov.w	sl, #0
10001bf0:	3401      	adds	r4, #1
10001bf2:	2e00      	cmp	r6, #0
10001bf4:	f000 80fd 	beq.w	10001df2 <_ftoa+0x342>
10001bf8:	1e68      	subs	r0, r5, #1
10001bfa:	ab0e      	add	r3, sp, #56	@ 0x38
10001bfc:	f8df c1cc 	ldr.w	ip, [pc, #460]	@ 10001dcc <_ftoa+0x31c>
10001c00:	4418      	add	r0, r3
10001c02:	e00f      	b.n	10001c24 <_ftoa+0x174>
10001c04:	fbac 210a 	umull	r2, r1, ip, sl
10001c08:	08c9      	lsrs	r1, r1, #3
10001c0a:	eb01 0281 	add.w	r2, r1, r1, lsl #2
10001c0e:	ebaa 0242 	sub.w	r2, sl, r2, lsl #1
10001c12:	3230      	adds	r2, #48	@ 0x30
10001c14:	f1ba 0f09 	cmp.w	sl, #9
10001c18:	f800 2f01 	strb.w	r2, [r0, #1]!
10001c1c:	f240 811c 	bls.w	10001e58 <_ftoa+0x3a8>
10001c20:	468a      	mov	sl, r1
10001c22:	461d      	mov	r5, r3
10001c24:	2d20      	cmp	r5, #32
10001c26:	f105 0301 	add.w	r3, r5, #1
10001c2a:	f106 36ff 	add.w	r6, r6, #4294967295
10001c2e:	d1e9      	bne.n	10001c04 <_ftoa+0x154>
10001c30:	2520      	movs	r5, #32
10001c32:	1e69      	subs	r1, r5, #1
10001c34:	ab0e      	add	r3, sp, #56	@ 0x38
10001c36:	4861      	ldr	r0, [pc, #388]	@ (10001dbc <_ftoa+0x30c>)
10001c38:	4419      	add	r1, r3
10001c3a:	e010      	b.n	10001c5e <_ftoa+0x1ae>
10001c3c:	fb80 6204 	smull	r6, r2, r0, r4
10001c40:	ebc3 03a2 	rsb	r3, r3, r2, asr #2
10001c44:	eb03 0283 	add.w	r2, r3, r3, lsl #2
10001c48:	eba4 0442 	sub.w	r4, r4, r2, lsl #1
10001c4c:	f104 0230 	add.w	r2, r4, #48	@ 0x30
10001c50:	3501      	adds	r5, #1
10001c52:	461c      	mov	r4, r3
10001c54:	f801 2f01 	strb.w	r2, [r1, #1]!
10001c58:	2b00      	cmp	r3, #0
10001c5a:	f000 80eb 	beq.w	10001e34 <_ftoa+0x384>
10001c5e:	2d20      	cmp	r5, #32
10001c60:	ea4f 73e4 	mov.w	r3, r4, asr #31
10001c64:	d1ea      	bne.n	10001c3c <_ftoa+0x18c>
10001c66:	9b07      	ldr	r3, [sp, #28]
10001c68:	f003 0303 	and.w	r3, r3, #3
10001c6c:	2b01      	cmp	r3, #1
10001c6e:	d118      	bne.n	10001ca2 <_ftoa+0x1f2>
10001c70:	f1bb 0f00 	cmp.w	fp, #0
10001c74:	d015      	beq.n	10001ca2 <_ftoa+0x1f2>
10001c76:	9b0d      	ldr	r3, [sp, #52]	@ 0x34
10001c78:	2b00      	cmp	r3, #0
10001c7a:	f000 810a 	beq.w	10001e92 <_ftoa+0x3e2>
10001c7e:	f10b 3bff 	add.w	fp, fp, #4294967295
10001c82:	f1bb 0f20 	cmp.w	fp, #32
10001c86:	d90c      	bls.n	10001ca2 <_ftoa+0x1f2>
10001c88:	1e6b      	subs	r3, r5, #1
10001c8a:	a90e      	add	r1, sp, #56	@ 0x38
10001c8c:	2230      	movs	r2, #48	@ 0x30
10001c8e:	440b      	add	r3, r1
10001c90:	e005      	b.n	10001c9e <_ftoa+0x1ee>
10001c92:	3501      	adds	r5, #1
10001c94:	455d      	cmp	r5, fp
10001c96:	f803 2f01 	strb.w	r2, [r3, #1]!
10001c9a:	f080 80d1 	bcs.w	10001e40 <_ftoa+0x390>
10001c9e:	2d20      	cmp	r5, #32
10001ca0:	d1f7      	bne.n	10001c92 <_ftoa+0x1e2>
10001ca2:	9b07      	ldr	r3, [sp, #28]
10001ca4:	ac0e      	add	r4, sp, #56	@ 0x38
10001ca6:	e9cd b302 	strd	fp, r3, [sp, #8]
10001caa:	4641      	mov	r1, r8
10001cac:	464b      	mov	r3, r9
10001cae:	4638      	mov	r0, r7
10001cb0:	9a0c      	ldr	r2, [sp, #48]	@ 0x30
10001cb2:	9501      	str	r5, [sp, #4]
10001cb4:	9400      	str	r4, [sp, #0]
10001cb6:	f7ff fdb9 	bl	1000182c <_out_rev>
10001cba:	4682      	mov	sl, r0
10001cbc:	4650      	mov	r0, sl
10001cbe:	b017      	add	sp, #92	@ 0x5c
10001cc0:	e8bd 8ff0 	ldmia.w	sp!, {r4, r5, r6, r7, r8, r9, sl, fp, pc}
10001cc4:	9b07      	ldr	r3, [sp, #28]
10001cc6:	ed9d 7b04 	vldr	d7, [sp, #16]
10001cca:	e9cd b323 	strd	fp, r3, [sp, #140]	@ 0x8c
10001cce:	4641      	mov	r1, r8
10001cd0:	464b      	mov	r3, r9
10001cd2:	4638      	mov	r0, r7
10001cd4:	9a0c      	ldr	r2, [sp, #48]	@ 0x30
10001cd6:	ed8d 7b20 	vstr	d7, [sp, #128]	@ 0x80
10001cda:	9522      	str	r5, [sp, #136]	@ 0x88
10001cdc:	b017      	add	sp, #92	@ 0x5c
10001cde:	e8bd 4ff0 	ldmia.w	sp!, {r4, r5, r6, r7, r8, r9, sl, fp, lr}
10001ce2:	f000 b945 	b.w	10001f70 <_etoa>
10001ce6:	0761      	lsls	r1, r4, #29
10001ce8:	4623      	mov	r3, r4
10001cea:	bf4c      	ite	mi
10001cec:	2304      	movmi	r3, #4
10001cee:	2303      	movpl	r3, #3
10001cf0:	4641      	mov	r1, r8
10001cf2:	9321      	str	r3, [sp, #132]	@ 0x84
10001cf4:	4638      	mov	r0, r7
10001cf6:	464b      	mov	r3, r9
10001cf8:	9a07      	ldr	r2, [sp, #28]
10001cfa:	bf48      	it	mi
10001cfc:	4c30      	ldrmi	r4, [pc, #192]	@ (10001dc0 <_ftoa+0x310>)
10001cfe:	e9cd b222 	strd	fp, r2, [sp, #136]	@ 0x88
10001d02:	bf58      	it	pl
10001d04:	4c2f      	ldrpl	r4, [pc, #188]	@ (10001dc4 <_ftoa+0x314>)
10001d06:	9a0c      	ldr	r2, [sp, #48]	@ 0x30
10001d08:	9420      	str	r4, [sp, #128]	@ 0x80
10001d0a:	b017      	add	sp, #92	@ 0x5c
10001d0c:	e8bd 4ff0 	ldmia.w	sp!, {r4, r5, r6, r7, r8, r9, sl, fp, lr}
10001d10:	f7ff bd8c 	b.w	1000182c <_out_rev>
10001d14:	e9dd 2304 	ldrd	r2, r3, [sp, #16]
10001d18:	2000      	movs	r0, #0
10001d1a:	2100      	movs	r1, #0
10001d1c:	f7ff fc56 	bl	100015cc <__wrap___aeabi_dsub>
10001d20:	2301      	movs	r3, #1
10001d22:	e9cd 0104 	strd	r0, r1, [sp, #16]
10001d26:	930d      	str	r3, [sp, #52]	@ 0x34
10001d28:	4623      	mov	r3, r4
10001d2a:	e70d      	b.n	10001b48 <_ftoa+0x98>
10001d2c:	4623      	mov	r3, r4
10001d2e:	079c      	lsls	r4, r3, #30
10001d30:	f040 80aa 	bne.w	10001e88 <_ftoa+0x3d8>
10001d34:	f1bb 0f04 	cmp.w	fp, #4
10001d38:	f240 80a6 	bls.w	10001e88 <_ftoa+0x3d8>
10001d3c:	9b0c      	ldr	r3, [sp, #48]	@ 0x30
10001d3e:	461d      	mov	r5, r3
10001d40:	1f1c      	subs	r4, r3, #4
10001d42:	eb04 0a0b 	add.w	sl, r4, fp
10001d46:	462a      	mov	r2, r5
10001d48:	464b      	mov	r3, r9
10001d4a:	4641      	mov	r1, r8
10001d4c:	2020      	movs	r0, #32
10001d4e:	3501      	adds	r5, #1
10001d50:	47b8      	blx	r7
10001d52:	45aa      	cmp	sl, r5
10001d54:	d1f7      	bne.n	10001d46 <_ftoa+0x296>
10001d56:	4655      	mov	r5, sl
10001d58:	4c1b      	ldr	r4, [pc, #108]	@ (10001dc8 <_ftoa+0x318>)
10001d5a:	1f26      	subs	r6, r4, #4
10001d5c:	f814 0d01 	ldrb.w	r0, [r4, #-1]!
10001d60:	462a      	mov	r2, r5
10001d62:	464b      	mov	r3, r9
10001d64:	4641      	mov	r1, r8
10001d66:	47b8      	blx	r7
10001d68:	42b4      	cmp	r4, r6
10001d6a:	f105 0501 	add.w	r5, r5, #1
10001d6e:	d1f5      	bne.n	10001d5c <_ftoa+0x2ac>
10001d70:	9b07      	ldr	r3, [sp, #28]
10001d72:	f10a 0a04 	add.w	sl, sl, #4
10001d76:	0798      	lsls	r0, r3, #30
10001d78:	d5a0      	bpl.n	10001cbc <_ftoa+0x20c>
10001d7a:	9c0c      	ldr	r4, [sp, #48]	@ 0x30
10001d7c:	ebaa 0304 	sub.w	r3, sl, r4
10001d80:	459b      	cmp	fp, r3
10001d82:	d99b      	bls.n	10001cbc <_ftoa+0x20c>
10001d84:	4652      	mov	r2, sl
10001d86:	464b      	mov	r3, r9
10001d88:	4641      	mov	r1, r8
10001d8a:	2020      	movs	r0, #32
10001d8c:	f10a 0a01 	add.w	sl, sl, #1
10001d90:	47b8      	blx	r7
10001d92:	ebaa 0304 	sub.w	r3, sl, r4
10001d96:	455b      	cmp	r3, fp
10001d98:	d3f4      	bcc.n	10001d84 <_ftoa+0x2d4>
10001d9a:	e78f      	b.n	10001cbc <_ftoa+0x20c>
10001d9c:	f3af 8000 	nop.w
10001da0:	00000000 	.word	0x00000000
10001da4:	41cdcd65 	.word	0x41cdcd65
10001da8:	00000000 	.word	0x00000000
10001dac:	c1cdcd65 	.word	0xc1cdcd65
10001db0:	7fefffff 	.word	0x7fefffff
10001db4:	10003920 	.word	0x10003920
10001db8:	3fe00000 	.word	0x3fe00000
10001dbc:	66666667 	.word	0x66666667
10001dc0:	10003878 	.word	0x10003878
10001dc4:	10003880 	.word	0x10003880
10001dc8:	1000388c 	.word	0x1000388c
10001dcc:	cccccccd 	.word	0xcccccccd
10001dd0:	2200      	movs	r2, #0
10001dd2:	e9dd 010a 	ldrd	r0, r1, [sp, #40]	@ 0x28
10001dd6:	4b63      	ldr	r3, [pc, #396]	@ (10001f64 <_ftoa+0x4b4>)
10001dd8:	f7ff fcda 	bl	10001790 <__wrap___aeabi_dcmplt>
10001ddc:	2800      	cmp	r0, #0
10001dde:	f47f af08 	bne.w	10001bf2 <_ftoa+0x142>
10001de2:	f1ba 0f00 	cmp.w	sl, #0
10001de6:	d16a      	bne.n	10001ebe <_ftoa+0x40e>
10001de8:	f10a 0a01 	add.w	sl, sl, #1
10001dec:	2e00      	cmp	r6, #0
10001dee:	f47f af03 	bne.w	10001bf8 <_ftoa+0x148>
10001df2:	4620      	mov	r0, r4
10001df4:	f7ff fc72 	bl	100016dc <__wrap___aeabi_i2d>
10001df8:	4602      	mov	r2, r0
10001dfa:	460b      	mov	r3, r1
10001dfc:	e9dd 0104 	ldrd	r0, r1, [sp, #16]
10001e00:	f7ff fbe4 	bl	100015cc <__wrap___aeabi_dsub>
10001e04:	4602      	mov	r2, r0
10001e06:	460b      	mov	r3, r1
10001e08:	e9cd 2304 	strd	r2, r3, [sp, #16]
10001e0c:	2200      	movs	r2, #0
10001e0e:	4b55      	ldr	r3, [pc, #340]	@ (10001f64 <_ftoa+0x4b4>)
10001e10:	f7ff fcbe 	bl	10001790 <__wrap___aeabi_dcmplt>
10001e14:	2800      	cmp	r0, #0
10001e16:	f47f af0c 	bne.w	10001c32 <_ftoa+0x182>
10001e1a:	e9dd 0104 	ldrd	r0, r1, [sp, #16]
10001e1e:	2200      	movs	r2, #0
10001e20:	4b50      	ldr	r3, [pc, #320]	@ (10001f64 <_ftoa+0x4b4>)
10001e22:	f7ff fcf1 	bl	10001808 <__wrap___aeabi_dcmpgt>
10001e26:	2800      	cmp	r0, #0
10001e28:	f47f af03 	bne.w	10001c32 <_ftoa+0x182>
10001e2c:	3401      	adds	r4, #1
10001e2e:	f024 0401 	bic.w	r4, r4, #1
10001e32:	e6fe      	b.n	10001c32 <_ftoa+0x182>
10001e34:	9b07      	ldr	r3, [sp, #28]
10001e36:	f003 0303 	and.w	r3, r3, #3
10001e3a:	2b01      	cmp	r3, #1
10001e3c:	f000 8082 	beq.w	10001f44 <_ftoa+0x494>
10001e40:	2d20      	cmp	r5, #32
10001e42:	f43f af2e 	beq.w	10001ca2 <_ftoa+0x1f2>
10001e46:	9b0d      	ldr	r3, [sp, #52]	@ 0x34
10001e48:	b37b      	cbz	r3, 10001eaa <_ftoa+0x3fa>
10001e4a:	222d      	movs	r2, #45	@ 0x2d
10001e4c:	eb0d 0305 	add.w	r3, sp, r5
10001e50:	f883 2038 	strb.w	r2, [r3, #56]	@ 0x38
10001e54:	3501      	adds	r5, #1
10001e56:	e724      	b.n	10001ca2 <_ftoa+0x1f2>
10001e58:	2b20      	cmp	r3, #32
10001e5a:	f43f aee9 	beq.w	10001c30 <_ftoa+0x180>
10001e5e:	aa0e      	add	r2, sp, #56	@ 0x38
10001e60:	4415      	add	r5, r2
10001e62:	441e      	add	r6, r3
10001e64:	2230      	movs	r2, #48	@ 0x30
10001e66:	e004      	b.n	10001e72 <_ftoa+0x3c2>
10001e68:	2b20      	cmp	r3, #32
10001e6a:	f805 2f01 	strb.w	r2, [r5, #1]!
10001e6e:	f43f aedf 	beq.w	10001c30 <_ftoa+0x180>
10001e72:	429e      	cmp	r6, r3
10001e74:	f103 0301 	add.w	r3, r3, #1
10001e78:	d1f6      	bne.n	10001e68 <_ftoa+0x3b8>
10001e7a:	222e      	movs	r2, #46	@ 0x2e
10001e7c:	eb0d 0306 	add.w	r3, sp, r6
10001e80:	f883 2038 	strb.w	r2, [r3, #56]	@ 0x38
10001e84:	1c75      	adds	r5, r6, #1
10001e86:	e6d4      	b.n	10001c32 <_ftoa+0x182>
10001e88:	f8dd a030 	ldr.w	sl, [sp, #48]	@ 0x30
10001e8c:	e763      	b.n	10001d56 <_ftoa+0x2a6>
10001e8e:	2520      	movs	r5, #32
10001e90:	e66e      	b.n	10001b70 <_ftoa+0xc0>
10001e92:	9b07      	ldr	r3, [sp, #28]
10001e94:	f013 0f0c 	tst.w	r3, #12
10001e98:	d050      	beq.n	10001f3c <_ftoa+0x48c>
10001e9a:	f10b 3bff 	add.w	fp, fp, #4294967295
10001e9e:	45ab      	cmp	fp, r5
10001ea0:	f63f aef2 	bhi.w	10001c88 <_ftoa+0x1d8>
10001ea4:	2d20      	cmp	r5, #32
10001ea6:	f43f aefc 	beq.w	10001ca2 <_ftoa+0x1f2>
10001eaa:	9b07      	ldr	r3, [sp, #28]
10001eac:	075a      	lsls	r2, r3, #29
10001eae:	d501      	bpl.n	10001eb4 <_ftoa+0x404>
10001eb0:	222b      	movs	r2, #43	@ 0x2b
10001eb2:	e7cb      	b.n	10001e4c <_ftoa+0x39c>
10001eb4:	071b      	lsls	r3, r3, #28
10001eb6:	f57f aef4 	bpl.w	10001ca2 <_ftoa+0x1f2>
10001eba:	2220      	movs	r2, #32
10001ebc:	e7c6      	b.n	10001e4c <_ftoa+0x39c>
10001ebe:	f01a 0f01 	tst.w	sl, #1
10001ec2:	f43f ae96 	beq.w	10001bf2 <_ftoa+0x142>
10001ec6:	e78f      	b.n	10001de8 <_ftoa+0x338>
10001ec8:	07a6      	lsls	r6, r4, #30
10001eca:	d134      	bne.n	10001f36 <_ftoa+0x486>
10001ecc:	f1bb 0f03 	cmp.w	fp, #3
10001ed0:	d931      	bls.n	10001f36 <_ftoa+0x486>
10001ed2:	9b0c      	ldr	r3, [sp, #48]	@ 0x30
10001ed4:	461d      	mov	r5, r3
10001ed6:	1edc      	subs	r4, r3, #3
10001ed8:	eb04 0a0b 	add.w	sl, r4, fp
10001edc:	462a      	mov	r2, r5
10001ede:	464b      	mov	r3, r9
10001ee0:	4641      	mov	r1, r8
10001ee2:	2020      	movs	r0, #32
10001ee4:	3501      	adds	r5, #1
10001ee6:	47b8      	blx	r7
10001ee8:	4555      	cmp	r5, sl
10001eea:	d1f7      	bne.n	10001edc <_ftoa+0x42c>
10001eec:	4655      	mov	r5, sl
10001eee:	4c1e      	ldr	r4, [pc, #120]	@ (10001f68 <_ftoa+0x4b8>)
10001ef0:	1ee6      	subs	r6, r4, #3
10001ef2:	f814 0d01 	ldrb.w	r0, [r4, #-1]!
10001ef6:	462a      	mov	r2, r5
10001ef8:	464b      	mov	r3, r9
10001efa:	4641      	mov	r1, r8
10001efc:	47b8      	blx	r7
10001efe:	42a6      	cmp	r6, r4
10001f00:	f105 0501 	add.w	r5, r5, #1
10001f04:	d1f5      	bne.n	10001ef2 <_ftoa+0x442>
10001f06:	9b07      	ldr	r3, [sp, #28]
10001f08:	f10a 0a03 	add.w	sl, sl, #3
10001f0c:	079d      	lsls	r5, r3, #30
10001f0e:	f57f aed5 	bpl.w	10001cbc <_ftoa+0x20c>
10001f12:	9c0c      	ldr	r4, [sp, #48]	@ 0x30
10001f14:	ebaa 0304 	sub.w	r3, sl, r4
10001f18:	459b      	cmp	fp, r3
10001f1a:	f67f aecf 	bls.w	10001cbc <_ftoa+0x20c>
10001f1e:	4652      	mov	r2, sl
10001f20:	464b      	mov	r3, r9
10001f22:	4641      	mov	r1, r8
10001f24:	2020      	movs	r0, #32
10001f26:	f10a 0a01 	add.w	sl, sl, #1
10001f2a:	47b8      	blx	r7
10001f2c:	ebaa 0304 	sub.w	r3, sl, r4
10001f30:	459b      	cmp	fp, r3
10001f32:	d8f4      	bhi.n	10001f1e <_ftoa+0x46e>
10001f34:	e6c2      	b.n	10001cbc <_ftoa+0x20c>
10001f36:	f8dd a030 	ldr.w	sl, [sp, #48]	@ 0x30
10001f3a:	e7d7      	b.n	10001eec <_ftoa+0x43c>
10001f3c:	45ab      	cmp	fp, r5
10001f3e:	f63f aea3 	bhi.w	10001c88 <_ftoa+0x1d8>
10001f42:	e6ae      	b.n	10001ca2 <_ftoa+0x1f2>
10001f44:	f1bb 0f00 	cmp.w	fp, #0
10001f48:	f43f af7a 	beq.w	10001e40 <_ftoa+0x390>
10001f4c:	9b0d      	ldr	r3, [sp, #52]	@ 0x34
10001f4e:	2b00      	cmp	r3, #0
10001f50:	d09f      	beq.n	10001e92 <_ftoa+0x3e2>
10001f52:	f10b 3bff 	add.w	fp, fp, #4294967295
10001f56:	455d      	cmp	r5, fp
10001f58:	f4ff ae96 	bcc.w	10001c88 <_ftoa+0x1d8>
10001f5c:	2d20      	cmp	r5, #32
10001f5e:	f47f af74 	bne.w	10001e4a <_ftoa+0x39a>
10001f62:	e69e      	b.n	10001ca2 <_ftoa+0x1f2>
10001f64:	3fe00000 	.word	0x3fe00000
10001f68:	10003887 	.word	0x10003887
10001f6c:	00000000 	.word	0x00000000

10001f70 <_etoa>:
10001f70:	e92d 4ff0 	stmdb	sp!, {r4, r5, r6, r7, r8, r9, sl, fp, lr}
10001f74:	b09f      	sub	sp, #124	@ 0x7c
10001f76:	9e2a      	ldr	r6, [sp, #168]	@ 0xa8
10001f78:	e9dd 4528 	ldrd	r4, r5, [sp, #160]	@ 0xa0
10001f7c:	4607      	mov	r7, r0
10001f7e:	4693      	mov	fp, r2
10001f80:	9108      	str	r1, [sp, #32]
10001f82:	9309      	str	r3, [sp, #36]	@ 0x24
10001f84:	4622      	mov	r2, r4
10001f86:	462b      	mov	r3, r5
10001f88:	4620      	mov	r0, r4
10001f8a:	4629      	mov	r1, r5
10001f8c:	960e      	str	r6, [sp, #56]	@ 0x38
10001f8e:	e9dd a62b 	ldrd	sl, r6, [sp, #172]	@ 0xac
10001f92:	f7ff fbeb 	bl	1000176c <__wrap___aeabi_dcmpun>
10001f96:	2800      	cmp	r0, #0
10001f98:	f040 80be 	bne.w	10002118 <_etoa+0x1a8>
10001f9c:	4620      	mov	r0, r4
10001f9e:	4629      	mov	r1, r5
10001fa0:	f04f 32ff 	mov.w	r2, #4294967295
10001fa4:	4b78      	ldr	r3, [pc, #480]	@ (10002188 <_etoa+0x218>)
10001fa6:	f7ff fc2f 	bl	10001808 <__wrap___aeabi_dcmpgt>
10001faa:	2800      	cmp	r0, #0
10001fac:	f040 80b4 	bne.w	10002118 <_etoa+0x1a8>
10001fb0:	4620      	mov	r0, r4
10001fb2:	4629      	mov	r1, r5
10001fb4:	f04f 32ff 	mov.w	r2, #4294967295
10001fb8:	f46f 1380 	mvn.w	r3, #1048576	@ 0x100000
10001fbc:	f7ff fbe8 	bl	10001790 <__wrap___aeabi_dcmplt>
10001fc0:	2800      	cmp	r0, #0
10001fc2:	f040 80a9 	bne.w	10002118 <_etoa+0x1a8>
10001fc6:	4620      	mov	r0, r4
10001fc8:	4629      	mov	r1, r5
10001fca:	2200      	movs	r2, #0
10001fcc:	2300      	movs	r3, #0
10001fce:	f7ff fbdf 	bl	10001790 <__wrap___aeabi_dcmplt>
10001fd2:	2800      	cmp	r0, #0
10001fd4:	f040 81d5 	bne.w	10002382 <_etoa+0x412>
10001fd8:	e9cd 450a 	strd	r4, r5, [sp, #40]	@ 0x28
10001fdc:	e9dd 230a 	ldrd	r2, r3, [sp, #40]	@ 0x28
10001fe0:	4690      	mov	r8, r2
10001fe2:	4699      	mov	r9, r3
10001fe4:	f406 6200 	and.w	r2, r6, #2048	@ 0x800
10001fe8:	f416 6380 	ands.w	r3, r6, #1024	@ 0x400
10001fec:	920f      	str	r2, [sp, #60]	@ 0x3c
10001fee:	9313      	str	r3, [sp, #76]	@ 0x4c
10001ff0:	f040 80a1 	bne.w	10002136 <_etoa+0x1c6>
10001ff4:	ea58 0309 	orrs.w	r3, r8, r9
10001ff8:	f040 80ca 	bne.w	10002190 <_etoa+0x220>
10001ffc:	2a00      	cmp	r2, #0
10001ffe:	f040 81e3 	bne.w	100023c8 <_etoa+0x458>
10002002:	2306      	movs	r3, #6
10002004:	930e      	str	r3, [sp, #56]	@ 0x38
10002006:	f016 0202 	ands.w	r2, r6, #2
1000200a:	9210      	str	r2, [sp, #64]	@ 0x40
1000200c:	f040 81d4 	bne.w	100023b8 <_etoa+0x448>
10002010:	4653      	mov	r3, sl
10002012:	2b04      	cmp	r3, #4
10002014:	bf38      	it	cc
10002016:	2304      	movcc	r3, #4
10002018:	920c      	str	r2, [sp, #48]	@ 0x30
1000201a:	2204      	movs	r2, #4
1000201c:	3b04      	subs	r3, #4
1000201e:	9212      	str	r2, [sp, #72]	@ 0x48
10002020:	930f      	str	r3, [sp, #60]	@ 0x3c
10002022:	4620      	mov	r0, r4
10002024:	4629      	mov	r1, r5
10002026:	2200      	movs	r2, #0
10002028:	2300      	movs	r3, #0
1000202a:	f7ff fbb1 	bl	10001790 <__wrap___aeabi_dcmplt>
1000202e:	2800      	cmp	r0, #0
10002030:	f040 81f3 	bne.w	1000241a <_etoa+0x4aa>
10002034:	ed9d 7b0a 	vldr	d7, [sp, #40]	@ 0x28
10002038:	9b0f      	ldr	r3, [sp, #60]	@ 0x3c
1000203a:	465a      	mov	r2, fp
1000203c:	9303      	str	r3, [sp, #12]
1000203e:	9b0e      	ldr	r3, [sp, #56]	@ 0x38
10002040:	ed8d 7b00 	vstr	d7, [sp]
10002044:	9302      	str	r3, [sp, #8]
10002046:	f426 6300 	bic.w	r3, r6, #2048	@ 0x800
1000204a:	9304      	str	r3, [sp, #16]
1000204c:	4638      	mov	r0, r7
1000204e:	9b09      	ldr	r3, [sp, #36]	@ 0x24
10002050:	9908      	ldr	r1, [sp, #32]
10002052:	f7ff fd2d 	bl	10001ab0 <_ftoa>
10002056:	4602      	mov	r2, r0
10002058:	f016 0f20 	tst.w	r6, #32
1000205c:	9b09      	ldr	r3, [sp, #36]	@ 0x24
1000205e:	9908      	ldr	r1, [sp, #32]
10002060:	bf0c      	ite	eq
10002062:	2065      	moveq	r0, #101	@ 0x65
10002064:	2045      	movne	r0, #69	@ 0x45
10002066:	f102 0801 	add.w	r8, r2, #1
1000206a:	47b8      	blx	r7
1000206c:	9a0c      	ldr	r2, [sp, #48]	@ 0x30
1000206e:	9b12      	ldr	r3, [sp, #72]	@ 0x48
10002070:	ac16      	add	r4, sp, #88	@ 0x58
10002072:	1e5d      	subs	r5, r3, #1
10002074:	ea82 73e2 	eor.w	r3, r2, r2, asr #31
10002078:	eba3 73e2 	sub.w	r3, r3, r2, asr #31
1000207c:	0fd1      	lsrs	r1, r2, #31
1000207e:	2600      	movs	r6, #0
10002080:	4622      	mov	r2, r4
10002082:	4699      	mov	r9, r3
10002084:	f8df c104 	ldr.w	ip, [pc, #260]	@ 1000218c <_etoa+0x21c>
10002088:	e001      	b.n	1000208e <_etoa+0x11e>
1000208a:	2e20      	cmp	r6, #32
1000208c:	d010      	beq.n	100020b0 <_etoa+0x140>
1000208e:	46ce      	mov	lr, r9
10002090:	fbac 3009 	umull	r3, r0, ip, r9
10002094:	08c0      	lsrs	r0, r0, #3
10002096:	eb00 0380 	add.w	r3, r0, r0, lsl #2
1000209a:	eba9 0343 	sub.w	r3, r9, r3, lsl #1
1000209e:	3330      	adds	r3, #48	@ 0x30
100020a0:	f1be 0f09 	cmp.w	lr, #9
100020a4:	4681      	mov	r9, r0
100020a6:	f106 0601 	add.w	r6, r6, #1
100020aa:	f802 3b01 	strb.w	r3, [r2], #1
100020ae:	d8ec      	bhi.n	1000208a <_etoa+0x11a>
100020b0:	2305      	movs	r3, #5
100020b2:	2000      	movs	r0, #0
100020b4:	9306      	str	r3, [sp, #24]
100020b6:	230a      	movs	r3, #10
100020b8:	9505      	str	r5, [sp, #20]
100020ba:	9400      	str	r4, [sp, #0]
100020bc:	9d09      	ldr	r5, [sp, #36]	@ 0x24
100020be:	9c08      	ldr	r4, [sp, #32]
100020c0:	4642      	mov	r2, r8
100020c2:	e9cd 3003 	strd	r3, r0, [sp, #12]
100020c6:	e9cd 6101 	strd	r6, r1, [sp, #4]
100020ca:	462b      	mov	r3, r5
100020cc:	4621      	mov	r1, r4
100020ce:	4638      	mov	r0, r7
100020d0:	f7ff fbfa 	bl	100018c8 <_ntoa_format>
100020d4:	9a10      	ldr	r2, [sp, #64]	@ 0x40
100020d6:	4680      	mov	r8, r0
100020d8:	b1d2      	cbz	r2, 10002110 <_etoa+0x1a0>
100020da:	eba0 060b 	sub.w	r6, r0, fp
100020de:	45b2      	cmp	sl, r6
100020e0:	d916      	bls.n	10002110 <_etoa+0x1a0>
100020e2:	eb0b 0206 	add.w	r2, fp, r6
100020e6:	462b      	mov	r3, r5
100020e8:	4621      	mov	r1, r4
100020ea:	2020      	movs	r0, #32
100020ec:	3601      	adds	r6, #1
100020ee:	47b8      	blx	r7
100020f0:	45b2      	cmp	sl, r6
100020f2:	d8f6      	bhi.n	100020e2 <_etoa+0x172>
100020f4:	f10b 33ff 	add.w	r3, fp, #4294967295
100020f8:	4453      	add	r3, sl
100020fa:	f1cb 0201 	rsb	r2, fp, #1
100020fe:	eba3 0308 	sub.w	r3, r3, r8
10002102:	4442      	add	r2, r8
10002104:	4592      	cmp	sl, r2
10002106:	bf38      	it	cc
10002108:	2300      	movcc	r3, #0
1000210a:	f108 0801 	add.w	r8, r8, #1
1000210e:	4498      	add	r8, r3
10002110:	4640      	mov	r0, r8
10002112:	b01f      	add	sp, #124	@ 0x7c
10002114:	e8bd 8ff0 	ldmia.w	sp!, {r4, r5, r6, r7, r8, r9, sl, fp, pc}
10002118:	465a      	mov	r2, fp
1000211a:	4638      	mov	r0, r7
1000211c:	e9cd 4528 	strd	r4, r5, [sp, #160]	@ 0xa0
10002120:	e9cd a62b 	strd	sl, r6, [sp, #172]	@ 0xac
10002124:	9c0e      	ldr	r4, [sp, #56]	@ 0x38
10002126:	9b09      	ldr	r3, [sp, #36]	@ 0x24
10002128:	9908      	ldr	r1, [sp, #32]
1000212a:	942a      	str	r4, [sp, #168]	@ 0xa8
1000212c:	b01f      	add	sp, #124	@ 0x7c
1000212e:	e8bd 4ff0 	ldmia.w	sp!, {r4, r5, r6, r7, r8, r9, sl, fp, lr}
10002132:	f7ff bcbd 	b.w	10001ab0 <_ftoa>
10002136:	ea58 0309 	orrs.w	r3, r8, r9
1000213a:	d12b      	bne.n	10002194 <_etoa+0x224>
1000213c:	2a00      	cmp	r2, #0
1000213e:	f43f af62 	beq.w	10002006 <_etoa+0x96>
10002142:	2300      	movs	r3, #0
10002144:	930c      	str	r3, [sp, #48]	@ 0x30
10002146:	9b0e      	ldr	r3, [sp, #56]	@ 0x38
10002148:	9a0c      	ldr	r2, [sp, #48]	@ 0x30
1000214a:	4293      	cmp	r3, r2
1000214c:	f300 81b9 	bgt.w	100024c2 <_etoa+0x552>
10002150:	f04f 0800 	mov.w	r8, #0
10002154:	4620      	mov	r0, r4
10002156:	4629      	mov	r1, r5
10002158:	2200      	movs	r2, #0
1000215a:	2300      	movs	r3, #0
1000215c:	f7ff fb18 	bl	10001790 <__wrap___aeabi_dcmplt>
10002160:	2800      	cmp	r0, #0
10002162:	f040 8113 	bne.w	1000238c <_etoa+0x41c>
10002166:	ed9d 7b0a 	vldr	d7, [sp, #40]	@ 0x28
1000216a:	f426 6600 	bic.w	r6, r6, #2048	@ 0x800
1000216e:	f446 6680 	orr.w	r6, r6, #1024	@ 0x400
10002172:	ed8d 7b28 	vstr	d7, [sp, #160]	@ 0xa0
10002176:	465a      	mov	r2, fp
10002178:	4638      	mov	r0, r7
1000217a:	e9cd 8a2a 	strd	r8, sl, [sp, #168]	@ 0xa8
1000217e:	9b09      	ldr	r3, [sp, #36]	@ 0x24
10002180:	9908      	ldr	r1, [sp, #32]
10002182:	962c      	str	r6, [sp, #176]	@ 0xb0
10002184:	e7d2      	b.n	1000212c <_etoa+0x1bc>
10002186:	bf00      	nop
10002188:	7fefffff 	.word	0x7fefffff
1000218c:	cccccccd 	.word	0xcccccccd
10002190:	2306      	movs	r3, #6
10002192:	930e      	str	r3, [sp, #56]	@ 0x38
10002194:	f3c9 500a 	ubfx	r0, r9, #20, #11
10002198:	f2a0 30ff 	subw	r0, r0, #1023	@ 0x3ff
1000219c:	f7ff fa9e 	bl	100016dc <__wrap___aeabi_i2d>
100021a0:	a3c1      	add	r3, pc, #772	@ (adr r3, 100024a8 <_etoa+0x538>)
100021a2:	e9d3 2300 	ldrd	r2, r3, [r3]
100021a6:	f7ff fa25 	bl	100015f4 <__wrap___aeabi_dmul>
100021aa:	a3c1      	add	r3, pc, #772	@ (adr r3, 100024b0 <_etoa+0x540>)
100021ac:	e9d3 2300 	ldrd	r2, r3, [r3]
100021b0:	f7ff f9f8 	bl	100015a4 <__wrap___aeabi_dadd>
100021b4:	f3c9 0913 	ubfx	r9, r9, #0, #20
100021b8:	e9cd 010c 	strd	r0, r1, [sp, #48]	@ 0x30
100021bc:	f049 517f 	orr.w	r1, r9, #1069547520	@ 0x3fc00000
100021c0:	4640      	mov	r0, r8
100021c2:	2200      	movs	r2, #0
100021c4:	4bb2      	ldr	r3, [pc, #712]	@ (10002490 <_etoa+0x520>)
100021c6:	f441 1140 	orr.w	r1, r1, #3145728	@ 0x300000
100021ca:	f7ff f9ff 	bl	100015cc <__wrap___aeabi_dsub>
100021ce:	a3a4      	add	r3, pc, #656	@ (adr r3, 10002460 <_etoa+0x4f0>)
100021d0:	e9d3 2300 	ldrd	r2, r3, [r3]
100021d4:	f7ff fa0e 	bl	100015f4 <__wrap___aeabi_dmul>
100021d8:	4602      	mov	r2, r0
100021da:	460b      	mov	r3, r1
100021dc:	e9dd 010c 	ldrd	r0, r1, [sp, #48]	@ 0x30
100021e0:	f7ff f9e0 	bl	100015a4 <__wrap___aeabi_dadd>
100021e4:	f7ff fa9e 	bl	10001724 <__wrap___aeabi_d2iz>
100021e8:	900c      	str	r0, [sp, #48]	@ 0x30
100021ea:	f7ff fa77 	bl	100016dc <__wrap___aeabi_i2d>
100021ee:	a39e      	add	r3, pc, #632	@ (adr r3, 10002468 <_etoa+0x4f8>)
100021f0:	e9d3 2300 	ldrd	r2, r3, [r3]
100021f4:	4680      	mov	r8, r0
100021f6:	4689      	mov	r9, r1
100021f8:	f7ff f9fc 	bl	100015f4 <__wrap___aeabi_dmul>
100021fc:	2200      	movs	r2, #0
100021fe:	4ba5      	ldr	r3, [pc, #660]	@ (10002494 <_etoa+0x524>)
10002200:	f7ff f9d0 	bl	100015a4 <__wrap___aeabi_dadd>
10002204:	f7ff fa8e 	bl	10001724 <__wrap___aeabi_d2iz>
10002208:	4603      	mov	r3, r0
1000220a:	4649      	mov	r1, r9
1000220c:	4640      	mov	r0, r8
1000220e:	9312      	str	r3, [sp, #72]	@ 0x48
10002210:	a397      	add	r3, pc, #604	@ (adr r3, 10002470 <_etoa+0x500>)
10002212:	e9d3 2300 	ldrd	r2, r3, [r3]
10002216:	f7ff f9ed 	bl	100015f4 <__wrap___aeabi_dmul>
1000221a:	4680      	mov	r8, r0
1000221c:	9812      	ldr	r0, [sp, #72]	@ 0x48
1000221e:	4689      	mov	r9, r1
10002220:	f7ff fa5c 	bl	100016dc <__wrap___aeabi_i2d>
10002224:	a394      	add	r3, pc, #592	@ (adr r3, 10002478 <_etoa+0x508>)
10002226:	e9d3 2300 	ldrd	r2, r3, [r3]
1000222a:	f7ff f9e3 	bl	100015f4 <__wrap___aeabi_dmul>
1000222e:	4602      	mov	r2, r0
10002230:	460b      	mov	r3, r1
10002232:	4640      	mov	r0, r8
10002234:	4649      	mov	r1, r9
10002236:	f7ff f9c9 	bl	100015cc <__wrap___aeabi_dsub>
1000223a:	4602      	mov	r2, r0
1000223c:	460b      	mov	r3, r1
1000223e:	4680      	mov	r8, r0
10002240:	4689      	mov	r9, r1
10002242:	f7ff f9d7 	bl	100015f4 <__wrap___aeabi_dmul>
10002246:	4642      	mov	r2, r8
10002248:	464b      	mov	r3, r9
1000224a:	e9cd 0110 	strd	r0, r1, [sp, #64]	@ 0x40
1000224e:	4640      	mov	r0, r8
10002250:	4649      	mov	r1, r9
10002252:	f7ff f9a7 	bl	100015a4 <__wrap___aeabi_dadd>
10002256:	2200      	movs	r2, #0
10002258:	e9cd 0114 	strd	r0, r1, [sp, #80]	@ 0x50
1000225c:	e9dd 0110 	ldrd	r0, r1, [sp, #64]	@ 0x40
10002260:	4b8d      	ldr	r3, [pc, #564]	@ (10002498 <_etoa+0x528>)
10002262:	f7ff f9ed 	bl	10001640 <__wrap___aeabi_ddiv>
10002266:	2200      	movs	r2, #0
10002268:	4b8c      	ldr	r3, [pc, #560]	@ (1000249c <_etoa+0x52c>)
1000226a:	f7ff f99b 	bl	100015a4 <__wrap___aeabi_dadd>
1000226e:	4602      	mov	r2, r0
10002270:	460b      	mov	r3, r1
10002272:	e9dd 0110 	ldrd	r0, r1, [sp, #64]	@ 0x40
10002276:	f7ff f9e3 	bl	10001640 <__wrap___aeabi_ddiv>
1000227a:	2200      	movs	r2, #0
1000227c:	4b88      	ldr	r3, [pc, #544]	@ (100024a0 <_etoa+0x530>)
1000227e:	f7ff f991 	bl	100015a4 <__wrap___aeabi_dadd>
10002282:	4602      	mov	r2, r0
10002284:	460b      	mov	r3, r1
10002286:	e9dd 0110 	ldrd	r0, r1, [sp, #64]	@ 0x40
1000228a:	f7ff f9d9 	bl	10001640 <__wrap___aeabi_ddiv>
1000228e:	4642      	mov	r2, r8
10002290:	464b      	mov	r3, r9
10002292:	4680      	mov	r8, r0
10002294:	4689      	mov	r9, r1
10002296:	2000      	movs	r0, #0
10002298:	f04f 4180 	mov.w	r1, #1073741824	@ 0x40000000
1000229c:	f7ff f996 	bl	100015cc <__wrap___aeabi_dsub>
100022a0:	4602      	mov	r2, r0
100022a2:	460b      	mov	r3, r1
100022a4:	4640      	mov	r0, r8
100022a6:	4649      	mov	r1, r9
100022a8:	f7ff f97c 	bl	100015a4 <__wrap___aeabi_dadd>
100022ac:	4602      	mov	r2, r0
100022ae:	460b      	mov	r3, r1
100022b0:	e9dd 0114 	ldrd	r0, r1, [sp, #80]	@ 0x50
100022b4:	f7ff f9c4 	bl	10001640 <__wrap___aeabi_ddiv>
100022b8:	2200      	movs	r2, #0
100022ba:	4b7a      	ldr	r3, [pc, #488]	@ (100024a4 <_etoa+0x534>)
100022bc:	f7ff f972 	bl	100015a4 <__wrap___aeabi_dadd>
100022c0:	9b12      	ldr	r3, [sp, #72]	@ 0x48
100022c2:	2200      	movs	r2, #0
100022c4:	f203 3cff 	addw	ip, r3, #1023	@ 0x3ff
100022c8:	ea4f 530c 	mov.w	r3, ip, lsl #20
100022cc:	f7ff f992 	bl	100015f4 <__wrap___aeabi_dmul>
100022d0:	4680      	mov	r8, r0
100022d2:	4689      	mov	r9, r1
100022d4:	e9dd 010a 	ldrd	r0, r1, [sp, #40]	@ 0x28
100022d8:	4642      	mov	r2, r8
100022da:	464b      	mov	r3, r9
100022dc:	f7ff fa58 	bl	10001790 <__wrap___aeabi_dcmplt>
100022e0:	b150      	cbz	r0, 100022f8 <_etoa+0x388>
100022e2:	9b0c      	ldr	r3, [sp, #48]	@ 0x30
100022e4:	4640      	mov	r0, r8
100022e6:	3b01      	subs	r3, #1
100022e8:	4649      	mov	r1, r9
100022ea:	930c      	str	r3, [sp, #48]	@ 0x30
100022ec:	2200      	movs	r2, #0
100022ee:	4b6b      	ldr	r3, [pc, #428]	@ (1000249c <_etoa+0x52c>)
100022f0:	f7ff f9a6 	bl	10001640 <__wrap___aeabi_ddiv>
100022f4:	4680      	mov	r8, r0
100022f6:	4689      	mov	r9, r1
100022f8:	9a0c      	ldr	r2, [sp, #48]	@ 0x30
100022fa:	4643      	mov	r3, r8
100022fc:	3263      	adds	r2, #99	@ 0x63
100022fe:	2ac6      	cmp	r2, #198	@ 0xc6
10002300:	f006 0202 	and.w	r2, r6, #2
10002304:	9210      	str	r2, [sp, #64]	@ 0x40
10002306:	4649      	mov	r1, r9
10002308:	9a0f      	ldr	r2, [sp, #60]	@ 0x3c
1000230a:	d82c      	bhi.n	10002366 <_etoa+0x3f6>
1000230c:	2a00      	cmp	r2, #0
1000230e:	d05e      	beq.n	100023ce <_etoa+0x45e>
10002310:	2204      	movs	r2, #4
10002312:	9212      	str	r2, [sp, #72]	@ 0x48
10002314:	430b      	orrs	r3, r1
10002316:	f43f af16 	beq.w	10002146 <_etoa+0x1d6>
1000231a:	e9dd 010a 	ldrd	r0, r1, [sp, #40]	@ 0x28
1000231e:	a358      	add	r3, pc, #352	@ (adr r3, 10002480 <_etoa+0x510>)
10002320:	e9d3 2300 	ldrd	r2, r3, [r3]
10002324:	f7ff fa5c 	bl	100017e0 <__wrap___aeabi_dcmpge>
10002328:	b148      	cbz	r0, 1000233e <_etoa+0x3ce>
1000232a:	e9dd 010a 	ldrd	r0, r1, [sp, #40]	@ 0x28
1000232e:	a356      	add	r3, pc, #344	@ (adr r3, 10002488 <_etoa+0x518>)
10002330:	e9d3 2300 	ldrd	r2, r3, [r3]
10002334:	f7ff fa2c 	bl	10001790 <__wrap___aeabi_dcmplt>
10002338:	2800      	cmp	r0, #0
1000233a:	f47f af04 	bne.w	10002146 <_etoa+0x1d6>
1000233e:	9b0e      	ldr	r3, [sp, #56]	@ 0x38
10002340:	2b00      	cmp	r3, #0
10002342:	d050      	beq.n	100023e6 <_etoa+0x476>
10002344:	9a13      	ldr	r2, [sp, #76]	@ 0x4c
10002346:	2a00      	cmp	r2, #0
10002348:	d07d      	beq.n	10002446 <_etoa+0x4d6>
1000234a:	3b01      	subs	r3, #1
1000234c:	930e      	str	r3, [sp, #56]	@ 0x38
1000234e:	9b12      	ldr	r3, [sp, #72]	@ 0x48
10002350:	459a      	cmp	sl, r3
10002352:	d905      	bls.n	10002360 <_etoa+0x3f0>
10002354:	9b10      	ldr	r3, [sp, #64]	@ 0x40
10002356:	2b00      	cmp	r3, #0
10002358:	f000 80ae 	beq.w	100024b8 <_etoa+0x548>
1000235c:	2302      	movs	r3, #2
1000235e:	9310      	str	r3, [sp, #64]	@ 0x40
10002360:	2300      	movs	r3, #0
10002362:	930f      	str	r3, [sp, #60]	@ 0x3c
10002364:	e044      	b.n	100023f0 <_etoa+0x480>
10002366:	bb22      	cbnz	r2, 100023b2 <_etoa+0x442>
10002368:	f1ba 0f05 	cmp.w	sl, #5
1000236c:	d94f      	bls.n	1000240e <_etoa+0x49e>
1000236e:	f006 0302 	and.w	r3, r6, #2
10002372:	2b00      	cmp	r3, #0
10002374:	d149      	bne.n	1000240a <_etoa+0x49a>
10002376:	2305      	movs	r3, #5
10002378:	9312      	str	r3, [sp, #72]	@ 0x48
1000237a:	f1aa 0305 	sub.w	r3, sl, #5
1000237e:	930f      	str	r3, [sp, #60]	@ 0x3c
10002380:	e03a      	b.n	100023f8 <_etoa+0x488>
10002382:	f105 4300 	add.w	r3, r5, #2147483648	@ 0x80000000
10002386:	940a      	str	r4, [sp, #40]	@ 0x28
10002388:	930b      	str	r3, [sp, #44]	@ 0x2c
1000238a:	e627      	b.n	10001fdc <_etoa+0x6c>
1000238c:	f426 6600 	bic.w	r6, r6, #2048	@ 0x800
10002390:	f446 6680 	orr.w	r6, r6, #1024	@ 0x400
10002394:	4638      	mov	r0, r7
10002396:	962c      	str	r6, [sp, #176]	@ 0xb0
10002398:	e9dd 670a 	ldrd	r6, r7, [sp, #40]	@ 0x28
1000239c:	4634      	mov	r4, r6
1000239e:	f107 4500 	add.w	r5, r7, #2147483648	@ 0x80000000
100023a2:	465a      	mov	r2, fp
100023a4:	e9cd 8a2a 	strd	r8, sl, [sp, #168]	@ 0xa8
100023a8:	e9cd 4528 	strd	r4, r5, [sp, #160]	@ 0xa0
100023ac:	9b09      	ldr	r3, [sp, #36]	@ 0x24
100023ae:	9908      	ldr	r1, [sp, #32]
100023b0:	e6bc      	b.n	1000212c <_etoa+0x1bc>
100023b2:	2205      	movs	r2, #5
100023b4:	9212      	str	r2, [sp, #72]	@ 0x48
100023b6:	e7ad      	b.n	10002314 <_etoa+0x3a4>
100023b8:	2300      	movs	r3, #0
100023ba:	2202      	movs	r2, #2
100023bc:	e9cd 320f 	strd	r3, r2, [sp, #60]	@ 0x3c
100023c0:	2204      	movs	r2, #4
100023c2:	930c      	str	r3, [sp, #48]	@ 0x30
100023c4:	9212      	str	r2, [sp, #72]	@ 0x48
100023c6:	e62c      	b.n	10002022 <_etoa+0xb2>
100023c8:	f04f 0805 	mov.w	r8, #5
100023cc:	e6c2      	b.n	10002154 <_etoa+0x1e4>
100023ce:	f1ba 0f04 	cmp.w	sl, #4
100023d2:	d91f      	bls.n	10002414 <_etoa+0x4a4>
100023d4:	9b10      	ldr	r3, [sp, #64]	@ 0x40
100023d6:	2b00      	cmp	r3, #0
100023d8:	d178      	bne.n	100024cc <_etoa+0x55c>
100023da:	2304      	movs	r3, #4
100023dc:	9312      	str	r3, [sp, #72]	@ 0x48
100023de:	f1aa 0304 	sub.w	r3, sl, #4
100023e2:	930f      	str	r3, [sp, #60]	@ 0x3c
100023e4:	e004      	b.n	100023f0 <_etoa+0x480>
100023e6:	9b12      	ldr	r3, [sp, #72]	@ 0x48
100023e8:	459a      	cmp	sl, r3
100023ea:	d831      	bhi.n	10002450 <_etoa+0x4e0>
100023ec:	9b0e      	ldr	r3, [sp, #56]	@ 0x38
100023ee:	930f      	str	r3, [sp, #60]	@ 0x3c
100023f0:	9b0c      	ldr	r3, [sp, #48]	@ 0x30
100023f2:	2b00      	cmp	r3, #0
100023f4:	f43f ae15 	beq.w	10002022 <_etoa+0xb2>
100023f8:	e9dd 010a 	ldrd	r0, r1, [sp, #40]	@ 0x28
100023fc:	4642      	mov	r2, r8
100023fe:	464b      	mov	r3, r9
10002400:	f7ff f91e 	bl	10001640 <__wrap___aeabi_ddiv>
10002404:	e9cd 010a 	strd	r0, r1, [sp, #40]	@ 0x28
10002408:	e60b      	b.n	10002022 <_etoa+0xb2>
1000240a:	2302      	movs	r3, #2
1000240c:	9310      	str	r3, [sp, #64]	@ 0x40
1000240e:	2305      	movs	r3, #5
10002410:	9312      	str	r3, [sp, #72]	@ 0x48
10002412:	e7f1      	b.n	100023f8 <_etoa+0x488>
10002414:	2304      	movs	r3, #4
10002416:	9312      	str	r3, [sp, #72]	@ 0x48
10002418:	e7ea      	b.n	100023f0 <_etoa+0x480>
1000241a:	e9dd 450a 	ldrd	r4, r5, [sp, #40]	@ 0x28
1000241e:	46a0      	mov	r8, r4
10002420:	9b0f      	ldr	r3, [sp, #60]	@ 0x3c
10002422:	f105 4900 	add.w	r9, r5, #2147483648	@ 0x80000000
10002426:	9303      	str	r3, [sp, #12]
10002428:	9b0e      	ldr	r3, [sp, #56]	@ 0x38
1000242a:	465a      	mov	r2, fp
1000242c:	9302      	str	r3, [sp, #8]
1000242e:	f426 6300 	bic.w	r3, r6, #2048	@ 0x800
10002432:	9304      	str	r3, [sp, #16]
10002434:	4638      	mov	r0, r7
10002436:	e9cd 8900 	strd	r8, r9, [sp]
1000243a:	9b09      	ldr	r3, [sp, #36]	@ 0x24
1000243c:	9908      	ldr	r1, [sp, #32]
1000243e:	f7ff fb37 	bl	10001ab0 <_ftoa>
10002442:	4602      	mov	r2, r0
10002444:	e608      	b.n	10002058 <_etoa+0xe8>
10002446:	9b12      	ldr	r3, [sp, #72]	@ 0x48
10002448:	459a      	cmp	sl, r3
1000244a:	d844      	bhi.n	100024d6 <_etoa+0x566>
1000244c:	920f      	str	r2, [sp, #60]	@ 0x3c
1000244e:	e7cf      	b.n	100023f0 <_etoa+0x480>
10002450:	9b10      	ldr	r3, [sp, #64]	@ 0x40
10002452:	b38b      	cbz	r3, 100024b8 <_etoa+0x548>
10002454:	9b0e      	ldr	r3, [sp, #56]	@ 0x38
10002456:	930f      	str	r3, [sp, #60]	@ 0x3c
10002458:	2302      	movs	r3, #2
1000245a:	9310      	str	r3, [sp, #64]	@ 0x40
1000245c:	e7c8      	b.n	100023f0 <_etoa+0x480>
1000245e:	bf00      	nop
10002460:	636f4361 	.word	0x636f4361
10002464:	3fd287a7 	.word	0x3fd287a7
10002468:	0979a371 	.word	0x0979a371
1000246c:	400a934f 	.word	0x400a934f
10002470:	bbb55516 	.word	0xbbb55516
10002474:	40026bb1 	.word	0x40026bb1
10002478:	fefa39ef 	.word	0xfefa39ef
1000247c:	3fe62e42 	.word	0x3fe62e42
10002480:	eb1c432d 	.word	0xeb1c432d
10002484:	3f1a36e2 	.word	0x3f1a36e2
10002488:	00000000 	.word	0x00000000
1000248c:	412e8480 	.word	0x412e8480
10002490:	3ff80000 	.word	0x3ff80000
10002494:	3fe00000 	.word	0x3fe00000
10002498:	402c0000 	.word	0x402c0000
1000249c:	40240000 	.word	0x40240000
100024a0:	40180000 	.word	0x40180000
100024a4:	3ff00000 	.word	0x3ff00000
100024a8:	509f79fb 	.word	0x509f79fb
100024ac:	3fd34413 	.word	0x3fd34413
100024b0:	8b60c8b3 	.word	0x8b60c8b3
100024b4:	3fc68a28 	.word	0x3fc68a28
100024b8:	9b12      	ldr	r3, [sp, #72]	@ 0x48
100024ba:	ebaa 0303 	sub.w	r3, sl, r3
100024be:	930f      	str	r3, [sp, #60]	@ 0x3c
100024c0:	e796      	b.n	100023f0 <_etoa+0x480>
100024c2:	eba3 0802 	sub.w	r8, r3, r2
100024c6:	f108 38ff 	add.w	r8, r8, #4294967295
100024ca:	e643      	b.n	10002154 <_etoa+0x1e4>
100024cc:	2304      	movs	r3, #4
100024ce:	9312      	str	r3, [sp, #72]	@ 0x48
100024d0:	2302      	movs	r3, #2
100024d2:	9310      	str	r3, [sp, #64]	@ 0x40
100024d4:	e78c      	b.n	100023f0 <_etoa+0x480>
100024d6:	9b10      	ldr	r3, [sp, #64]	@ 0x40
100024d8:	2b00      	cmp	r3, #0
100024da:	d0ed      	beq.n	100024b8 <_etoa+0x548>
100024dc:	2302      	movs	r3, #2
100024de:	920f      	str	r2, [sp, #60]	@ 0x3c
100024e0:	9310      	str	r3, [sp, #64]	@ 0x40
100024e2:	e785      	b.n	100023f0 <_etoa+0x480>

100024e4 <_vsnprintf>:
100024e4:	e92d 4ff0 	stmdb	sp!, {r4, r5, r6, r7, r8, r9, sl, fp, lr}
100024e8:	b09b      	sub	sp, #108	@ 0x6c
100024ea:	9c24      	ldr	r4, [sp, #144]	@ 0x90
100024ec:	4d95      	ldr	r5, [pc, #596]	@ (10002744 <_vsnprintf+0x260>)
100024ee:	940a      	str	r4, [sp, #40]	@ 0x28
100024f0:	4c95      	ldr	r4, [pc, #596]	@ (10002748 <_vsnprintf+0x264>)
100024f2:	f1b1 0a00 	subs.w	sl, r1, #0
100024f6:	bf18      	it	ne
100024f8:	4683      	movne	fp, r0
100024fa:	6025      	str	r5, [r4, #0]
100024fc:	7818      	ldrb	r0, [r3, #0]
100024fe:	4c93      	ldr	r4, [pc, #588]	@ (1000274c <_vsnprintf+0x268>)
10002500:	4691      	mov	r9, r2
10002502:	bf08      	it	eq
10002504:	46a3      	moveq	fp, r4
10002506:	9309      	str	r3, [sp, #36]	@ 0x24
10002508:	2800      	cmp	r0, #0
1000250a:	f000 8293 	beq.w	10002a34 <_vsnprintf+0x550>
1000250e:	f04f 0800 	mov.w	r8, #0
10002512:	e00a      	b.n	1000252a <_vsnprintf+0x46>
10002514:	4642      	mov	r2, r8
10002516:	464b      	mov	r3, r9
10002518:	4651      	mov	r1, sl
1000251a:	f108 0801 	add.w	r8, r8, #1
1000251e:	47d8      	blx	fp
10002520:	9b09      	ldr	r3, [sp, #36]	@ 0x24
10002522:	7818      	ldrb	r0, [r3, #0]
10002524:	2800      	cmp	r0, #0
10002526:	f000 80ce 	beq.w	100026c6 <_vsnprintf+0x1e2>
1000252a:	9b09      	ldr	r3, [sp, #36]	@ 0x24
1000252c:	2825      	cmp	r0, #37	@ 0x25
1000252e:	f103 0301 	add.w	r3, r3, #1
10002532:	9309      	str	r3, [sp, #36]	@ 0x24
10002534:	d1ee      	bne.n	10002514 <_vsnprintf+0x30>
10002536:	461c      	mov	r4, r3
10002538:	2300      	movs	r3, #0
1000253a:	4622      	mov	r2, r4
1000253c:	f812 0b01 	ldrb.w	r0, [r2], #1
10002540:	f1a0 0120 	sub.w	r1, r0, #32
10002544:	2910      	cmp	r1, #16
10002546:	d80a      	bhi.n	1000255e <_vsnprintf+0x7a>
10002548:	e8df f001 	tbb	[pc, r1]
1000254c:	3c090940 	.word	0x3c090940
10002550:	09090909 	.word	0x09090909
10002554:	38090909 	.word	0x38090909
10002558:	09093409 	.word	0x09093409
1000255c:	30          	.byte	0x30
1000255d:	00          	.byte	0x00
1000255e:	f1a0 0130 	sub.w	r1, r0, #48	@ 0x30
10002562:	2909      	cmp	r1, #9
10002564:	9409      	str	r4, [sp, #36]	@ 0x24
10002566:	f240 808a 	bls.w	1000267e <_vsnprintf+0x19a>
1000256a:	282a      	cmp	r0, #42	@ 0x2a
1000256c:	f000 80f0 	beq.w	10002750 <_vsnprintf+0x26c>
10002570:	2500      	movs	r5, #0
10002572:	282e      	cmp	r0, #46	@ 0x2e
10002574:	f000 8096 	beq.w	100026a4 <_vsnprintf+0x1c0>
10002578:	2600      	movs	r6, #0
1000257a:	f1a0 0168 	sub.w	r1, r0, #104	@ 0x68
1000257e:	2912      	cmp	r1, #18
10002580:	d82d      	bhi.n	100025de <_vsnprintf+0xfa>
10002582:	e8df f011 	tbh	[pc, r1, lsl #1]
10002586:	0149      	.short	0x0149
10002588:	0143002c 	.word	0x0143002c
1000258c:	0138002c 	.word	0x0138002c
10002590:	002c002c 	.word	0x002c002c
10002594:	002c002c 	.word	0x002c002c
10002598:	002c002c 	.word	0x002c002c
1000259c:	0027002c 	.word	0x0027002c
100025a0:	002c002c 	.word	0x002c002c
100025a4:	002c002c 	.word	0x002c002c
100025a8:	0027002c 	.word	0x0027002c
100025ac:	4614      	mov	r4, r2
100025ae:	f043 0301 	orr.w	r3, r3, #1
100025b2:	e7c2      	b.n	1000253a <_vsnprintf+0x56>
100025b4:	4614      	mov	r4, r2
100025b6:	f043 0302 	orr.w	r3, r3, #2
100025ba:	e7be      	b.n	1000253a <_vsnprintf+0x56>
100025bc:	4614      	mov	r4, r2
100025be:	f043 0304 	orr.w	r3, r3, #4
100025c2:	e7ba      	b.n	1000253a <_vsnprintf+0x56>
100025c4:	4614      	mov	r4, r2
100025c6:	f043 0310 	orr.w	r3, r3, #16
100025ca:	e7b6      	b.n	1000253a <_vsnprintf+0x56>
100025cc:	4614      	mov	r4, r2
100025ce:	f043 0308 	orr.w	r3, r3, #8
100025d2:	e7b2      	b.n	1000253a <_vsnprintf+0x56>
100025d4:	9909      	ldr	r1, [sp, #36]	@ 0x24
100025d6:	7848      	ldrb	r0, [r1, #1]
100025d8:	f443 7380 	orr.w	r3, r3, #256	@ 0x100
100025dc:	3201      	adds	r2, #1
100025de:	2867      	cmp	r0, #103	@ 0x67
100025e0:	9209      	str	r2, [sp, #36]	@ 0x24
100025e2:	d87e      	bhi.n	100026e2 <_vsnprintf+0x1fe>
100025e4:	2824      	cmp	r0, #36	@ 0x24
100025e6:	f240 80c1 	bls.w	1000276c <_vsnprintf+0x288>
100025ea:	f1a0 0225 	sub.w	r2, r0, #37	@ 0x25
100025ee:	2a42      	cmp	r2, #66	@ 0x42
100025f0:	f200 80bc 	bhi.w	1000276c <_vsnprintf+0x288>
100025f4:	e8df f012 	tbh	[pc, r2, lsl #1]
100025f8:	00ba0150 	.word	0x00ba0150
100025fc:	00ba00ba 	.word	0x00ba00ba
10002600:	00ba00ba 	.word	0x00ba00ba
10002604:	00ba00ba 	.word	0x00ba00ba
10002608:	00ba00ba 	.word	0x00ba00ba
1000260c:	00ba00ba 	.word	0x00ba00ba
10002610:	00ba00ba 	.word	0x00ba00ba
10002614:	00ba00ba 	.word	0x00ba00ba
10002618:	00ba00ba 	.word	0x00ba00ba
1000261c:	00ba00ba 	.word	0x00ba00ba
10002620:	00ba00ba 	.word	0x00ba00ba
10002624:	00ba00ba 	.word	0x00ba00ba
10002628:	00ba00ba 	.word	0x00ba00ba
1000262c:	00ba00ba 	.word	0x00ba00ba
10002630:	00ba00ba 	.word	0x00ba00ba
10002634:	00ba00ba 	.word	0x00ba00ba
10002638:	01370119 	.word	0x01370119
1000263c:	00ba0119 	.word	0x00ba0119
10002640:	00ba00ba 	.word	0x00ba00ba
10002644:	00ba00ba 	.word	0x00ba00ba
10002648:	00ba00ba 	.word	0x00ba00ba
1000264c:	00ba00ba 	.word	0x00ba00ba
10002650:	00ba00ba 	.word	0x00ba00ba
10002654:	00ba00ba 	.word	0x00ba00ba
10002658:	00ba00ba 	.word	0x00ba00ba
1000265c:	01bc00ba 	.word	0x01bc00ba
10002660:	00ba00ba 	.word	0x00ba00ba
10002664:	00ba00ba 	.word	0x00ba00ba
10002668:	00ba00ba 	.word	0x00ba00ba
1000266c:	00ba00ba 	.word	0x00ba00ba
10002670:	01bc00ba 	.word	0x01bc00ba
10002674:	01bc0158 	.word	0x01bc0158
10002678:	01370119 	.word	0x01370119
1000267c:	0119      	.short	0x0119
1000267e:	2500      	movs	r5, #0
10002680:	e000      	b.n	10002684 <_vsnprintf+0x1a0>
10002682:	3201      	adds	r2, #1
10002684:	eb05 0585 	add.w	r5, r5, r5, lsl #2
10002688:	eb00 0545 	add.w	r5, r0, r5, lsl #1
1000268c:	7810      	ldrb	r0, [r2, #0]
1000268e:	3d30      	subs	r5, #48	@ 0x30
10002690:	f1a0 0130 	sub.w	r1, r0, #48	@ 0x30
10002694:	2909      	cmp	r1, #9
10002696:	d9f4      	bls.n	10002682 <_vsnprintf+0x19e>
10002698:	282e      	cmp	r0, #46	@ 0x2e
1000269a:	9209      	str	r2, [sp, #36]	@ 0x24
1000269c:	f102 0201 	add.w	r2, r2, #1
100026a0:	f47f af6a 	bne.w	10002578 <_vsnprintf+0x94>
100026a4:	9909      	ldr	r1, [sp, #36]	@ 0x24
100026a6:	f443 6380 	orr.w	r3, r3, #1024	@ 0x400
100026aa:	7848      	ldrb	r0, [r1, #1]
100026ac:	4611      	mov	r1, r2
100026ae:	f1a0 0630 	sub.w	r6, r0, #48	@ 0x30
100026b2:	2e09      	cmp	r6, #9
100026b4:	f240 8121 	bls.w	100028fa <_vsnprintf+0x416>
100026b8:	282a      	cmp	r0, #42	@ 0x2a
100026ba:	f000 812f 	beq.w	1000291c <_vsnprintf+0x438>
100026be:	9209      	str	r2, [sp, #36]	@ 0x24
100026c0:	2600      	movs	r6, #0
100026c2:	3201      	adds	r2, #1
100026c4:	e759      	b.n	1000257a <_vsnprintf+0x96>
100026c6:	4644      	mov	r4, r8
100026c8:	45c1      	cmp	r9, r8
100026ca:	d801      	bhi.n	100026d0 <_vsnprintf+0x1ec>
100026cc:	f109 38ff 	add.w	r8, r9, #4294967295
100026d0:	464b      	mov	r3, r9
100026d2:	4642      	mov	r2, r8
100026d4:	4651      	mov	r1, sl
100026d6:	2000      	movs	r0, #0
100026d8:	47d8      	blx	fp
100026da:	4620      	mov	r0, r4
100026dc:	b01b      	add	sp, #108	@ 0x6c
100026de:	e8bd 8ff0 	ldmia.w	sp!, {r4, r5, r6, r7, r8, r9, sl, fp, pc}
100026e2:	f1a0 0269 	sub.w	r2, r0, #105	@ 0x69
100026e6:	b2d2      	uxtb	r2, r2
100026e8:	2a0f      	cmp	r2, #15
100026ea:	d83f      	bhi.n	1000276c <_vsnprintf+0x288>
100026ec:	2101      	movs	r1, #1
100026ee:	f249 0741 	movw	r7, #36929	@ 0x9041
100026f2:	4091      	lsls	r1, r2
100026f4:	4039      	ands	r1, r7
100026f6:	f040 80f3 	bne.w	100028e0 <_vsnprintf+0x3fc>
100026fa:	2a0a      	cmp	r2, #10
100026fc:	d03d      	beq.n	1000277a <_vsnprintf+0x296>
100026fe:	2a07      	cmp	r2, #7
10002700:	d134      	bne.n	1000276c <_vsnprintf+0x288>
10002702:	9d0a      	ldr	r5, [sp, #40]	@ 0x28
10002704:	f855 2b04 	ldr.w	r2, [r5], #4
10002708:	2a00      	cmp	r2, #0
1000270a:	f000 8113 	beq.w	10002934 <_vsnprintf+0x450>
1000270e:	f043 0021 	orr.w	r0, r3, #33	@ 0x21
10002712:	ab12      	add	r3, sp, #72	@ 0x48
10002714:	461f      	mov	r7, r3
10002716:	930b      	str	r3, [sp, #44]	@ 0x2c
10002718:	e003      	b.n	10002722 <_vsnprintf+0x23e>
1000271a:	2920      	cmp	r1, #32
1000271c:	f000 8114 	beq.w	10002948 <_vsnprintf+0x464>
10002720:	461a      	mov	r2, r3
10002722:	f002 040f 	and.w	r4, r2, #15
10002726:	4623      	mov	r3, r4
10002728:	2c09      	cmp	r4, #9
1000272a:	bf94      	ite	ls
1000272c:	3330      	addls	r3, #48	@ 0x30
1000272e:	3337      	addhi	r3, #55	@ 0x37
10002730:	2a0f      	cmp	r2, #15
10002732:	f807 3b01 	strb.w	r3, [r7], #1
10002736:	f101 0101 	add.w	r1, r1, #1
1000273a:	ea4f 1312 	mov.w	r3, r2, lsr #4
1000273e:	d8ec      	bhi.n	1000271a <_vsnprintf+0x236>
10002740:	e102      	b.n	10002948 <_vsnprintf+0x464>
10002742:	bf00      	nop
10002744:	100024e5 	.word	0x100024e5
10002748:	2000089c 	.word	0x2000089c
1000274c:	10001829 	.word	0x10001829
10002750:	990a      	ldr	r1, [sp, #40]	@ 0x28
10002752:	9809      	ldr	r0, [sp, #36]	@ 0x24
10002754:	f851 5b04 	ldr.w	r5, [r1], #4
10002758:	7840      	ldrb	r0, [r0, #1]
1000275a:	2d00      	cmp	r5, #0
1000275c:	e9cd 2109 	strd	r2, r1, [sp, #36]	@ 0x24
10002760:	bfbc      	itt	lt
10002762:	f043 0302 	orrlt.w	r3, r3, #2
10002766:	426d      	neglt	r5, r5
10002768:	3201      	adds	r2, #1
1000276a:	e702      	b.n	10002572 <_vsnprintf+0x8e>
1000276c:	4642      	mov	r2, r8
1000276e:	464b      	mov	r3, r9
10002770:	4651      	mov	r1, sl
10002772:	f108 0801 	add.w	r8, r8, #1
10002776:	47d8      	blx	fp
10002778:	e6d2      	b.n	10002520 <_vsnprintf+0x3c>
1000277a:	990a      	ldr	r1, [sp, #40]	@ 0x28
1000277c:	2e00      	cmp	r6, #0
1000277e:	f851 7b04 	ldr.w	r7, [r1], #4
10002782:	bf18      	it	ne
10002784:	4632      	movne	r2, r6
10002786:	7838      	ldrb	r0, [r7, #0]
10002788:	bf08      	it	eq
1000278a:	f04f 32ff 	moveq.w	r2, #4294967295
1000278e:	2800      	cmp	r0, #0
10002790:	f000 837b 	beq.w	10002e8a <_vsnprintf+0x9a6>
10002794:	18bc      	adds	r4, r7, r2
10002796:	46a4      	mov	ip, r4
10002798:	463a      	mov	r2, r7
1000279a:	e004      	b.n	100027a6 <_vsnprintf+0x2c2>
1000279c:	f812 4f01 	ldrb.w	r4, [r2, #1]!
100027a0:	2c00      	cmp	r4, #0
100027a2:	f000 813f 	beq.w	10002a24 <_vsnprintf+0x540>
100027a6:	4594      	cmp	ip, r2
100027a8:	d1f8      	bne.n	1000279c <_vsnprintf+0x2b8>
100027aa:	4664      	mov	r4, ip
100027ac:	1be4      	subs	r4, r4, r7
100027ae:	055a      	lsls	r2, r3, #21
100027b0:	f140 8122 	bpl.w	100029f8 <_vsnprintf+0x514>
100027b4:	42b4      	cmp	r4, r6
100027b6:	bf28      	it	cs
100027b8:	4634      	movcs	r4, r6
100027ba:	f013 0302 	ands.w	r3, r3, #2
100027be:	f000 8288 	beq.w	10002cd2 <_vsnprintf+0x7ee>
100027c2:	2302      	movs	r3, #2
100027c4:	e9cd 510a 	strd	r5, r1, [sp, #40]	@ 0x28
100027c8:	4642      	mov	r2, r8
100027ca:	461d      	mov	r5, r3
100027cc:	4446      	add	r6, r8
100027ce:	e008      	b.n	100027e2 <_vsnprintf+0x2fe>
100027d0:	464b      	mov	r3, r9
100027d2:	4651      	mov	r1, sl
100027d4:	47d8      	blx	fp
100027d6:	f817 0f01 	ldrb.w	r0, [r7, #1]!
100027da:	f108 0801 	add.w	r8, r8, #1
100027de:	b110      	cbz	r0, 100027e6 <_vsnprintf+0x302>
100027e0:	4642      	mov	r2, r8
100027e2:	4546      	cmp	r6, r8
100027e4:	d1f4      	bne.n	100027d0 <_vsnprintf+0x2ec>
100027e6:	462b      	mov	r3, r5
100027e8:	990b      	ldr	r1, [sp, #44]	@ 0x2c
100027ea:	9d0a      	ldr	r5, [sp, #40]	@ 0x28
100027ec:	2b00      	cmp	r3, #0
100027ee:	f040 8141 	bne.w	10002a74 <_vsnprintf+0x590>
100027f2:	910a      	str	r1, [sp, #40]	@ 0x28
100027f4:	e694      	b.n	10002520 <_vsnprintf+0x3c>
100027f6:	9909      	ldr	r1, [sp, #36]	@ 0x24
100027f8:	7848      	ldrb	r0, [r1, #1]
100027fa:	286c      	cmp	r0, #108	@ 0x6c
100027fc:	f47f aeec 	bne.w	100025d8 <_vsnprintf+0xf4>
10002800:	460a      	mov	r2, r1
10002802:	7888      	ldrb	r0, [r1, #2]
10002804:	f443 7340 	orr.w	r3, r3, #768	@ 0x300
10002808:	3203      	adds	r2, #3
1000280a:	e6e8      	b.n	100025de <_vsnprintf+0xfa>
1000280c:	9909      	ldr	r1, [sp, #36]	@ 0x24
1000280e:	f443 7300 	orr.w	r3, r3, #512	@ 0x200
10002812:	7848      	ldrb	r0, [r1, #1]
10002814:	3201      	adds	r2, #1
10002816:	e6e2      	b.n	100025de <_vsnprintf+0xfa>
10002818:	9909      	ldr	r1, [sp, #36]	@ 0x24
1000281a:	7848      	ldrb	r0, [r1, #1]
1000281c:	2868      	cmp	r0, #104	@ 0x68
1000281e:	f000 8103 	beq.w	10002a28 <_vsnprintf+0x544>
10002822:	f043 0380 	orr.w	r3, r3, #128	@ 0x80
10002826:	3201      	adds	r2, #1
10002828:	e6d9      	b.n	100025de <_vsnprintf+0xfa>
1000282a:	2867      	cmp	r0, #103	@ 0x67
1000282c:	f000 80d9 	beq.w	100029e2 <_vsnprintf+0x4fe>
10002830:	2847      	cmp	r0, #71	@ 0x47
10002832:	f000 80dc 	beq.w	100029ee <_vsnprintf+0x50a>
10002836:	2845      	cmp	r0, #69	@ 0x45
10002838:	f000 80db 	beq.w	100029f2 <_vsnprintf+0x50e>
1000283c:	e9cd 5303 	strd	r5, r3, [sp, #12]
10002840:	9b0a      	ldr	r3, [sp, #40]	@ 0x28
10002842:	9602      	str	r6, [sp, #8]
10002844:	3307      	adds	r3, #7
10002846:	f023 0307 	bic.w	r3, r3, #7
1000284a:	461c      	mov	r4, r3
1000284c:	4642      	mov	r2, r8
1000284e:	e8f4 6702 	ldrd	r6, r7, [r4], #8
10002852:	464b      	mov	r3, r9
10002854:	4651      	mov	r1, sl
10002856:	4658      	mov	r0, fp
10002858:	e9cd 6700 	strd	r6, r7, [sp]
1000285c:	940a      	str	r4, [sp, #40]	@ 0x28
1000285e:	f7ff fb87 	bl	10001f70 <_etoa>
10002862:	4680      	mov	r8, r0
10002864:	e65c      	b.n	10002520 <_vsnprintf+0x3c>
10002866:	2846      	cmp	r0, #70	@ 0x46
10002868:	bf08      	it	eq
1000286a:	f043 0320 	orreq.w	r3, r3, #32
1000286e:	e9cd 5303 	strd	r5, r3, [sp, #12]
10002872:	9b0a      	ldr	r3, [sp, #40]	@ 0x28
10002874:	9602      	str	r6, [sp, #8]
10002876:	3307      	adds	r3, #7
10002878:	f023 0307 	bic.w	r3, r3, #7
1000287c:	461c      	mov	r4, r3
1000287e:	4642      	mov	r2, r8
10002880:	e8f4 6702 	ldrd	r6, r7, [r4], #8
10002884:	464b      	mov	r3, r9
10002886:	4651      	mov	r1, sl
10002888:	4658      	mov	r0, fp
1000288a:	e9cd 6700 	strd	r6, r7, [sp]
1000288e:	940a      	str	r4, [sp, #40]	@ 0x28
10002890:	f7ff f90e 	bl	10001ab0 <_ftoa>
10002894:	4680      	mov	r8, r0
10002896:	e643      	b.n	10002520 <_vsnprintf+0x3c>
10002898:	4642      	mov	r2, r8
1000289a:	464b      	mov	r3, r9
1000289c:	4651      	mov	r1, sl
1000289e:	2025      	movs	r0, #37	@ 0x25
100028a0:	f108 0801 	add.w	r8, r8, #1
100028a4:	47d8      	blx	fp
100028a6:	e63b      	b.n	10002520 <_vsnprintf+0x3c>
100028a8:	9a0a      	ldr	r2, [sp, #40]	@ 0x28
100028aa:	0799      	lsls	r1, r3, #30
100028ac:	f102 0404 	add.w	r4, r2, #4
100028b0:	f108 0601 	add.w	r6, r8, #1
100028b4:	f140 80c6 	bpl.w	10002a44 <_vsnprintf+0x560>
100028b8:	7810      	ldrb	r0, [r2, #0]
100028ba:	464b      	mov	r3, r9
100028bc:	4642      	mov	r2, r8
100028be:	4651      	mov	r1, sl
100028c0:	47d8      	blx	fp
100028c2:	2d01      	cmp	r5, #1
100028c4:	bf88      	it	hi
100028c6:	44a8      	addhi	r8, r5
100028c8:	f240 81bd 	bls.w	10002c46 <_vsnprintf+0x762>
100028cc:	4632      	mov	r2, r6
100028ce:	464b      	mov	r3, r9
100028d0:	4651      	mov	r1, sl
100028d2:	2020      	movs	r0, #32
100028d4:	3601      	adds	r6, #1
100028d6:	47d8      	blx	fp
100028d8:	4546      	cmp	r6, r8
100028da:	d1f7      	bne.n	100028cc <_vsnprintf+0x3e8>
100028dc:	940a      	str	r4, [sp, #40]	@ 0x28
100028de:	e61f      	b.n	10002520 <_vsnprintf+0x3c>
100028e0:	286f      	cmp	r0, #111	@ 0x6f
100028e2:	f000 8081 	beq.w	100029e8 <_vsnprintf+0x504>
100028e6:	f240 8248 	bls.w	10002d7a <_vsnprintf+0x896>
100028ea:	2878      	cmp	r0, #120	@ 0x78
100028ec:	f000 8190 	beq.w	10002c10 <_vsnprintf+0x72c>
100028f0:	270a      	movs	r7, #10
100028f2:	f023 0310 	bic.w	r3, r3, #16
100028f6:	46bc      	mov	ip, r7
100028f8:	e041      	b.n	1000297e <_vsnprintf+0x49a>
100028fa:	2600      	movs	r6, #0
100028fc:	eb06 0686 	add.w	r6, r6, r6, lsl #2
10002900:	eb00 0046 	add.w	r0, r0, r6, lsl #1
10002904:	f1a0 0630 	sub.w	r6, r0, #48	@ 0x30
10002908:	f811 0f01 	ldrb.w	r0, [r1, #1]!
1000290c:	f1a0 0230 	sub.w	r2, r0, #48	@ 0x30
10002910:	2a09      	cmp	r2, #9
10002912:	d9f3      	bls.n	100028fc <_vsnprintf+0x418>
10002914:	460a      	mov	r2, r1
10002916:	9109      	str	r1, [sp, #36]	@ 0x24
10002918:	3201      	adds	r2, #1
1000291a:	e62e      	b.n	1000257a <_vsnprintf+0x96>
1000291c:	e9dd 2109 	ldrd	r2, r1, [sp, #36]	@ 0x24
10002920:	f851 6b04 	ldr.w	r6, [r1], #4
10002924:	7890      	ldrb	r0, [r2, #2]
10002926:	3202      	adds	r2, #2
10002928:	9209      	str	r2, [sp, #36]	@ 0x24
1000292a:	910a      	str	r1, [sp, #40]	@ 0x28
1000292c:	3201      	adds	r2, #1
1000292e:	ea26 76e6 	bic.w	r6, r6, r6, asr #31
10002932:	e622      	b.n	1000257a <_vsnprintf+0x96>
10002934:	f023 0010 	bic.w	r0, r3, #16
10002938:	f413 6280 	ands.w	r2, r3, #1024	@ 0x400
1000293c:	f040 0021 	orr.w	r0, r0, #33	@ 0x21
10002940:	f43f aee7 	beq.w	10002712 <_vsnprintf+0x22e>
10002944:	ab12      	add	r3, sp, #72	@ 0x48
10002946:	930b      	str	r3, [sp, #44]	@ 0x2c
10002948:	9b0b      	ldr	r3, [sp, #44]	@ 0x2c
1000294a:	9006      	str	r0, [sp, #24]
1000294c:	9300      	str	r3, [sp, #0]
1000294e:	2308      	movs	r3, #8
10002950:	2010      	movs	r0, #16
10002952:	9305      	str	r3, [sp, #20]
10002954:	2300      	movs	r3, #0
10002956:	4642      	mov	r2, r8
10002958:	e9cd 3002 	strd	r3, r0, [sp, #8]
1000295c:	9101      	str	r1, [sp, #4]
1000295e:	464b      	mov	r3, r9
10002960:	4651      	mov	r1, sl
10002962:	4658      	mov	r0, fp
10002964:	9604      	str	r6, [sp, #16]
10002966:	f7fe ffaf 	bl	100018c8 <_ntoa_format>
1000296a:	950a      	str	r5, [sp, #40]	@ 0x28
1000296c:	4680      	mov	r8, r0
1000296e:	e5d7      	b.n	10002520 <_vsnprintf+0x3c>
10002970:	2858      	cmp	r0, #88	@ 0x58
10002972:	d062      	beq.n	10002a3a <_vsnprintf+0x556>
10002974:	2862      	cmp	r0, #98	@ 0x62
10002976:	f040 808f 	bne.w	10002a98 <_vsnprintf+0x5b4>
1000297a:	2702      	movs	r7, #2
1000297c:	46bc      	mov	ip, r7
1000297e:	f413 6080 	ands.w	r0, r3, #1024	@ 0x400
10002982:	f000 80dd 	beq.w	10002b40 <_vsnprintf+0x65c>
10002986:	f023 030d 	bic.w	r3, r3, #13
1000298a:	f413 7200 	ands.w	r2, r3, #512	@ 0x200
1000298e:	f040 8181 	bne.w	10002c94 <_vsnprintf+0x7b0>
10002992:	990a      	ldr	r1, [sp, #40]	@ 0x28
10002994:	1d0f      	adds	r7, r1, #4
10002996:	f413 7180 	ands.w	r1, r3, #256	@ 0x100
1000299a:	f040 8237 	bne.w	10002e0c <_vsnprintf+0x928>
1000299e:	065c      	lsls	r4, r3, #25
100029a0:	9a0a      	ldr	r2, [sp, #40]	@ 0x28
100029a2:	f140 813b 	bpl.w	10002c1c <_vsnprintf+0x738>
100029a6:	7812      	ldrb	r2, [r2, #0]
100029a8:	2a00      	cmp	r2, #0
100029aa:	f040 814e 	bne.w	10002c4a <_vsnprintf+0x766>
100029ae:	f023 0310 	bic.w	r3, r3, #16
100029b2:	2800      	cmp	r0, #0
100029b4:	f000 8149 	beq.w	10002c4a <_vsnprintf+0x766>
100029b8:	4611      	mov	r1, r2
100029ba:	aa12      	add	r2, sp, #72	@ 0x48
100029bc:	920b      	str	r2, [sp, #44]	@ 0x2c
100029be:	e9cd 5305 	strd	r5, r3, [sp, #20]
100029c2:	e9cd c603 	strd	ip, r6, [sp, #12]
100029c6:	9101      	str	r1, [sp, #4]
100029c8:	9b0b      	ldr	r3, [sp, #44]	@ 0x2c
100029ca:	4642      	mov	r2, r8
100029cc:	9300      	str	r3, [sp, #0]
100029ce:	2300      	movs	r3, #0
100029d0:	4651      	mov	r1, sl
100029d2:	9302      	str	r3, [sp, #8]
100029d4:	4658      	mov	r0, fp
100029d6:	464b      	mov	r3, r9
100029d8:	f7fe ff76 	bl	100018c8 <_ntoa_format>
100029dc:	970a      	str	r7, [sp, #40]	@ 0x28
100029de:	4680      	mov	r8, r0
100029e0:	e59e      	b.n	10002520 <_vsnprintf+0x3c>
100029e2:	f443 6300 	orr.w	r3, r3, #2048	@ 0x800
100029e6:	e729      	b.n	1000283c <_vsnprintf+0x358>
100029e8:	2708      	movs	r7, #8
100029ea:	46bc      	mov	ip, r7
100029ec:	e7c7      	b.n	1000297e <_vsnprintf+0x49a>
100029ee:	f443 6300 	orr.w	r3, r3, #2048	@ 0x800
100029f2:	f043 0320 	orr.w	r3, r3, #32
100029f6:	e721      	b.n	1000283c <_vsnprintf+0x358>
100029f8:	f013 0302 	ands.w	r3, r3, #2
100029fc:	f000 818e 	beq.w	10002d1c <_vsnprintf+0x838>
10002a00:	2302      	movs	r3, #2
10002a02:	950a      	str	r5, [sp, #40]	@ 0x28
10002a04:	461e      	mov	r6, r3
10002a06:	460d      	mov	r5, r1
10002a08:	4642      	mov	r2, r8
10002a0a:	464b      	mov	r3, r9
10002a0c:	4651      	mov	r1, sl
10002a0e:	47d8      	blx	fp
10002a10:	f817 0f01 	ldrb.w	r0, [r7, #1]!
10002a14:	f108 0801 	add.w	r8, r8, #1
10002a18:	2800      	cmp	r0, #0
10002a1a:	d1f5      	bne.n	10002a08 <_vsnprintf+0x524>
10002a1c:	4629      	mov	r1, r5
10002a1e:	4633      	mov	r3, r6
10002a20:	9d0a      	ldr	r5, [sp, #40]	@ 0x28
10002a22:	e6e3      	b.n	100027ec <_vsnprintf+0x308>
10002a24:	1bd4      	subs	r4, r2, r7
10002a26:	e6c2      	b.n	100027ae <_vsnprintf+0x2ca>
10002a28:	460a      	mov	r2, r1
10002a2a:	7888      	ldrb	r0, [r1, #2]
10002a2c:	f043 03c0 	orr.w	r3, r3, #192	@ 0xc0
10002a30:	3203      	adds	r2, #3
10002a32:	e5d4      	b.n	100025de <_vsnprintf+0xfa>
10002a34:	4604      	mov	r4, r0
10002a36:	4680      	mov	r8, r0
10002a38:	e646      	b.n	100026c8 <_vsnprintf+0x1e4>
10002a3a:	2710      	movs	r7, #16
10002a3c:	f043 0320 	orr.w	r3, r3, #32
10002a40:	46bc      	mov	ip, r7
10002a42:	e79c      	b.n	1000297e <_vsnprintf+0x49a>
10002a44:	2d01      	cmp	r5, #1
10002a46:	f240 80f8 	bls.w	10002c3a <_vsnprintf+0x756>
10002a4a:	4646      	mov	r6, r8
10002a4c:	f108 37ff 	add.w	r7, r8, #4294967295
10002a50:	442f      	add	r7, r5
10002a52:	4632      	mov	r2, r6
10002a54:	464b      	mov	r3, r9
10002a56:	4651      	mov	r1, sl
10002a58:	2020      	movs	r0, #32
10002a5a:	3601      	adds	r6, #1
10002a5c:	47d8      	blx	fp
10002a5e:	42be      	cmp	r6, r7
10002a60:	d1f7      	bne.n	10002a52 <_vsnprintf+0x56e>
10002a62:	9b0a      	ldr	r3, [sp, #40]	@ 0x28
10002a64:	4632      	mov	r2, r6
10002a66:	7818      	ldrb	r0, [r3, #0]
10002a68:	4651      	mov	r1, sl
10002a6a:	464b      	mov	r3, r9
10002a6c:	47d8      	blx	fp
10002a6e:	44a8      	add	r8, r5
10002a70:	940a      	str	r4, [sp, #40]	@ 0x28
10002a72:	e555      	b.n	10002520 <_vsnprintf+0x3c>
10002a74:	4646      	mov	r6, r8
10002a76:	42a5      	cmp	r5, r4
10002a78:	f67f aebb 	bls.w	100027f2 <_vsnprintf+0x30e>
10002a7c:	44a8      	add	r8, r5
10002a7e:	eba8 0804 	sub.w	r8, r8, r4
10002a82:	460c      	mov	r4, r1
10002a84:	4632      	mov	r2, r6
10002a86:	464b      	mov	r3, r9
10002a88:	4651      	mov	r1, sl
10002a8a:	2020      	movs	r0, #32
10002a8c:	3601      	adds	r6, #1
10002a8e:	47d8      	blx	fp
10002a90:	4546      	cmp	r6, r8
10002a92:	d1f7      	bne.n	10002a84 <_vsnprintf+0x5a0>
10002a94:	4621      	mov	r1, r4
10002a96:	e6ac      	b.n	100027f2 <_vsnprintf+0x30e>
10002a98:	f413 6280 	ands.w	r2, r3, #1024	@ 0x400
10002a9c:	f000 80bb 	beq.w	10002c16 <_vsnprintf+0x732>
10002aa0:	f44f 6280 	mov.w	r2, #1024	@ 0x400
10002aa4:	f023 0c11 	bic.w	ip, r3, #17
10002aa8:	f41c 7700 	ands.w	r7, ip, #512	@ 0x200
10002aac:	9b0a      	ldr	r3, [sp, #40]	@ 0x28
10002aae:	d14a      	bne.n	10002b46 <_vsnprintf+0x662>
10002ab0:	f41c 7080 	ands.w	r0, ip, #256	@ 0x100
10002ab4:	f103 0404 	add.w	r4, r3, #4
10002ab8:	f040 8134 	bne.w	10002d24 <_vsnprintf+0x840>
10002abc:	f01c 0f40 	tst.w	ip, #64	@ 0x40
10002ac0:	f040 80a3 	bne.w	10002c0a <_vsnprintf+0x726>
10002ac4:	f01c 0f80 	tst.w	ip, #128	@ 0x80
10002ac8:	f000 81d3 	beq.w	10002e72 <_vsnprintf+0x98e>
10002acc:	f9b3 1000 	ldrsh.w	r1, [r3]
10002ad0:	ea81 77e1 	eor.w	r7, r1, r1, asr #31
10002ad4:	eba7 77e1 	sub.w	r7, r7, r1, asr #31
10002ad8:	b2bf      	uxth	r7, r7
10002ada:	0fcb      	lsrs	r3, r1, #31
10002adc:	2900      	cmp	r1, #0
10002ade:	f000 8156 	beq.w	10002d8e <_vsnprintf+0x8aa>
10002ae2:	463a      	mov	r2, r7
10002ae4:	a912      	add	r1, sp, #72	@ 0x48
10002ae6:	460f      	mov	r7, r1
10002ae8:	f8df e3d8 	ldr.w	lr, [pc, #984]	@ 10002ec4 <_vsnprintf+0x9e0>
10002aec:	910b      	str	r1, [sp, #44]	@ 0x2c
10002aee:	930a      	str	r3, [sp, #40]	@ 0x28
10002af0:	950c      	str	r5, [sp, #48]	@ 0x30
10002af2:	e001      	b.n	10002af8 <_vsnprintf+0x614>
10002af4:	2820      	cmp	r0, #32
10002af6:	d00f      	beq.n	10002b18 <_vsnprintf+0x634>
10002af8:	4615      	mov	r5, r2
10002afa:	fbae 1302 	umull	r1, r3, lr, r2
10002afe:	08db      	lsrs	r3, r3, #3
10002b00:	eb03 0183 	add.w	r1, r3, r3, lsl #2
10002b04:	eba2 0141 	sub.w	r1, r2, r1, lsl #1
10002b08:	3130      	adds	r1, #48	@ 0x30
10002b0a:	2d09      	cmp	r5, #9
10002b0c:	461a      	mov	r2, r3
10002b0e:	f100 0001 	add.w	r0, r0, #1
10002b12:	f807 1b01 	strb.w	r1, [r7], #1
10002b16:	d8ed      	bhi.n	10002af4 <_vsnprintf+0x610>
10002b18:	9b0a      	ldr	r3, [sp, #40]	@ 0x28
10002b1a:	9d0c      	ldr	r5, [sp, #48]	@ 0x30
10002b1c:	e9cd 5c05 	strd	r5, ip, [sp, #20]
10002b20:	e9cd 0301 	strd	r0, r3, [sp, #4]
10002b24:	9604      	str	r6, [sp, #16]
10002b26:	9b0b      	ldr	r3, [sp, #44]	@ 0x2c
10002b28:	4642      	mov	r2, r8
10002b2a:	9300      	str	r3, [sp, #0]
10002b2c:	230a      	movs	r3, #10
10002b2e:	4651      	mov	r1, sl
10002b30:	9303      	str	r3, [sp, #12]
10002b32:	4658      	mov	r0, fp
10002b34:	464b      	mov	r3, r9
10002b36:	f7fe fec7 	bl	100018c8 <_ntoa_format>
10002b3a:	940a      	str	r4, [sp, #40]	@ 0x28
10002b3c:	4680      	mov	r8, r0
10002b3e:	e4ef      	b.n	10002520 <_vsnprintf+0x3c>
10002b40:	f023 030c 	bic.w	r3, r3, #12
10002b44:	e721      	b.n	1000298a <_vsnprintf+0x4a6>
10002b46:	3307      	adds	r3, #7
10002b48:	f023 0307 	bic.w	r3, r3, #7
10002b4c:	4619      	mov	r1, r3
10002b4e:	4608      	mov	r0, r1
10002b50:	685b      	ldr	r3, [r3, #4]
10002b52:	f850 1b08 	ldr.w	r1, [r0], #8
10002b56:	0fdf      	lsrs	r7, r3, #31
10002b58:	900a      	str	r0, [sp, #40]	@ 0x28
10002b5a:	ea51 0003 	orrs.w	r0, r1, r3
10002b5e:	d162      	bne.n	10002c26 <_vsnprintf+0x742>
10002b60:	2a00      	cmp	r2, #0
10002b62:	f040 819f 	bne.w	10002ea4 <_vsnprintf+0x9c0>
10002b66:	4613      	mov	r3, r2
10002b68:	4611      	mov	r1, r2
10002b6a:	aa12      	add	r2, sp, #72	@ 0x48
10002b6c:	e9cd 750c 	strd	r7, r5, [sp, #48]	@ 0x30
10002b70:	2000      	movs	r0, #0
10002b72:	4615      	mov	r5, r2
10002b74:	e9cd 680e 	strd	r6, r8, [sp, #56]	@ 0x38
10002b78:	f8df e348 	ldr.w	lr, [pc, #840]	@ 10002ec4 <_vsnprintf+0x9e0>
10002b7c:	920b      	str	r2, [sp, #44]	@ 0x2c
10002b7e:	e001      	b.n	10002b84 <_vsnprintf+0x6a0>
10002b80:	2820      	cmp	r0, #32
10002b82:	d02d      	beq.n	10002be0 <_vsnprintf+0x6fc>
10002b84:	185a      	adds	r2, r3, r1
10002b86:	f142 0200 	adc.w	r2, r2, #0
10002b8a:	fbae 7802 	umull	r7, r8, lr, r2
10002b8e:	f028 0703 	bic.w	r7, r8, #3
10002b92:	eb07 0798 	add.w	r7, r7, r8, lsr #2
10002b96:	1bd2      	subs	r2, r2, r7
10002b98:	461e      	mov	r6, r3
10002b9a:	1a9b      	subs	r3, r3, r2
10002b9c:	f161 0700 	sbc.w	r7, r1, #0
10002ba0:	460c      	mov	r4, r1
10002ba2:	f04f 31cc 	mov.w	r1, #3435973836	@ 0xcccccccc
10002ba6:	fb01 f103 	mul.w	r1, r1, r3
10002baa:	fb0e 1107 	mla	r1, lr, r7, r1
10002bae:	fba3 730e 	umull	r7, r3, r3, lr
10002bb2:	4419      	add	r1, r3
10002bb4:	2305      	movs	r3, #5
10002bb6:	f007 0801 	and.w	r8, r7, #1
10002bba:	fba8 3803 	umull	r3, r8, r8, r3
10002bbe:	189b      	adds	r3, r3, r2
10002bc0:	2e0a      	cmp	r6, #10
10002bc2:	f103 0330 	add.w	r3, r3, #48	@ 0x30
10002bc6:	ea4f 0757 	mov.w	r7, r7, lsr #1
10002bca:	f174 0400 	sbcs.w	r4, r4, #0
10002bce:	f805 3b01 	strb.w	r3, [r5], #1
10002bd2:	f100 0001 	add.w	r0, r0, #1
10002bd6:	ea47 73c1 	orr.w	r3, r7, r1, lsl #31
10002bda:	ea4f 0151 	mov.w	r1, r1, lsr #1
10002bde:	d2cf      	bcs.n	10002b80 <_vsnprintf+0x69c>
10002be0:	e9dd 750c 	ldrd	r7, r5, [sp, #48]	@ 0x30
10002be4:	e9dd 680e 	ldrd	r6, r8, [sp, #56]	@ 0x38
10002be8:	9b0b      	ldr	r3, [sp, #44]	@ 0x2c
10002bea:	4642      	mov	r2, r8
10002bec:	9300      	str	r3, [sp, #0]
10002bee:	230a      	movs	r3, #10
10002bf0:	e9cd 5c05 	strd	r5, ip, [sp, #20]
10002bf4:	e9cd 0701 	strd	r0, r7, [sp, #4]
10002bf8:	9604      	str	r6, [sp, #16]
10002bfa:	9303      	str	r3, [sp, #12]
10002bfc:	464b      	mov	r3, r9
10002bfe:	4651      	mov	r1, sl
10002c00:	4658      	mov	r0, fp
10002c02:	f7fe fe61 	bl	100018c8 <_ntoa_format>
10002c06:	4680      	mov	r8, r0
10002c08:	e48a      	b.n	10002520 <_vsnprintf+0x3c>
10002c0a:	7819      	ldrb	r1, [r3, #0]
10002c0c:	460f      	mov	r7, r1
10002c0e:	e764      	b.n	10002ada <_vsnprintf+0x5f6>
10002c10:	2710      	movs	r7, #16
10002c12:	46bc      	mov	ip, r7
10002c14:	e6b3      	b.n	1000297e <_vsnprintf+0x49a>
10002c16:	f023 0c10 	bic.w	ip, r3, #16
10002c1a:	e745      	b.n	10002aa8 <_vsnprintf+0x5c4>
10002c1c:	061c      	lsls	r4, r3, #24
10002c1e:	bf4c      	ite	mi
10002c20:	8812      	ldrhmi	r2, [r2, #0]
10002c22:	6812      	ldrpl	r2, [r2, #0]
10002c24:	e6c0      	b.n	100029a8 <_vsnprintf+0x4c4>
10002c26:	460a      	mov	r2, r1
10002c28:	1e19      	subs	r1, r3, #0
10002c2a:	db01      	blt.n	10002c30 <_vsnprintf+0x74c>
10002c2c:	4613      	mov	r3, r2
10002c2e:	e79c      	b.n	10002b6a <_vsnprintf+0x686>
10002c30:	4252      	negs	r2, r2
10002c32:	4613      	mov	r3, r2
10002c34:	eb61 0141 	sbc.w	r1, r1, r1, lsl #1
10002c38:	e797      	b.n	10002b6a <_vsnprintf+0x686>
10002c3a:	4613      	mov	r3, r2
10002c3c:	4651      	mov	r1, sl
10002c3e:	7818      	ldrb	r0, [r3, #0]
10002c40:	4642      	mov	r2, r8
10002c42:	464b      	mov	r3, r9
10002c44:	47d8      	blx	fp
10002c46:	46b0      	mov	r8, r6
10002c48:	e648      	b.n	100028dc <_vsnprintf+0x3f8>
10002c4a:	f013 0f20 	tst.w	r3, #32
10002c4e:	bf14      	ite	ne
10002c50:	2041      	movne	r0, #65	@ 0x41
10002c52:	2061      	moveq	r0, #97	@ 0x61
10002c54:	ac12      	add	r4, sp, #72	@ 0x48
10002c56:	46a6      	mov	lr, r4
10002c58:	940b      	str	r4, [sp, #44]	@ 0x2c
10002c5a:	930a      	str	r3, [sp, #40]	@ 0x28
10002c5c:	f1a0 040a 	sub.w	r4, r0, #10
10002c60:	950c      	str	r5, [sp, #48]	@ 0x30
10002c62:	e002      	b.n	10002c6a <_vsnprintf+0x786>
10002c64:	2920      	cmp	r1, #32
10002c66:	d012      	beq.n	10002c8e <_vsnprintf+0x7aa>
10002c68:	462a      	mov	r2, r5
10002c6a:	fbb2 f5fc 	udiv	r5, r2, ip
10002c6e:	fb0c 2015 	mls	r0, ip, r5, r2
10002c72:	b2c3      	uxtb	r3, r0
10002c74:	2809      	cmp	r0, #9
10002c76:	f103 0030 	add.w	r0, r3, #48	@ 0x30
10002c7a:	bf8a      	itet	hi
10002c7c:	191b      	addhi	r3, r3, r4
10002c7e:	b2c3      	uxtbls	r3, r0
10002c80:	b2db      	uxtbhi	r3, r3
10002c82:	4562      	cmp	r2, ip
10002c84:	f80e 3b01 	strb.w	r3, [lr], #1
10002c88:	f101 0101 	add.w	r1, r1, #1
10002c8c:	d2ea      	bcs.n	10002c64 <_vsnprintf+0x780>
10002c8e:	9b0a      	ldr	r3, [sp, #40]	@ 0x28
10002c90:	9d0c      	ldr	r5, [sp, #48]	@ 0x30
10002c92:	e694      	b.n	100029be <_vsnprintf+0x4da>
10002c94:	9a0a      	ldr	r2, [sp, #40]	@ 0x28
10002c96:	3207      	adds	r2, #7
10002c98:	f022 0207 	bic.w	r2, r2, #7
10002c9c:	6851      	ldr	r1, [r2, #4]
10002c9e:	f852 4b08 	ldr.w	r4, [r2], #8
10002ca2:	468e      	mov	lr, r1
10002ca4:	920a      	str	r2, [sp, #40]	@ 0x28
10002ca6:	ea54 0201 	orrs.w	r2, r4, r1
10002caa:	d176      	bne.n	10002d9a <_vsnprintf+0x8b6>
10002cac:	f023 0310 	bic.w	r3, r3, #16
10002cb0:	2800      	cmp	r0, #0
10002cb2:	d072      	beq.n	10002d9a <_vsnprintf+0x8b6>
10002cb4:	2200      	movs	r2, #0
10002cb6:	4611      	mov	r1, r2
10002cb8:	aa12      	add	r2, sp, #72	@ 0x48
10002cba:	920b      	str	r2, [sp, #44]	@ 0x2c
10002cbc:	e9cd 5305 	strd	r5, r3, [sp, #20]
10002cc0:	9b0b      	ldr	r3, [sp, #44]	@ 0x2c
10002cc2:	4642      	mov	r2, r8
10002cc4:	9300      	str	r3, [sp, #0]
10002cc6:	2300      	movs	r3, #0
10002cc8:	e9cd c603 	strd	ip, r6, [sp, #12]
10002ccc:	9101      	str	r1, [sp, #4]
10002cce:	9302      	str	r3, [sp, #8]
10002cd0:	e794      	b.n	10002bfc <_vsnprintf+0x718>
10002cd2:	42a5      	cmp	r5, r4
10002cd4:	bf98      	it	ls
10002cd6:	3401      	addls	r4, #1
10002cd8:	f67f ad74 	bls.w	100027c4 <_vsnprintf+0x2e0>
10002cdc:	f44f 6380 	mov.w	r3, #1024	@ 0x400
10002ce0:	e9cd 750a 	strd	r7, r5, [sp, #40]	@ 0x28
10002ce4:	eb05 0208 	add.w	r2, r5, r8
10002ce8:	461f      	mov	r7, r3
10002cea:	460d      	mov	r5, r1
10002cec:	1b14      	subs	r4, r2, r4
10002cee:	4642      	mov	r2, r8
10002cf0:	464b      	mov	r3, r9
10002cf2:	4651      	mov	r1, sl
10002cf4:	2020      	movs	r0, #32
10002cf6:	f108 0801 	add.w	r8, r8, #1
10002cfa:	47d8      	blx	fp
10002cfc:	45a0      	cmp	r8, r4
10002cfe:	d1f6      	bne.n	10002cee <_vsnprintf+0x80a>
10002d00:	463b      	mov	r3, r7
10002d02:	9f0a      	ldr	r7, [sp, #40]	@ 0x28
10002d04:	4629      	mov	r1, r5
10002d06:	7838      	ldrb	r0, [r7, #0]
10002d08:	9d0b      	ldr	r5, [sp, #44]	@ 0x2c
10002d0a:	1c6c      	adds	r4, r5, #1
10002d0c:	2800      	cmp	r0, #0
10002d0e:	f43f ad70 	beq.w	100027f2 <_vsnprintf+0x30e>
10002d12:	2b00      	cmp	r3, #0
10002d14:	f43f ae75 	beq.w	10002a02 <_vsnprintf+0x51e>
10002d18:	2300      	movs	r3, #0
10002d1a:	e553      	b.n	100027c4 <_vsnprintf+0x2e0>
10002d1c:	42a5      	cmp	r5, r4
10002d1e:	d8df      	bhi.n	10002ce0 <_vsnprintf+0x7fc>
10002d20:	3401      	adds	r4, #1
10002d22:	e66e      	b.n	10002a02 <_vsnprintf+0x51e>
10002d24:	6819      	ldr	r1, [r3, #0]
10002d26:	0fcb      	lsrs	r3, r1, #31
10002d28:	2900      	cmp	r1, #0
10002d2a:	f000 80a8 	beq.w	10002e7e <_vsnprintf+0x99a>
10002d2e:	ea81 72e1 	eor.w	r2, r1, r1, asr #31
10002d32:	eba2 72e1 	sub.w	r2, r2, r1, asr #31
10002d36:	a912      	add	r1, sp, #72	@ 0x48
10002d38:	4608      	mov	r0, r1
10002d3a:	f8df e188 	ldr.w	lr, [pc, #392]	@ 10002ec4 <_vsnprintf+0x9e0>
10002d3e:	910b      	str	r1, [sp, #44]	@ 0x2c
10002d40:	930a      	str	r3, [sp, #40]	@ 0x28
10002d42:	950c      	str	r5, [sp, #48]	@ 0x30
10002d44:	e001      	b.n	10002d4a <_vsnprintf+0x866>
10002d46:	2f20      	cmp	r7, #32
10002d48:	d00f      	beq.n	10002d6a <_vsnprintf+0x886>
10002d4a:	4615      	mov	r5, r2
10002d4c:	fbae 1302 	umull	r1, r3, lr, r2
10002d50:	08db      	lsrs	r3, r3, #3
10002d52:	eb03 0183 	add.w	r1, r3, r3, lsl #2
10002d56:	eba2 0141 	sub.w	r1, r2, r1, lsl #1
10002d5a:	3130      	adds	r1, #48	@ 0x30
10002d5c:	2d09      	cmp	r5, #9
10002d5e:	461a      	mov	r2, r3
10002d60:	f107 0701 	add.w	r7, r7, #1
10002d64:	f800 1b01 	strb.w	r1, [r0], #1
10002d68:	d8ed      	bhi.n	10002d46 <_vsnprintf+0x862>
10002d6a:	9b0a      	ldr	r3, [sp, #40]	@ 0x28
10002d6c:	9d0c      	ldr	r5, [sp, #48]	@ 0x30
10002d6e:	e9cd 5c05 	strd	r5, ip, [sp, #20]
10002d72:	e9cd 7301 	strd	r7, r3, [sp, #4]
10002d76:	9604      	str	r6, [sp, #16]
10002d78:	e6d5      	b.n	10002b26 <_vsnprintf+0x642>
10002d7a:	2869      	cmp	r0, #105	@ 0x69
10002d7c:	f023 0c10 	bic.w	ip, r3, #16
10002d80:	f040 808c 	bne.w	10002e9c <_vsnprintf+0x9b8>
10002d84:	f413 6280 	ands.w	r2, r3, #1024	@ 0x400
10002d88:	f43f ae8e 	beq.w	10002aa8 <_vsnprintf+0x5c4>
10002d8c:	e688      	b.n	10002aa0 <_vsnprintf+0x5bc>
10002d8e:	2a00      	cmp	r2, #0
10002d90:	f43f aea8 	beq.w	10002ae4 <_vsnprintf+0x600>
10002d94:	aa12      	add	r2, sp, #72	@ 0x48
10002d96:	920b      	str	r2, [sp, #44]	@ 0x2c
10002d98:	e6c0      	b.n	10002b1c <_vsnprintf+0x638>
10002d9a:	f013 0f20 	tst.w	r3, #32
10002d9e:	bf14      	ite	ne
10002da0:	2241      	movne	r2, #65	@ 0x41
10002da2:	2261      	moveq	r2, #97	@ 0x61
10002da4:	2000      	movs	r0, #0
10002da6:	a912      	add	r1, sp, #72	@ 0x48
10002da8:	3a0a      	subs	r2, #10
10002daa:	e9cd 680e 	strd	r6, r8, [sp, #56]	@ 0x38
10002dae:	e9cd 350c 	strd	r3, r5, [sp, #48]	@ 0x30
10002db2:	f8cd b044 	str.w	fp, [sp, #68]	@ 0x44
10002db6:	4606      	mov	r6, r0
10002db8:	4688      	mov	r8, r1
10002dba:	4675      	mov	r5, lr
10002dbc:	4693      	mov	fp, r2
10002dbe:	910b      	str	r1, [sp, #44]	@ 0x2c
10002dc0:	f8cd c040 	str.w	ip, [sp, #64]	@ 0x40
10002dc4:	e003      	b.n	10002dce <_vsnprintf+0x8ea>
10002dc6:	2e20      	cmp	r6, #32
10002dc8:	d017      	beq.n	10002dfa <_vsnprintf+0x916>
10002dca:	4604      	mov	r4, r0
10002dcc:	460d      	mov	r5, r1
10002dce:	4629      	mov	r1, r5
10002dd0:	463a      	mov	r2, r7
10002dd2:	2300      	movs	r3, #0
10002dd4:	4620      	mov	r0, r4
10002dd6:	f000 fcc3 	bl	10003760 <____aeabi_uldivmod_veneer>
10002dda:	b2d2      	uxtb	r2, r2
10002ddc:	2a09      	cmp	r2, #9
10002dde:	f102 0330 	add.w	r3, r2, #48	@ 0x30
10002de2:	bf88      	it	hi
10002de4:	eb02 030b 	addhi.w	r3, r2, fp
10002de8:	42bc      	cmp	r4, r7
10002dea:	b2db      	uxtb	r3, r3
10002dec:	f175 0500 	sbcs.w	r5, r5, #0
10002df0:	f808 3b01 	strb.w	r3, [r8], #1
10002df4:	f106 0601 	add.w	r6, r6, #1
10002df8:	d2e5      	bcs.n	10002dc6 <_vsnprintf+0x8e2>
10002dfa:	4631      	mov	r1, r6
10002dfc:	e9dd 350c 	ldrd	r3, r5, [sp, #48]	@ 0x30
10002e00:	e9dd cb10 	ldrd	ip, fp, [sp, #64]	@ 0x40
10002e04:	f8dd 803c 	ldr.w	r8, [sp, #60]	@ 0x3c
10002e08:	9e0e      	ldr	r6, [sp, #56]	@ 0x38
10002e0a:	e757      	b.n	10002cbc <_vsnprintf+0x7d8>
10002e0c:	990a      	ldr	r1, [sp, #40]	@ 0x28
10002e0e:	6809      	ldr	r1, [r1, #0]
10002e10:	b951      	cbnz	r1, 10002e28 <_vsnprintf+0x944>
10002e12:	f023 0310 	bic.w	r3, r3, #16
10002e16:	b138      	cbz	r0, 10002e28 <_vsnprintf+0x944>
10002e18:	a912      	add	r1, sp, #72	@ 0x48
10002e1a:	910b      	str	r1, [sp, #44]	@ 0x2c
10002e1c:	e9cd 5305 	strd	r5, r3, [sp, #20]
10002e20:	e9cd c603 	strd	ip, r6, [sp, #12]
10002e24:	9201      	str	r2, [sp, #4]
10002e26:	e5cf      	b.n	100029c8 <_vsnprintf+0x4e4>
10002e28:	f013 0f20 	tst.w	r3, #32
10002e2c:	bf14      	ite	ne
10002e2e:	2041      	movne	r0, #65	@ 0x41
10002e30:	2061      	moveq	r0, #97	@ 0x61
10002e32:	ac12      	add	r4, sp, #72	@ 0x48
10002e34:	46a6      	mov	lr, r4
10002e36:	940b      	str	r4, [sp, #44]	@ 0x2c
10002e38:	930a      	str	r3, [sp, #40]	@ 0x28
10002e3a:	f1a0 040a 	sub.w	r4, r0, #10
10002e3e:	950c      	str	r5, [sp, #48]	@ 0x30
10002e40:	e002      	b.n	10002e48 <_vsnprintf+0x964>
10002e42:	2a20      	cmp	r2, #32
10002e44:	d012      	beq.n	10002e6c <_vsnprintf+0x988>
10002e46:	4629      	mov	r1, r5
10002e48:	fbb1 f5fc 	udiv	r5, r1, ip
10002e4c:	fb0c 1015 	mls	r0, ip, r5, r1
10002e50:	b2c3      	uxtb	r3, r0
10002e52:	2809      	cmp	r0, #9
10002e54:	f103 0030 	add.w	r0, r3, #48	@ 0x30
10002e58:	bf8a      	itet	hi
10002e5a:	191b      	addhi	r3, r3, r4
10002e5c:	b2c3      	uxtbls	r3, r0
10002e5e:	b2db      	uxtbhi	r3, r3
10002e60:	4561      	cmp	r1, ip
10002e62:	f80e 3b01 	strb.w	r3, [lr], #1
10002e66:	f102 0201 	add.w	r2, r2, #1
10002e6a:	d2ea      	bcs.n	10002e42 <_vsnprintf+0x95e>
10002e6c:	9b0a      	ldr	r3, [sp, #40]	@ 0x28
10002e6e:	9d0c      	ldr	r5, [sp, #48]	@ 0x30
10002e70:	e7d4      	b.n	10002e1c <_vsnprintf+0x938>
10002e72:	6819      	ldr	r1, [r3, #0]
10002e74:	ea81 77e1 	eor.w	r7, r1, r1, asr #31
10002e78:	eba7 77e1 	sub.w	r7, r7, r1, asr #31
10002e7c:	e62d      	b.n	10002ada <_vsnprintf+0x5f6>
10002e7e:	2a00      	cmp	r2, #0
10002e80:	f43f af59 	beq.w	10002d36 <_vsnprintf+0x852>
10002e84:	aa12      	add	r2, sp, #72	@ 0x48
10002e86:	920b      	str	r2, [sp, #44]	@ 0x2c
10002e88:	e771      	b.n	10002d6e <_vsnprintf+0x88a>
10002e8a:	f413 6480 	ands.w	r4, r3, #1024	@ 0x400
10002e8e:	d00d      	beq.n	10002eac <_vsnprintf+0x9c8>
10002e90:	f013 0402 	ands.w	r4, r3, #2
10002e94:	d012      	beq.n	10002ebc <_vsnprintf+0x9d8>
10002e96:	4604      	mov	r4, r0
10002e98:	4646      	mov	r6, r8
10002e9a:	e5ec      	b.n	10002a76 <_vsnprintf+0x592>
10002e9c:	270a      	movs	r7, #10
10002e9e:	4663      	mov	r3, ip
10002ea0:	46bc      	mov	ip, r7
10002ea2:	e56c      	b.n	1000297e <_vsnprintf+0x49a>
10002ea4:	ab12      	add	r3, sp, #72	@ 0x48
10002ea6:	2000      	movs	r0, #0
10002ea8:	930b      	str	r3, [sp, #44]	@ 0x2c
10002eaa:	e69d      	b.n	10002be8 <_vsnprintf+0x704>
10002eac:	f013 0302 	ands.w	r3, r3, #2
10002eb0:	f47f ade0 	bne.w	10002a74 <_vsnprintf+0x590>
10002eb4:	2d00      	cmp	r5, #0
10002eb6:	f47f af13 	bne.w	10002ce0 <_vsnprintf+0x7fc>
10002eba:	e49a      	b.n	100027f2 <_vsnprintf+0x30e>
10002ebc:	2d00      	cmp	r5, #0
10002ebe:	f47f af0d 	bne.w	10002cdc <_vsnprintf+0x7f8>
10002ec2:	e496      	b.n	100027f2 <_vsnprintf+0x30e>
10002ec4:	cccccccd 	.word	0xcccccccd

10002ec8 <vfctprintf>:
10002ec8:	b570      	push	{r4, r5, r6, lr}
10002eca:	4694      	mov	ip, r2
10002ecc:	461e      	mov	r6, r3
10002ece:	4605      	mov	r5, r0
10002ed0:	460c      	mov	r4, r1
10002ed2:	b084      	sub	sp, #16
10002ed4:	f04f 32ff 	mov.w	r2, #4294967295
10002ed8:	4663      	mov	r3, ip
10002eda:	a902      	add	r1, sp, #8
10002edc:	9600      	str	r6, [sp, #0]
10002ede:	4803      	ldr	r0, [pc, #12]	@ (10002eec <vfctprintf+0x24>)
10002ee0:	e9cd 5402 	strd	r5, r4, [sp, #8]
10002ee4:	f7ff fafe 	bl	100024e4 <_vsnprintf>
10002ee8:	b004      	add	sp, #16
10002eea:	bd70      	pop	{r4, r5, r6, pc}
10002eec:	10001aa5 	.word	0x10001aa5

10002ef0 <weak_raw_vprintf>:
10002ef0:	b510      	push	{r4, lr}
10002ef2:	4b09      	ldr	r3, [pc, #36]	@ (10002f18 <weak_raw_vprintf+0x28>)
10002ef4:	b084      	sub	sp, #16
10002ef6:	681c      	ldr	r4, [r3, #0]
10002ef8:	b14c      	cbz	r4, 10002f0e <weak_raw_vprintf+0x1e>
10002efa:	4603      	mov	r3, r0
10002efc:	9100      	str	r1, [sp, #0]
10002efe:	f04f 32ff 	mov.w	r2, #4294967295
10002f02:	a903      	add	r1, sp, #12
10002f04:	4805      	ldr	r0, [pc, #20]	@ (10002f1c <weak_raw_vprintf+0x2c>)
10002f06:	47a0      	blx	r4
10002f08:	2001      	movs	r0, #1
10002f0a:	b004      	add	sp, #16
10002f0c:	bd10      	pop	{r4, pc}
10002f0e:	f000 f97d 	bl	1000320c <__wrap_puts>
10002f12:	4620      	mov	r0, r4
10002f14:	b004      	add	sp, #16
10002f16:	bd10      	pop	{r4, pc}
10002f18:	2000089c 	.word	0x2000089c
10002f1c:	10001a9d 	.word	0x10001a9d

10002f20 <_exit>:
10002f20:	be00      	bkpt	0x0000
10002f22:	e7fd      	b.n	10002f20 <_exit>

10002f24 <exit>:
10002f24:	b508      	push	{r3, lr}
10002f26:	f7ff fffb 	bl	10002f20 <_exit>
10002f2a:	bf00      	nop

10002f2c <runtime_init>:
10002f2c:	b538      	push	{r3, r4, r5, lr}
10002f2e:	4c06      	ldr	r4, [pc, #24]	@ (10002f48 <runtime_init+0x1c>)
10002f30:	4d06      	ldr	r5, [pc, #24]	@ (10002f4c <runtime_init+0x20>)
10002f32:	f7fe fa07 	bl	10001344 <runtime_run_initializers>
10002f36:	42ac      	cmp	r4, r5
10002f38:	d204      	bcs.n	10002f44 <runtime_init+0x18>
10002f3a:	f854 3b04 	ldr.w	r3, [r4], #4
10002f3e:	4798      	blx	r3
10002f40:	42ac      	cmp	r4, r5
10002f42:	d3fa      	bcc.n	10002f3a <runtime_init+0xe>
10002f44:	bd38      	pop	{r3, r4, r5, pc}
10002f46:	bf00      	nop
10002f48:	100037c0 	.word	0x100037c0
10002f4c:	100037c4 	.word	0x100037c4

10002f50 <stdio_out_chars_no_crlf>:
10002f50:	6803      	ldr	r3, [r0, #0]
10002f52:	4608      	mov	r0, r1
10002f54:	4611      	mov	r1, r2
10002f56:	4718      	bx	r3

10002f58 <stdio_out_chars_crlf>:
10002f58:	e92d 41f0 	stmdb	sp!, {r4, r5, r6, r7, r8, lr}
10002f5c:	4615      	mov	r5, r2
10002f5e:	7d42      	ldrb	r2, [r0, #21]
10002f60:	4607      	mov	r7, r0
10002f62:	4688      	mov	r8, r1
10002f64:	2a00      	cmp	r2, #0
10002f66:	d046      	beq.n	10002ff6 <stdio_out_chars_crlf+0x9e>
10002f68:	2d00      	cmp	r5, #0
10002f6a:	dd1d      	ble.n	10002fa8 <stdio_out_chars_crlf+0x50>
10002f6c:	780b      	ldrb	r3, [r1, #0]
10002f6e:	2b0a      	cmp	r3, #10
10002f70:	d023      	beq.n	10002fba <stdio_out_chars_crlf+0x62>
10002f72:	2d01      	cmp	r5, #1
10002f74:	f04f 0c00 	mov.w	ip, #0
10002f78:	d018      	beq.n	10002fac <stdio_out_chars_crlf+0x54>
10002f7a:	4646      	mov	r6, r8
10002f7c:	2401      	movs	r4, #1
10002f7e:	f816 2f01 	ldrb.w	r2, [r6, #1]!
10002f82:	4621      	mov	r1, r4
10002f84:	2a0a      	cmp	r2, #10
10002f86:	f104 0401 	add.w	r4, r4, #1
10002f8a:	d022      	beq.n	10002fd2 <stdio_out_chars_crlf+0x7a>
10002f8c:	42a5      	cmp	r5, r4
10002f8e:	d1f6      	bne.n	10002f7e <stdio_out_chars_crlf+0x26>
10002f90:	4565      	cmp	r5, ip
10002f92:	dc0b      	bgt.n	10002fac <stdio_out_chars_crlf+0x54>
10002f94:	eb08 0305 	add.w	r3, r8, r5
10002f98:	f813 3c01 	ldrb.w	r3, [r3, #-1]
10002f9c:	f1a3 030d 	sub.w	r3, r3, #13
10002fa0:	fab3 f383 	clz	r3, r3
10002fa4:	095b      	lsrs	r3, r3, #5
10002fa6:	753b      	strb	r3, [r7, #20]
10002fa8:	e8bd 81f0 	ldmia.w	sp!, {r4, r5, r6, r7, r8, pc}
10002fac:	683b      	ldr	r3, [r7, #0]
10002fae:	eba5 010c 	sub.w	r1, r5, ip
10002fb2:	eb08 000c 	add.w	r0, r8, ip
10002fb6:	4798      	blx	r3
10002fb8:	e7ec      	b.n	10002f94 <stdio_out_chars_crlf+0x3c>
10002fba:	7d03      	ldrb	r3, [r0, #20]
10002fbc:	2b00      	cmp	r3, #0
10002fbe:	d1d8      	bne.n	10002f72 <stdio_out_chars_crlf+0x1a>
10002fc0:	6803      	ldr	r3, [r0, #0]
10002fc2:	2102      	movs	r1, #2
10002fc4:	480f      	ldr	r0, [pc, #60]	@ (10003004 <stdio_out_chars_crlf+0xac>)
10002fc6:	4798      	blx	r3
10002fc8:	2d01      	cmp	r5, #1
10002fca:	d0e3      	beq.n	10002f94 <stdio_out_chars_crlf+0x3c>
10002fcc:	f04f 0c01 	mov.w	ip, #1
10002fd0:	e7d3      	b.n	10002f7a <stdio_out_chars_crlf+0x22>
10002fd2:	f816 3c01 	ldrb.w	r3, [r6, #-1]
10002fd6:	2b0d      	cmp	r3, #13
10002fd8:	d0d8      	beq.n	10002f8c <stdio_out_chars_crlf+0x34>
10002fda:	458c      	cmp	ip, r1
10002fdc:	eb08 000c 	add.w	r0, r8, ip
10002fe0:	eba1 010c 	sub.w	r1, r1, ip
10002fe4:	da01      	bge.n	10002fea <stdio_out_chars_crlf+0x92>
10002fe6:	683b      	ldr	r3, [r7, #0]
10002fe8:	4798      	blx	r3
10002fea:	2102      	movs	r1, #2
10002fec:	4805      	ldr	r0, [pc, #20]	@ (10003004 <stdio_out_chars_crlf+0xac>)
10002fee:	683b      	ldr	r3, [r7, #0]
10002ff0:	4798      	blx	r3
10002ff2:	46a4      	mov	ip, r4
10002ff4:	e7ca      	b.n	10002f8c <stdio_out_chars_crlf+0x34>
10002ff6:	4629      	mov	r1, r5
10002ff8:	4640      	mov	r0, r8
10002ffa:	683b      	ldr	r3, [r7, #0]
10002ffc:	e8bd 41f0 	ldmia.w	sp!, {r4, r5, r6, r7, r8, lr}
10003000:	4718      	bx	r3
10003002:	bf00      	nop
10003004:	10003970 	.word	0x10003970

10003008 <stdio_buffered_printer>:
10003008:	680b      	ldr	r3, [r1, #0]
1000300a:	e92d 41f0 	stmdb	sp!, {r4, r5, r6, r7, r8, lr}
1000300e:	2b80      	cmp	r3, #128	@ 0x80
10003010:	460d      	mov	r5, r1
10003012:	4606      	mov	r6, r0
10003014:	d005      	beq.n	10003022 <stdio_buffered_printer+0x1a>
10003016:	1c5a      	adds	r2, r3, #1
10003018:	442b      	add	r3, r5
1000301a:	602a      	str	r2, [r5, #0]
1000301c:	711e      	strb	r6, [r3, #4]
1000301e:	e8bd 81f0 	ldmia.w	sp!, {r4, r5, r6, r7, r8, pc}
10003022:	4b0f      	ldr	r3, [pc, #60]	@ (10003060 <stdio_buffered_printer+0x58>)
10003024:	681c      	ldr	r4, [r3, #0]
10003026:	b1a4      	cbz	r4, 10003052 <stdio_buffered_printer+0x4a>
10003028:	4f0e      	ldr	r7, [pc, #56]	@ (10003064 <stdio_buffered_printer+0x5c>)
1000302a:	f101 0804 	add.w	r8, r1, #4
1000302e:	e001      	b.n	10003034 <stdio_buffered_printer+0x2c>
10003030:	6924      	ldr	r4, [r4, #16]
10003032:	b174      	cbz	r4, 10003052 <stdio_buffered_printer+0x4a>
10003034:	6823      	ldr	r3, [r4, #0]
10003036:	2b00      	cmp	r3, #0
10003038:	d0fa      	beq.n	10003030 <stdio_buffered_printer+0x28>
1000303a:	683b      	ldr	r3, [r7, #0]
1000303c:	b10b      	cbz	r3, 10003042 <stdio_buffered_printer+0x3a>
1000303e:	42a3      	cmp	r3, r4
10003040:	d1f6      	bne.n	10003030 <stdio_buffered_printer+0x28>
10003042:	4620      	mov	r0, r4
10003044:	4641      	mov	r1, r8
10003046:	682a      	ldr	r2, [r5, #0]
10003048:	f7ff ff86 	bl	10002f58 <stdio_out_chars_crlf>
1000304c:	6924      	ldr	r4, [r4, #16]
1000304e:	2c00      	cmp	r4, #0
10003050:	d1f0      	bne.n	10003034 <stdio_buffered_printer+0x2c>
10003052:	2300      	movs	r3, #0
10003054:	2201      	movs	r2, #1
10003056:	442b      	add	r3, r5
10003058:	602a      	str	r2, [r5, #0]
1000305a:	711e      	strb	r6, [r3, #4]
1000305c:	e8bd 81f0 	ldmia.w	sp!, {r4, r5, r6, r7, r8, pc}
10003060:	20000894 	.word	0x20000894
10003064:	20000898 	.word	0x20000898

10003068 <stdio_put_string>:
10003068:	e92d 47f0 	stmdb	sp!, {r4, r5, r6, r7, r8, r9, sl, lr}
1000306c:	b082      	sub	sp, #8
1000306e:	460d      	mov	r5, r1
10003070:	4691      	mov	r9, r2
10003072:	461c      	mov	r4, r3
10003074:	4606      	mov	r6, r0
10003076:	f7fd ff95 	bl	10000fa4 <time_us_64>
1000307a:	f04f 3cff 	mov.w	ip, #4294967295
1000307e:	f06f 4700 	mvn.w	r7, #2147483648	@ 0x80000000
10003082:	4a2e      	ldr	r2, [pc, #184]	@ (1000313c <stdio_put_string+0xd4>)
10003084:	1882      	adds	r2, r0, r2
10003086:	f141 0300 	adc.w	r3, r1, #0
1000308a:	4594      	cmp	ip, r2
1000308c:	eb77 0103 	sbcs.w	r1, r7, r3
10003090:	bf3c      	itt	cc
10003092:	4662      	movcc	r2, ip
10003094:	463b      	movcc	r3, r7
10003096:	482a      	ldr	r0, [pc, #168]	@ (10003140 <stdio_put_string+0xd8>)
10003098:	f000 fb6e 	bl	10003778 <__mutex_try_enter_block_until_veneer>
1000309c:	1c6b      	adds	r3, r5, #1
1000309e:	4680      	mov	r8, r0
100030a0:	d040      	beq.n	10003124 <stdio_put_string+0xbc>
100030a2:	b30c      	cbz	r4, 100030e8 <stdio_put_string+0x80>
100030a4:	4f27      	ldr	r7, [pc, #156]	@ (10003144 <stdio_put_string+0xdc>)
100030a6:	4b28      	ldr	r3, [pc, #160]	@ (10003148 <stdio_put_string+0xe0>)
100030a8:	681c      	ldr	r4, [r3, #0]
100030aa:	b1b4      	cbz	r4, 100030da <stdio_put_string+0x72>
100030ac:	f1b9 0f00 	cmp.w	r9, #0
100030b0:	d11c      	bne.n	100030ec <stdio_put_string+0x84>
100030b2:	f8df 909c 	ldr.w	r9, [pc, #156]	@ 10003150 <stdio_put_string+0xe8>
100030b6:	e001      	b.n	100030bc <stdio_put_string+0x54>
100030b8:	6924      	ldr	r4, [r4, #16]
100030ba:	b174      	cbz	r4, 100030da <stdio_put_string+0x72>
100030bc:	6823      	ldr	r3, [r4, #0]
100030be:	2b00      	cmp	r3, #0
100030c0:	d0fa      	beq.n	100030b8 <stdio_put_string+0x50>
100030c2:	f8d9 3000 	ldr.w	r3, [r9]
100030c6:	b10b      	cbz	r3, 100030cc <stdio_put_string+0x64>
100030c8:	429c      	cmp	r4, r3
100030ca:	d1f5      	bne.n	100030b8 <stdio_put_string+0x50>
100030cc:	4620      	mov	r0, r4
100030ce:	462a      	mov	r2, r5
100030d0:	4631      	mov	r1, r6
100030d2:	47b8      	blx	r7
100030d4:	6924      	ldr	r4, [r4, #16]
100030d6:	2c00      	cmp	r4, #0
100030d8:	d1f0      	bne.n	100030bc <stdio_put_string+0x54>
100030da:	f1b8 0f00 	cmp.w	r8, #0
100030de:	d126      	bne.n	1000312e <stdio_put_string+0xc6>
100030e0:	4628      	mov	r0, r5
100030e2:	b002      	add	sp, #8
100030e4:	e8bd 87f0 	ldmia.w	sp!, {r4, r5, r6, r7, r8, r9, sl, pc}
100030e8:	4f18      	ldr	r7, [pc, #96]	@ (1000314c <stdio_put_string+0xe4>)
100030ea:	e7dc      	b.n	100030a6 <stdio_put_string+0x3e>
100030ec:	f04f 0a0a 	mov.w	sl, #10
100030f0:	f8df 905c 	ldr.w	r9, [pc, #92]	@ 10003150 <stdio_put_string+0xe8>
100030f4:	e002      	b.n	100030fc <stdio_put_string+0x94>
100030f6:	6924      	ldr	r4, [r4, #16]
100030f8:	2c00      	cmp	r4, #0
100030fa:	d0ee      	beq.n	100030da <stdio_put_string+0x72>
100030fc:	6823      	ldr	r3, [r4, #0]
100030fe:	2b00      	cmp	r3, #0
10003100:	d0f9      	beq.n	100030f6 <stdio_put_string+0x8e>
10003102:	f8d9 3000 	ldr.w	r3, [r9]
10003106:	b10b      	cbz	r3, 1000310c <stdio_put_string+0xa4>
10003108:	42a3      	cmp	r3, r4
1000310a:	d1f4      	bne.n	100030f6 <stdio_put_string+0x8e>
1000310c:	462a      	mov	r2, r5
1000310e:	4631      	mov	r1, r6
10003110:	4620      	mov	r0, r4
10003112:	47b8      	blx	r7
10003114:	2201      	movs	r2, #1
10003116:	4620      	mov	r0, r4
10003118:	f10d 0107 	add.w	r1, sp, #7
1000311c:	f88d a007 	strb.w	sl, [sp, #7]
10003120:	47b8      	blx	r7
10003122:	e7e8      	b.n	100030f6 <stdio_put_string+0x8e>
10003124:	4630      	mov	r0, r6
10003126:	f000 fae9 	bl	100036fc <strlen>
1000312a:	4605      	mov	r5, r0
1000312c:	e7b9      	b.n	100030a2 <stdio_put_string+0x3a>
1000312e:	4804      	ldr	r0, [pc, #16]	@ (10003140 <stdio_put_string+0xd8>)
10003130:	f000 fb1a 	bl	10003768 <__mutex_exit_veneer>
10003134:	4628      	mov	r0, r5
10003136:	b002      	add	sp, #8
10003138:	e8bd 87f0 	ldmia.w	sp!, {r4, r5, r6, r7, r8, r9, sl, pc}
1000313c:	000f4240 	.word	0x000f4240
10003140:	200006b4 	.word	0x200006b4
10003144:	10002f59 	.word	0x10002f59
10003148:	20000894 	.word	0x20000894
1000314c:	10002f51 	.word	0x10002f51
10003150:	20000898 	.word	0x20000898

10003154 <stdio_set_driver_enabled>:
10003154:	4a08      	ldr	r2, [pc, #32]	@ (10003178 <stdio_set_driver_enabled+0x24>)
10003156:	6813      	ldr	r3, [r2, #0]
10003158:	b923      	cbnz	r3, 10003164 <stdio_set_driver_enabled+0x10>
1000315a:	e00a      	b.n	10003172 <stdio_set_driver_enabled+0x1e>
1000315c:	f103 0210 	add.w	r2, r3, #16
10003160:	691b      	ldr	r3, [r3, #16]
10003162:	b133      	cbz	r3, 10003172 <stdio_set_driver_enabled+0x1e>
10003164:	4283      	cmp	r3, r0
10003166:	d1f9      	bne.n	1000315c <stdio_set_driver_enabled+0x8>
10003168:	b929      	cbnz	r1, 10003176 <stdio_set_driver_enabled+0x22>
1000316a:	6918      	ldr	r0, [r3, #16]
1000316c:	6010      	str	r0, [r2, #0]
1000316e:	6119      	str	r1, [r3, #16]
10003170:	4770      	bx	lr
10003172:	b101      	cbz	r1, 10003176 <stdio_set_driver_enabled+0x22>
10003174:	6010      	str	r0, [r2, #0]
10003176:	4770      	bx	lr
10003178:	20000894 	.word	0x20000894

1000317c <stdio_init_all>:
1000317c:	b508      	push	{r3, lr}
1000317e:	f000 f9a3 	bl	100034c8 <stdio_uart_init>
10003182:	2001      	movs	r0, #1
10003184:	bd08      	pop	{r3, pc}
10003186:	bf00      	nop

10003188 <__wrap_putchar>:
10003188:	b5f0      	push	{r4, r5, r6, r7, lr}
1000318a:	b083      	sub	sp, #12
1000318c:	4606      	mov	r6, r0
1000318e:	f88d 0007 	strb.w	r0, [sp, #7]
10003192:	f7fd ff07 	bl	10000fa4 <time_us_64>
10003196:	f04f 35ff 	mov.w	r5, #4294967295
1000319a:	f06f 4400 	mvn.w	r4, #2147483648	@ 0x80000000
1000319e:	4a17      	ldr	r2, [pc, #92]	@ (100031fc <__wrap_putchar+0x74>)
100031a0:	1882      	adds	r2, r0, r2
100031a2:	f141 0300 	adc.w	r3, r1, #0
100031a6:	4295      	cmp	r5, r2
100031a8:	eb74 0103 	sbcs.w	r1, r4, r3
100031ac:	bf3c      	itt	cc
100031ae:	4623      	movcc	r3, r4
100031b0:	462a      	movcc	r2, r5
100031b2:	4813      	ldr	r0, [pc, #76]	@ (10003200 <__wrap_putchar+0x78>)
100031b4:	f000 fae0 	bl	10003778 <__mutex_try_enter_block_until_veneer>
100031b8:	4b12      	ldr	r3, [pc, #72]	@ (10003204 <__wrap_putchar+0x7c>)
100031ba:	4607      	mov	r7, r0
100031bc:	681c      	ldr	r4, [r3, #0]
100031be:	b19c      	cbz	r4, 100031e8 <__wrap_putchar+0x60>
100031c0:	4d11      	ldr	r5, [pc, #68]	@ (10003208 <__wrap_putchar+0x80>)
100031c2:	e001      	b.n	100031c8 <__wrap_putchar+0x40>
100031c4:	6924      	ldr	r4, [r4, #16]
100031c6:	b17c      	cbz	r4, 100031e8 <__wrap_putchar+0x60>
100031c8:	6823      	ldr	r3, [r4, #0]
100031ca:	2b00      	cmp	r3, #0
100031cc:	d0fa      	beq.n	100031c4 <__wrap_putchar+0x3c>
100031ce:	682b      	ldr	r3, [r5, #0]
100031d0:	b10b      	cbz	r3, 100031d6 <__wrap_putchar+0x4e>
100031d2:	429c      	cmp	r4, r3
100031d4:	d1f6      	bne.n	100031c4 <__wrap_putchar+0x3c>
100031d6:	4620      	mov	r0, r4
100031d8:	2201      	movs	r2, #1
100031da:	f10d 0107 	add.w	r1, sp, #7
100031de:	f7ff febb 	bl	10002f58 <stdio_out_chars_crlf>
100031e2:	6924      	ldr	r4, [r4, #16]
100031e4:	2c00      	cmp	r4, #0
100031e6:	d1ef      	bne.n	100031c8 <__wrap_putchar+0x40>
100031e8:	b917      	cbnz	r7, 100031f0 <__wrap_putchar+0x68>
100031ea:	4630      	mov	r0, r6
100031ec:	b003      	add	sp, #12
100031ee:	bdf0      	pop	{r4, r5, r6, r7, pc}
100031f0:	4803      	ldr	r0, [pc, #12]	@ (10003200 <__wrap_putchar+0x78>)
100031f2:	f000 fab9 	bl	10003768 <__mutex_exit_veneer>
100031f6:	4630      	mov	r0, r6
100031f8:	b003      	add	sp, #12
100031fa:	bdf0      	pop	{r4, r5, r6, r7, pc}
100031fc:	000f4240 	.word	0x000f4240
10003200:	200006b4 	.word	0x200006b4
10003204:	20000894 	.word	0x20000894
10003208:	20000898 	.word	0x20000898

1000320c <__wrap_puts>:
1000320c:	b538      	push	{r3, r4, r5, lr}
1000320e:	4604      	mov	r4, r0
10003210:	f000 fa74 	bl	100036fc <strlen>
10003214:	2301      	movs	r3, #1
10003216:	4605      	mov	r5, r0
10003218:	461a      	mov	r2, r3
1000321a:	4620      	mov	r0, r4
1000321c:	4629      	mov	r1, r5
1000321e:	f7ff ff23 	bl	10003068 <stdio_put_string>
10003222:	4b08      	ldr	r3, [pc, #32]	@ (10003244 <__wrap_puts+0x38>)
10003224:	681c      	ldr	r4, [r3, #0]
10003226:	b12c      	cbz	r4, 10003234 <__wrap_puts+0x28>
10003228:	6863      	ldr	r3, [r4, #4]
1000322a:	b12b      	cbz	r3, 10003238 <__wrap_puts+0x2c>
1000322c:	4798      	blx	r3
1000322e:	6924      	ldr	r4, [r4, #16]
10003230:	2c00      	cmp	r4, #0
10003232:	d1f9      	bne.n	10003228 <__wrap_puts+0x1c>
10003234:	4628      	mov	r0, r5
10003236:	bd38      	pop	{r3, r4, r5, pc}
10003238:	6924      	ldr	r4, [r4, #16]
1000323a:	2c00      	cmp	r4, #0
1000323c:	d1f4      	bne.n	10003228 <__wrap_puts+0x1c>
1000323e:	4628      	mov	r0, r5
10003240:	bd38      	pop	{r3, r4, r5, pc}
10003242:	bf00      	nop
10003244:	20000894 	.word	0x20000894

10003248 <__wrap_vprintf>:
10003248:	e92d 41f0 	stmdb	sp!, {r4, r5, r6, r7, r8, lr}
1000324c:	b0a2      	sub	sp, #136	@ 0x88
1000324e:	4604      	mov	r4, r0
10003250:	460d      	mov	r5, r1
10003252:	f7fd fea7 	bl	10000fa4 <time_us_64>
10003256:	f04f 37ff 	mov.w	r7, #4294967295
1000325a:	f06f 4600 	mvn.w	r6, #2147483648	@ 0x80000000
1000325e:	4a26      	ldr	r2, [pc, #152]	@ (100032f8 <__wrap_vprintf+0xb0>)
10003260:	f8df 80a4 	ldr.w	r8, [pc, #164]	@ 10003308 <__wrap_vprintf+0xc0>
10003264:	1882      	adds	r2, r0, r2
10003266:	f141 0300 	adc.w	r3, r1, #0
1000326a:	4297      	cmp	r7, r2
1000326c:	eb76 0103 	sbcs.w	r1, r6, r3
10003270:	bf3c      	itt	cc
10003272:	463a      	movcc	r2, r7
10003274:	4633      	movcc	r3, r6
10003276:	4821      	ldr	r0, [pc, #132]	@ (100032fc <__wrap_vprintf+0xb4>)
10003278:	f000 fa7e 	bl	10003778 <__mutex_try_enter_block_until_veneer>
1000327c:	2700      	movs	r7, #0
1000327e:	462b      	mov	r3, r5
10003280:	4622      	mov	r2, r4
10003282:	4606      	mov	r6, r0
10003284:	a901      	add	r1, sp, #4
10003286:	481e      	ldr	r0, [pc, #120]	@ (10003300 <__wrap_vprintf+0xb8>)
10003288:	9701      	str	r7, [sp, #4]
1000328a:	f7ff fe1d 	bl	10002ec8 <vfctprintf>
1000328e:	9b01      	ldr	r3, [sp, #4]
10003290:	4605      	mov	r5, r0
10003292:	f8d8 4000 	ldr.w	r4, [r8]
10003296:	b1c3      	cbz	r3, 100032ca <__wrap_vprintf+0x82>
10003298:	2c00      	cmp	r4, #0
1000329a:	d02b      	beq.n	100032f4 <__wrap_vprintf+0xac>
1000329c:	4f19      	ldr	r7, [pc, #100]	@ (10003304 <__wrap_vprintf+0xbc>)
1000329e:	e001      	b.n	100032a4 <__wrap_vprintf+0x5c>
100032a0:	6924      	ldr	r4, [r4, #16]
100032a2:	b174      	cbz	r4, 100032c2 <__wrap_vprintf+0x7a>
100032a4:	6823      	ldr	r3, [r4, #0]
100032a6:	2b00      	cmp	r3, #0
100032a8:	d0fa      	beq.n	100032a0 <__wrap_vprintf+0x58>
100032aa:	683b      	ldr	r3, [r7, #0]
100032ac:	b10b      	cbz	r3, 100032b2 <__wrap_vprintf+0x6a>
100032ae:	42a3      	cmp	r3, r4
100032b0:	d1f6      	bne.n	100032a0 <__wrap_vprintf+0x58>
100032b2:	4620      	mov	r0, r4
100032b4:	9a01      	ldr	r2, [sp, #4]
100032b6:	a902      	add	r1, sp, #8
100032b8:	f7ff fe4e 	bl	10002f58 <stdio_out_chars_crlf>
100032bc:	6924      	ldr	r4, [r4, #16]
100032be:	2c00      	cmp	r4, #0
100032c0:	d1f0      	bne.n	100032a4 <__wrap_vprintf+0x5c>
100032c2:	2300      	movs	r3, #0
100032c4:	f8d8 4000 	ldr.w	r4, [r8]
100032c8:	9301      	str	r3, [sp, #4]
100032ca:	b12c      	cbz	r4, 100032d8 <__wrap_vprintf+0x90>
100032cc:	6863      	ldr	r3, [r4, #4]
100032ce:	b143      	cbz	r3, 100032e2 <__wrap_vprintf+0x9a>
100032d0:	4798      	blx	r3
100032d2:	6924      	ldr	r4, [r4, #16]
100032d4:	2c00      	cmp	r4, #0
100032d6:	d1f9      	bne.n	100032cc <__wrap_vprintf+0x84>
100032d8:	b92e      	cbnz	r6, 100032e6 <__wrap_vprintf+0x9e>
100032da:	4628      	mov	r0, r5
100032dc:	b022      	add	sp, #136	@ 0x88
100032de:	e8bd 81f0 	ldmia.w	sp!, {r4, r5, r6, r7, r8, pc}
100032e2:	6924      	ldr	r4, [r4, #16]
100032e4:	e7f1      	b.n	100032ca <__wrap_vprintf+0x82>
100032e6:	4805      	ldr	r0, [pc, #20]	@ (100032fc <__wrap_vprintf+0xb4>)
100032e8:	f000 fa3e 	bl	10003768 <__mutex_exit_veneer>
100032ec:	4628      	mov	r0, r5
100032ee:	b022      	add	sp, #136	@ 0x88
100032f0:	e8bd 81f0 	ldmia.w	sp!, {r4, r5, r6, r7, r8, pc}
100032f4:	9401      	str	r4, [sp, #4]
100032f6:	e7ef      	b.n	100032d8 <__wrap_vprintf+0x90>
100032f8:	000f4240 	.word	0x000f4240
100032fc:	200006b4 	.word	0x200006b4
10003300:	10003009 	.word	0x10003009
10003304:	20000898 	.word	0x20000898
10003308:	20000894 	.word	0x20000894

1000330c <__wrap_printf>:
1000330c:	b40f      	push	{r0, r1, r2, r3}
1000330e:	b500      	push	{lr}
10003310:	b083      	sub	sp, #12
10003312:	a904      	add	r1, sp, #16
10003314:	f851 0b04 	ldr.w	r0, [r1], #4
10003318:	9101      	str	r1, [sp, #4]
1000331a:	f7ff ff95 	bl	10003248 <__wrap_vprintf>
1000331e:	b003      	add	sp, #12
10003320:	f85d eb04 	ldr.w	lr, [sp], #4
10003324:	b004      	add	sp, #16
10003326:	4770      	bx	lr

10003328 <stdio_uart_out_chars>:
10003328:	f1b1 0c00 	subs.w	ip, r1, #0
1000332c:	dd1d      	ble.n	1000336a <stdio_uart_out_chars+0x42>
1000332e:	4a0f      	ldr	r2, [pc, #60]	@ (1000336c <stdio_uart_out_chars+0x44>)
10003330:	4b0f      	ldr	r3, [pc, #60]	@ (10003370 <stdio_uart_out_chars+0x48>)
10003332:	6812      	ldr	r2, [r2, #0]
10003334:	b530      	push	{r4, r5, lr}
10003336:	1ad3      	subs	r3, r2, r3
10003338:	fab3 f383 	clz	r3, r3
1000333c:	240d      	movs	r4, #13
1000333e:	4d0d      	ldr	r5, [pc, #52]	@ (10003374 <stdio_uart_out_chars+0x4c>)
10003340:	095b      	lsrs	r3, r3, #5
10003342:	1e41      	subs	r1, r0, #1
10003344:	f935 e013 	ldrsh.w	lr, [r5, r3, lsl #1]
10003348:	448c      	add	ip, r1
1000334a:	f811 0f01 	ldrb.w	r0, [r1, #1]!
1000334e:	4586      	cmp	lr, r0
10003350:	d006      	beq.n	10003360 <stdio_uart_out_chars+0x38>
10003352:	6993      	ldr	r3, [r2, #24]
10003354:	069b      	lsls	r3, r3, #26
10003356:	d4fc      	bmi.n	10003352 <stdio_uart_out_chars+0x2a>
10003358:	4561      	cmp	r1, ip
1000335a:	6010      	str	r0, [r2, #0]
1000335c:	d1f5      	bne.n	1000334a <stdio_uart_out_chars+0x22>
1000335e:	bd30      	pop	{r4, r5, pc}
10003360:	6993      	ldr	r3, [r2, #24]
10003362:	069d      	lsls	r5, r3, #26
10003364:	d4fc      	bmi.n	10003360 <stdio_uart_out_chars+0x38>
10003366:	6014      	str	r4, [r2, #0]
10003368:	e7f3      	b.n	10003352 <stdio_uart_out_chars+0x2a>
1000336a:	4770      	bx	lr
1000336c:	200008e0 	.word	0x200008e0
10003370:	40078000 	.word	0x40078000
10003374:	200008dc 	.word	0x200008dc

10003378 <stdio_uart_in_chars>:
10003378:	4b22      	ldr	r3, [pc, #136]	@ (10003404 <stdio_uart_in_chars+0x8c>)
1000337a:	f1b1 0c00 	subs.w	ip, r1, #0
1000337e:	b410      	push	{r4}
10003380:	681c      	ldr	r4, [r3, #0]
10003382:	dd2e      	ble.n	100033e2 <stdio_uart_in_chars+0x6a>
10003384:	4603      	mov	r3, r0
10003386:	2000      	movs	r0, #0
10003388:	4a1f      	ldr	r2, [pc, #124]	@ (10003408 <stdio_uart_in_chars+0x90>)
1000338a:	1e59      	subs	r1, r3, #1
1000338c:	6812      	ldr	r2, [r2, #0]
1000338e:	6993      	ldr	r3, [r2, #24]
10003390:	06db      	lsls	r3, r3, #27
10003392:	d417      	bmi.n	100033c4 <stdio_uart_in_chars+0x4c>
10003394:	3001      	adds	r0, #1
10003396:	6993      	ldr	r3, [r2, #24]
10003398:	06db      	lsls	r3, r3, #27
1000339a:	d4fc      	bmi.n	10003396 <stdio_uart_in_chars+0x1e>
1000339c:	6813      	ldr	r3, [r2, #0]
1000339e:	4584      	cmp	ip, r0
100033a0:	f801 3f01 	strb.w	r3, [r1, #1]!
100033a4:	d1f3      	bne.n	1000338e <stdio_uart_in_chars+0x16>
100033a6:	b14c      	cbz	r4, 100033bc <stdio_uart_in_chars+0x44>
100033a8:	2150      	movs	r1, #80	@ 0x50
100033aa:	4613      	mov	r3, r2
100033ac:	6391      	str	r1, [r2, #56]	@ 0x38
100033ae:	f853 2f34 	ldr.w	r2, [r3, #52]!
100033b2:	f002 0238 	and.w	r2, r2, #56	@ 0x38
100033b6:	f503 5380 	add.w	r3, r3, #4096	@ 0x1000
100033ba:	601a      	str	r2, [r3, #0]
100033bc:	4660      	mov	r0, ip
100033be:	f85d 4b04 	ldr.w	r4, [sp], #4
100033c2:	4770      	bx	lr
100033c4:	b14c      	cbz	r4, 100033da <stdio_uart_in_chars+0x62>
100033c6:	2150      	movs	r1, #80	@ 0x50
100033c8:	4613      	mov	r3, r2
100033ca:	6391      	str	r1, [r2, #56]	@ 0x38
100033cc:	f853 2f34 	ldr.w	r2, [r3, #52]!
100033d0:	f002 0238 	and.w	r2, r2, #56	@ 0x38
100033d4:	f503 5380 	add.w	r3, r3, #4096	@ 0x1000
100033d8:	601a      	str	r2, [r3, #0]
100033da:	b178      	cbz	r0, 100033fc <stdio_uart_in_chars+0x84>
100033dc:	f85d 4b04 	ldr.w	r4, [sp], #4
100033e0:	4770      	bx	lr
100033e2:	b15c      	cbz	r4, 100033fc <stdio_uart_in_chars+0x84>
100033e4:	4b08      	ldr	r3, [pc, #32]	@ (10003408 <stdio_uart_in_chars+0x90>)
100033e6:	2150      	movs	r1, #80	@ 0x50
100033e8:	681a      	ldr	r2, [r3, #0]
100033ea:	4613      	mov	r3, r2
100033ec:	6391      	str	r1, [r2, #56]	@ 0x38
100033ee:	f853 2f34 	ldr.w	r2, [r3, #52]!
100033f2:	f002 0238 	and.w	r2, r2, #56	@ 0x38
100033f6:	f503 5380 	add.w	r3, r3, #4096	@ 0x1000
100033fa:	601a      	str	r2, [r3, #0]
100033fc:	f06f 0002 	mvn.w	r0, #2
10003400:	e7dd      	b.n	100033be <stdio_uart_in_chars+0x46>
10003402:	bf00      	nop
10003404:	20000860 	.word	0x20000860
10003408:	200008e0 	.word	0x200008e0

1000340c <on_uart_rx>:
1000340c:	4b05      	ldr	r3, [pc, #20]	@ (10003424 <on_uart_rx+0x18>)
1000340e:	681b      	ldr	r3, [r3, #0]
10003410:	b133      	cbz	r3, 10003420 <on_uart_rx+0x14>
10003412:	2100      	movs	r1, #0
10003414:	4a04      	ldr	r2, [pc, #16]	@ (10003428 <on_uart_rx+0x1c>)
10003416:	4805      	ldr	r0, [pc, #20]	@ (1000342c <on_uart_rx+0x20>)
10003418:	6812      	ldr	r2, [r2, #0]
1000341a:	6800      	ldr	r0, [r0, #0]
1000341c:	6391      	str	r1, [r2, #56]	@ 0x38
1000341e:	4718      	bx	r3
10003420:	4770      	bx	lr
10003422:	bf00      	nop
10003424:	20000860 	.word	0x20000860
10003428:	200008e0 	.word	0x200008e0
1000342c:	20000864 	.word	0x20000864

10003430 <stdio_uart_out_flush>:
10003430:	4b02      	ldr	r3, [pc, #8]	@ (1000343c <stdio_uart_out_flush+0xc>)
10003432:	681a      	ldr	r2, [r3, #0]
10003434:	6993      	ldr	r3, [r2, #24]
10003436:	071b      	lsls	r3, r3, #28
10003438:	d4fc      	bmi.n	10003434 <stdio_uart_out_flush+0x4>
1000343a:	4770      	bx	lr
1000343c:	200008e0 	.word	0x200008e0

10003440 <stdio_uart_set_chars_available_callback>:
10003440:	b5f8      	push	{r3, r4, r5, r6, r7, lr}
10003442:	4f1c      	ldr	r7, [pc, #112]	@ (100034b4 <stdio_uart_set_chars_available_callback+0x74>)
10003444:	4d1c      	ldr	r5, [pc, #112]	@ (100034b8 <stdio_uart_set_chars_available_callback+0x78>)
10003446:	683a      	ldr	r2, [r7, #0]
10003448:	4e1c      	ldr	r6, [pc, #112]	@ (100034bc <stdio_uart_set_chars_available_callback+0x7c>)
1000344a:	42aa      	cmp	r2, r5
1000344c:	bf14      	ite	ne
1000344e:	2521      	movne	r5, #33	@ 0x21
10003450:	2522      	moveq	r5, #34	@ 0x22
10003452:	4604      	mov	r4, r0
10003454:	f8d6 c000 	ldr.w	ip, [r6]
10003458:	b118      	cbz	r0, 10003462 <stdio_uart_set_chars_available_callback+0x22>
1000345a:	f1bc 0f00 	cmp.w	ip, #0
1000345e:	d010      	beq.n	10003482 <stdio_uart_set_chars_available_callback+0x42>
10003460:	bdf8      	pop	{r3, r4, r5, r6, r7, pc}
10003462:	f1bc 0f00 	cmp.w	ip, #0
10003466:	d0fb      	beq.n	10003460 <stdio_uart_set_chars_available_callback+0x20>
10003468:	4601      	mov	r1, r0
1000346a:	6390      	str	r0, [r2, #56]	@ 0x38
1000346c:	4628      	mov	r0, r5
1000346e:	f7fd f823 	bl	100004b8 <irq_set_enabled>
10003472:	4628      	mov	r0, r5
10003474:	4912      	ldr	r1, [pc, #72]	@ (100034c0 <stdio_uart_set_chars_available_callback+0x80>)
10003476:	f7fd f865 	bl	10000544 <irq_remove_handler>
1000347a:	4b12      	ldr	r3, [pc, #72]	@ (100034c4 <stdio_uart_set_chars_available_callback+0x84>)
1000347c:	6034      	str	r4, [r6, #0]
1000347e:	601c      	str	r4, [r3, #0]
10003480:	bdf8      	pop	{r3, r4, r5, r6, r7, pc}
10003482:	460b      	mov	r3, r1
10003484:	4a0f      	ldr	r2, [pc, #60]	@ (100034c4 <stdio_uart_set_chars_available_callback+0x84>)
10003486:	490e      	ldr	r1, [pc, #56]	@ (100034c0 <stdio_uart_set_chars_available_callback+0x80>)
10003488:	6030      	str	r0, [r6, #0]
1000348a:	4628      	mov	r0, r5
1000348c:	6013      	str	r3, [r2, #0]
1000348e:	f7fd f829 	bl	100004e4 <irq_set_exclusive_handler>
10003492:	2101      	movs	r1, #1
10003494:	4628      	mov	r0, r5
10003496:	f7fd f80f 	bl	100004b8 <irq_set_enabled>
1000349a:	683a      	ldr	r2, [r7, #0]
1000349c:	2150      	movs	r1, #80	@ 0x50
1000349e:	4613      	mov	r3, r2
100034a0:	6391      	str	r1, [r2, #56]	@ 0x38
100034a2:	f853 2f34 	ldr.w	r2, [r3, #52]!
100034a6:	f002 0238 	and.w	r2, r2, #56	@ 0x38
100034aa:	f503 5380 	add.w	r3, r3, #4096	@ 0x1000
100034ae:	601a      	str	r2, [r3, #0]
100034b0:	bdf8      	pop	{r3, r4, r5, r6, r7, pc}
100034b2:	bf00      	nop
100034b4:	200008e0 	.word	0x200008e0
100034b8:	40078000 	.word	0x40078000
100034bc:	20000860 	.word	0x20000860
100034c0:	1000340d 	.word	0x1000340d
100034c4:	20000864 	.word	0x20000864

100034c8 <stdio_uart_init>:
100034c8:	b510      	push	{r4, lr}
100034ca:	490e      	ldr	r1, [pc, #56]	@ (10003504 <stdio_uart_init+0x3c>)
100034cc:	4c0e      	ldr	r4, [pc, #56]	@ (10003508 <stdio_uart_init+0x40>)
100034ce:	480f      	ldr	r0, [pc, #60]	@ (1000350c <stdio_uart_init+0x44>)
100034d0:	4a0f      	ldr	r2, [pc, #60]	@ (10003510 <stdio_uart_init+0x48>)
100034d2:	4b10      	ldr	r3, [pc, #64]	@ (10003514 <stdio_uart_init+0x4c>)
100034d4:	7800      	ldrb	r0, [r0, #0]
100034d6:	6021      	str	r1, [r4, #0]
100034d8:	2000      	movs	r0, #0
100034da:	2102      	movs	r1, #2
100034dc:	7812      	ldrb	r2, [r2, #0]
100034de:	781b      	ldrb	r3, [r3, #0]
100034e0:	f7fc ff24 	bl	1000032c <gpio_set_function>
100034e4:	2102      	movs	r1, #2
100034e6:	2001      	movs	r0, #1
100034e8:	f7fc ff20 	bl	1000032c <gpio_set_function>
100034ec:	f44f 31e1 	mov.w	r1, #115200	@ 0x1c200
100034f0:	6820      	ldr	r0, [r4, #0]
100034f2:	f7fd fda1 	bl	10001038 <uart_init>
100034f6:	e8bd 4010 	ldmia.w	sp!, {r4, lr}
100034fa:	2101      	movs	r1, #1
100034fc:	4806      	ldr	r0, [pc, #24]	@ (10003518 <stdio_uart_init+0x50>)
100034fe:	f7ff be29 	b.w	10003154 <stdio_set_driver_enabled>
10003502:	bf00      	nop
10003504:	40070000 	.word	0x40070000
10003508:	200008e0 	.word	0x200008e0
1000350c:	100039c0 	.word	0x100039c0
10003510:	100039bc 	.word	0x100039bc
10003514:	100039b8 	.word	0x100039b8
10003518:	2000069c 	.word	0x2000069c

1000351c <spi_init>:
1000351c:	4b38      	ldr	r3, [pc, #224]	@ (10003600 <spi_init+0xe4>)
1000351e:	e92d 47f0 	stmdb	sp!, {r4, r5, r6, r7, r8, r9, sl, lr}
10003522:	4298      	cmp	r0, r3
10003524:	bf14      	ite	ne
10003526:	f44f 2300 	movne.w	r3, #524288	@ 0x80000
1000352a:	f44f 2380 	moveq.w	r3, #262144	@ 0x40000
1000352e:	4607      	mov	r7, r0
10003530:	460e      	mov	r6, r1
10003532:	4d34      	ldr	r5, [pc, #208]	@ (10003604 <spi_init+0xe8>)
10003534:	4c34      	ldr	r4, [pc, #208]	@ (10003608 <spi_init+0xec>)
10003536:	4a35      	ldr	r2, [pc, #212]	@ (1000360c <spi_init+0xf0>)
10003538:	602b      	str	r3, [r5, #0]
1000353a:	6023      	str	r3, [r4, #0]
1000353c:	6895      	ldr	r5, [r2, #8]
1000353e:	ea33 0505 	bics.w	r5, r3, r5
10003542:	d1fb      	bne.n	1000353c <spi_init+0x20>
10003544:	2006      	movs	r0, #6
10003546:	f7fd fe61 	bl	1000120c <clock_get_hz>
1000354a:	4639      	mov	r1, r7
1000354c:	f04f 0a02 	mov.w	sl, #2
10003550:	f851 ef04 	ldr.w	lr, [r1, #4]!
10003554:	ea4f 59d6 	mov.w	r9, r6, lsr #23
10003558:	ea4f 2c46 	mov.w	ip, r6, lsl #9
1000355c:	f501 5840 	add.w	r8, r1, #12288	@ 0x3000
10003560:	4663      	mov	r3, ip
10003562:	464a      	mov	r2, r9
10003564:	4654      	mov	r4, sl
10003566:	ea0e 0e0a 	and.w	lr, lr, sl
1000356a:	f8c8 a000 	str.w	sl, [r8]
1000356e:	e008      	b.n	10003582 <spi_init+0x66>
10003570:	eb13 030c 	adds.w	r3, r3, ip
10003574:	f104 0402 	add.w	r4, r4, #2
10003578:	eb42 0209 	adc.w	r2, r2, r9
1000357c:	f5b4 7f80 	cmp.w	r4, #256	@ 0x100
10003580:	d003      	beq.n	1000358a <spi_init+0x6e>
10003582:	4298      	cmp	r0, r3
10003584:	eb75 0a02 	sbcs.w	sl, r5, r2
10003588:	d2f2      	bcs.n	10003570 <spi_init+0x54>
1000358a:	f44f 7380 	mov.w	r3, #256	@ 0x100
1000358e:	ebc4 2204 	rsb	r2, r4, r4, lsl #8
10003592:	e001      	b.n	10003598 <spi_init+0x7c>
10003594:	2b01      	cmp	r3, #1
10003596:	d030      	beq.n	100035fa <spi_init+0xde>
10003598:	fbb0 fcf2 	udiv	ip, r0, r2
1000359c:	4566      	cmp	r6, ip
1000359e:	4699      	mov	r9, r3
100035a0:	eba2 0204 	sub.w	r2, r2, r4
100035a4:	f103 33ff 	add.w	r3, r3, #4294967295
100035a8:	d2f4      	bcs.n	10003594 <spi_init+0x78>
100035aa:	fb09 f904 	mul.w	r9, r9, r4
100035ae:	021d      	lsls	r5, r3, #8
100035b0:	613c      	str	r4, [r7, #16]
100035b2:	2402      	movs	r4, #2
100035b4:	463b      	mov	r3, r7
100035b6:	2603      	movs	r6, #3
100035b8:	683a      	ldr	r2, [r7, #0]
100035ba:	f501 5100 	add.w	r1, r1, #8192	@ 0x2000
100035be:	406a      	eors	r2, r5
100035c0:	f507 5c80 	add.w	ip, r7, #4096	@ 0x1000
100035c4:	f402 427f 	and.w	r2, r2, #65280	@ 0xff00
100035c8:	f8cc 2000 	str.w	r2, [ip]
100035cc:	f8c1 e000 	str.w	lr, [r1]
100035d0:	687d      	ldr	r5, [r7, #4]
100035d2:	f8c8 4000 	str.w	r4, [r8]
100035d6:	f853 2b24 	ldr.w	r2, [r3], #36
100035da:	4025      	ands	r5, r4
100035dc:	f082 0207 	eor.w	r2, r2, #7
100035e0:	f002 02cf 	and.w	r2, r2, #207	@ 0xcf
100035e4:	f503 5300 	add.w	r3, r3, #8192	@ 0x2000
100035e8:	f8cc 2000 	str.w	r2, [ip]
100035ec:	fbb0 f0f9 	udiv	r0, r0, r9
100035f0:	600d      	str	r5, [r1, #0]
100035f2:	601e      	str	r6, [r3, #0]
100035f4:	600c      	str	r4, [r1, #0]
100035f6:	e8bd 87f0 	ldmia.w	sp!, {r4, r5, r6, r7, r8, r9, sl, pc}
100035fa:	46a1      	mov	r9, r4
100035fc:	e7d8      	b.n	100035b0 <spi_init+0x94>
100035fe:	bf00      	nop
10003600:	40080000 	.word	0x40080000
10003604:	40022000 	.word	0x40022000
10003608:	40023000 	.word	0x40023000
1000360c:	40020000 	.word	0x40020000

10003610 <memcpy>:
10003610:	4684      	mov	ip, r0
10003612:	ea41 0300 	orr.w	r3, r1, r0
10003616:	f013 0303 	ands.w	r3, r3, #3
1000361a:	d149      	bne.n	100036b0 <memcpy+0xa0>
1000361c:	3a40      	subs	r2, #64	@ 0x40
1000361e:	d323      	bcc.n	10003668 <memcpy+0x58>
10003620:	680b      	ldr	r3, [r1, #0]
10003622:	6003      	str	r3, [r0, #0]
10003624:	684b      	ldr	r3, [r1, #4]
10003626:	6043      	str	r3, [r0, #4]
10003628:	688b      	ldr	r3, [r1, #8]
1000362a:	6083      	str	r3, [r0, #8]
1000362c:	68cb      	ldr	r3, [r1, #12]
1000362e:	60c3      	str	r3, [r0, #12]
10003630:	690b      	ldr	r3, [r1, #16]
10003632:	6103      	str	r3, [r0, #16]
10003634:	694b      	ldr	r3, [r1, #20]
10003636:	6143      	str	r3, [r0, #20]
10003638:	698b      	ldr	r3, [r1, #24]
1000363a:	6183      	str	r3, [r0, #24]
1000363c:	69cb      	ldr	r3, [r1, #28]
1000363e:	61c3      	str	r3, [r0, #28]
10003640:	6a0b      	ldr	r3, [r1, #32]
10003642:	6203      	str	r3, [r0, #32]
10003644:	6a4b      	ldr	r3, [r1, #36]	@ 0x24
10003646:	6243      	str	r3, [r0, #36]	@ 0x24
10003648:	6a8b      	ldr	r3, [r1, #40]	@ 0x28
1000364a:	6283      	str	r3, [r0, #40]	@ 0x28
1000364c:	6acb      	ldr	r3, [r1, #44]	@ 0x2c
1000364e:	62c3      	str	r3, [r0, #44]	@ 0x2c
10003650:	6b0b      	ldr	r3, [r1, #48]	@ 0x30
10003652:	6303      	str	r3, [r0, #48]	@ 0x30
10003654:	6b4b      	ldr	r3, [r1, #52]	@ 0x34
10003656:	6343      	str	r3, [r0, #52]	@ 0x34
10003658:	6b8b      	ldr	r3, [r1, #56]	@ 0x38
1000365a:	6383      	str	r3, [r0, #56]	@ 0x38
1000365c:	6bcb      	ldr	r3, [r1, #60]	@ 0x3c
1000365e:	63c3      	str	r3, [r0, #60]	@ 0x3c
10003660:	3040      	adds	r0, #64	@ 0x40
10003662:	3140      	adds	r1, #64	@ 0x40
10003664:	3a40      	subs	r2, #64	@ 0x40
10003666:	d2db      	bcs.n	10003620 <memcpy+0x10>
10003668:	3230      	adds	r2, #48	@ 0x30
1000366a:	d30b      	bcc.n	10003684 <memcpy+0x74>
1000366c:	680b      	ldr	r3, [r1, #0]
1000366e:	6003      	str	r3, [r0, #0]
10003670:	684b      	ldr	r3, [r1, #4]
10003672:	6043      	str	r3, [r0, #4]
10003674:	688b      	ldr	r3, [r1, #8]
10003676:	6083      	str	r3, [r0, #8]
10003678:	68cb      	ldr	r3, [r1, #12]
1000367a:	60c3      	str	r3, [r0, #12]
1000367c:	3010      	adds	r0, #16
1000367e:	3110      	adds	r1, #16
10003680:	3a10      	subs	r2, #16
10003682:	d2f3      	bcs.n	1000366c <memcpy+0x5c>
10003684:	320c      	adds	r2, #12
10003686:	d305      	bcc.n	10003694 <memcpy+0x84>
10003688:	f851 3b04 	ldr.w	r3, [r1], #4
1000368c:	f840 3b04 	str.w	r3, [r0], #4
10003690:	3a04      	subs	r2, #4
10003692:	d2f9      	bcs.n	10003688 <memcpy+0x78>
10003694:	3204      	adds	r2, #4
10003696:	d008      	beq.n	100036aa <memcpy+0x9a>
10003698:	07d2      	lsls	r2, r2, #31
1000369a:	bf1c      	itt	ne
1000369c:	f811 3b01 	ldrbne.w	r3, [r1], #1
100036a0:	f800 3b01 	strbne.w	r3, [r0], #1
100036a4:	d301      	bcc.n	100036aa <memcpy+0x9a>
100036a6:	880b      	ldrh	r3, [r1, #0]
100036a8:	8003      	strh	r3, [r0, #0]
100036aa:	4660      	mov	r0, ip
100036ac:	4770      	bx	lr
100036ae:	bf00      	nop
100036b0:	2a08      	cmp	r2, #8
100036b2:	d313      	bcc.n	100036dc <memcpy+0xcc>
100036b4:	078b      	lsls	r3, r1, #30
100036b6:	d0b1      	beq.n	1000361c <memcpy+0xc>
100036b8:	f010 0303 	ands.w	r3, r0, #3
100036bc:	d0ae      	beq.n	1000361c <memcpy+0xc>
100036be:	f1c3 0304 	rsb	r3, r3, #4
100036c2:	1ad2      	subs	r2, r2, r3
100036c4:	07db      	lsls	r3, r3, #31
100036c6:	bf1c      	itt	ne
100036c8:	f811 3b01 	ldrbne.w	r3, [r1], #1
100036cc:	f800 3b01 	strbne.w	r3, [r0], #1
100036d0:	d3a4      	bcc.n	1000361c <memcpy+0xc>
100036d2:	f831 3b02 	ldrh.w	r3, [r1], #2
100036d6:	f820 3b02 	strh.w	r3, [r0], #2
100036da:	e79f      	b.n	1000361c <memcpy+0xc>
100036dc:	3a04      	subs	r2, #4
100036de:	d3d9      	bcc.n	10003694 <memcpy+0x84>
100036e0:	3a01      	subs	r2, #1
100036e2:	f811 3b01 	ldrb.w	r3, [r1], #1
100036e6:	f800 3b01 	strb.w	r3, [r0], #1
100036ea:	d2f9      	bcs.n	100036e0 <memcpy+0xd0>
100036ec:	780b      	ldrb	r3, [r1, #0]
100036ee:	7003      	strb	r3, [r0, #0]
100036f0:	784b      	ldrb	r3, [r1, #1]
100036f2:	7043      	strb	r3, [r0, #1]
100036f4:	788b      	ldrb	r3, [r1, #2]
100036f6:	7083      	strb	r3, [r0, #2]
100036f8:	4660      	mov	r0, ip
100036fa:	4770      	bx	lr

100036fc <strlen>:
100036fc:	f020 0103 	bic.w	r1, r0, #3
10003700:	f010 0003 	ands.w	r0, r0, #3
10003704:	f1c0 0000 	rsb	r0, r0, #0
10003708:	f851 3b04 	ldr.w	r3, [r1], #4
1000370c:	f100 0c04 	add.w	ip, r0, #4
10003710:	ea4f 0ccc 	mov.w	ip, ip, lsl #3
10003714:	f06f 0200 	mvn.w	r2, #0
10003718:	bf1c      	itt	ne
1000371a:	fa22 f20c 	lsrne.w	r2, r2, ip
1000371e:	4313      	orrne	r3, r2
10003720:	f04f 0c01 	mov.w	ip, #1
10003724:	ea4c 2c0c 	orr.w	ip, ip, ip, lsl #8
10003728:	ea4c 4c0c 	orr.w	ip, ip, ip, lsl #16
1000372c:	eba3 020c 	sub.w	r2, r3, ip
10003730:	ea22 0203 	bic.w	r2, r2, r3
10003734:	ea12 12cc 	ands.w	r2, r2, ip, lsl #7
10003738:	bf04      	itt	eq
1000373a:	f851 3b04 	ldreq.w	r3, [r1], #4
1000373e:	3004      	addeq	r0, #4
10003740:	d0f4      	beq.n	1000372c <strlen+0x30>
10003742:	f1c2 0100 	rsb	r1, r2, #0
10003746:	ea02 0201 	and.w	r2, r2, r1
1000374a:	fab2 f282 	clz	r2, r2
1000374e:	f1c2 021f 	rsb	r2, r2, #31
10003752:	eb00 00d2 	add.w	r0, r0, r2, lsr #3
10003756:	4770      	bx	lr

10003758 <_fini>:
10003758:	b5f8      	push	{r3, r4, r5, r6, r7, lr}
1000375a:	bf00      	nop
1000375c:	0000      	movs	r0, r0
	...

10003760 <____aeabi_uldivmod_veneer>:
10003760:	f85f f000 	ldr.w	pc, [pc]	@ 10003764 <____aeabi_uldivmod_veneer+0x4>
10003764:	200002b1 	.word	0x200002b1

10003768 <__mutex_exit_veneer>:
10003768:	f85f f000 	ldr.w	pc, [pc]	@ 1000376c <__mutex_exit_veneer+0x4>
1000376c:	200001e5 	.word	0x200001e5

10003770 <__spi_write_read_blocking_veneer>:
10003770:	f85f f000 	ldr.w	pc, [pc]	@ 10003774 <__spi_write_read_blocking_veneer+0x4>
10003774:	20000221 	.word	0x20000221

10003778 <__mutex_try_enter_block_until_veneer>:
10003778:	f85f f000 	ldr.w	pc, [pc]	@ 1000377c <__mutex_try_enter_block_until_veneer+0x4>
1000377c:	2000017d 	.word	0x2000017d

10003780 <__pre_init_runtime_init_bootrom_reset>:
10003780:	100013f1                                ....

10003784 <__pre_init_runtime_init_early_resets>:
10003784:	10001365                                e...

10003788 <__pre_init_runtime_init_usb_power_down>:
10003788:	10001399                                ....

1000378c <__pre_init_runtime_init_clocks>:
1000378c:	10001485                                ....

10003790 <__pre_init_runtime_init_post_clock_resets>:
10003790:	100013d1                                ....

10003794 <__pre_init_runtime_init_boot_locks_reset>:
10003794:	100012e9                                ....

10003798 <__pre_init_runtime_init_spin_locks_reset>:
10003798:	10001419                                ....

1000379c <__pre_init_runtime_init_bootrom_locking_enable>:
1000379c:	100012d5                                ....

100037a0 <__pre_init_runtime_init_mutex>:
100037a0:	10000801                                ....

100037a4 <__pre_init_runtime_init_install_ram_vector_table>:
100037a4:	1000141d                                ....

100037a8 <__pre_init_runtime_init_default_alarm_pool>:
100037a8:	10000b79                                y...

100037ac <__pre_init_first_per_core_initializer>:
100037ac:	10001335                                5...

100037b0 <__pre_init_runtime_init_per_core_bootrom_reset>:
100037b0:	10001405                                ....

100037b4 <__pre_init_runtime_init_per_core_enable_coprocessors>:
100037b4:	100013b5                                ....

100037b8 <__pre_init_spinlock_set_extexclall>:
100037b8:	10000451                                Q...

100037bc <__pre_init_runtime_init_per_core_irq_priorities>:
100037bc:	10000479                                y...

100037c0 <__frame_dummy_init_array_entry>:
100037c0:	10000211                                ....

Disassembly of section .data:

20000110 <mutex_enter_block_until>:
20000110:	f04f 4150 	mov.w	r1, #3489660928	@ 0xd0000000
20000114:	e92d 41f0 	stmdb	sp!, {r4, r5, r6, r7, r8, lr}
20000118:	2700      	movs	r7, #0
2000011a:	4604      	mov	r4, r0
2000011c:	4616      	mov	r6, r2
2000011e:	461d      	mov	r5, r3
20000120:	f8d1 8000 	ldr.w	r8, [r1]
20000124:	e008      	b.n	20000138 <mutex_enter_block_until+0x28>
20000126:	e8c1 7f8f 	stlb	r7, [r1]
2000012a:	f38c 8810 	msr	PRIMASK, ip
2000012e:	4630      	mov	r0, r6
20000130:	4629      	mov	r1, r5
20000132:	f000 fa7d 	bl	20000630 <__best_effort_wfe_or_timeout_veneer>
20000136:	b9e8      	cbnz	r0, 20000174 <mutex_enter_block_until+0x64>
20000138:	6821      	ldr	r1, [r4, #0]
2000013a:	f3ef 8c10 	mrs	ip, PRIMASK
2000013e:	b672      	cpsid	i
20000140:	e8d1 2fcf 	ldaexb	r2, [r1]
20000144:	2301      	movs	r3, #1
20000146:	2a00      	cmp	r2, #0
20000148:	d1fa      	bne.n	20000140 <mutex_enter_block_until+0x30>
2000014a:	e8c1 3f42 	strexb	r2, r3, [r1]
2000014e:	2a00      	cmp	r2, #0
20000150:	d1f6      	bne.n	20000140 <mutex_enter_block_until+0x30>
20000152:	f3bf 8f5f 	dmb	sy
20000156:	f994 3004 	ldrsb.w	r3, [r4, #4]
2000015a:	6821      	ldr	r1, [r4, #0]
2000015c:	2b00      	cmp	r3, #0
2000015e:	dae2      	bge.n	20000126 <mutex_enter_block_until+0x16>
20000160:	2300      	movs	r3, #0
20000162:	f884 8004 	strb.w	r8, [r4, #4]
20000166:	e8c1 3f8f 	stlb	r3, [r1]
2000016a:	f38c 8810 	msr	PRIMASK, ip
2000016e:	2001      	movs	r0, #1
20000170:	e8bd 81f0 	ldmia.w	sp!, {r4, r5, r6, r7, r8, pc}
20000174:	2000      	movs	r0, #0
20000176:	e8bd 81f0 	ldmia.w	sp!, {r4, r5, r6, r7, r8, pc}
2000017a:	bf00      	nop

2000017c <mutex_try_enter_block_until>:
2000017c:	b530      	push	{r4, r5, lr}
2000017e:	6804      	ldr	r4, [r0, #0]
20000180:	f3ef 8c10 	mrs	ip, PRIMASK
20000184:	b672      	cpsid	i
20000186:	e8d4 efcf 	ldaexb	lr, [r4]
2000018a:	2501      	movs	r5, #1
2000018c:	f1be 0f00 	cmp.w	lr, #0
20000190:	d1f9      	bne.n	20000186 <mutex_try_enter_block_until+0xa>
20000192:	e8c4 5f4e 	strexb	lr, r5, [r4]
20000196:	f1be 0f00 	cmp.w	lr, #0
2000019a:	d1f4      	bne.n	20000186 <mutex_try_enter_block_until+0xa>
2000019c:	f3bf 8f5f 	dmb	sy
200001a0:	f990 4004 	ldrsb.w	r4, [r0, #4]
200001a4:	6805      	ldr	r5, [r0, #0]
200001a6:	2c00      	cmp	r4, #0
200001a8:	db10      	blt.n	200001cc <mutex_try_enter_block_until+0x50>
200001aa:	2100      	movs	r1, #0
200001ac:	e8c5 1f8f 	stlb	r1, [r5]
200001b0:	f38c 8810 	msr	PRIMASK, ip
200001b4:	f04f 4550 	mov.w	r5, #3489660928	@ 0xd0000000
200001b8:	f995 5000 	ldrsb.w	r5, [r5]
200001bc:	42a5      	cmp	r5, r4
200001be:	d101      	bne.n	200001c4 <mutex_try_enter_block_until+0x48>
200001c0:	4608      	mov	r0, r1
200001c2:	bd30      	pop	{r4, r5, pc}
200001c4:	e8bd 4030 	ldmia.w	sp!, {r4, r5, lr}
200001c8:	f7ff bfa2 	b.w	20000110 <mutex_enter_block_until>
200001cc:	f04f 4250 	mov.w	r2, #3489660928	@ 0xd0000000
200001d0:	6812      	ldr	r2, [r2, #0]
200001d2:	2300      	movs	r3, #0
200001d4:	7102      	strb	r2, [r0, #4]
200001d6:	e8c5 3f8f 	stlb	r3, [r5]
200001da:	f38c 8810 	msr	PRIMASK, ip
200001de:	2001      	movs	r0, #1
200001e0:	bd30      	pop	{r4, r5, pc}
200001e2:	bf00      	nop

200001e4 <mutex_exit>:
200001e4:	6803      	ldr	r3, [r0, #0]
200001e6:	f3ef 8210 	mrs	r2, PRIMASK
200001ea:	b672      	cpsid	i
200001ec:	e8d3 cfcf 	ldaexb	ip, [r3]
200001f0:	2101      	movs	r1, #1
200001f2:	f1bc 0f00 	cmp.w	ip, #0
200001f6:	d1f9      	bne.n	200001ec <mutex_exit+0x8>
200001f8:	e8c3 1f4c 	strexb	ip, r1, [r3]
200001fc:	f1bc 0f00 	cmp.w	ip, #0
20000200:	d1f4      	bne.n	200001ec <mutex_exit+0x8>
20000202:	f3bf 8f5f 	dmb	sy
20000206:	f04f 0cff 	mov.w	ip, #255	@ 0xff
2000020a:	2300      	movs	r3, #0
2000020c:	6801      	ldr	r1, [r0, #0]
2000020e:	f880 c004 	strb.w	ip, [r0, #4]
20000212:	e8c1 3f8f 	stlb	r3, [r1]
20000216:	f382 8810 	msr	PRIMASK, r2
2000021a:	bf40      	sev
2000021c:	4770      	bx	lr
2000021e:	bf00      	nop

20000220 <spi_write_read_blocking>:
20000220:	b570      	push	{r4, r5, r6, lr}
20000222:	461d      	mov	r5, r3
20000224:	4684      	mov	ip, r0
20000226:	461c      	mov	r4, r3
20000228:	b315      	cbz	r5, 20000270 <spi_write_read_blocking+0x50>
2000022a:	b1c4      	cbz	r4, 2000025e <spi_write_read_blocking+0x3e>
2000022c:	f8dc 600c 	ldr.w	r6, [ip, #12]
20000230:	f104 0e08 	add.w	lr, r4, #8
20000234:	07b6      	lsls	r6, r6, #30
20000236:	d506      	bpl.n	20000246 <spi_write_read_blocking+0x26>
20000238:	4575      	cmp	r5, lr
2000023a:	d233      	bcs.n	200002a4 <spi_write_read_blocking+0x84>
2000023c:	f811 0b01 	ldrb.w	r0, [r1], #1
20000240:	3c01      	subs	r4, #1
20000242:	f8cc 0008 	str.w	r0, [ip, #8]
20000246:	f8dc 000c 	ldr.w	r0, [ip, #12]
2000024a:	0740      	lsls	r0, r0, #29
2000024c:	d5ed      	bpl.n	2000022a <spi_write_read_blocking+0xa>
2000024e:	f8dc 6008 	ldr.w	r6, [ip, #8]
20000252:	3d01      	subs	r5, #1
20000254:	f802 6b01 	strb.w	r6, [r2], #1
20000258:	2d00      	cmp	r5, #0
2000025a:	d1e6      	bne.n	2000022a <spi_write_read_blocking+0xa>
2000025c:	e008      	b.n	20000270 <spi_write_read_blocking+0x50>
2000025e:	f8dc 600c 	ldr.w	r6, [ip, #12]
20000262:	0776      	lsls	r6, r6, #29
20000264:	d4f3      	bmi.n	2000024e <spi_write_read_blocking+0x2e>
20000266:	f8dc 600c 	ldr.w	r6, [ip, #12]
2000026a:	0776      	lsls	r6, r6, #29
2000026c:	d4ef      	bmi.n	2000024e <spi_write_read_blocking+0x2e>
2000026e:	e7f6      	b.n	2000025e <spi_write_read_blocking+0x3e>
20000270:	b16c      	cbz	r4, 2000028e <spi_write_read_blocking+0x6e>
20000272:	f8dc 200c 	ldr.w	r2, [ip, #12]
20000276:	0790      	lsls	r0, r2, #30
20000278:	d5fb      	bpl.n	20000272 <spi_write_read_blocking+0x52>
2000027a:	f114 0f08 	cmn.w	r4, #8
2000027e:	d008      	beq.n	20000292 <spi_write_read_blocking+0x72>
20000280:	f811 2b01 	ldrb.w	r2, [r1], #1
20000284:	3c01      	subs	r4, #1
20000286:	f8cc 2008 	str.w	r2, [ip, #8]
2000028a:	2c00      	cmp	r4, #0
2000028c:	d1f1      	bne.n	20000272 <spi_write_read_blocking+0x52>
2000028e:	4618      	mov	r0, r3
20000290:	bd70      	pop	{r4, r5, r6, pc}
20000292:	f8dc 200c 	ldr.w	r2, [ip, #12]
20000296:	0792      	lsls	r2, r2, #30
20000298:	d5eb      	bpl.n	20000272 <spi_write_read_blocking+0x52>
2000029a:	f8dc 200c 	ldr.w	r2, [ip, #12]
2000029e:	0792      	lsls	r2, r2, #30
200002a0:	d4f7      	bmi.n	20000292 <spi_write_read_blocking+0x72>
200002a2:	e7e6      	b.n	20000272 <spi_write_read_blocking+0x52>
200002a4:	f8dc 000c 	ldr.w	r0, [ip, #12]
200002a8:	0740      	lsls	r0, r0, #29
200002aa:	d4d0      	bmi.n	2000024e <spi_write_read_blocking+0x2e>
200002ac:	e7be      	b.n	2000022c <spi_write_read_blocking+0xc>
200002ae:	bf00      	nop

200002b0 <__aeabi_uldivmod>:
200002b0:	b953      	cbnz	r3, 200002c8 <__aeabi_uldivmod+0x18>
200002b2:	b94a      	cbnz	r2, 200002c8 <__aeabi_uldivmod+0x18>
200002b4:	2900      	cmp	r1, #0
200002b6:	bf08      	it	eq
200002b8:	2800      	cmpeq	r0, #0
200002ba:	bf1c      	itt	ne
200002bc:	f04f 31ff 	movne.w	r1, #4294967295
200002c0:	f04f 30ff 	movne.w	r0, #4294967295
200002c4:	f000 b9b2 	b.w	2000062c <__aeabi_idiv0>
200002c8:	f1ad 0c08 	sub.w	ip, sp, #8
200002cc:	e96d ce04 	strd	ip, lr, [sp, #-16]!
200002d0:	f000 f806 	bl	200002e0 <__udivmoddi4>
200002d4:	f8dd e004 	ldr.w	lr, [sp, #4]
200002d8:	e9dd 2302 	ldrd	r2, r3, [sp, #8]
200002dc:	b004      	add	sp, #16
200002de:	4770      	bx	lr

200002e0 <__udivmoddi4>:
200002e0:	e92d 4ff0 	stmdb	sp!, {r4, r5, r6, r7, r8, r9, sl, fp, lr}
200002e4:	468c      	mov	ip, r1
200002e6:	9e09      	ldr	r6, [sp, #36]	@ 0x24
200002e8:	4604      	mov	r4, r0
200002ea:	460f      	mov	r7, r1
200002ec:	2b00      	cmp	r3, #0
200002ee:	d148      	bne.n	20000382 <__udivmoddi4+0xa2>
200002f0:	428a      	cmp	r2, r1
200002f2:	4615      	mov	r5, r2
200002f4:	d95e      	bls.n	200003b4 <__udivmoddi4+0xd4>
200002f6:	fab2 f382 	clz	r3, r2
200002fa:	b13b      	cbz	r3, 2000030c <__udivmoddi4+0x2c>
200002fc:	f1c3 0220 	rsb	r2, r3, #32
20000300:	409f      	lsls	r7, r3
20000302:	409d      	lsls	r5, r3
20000304:	409c      	lsls	r4, r3
20000306:	fa20 f202 	lsr.w	r2, r0, r2
2000030a:	4317      	orrs	r7, r2
2000030c:	ea4f 4e15 	mov.w	lr, r5, lsr #16
20000310:	fa1f fc85 	uxth.w	ip, r5
20000314:	0c22      	lsrs	r2, r4, #16
20000316:	fbb7 f1fe 	udiv	r1, r7, lr
2000031a:	fb0e 7711 	mls	r7, lr, r1, r7
2000031e:	fb01 f00c 	mul.w	r0, r1, ip
20000322:	ea42 4207 	orr.w	r2, r2, r7, lsl #16
20000326:	4290      	cmp	r0, r2
20000328:	d907      	bls.n	2000033a <__udivmoddi4+0x5a>
2000032a:	18aa      	adds	r2, r5, r2
2000032c:	f101 37ff 	add.w	r7, r1, #4294967295
20000330:	d202      	bcs.n	20000338 <__udivmoddi4+0x58>
20000332:	4290      	cmp	r0, r2
20000334:	f200 8158 	bhi.w	200005e8 <__udivmoddi4+0x308>
20000338:	4639      	mov	r1, r7
2000033a:	1a12      	subs	r2, r2, r0
2000033c:	b2a4      	uxth	r4, r4
2000033e:	fbb2 f0fe 	udiv	r0, r2, lr
20000342:	fb0e 2210 	mls	r2, lr, r0, r2
20000346:	fb00 fc0c 	mul.w	ip, r0, ip
2000034a:	ea44 4402 	orr.w	r4, r4, r2, lsl #16
2000034e:	45a4      	cmp	ip, r4
20000350:	d90b      	bls.n	2000036a <__udivmoddi4+0x8a>
20000352:	192c      	adds	r4, r5, r4
20000354:	f100 32ff 	add.w	r2, r0, #4294967295
20000358:	bf2c      	ite	cs
2000035a:	2701      	movcs	r7, #1
2000035c:	2700      	movcc	r7, #0
2000035e:	45a4      	cmp	ip, r4
20000360:	d902      	bls.n	20000368 <__udivmoddi4+0x88>
20000362:	2f00      	cmp	r7, #0
20000364:	f000 8143 	beq.w	200005ee <__udivmoddi4+0x30e>
20000368:	4610      	mov	r0, r2
2000036a:	ea40 4001 	orr.w	r0, r0, r1, lsl #16
2000036e:	eba4 040c 	sub.w	r4, r4, ip
20000372:	2100      	movs	r1, #0
20000374:	b11e      	cbz	r6, 2000037e <__udivmoddi4+0x9e>
20000376:	40dc      	lsrs	r4, r3
20000378:	2300      	movs	r3, #0
2000037a:	e9c6 4300 	strd	r4, r3, [r6]
2000037e:	e8bd 8ff0 	ldmia.w	sp!, {r4, r5, r6, r7, r8, r9, sl, fp, pc}
20000382:	428b      	cmp	r3, r1
20000384:	d906      	bls.n	20000394 <__udivmoddi4+0xb4>
20000386:	b10e      	cbz	r6, 2000038c <__udivmoddi4+0xac>
20000388:	e9c6 0100 	strd	r0, r1, [r6]
2000038c:	2100      	movs	r1, #0
2000038e:	4608      	mov	r0, r1
20000390:	e8bd 8ff0 	ldmia.w	sp!, {r4, r5, r6, r7, r8, r9, sl, fp, pc}
20000394:	fab3 f183 	clz	r1, r3
20000398:	2900      	cmp	r1, #0
2000039a:	d151      	bne.n	20000440 <__udivmoddi4+0x160>
2000039c:	4563      	cmp	r3, ip
2000039e:	f0c0 8116 	bcc.w	200005ce <__udivmoddi4+0x2ee>
200003a2:	4282      	cmp	r2, r0
200003a4:	f240 8113 	bls.w	200005ce <__udivmoddi4+0x2ee>
200003a8:	4608      	mov	r0, r1
200003aa:	2e00      	cmp	r6, #0
200003ac:	d0e7      	beq.n	2000037e <__udivmoddi4+0x9e>
200003ae:	e9c6 4700 	strd	r4, r7, [r6]
200003b2:	e7e4      	b.n	2000037e <__udivmoddi4+0x9e>
200003b4:	2a00      	cmp	r2, #0
200003b6:	f000 80af 	beq.w	20000518 <__udivmoddi4+0x238>
200003ba:	fab2 f382 	clz	r3, r2
200003be:	2b00      	cmp	r3, #0
200003c0:	f040 80c2 	bne.w	20000548 <__udivmoddi4+0x268>
200003c4:	1a8a      	subs	r2, r1, r2
200003c6:	ea4f 4e15 	mov.w	lr, r5, lsr #16
200003ca:	b2af      	uxth	r7, r5
200003cc:	2101      	movs	r1, #1
200003ce:	0c20      	lsrs	r0, r4, #16
200003d0:	fbb2 fcfe 	udiv	ip, r2, lr
200003d4:	fb0e 221c 	mls	r2, lr, ip, r2
200003d8:	ea40 4202 	orr.w	r2, r0, r2, lsl #16
200003dc:	fb07 f00c 	mul.w	r0, r7, ip
200003e0:	4290      	cmp	r0, r2
200003e2:	d90e      	bls.n	20000402 <__udivmoddi4+0x122>
200003e4:	18aa      	adds	r2, r5, r2
200003e6:	f10c 38ff 	add.w	r8, ip, #4294967295
200003ea:	bf2c      	ite	cs
200003ec:	f04f 0901 	movcs.w	r9, #1
200003f0:	f04f 0900 	movcc.w	r9, #0
200003f4:	4290      	cmp	r0, r2
200003f6:	d903      	bls.n	20000400 <__udivmoddi4+0x120>
200003f8:	f1b9 0f00 	cmp.w	r9, #0
200003fc:	f000 80f0 	beq.w	200005e0 <__udivmoddi4+0x300>
20000400:	46c4      	mov	ip, r8
20000402:	1a12      	subs	r2, r2, r0
20000404:	b2a4      	uxth	r4, r4
20000406:	fbb2 f0fe 	udiv	r0, r2, lr
2000040a:	fb0e 2210 	mls	r2, lr, r0, r2
2000040e:	fb00 f707 	mul.w	r7, r0, r7
20000412:	ea44 4402 	orr.w	r4, r4, r2, lsl #16
20000416:	42a7      	cmp	r7, r4
20000418:	d90e      	bls.n	20000438 <__udivmoddi4+0x158>
2000041a:	192c      	adds	r4, r5, r4
2000041c:	f100 32ff 	add.w	r2, r0, #4294967295
20000420:	bf2c      	ite	cs
20000422:	f04f 0e01 	movcs.w	lr, #1
20000426:	f04f 0e00 	movcc.w	lr, #0
2000042a:	42a7      	cmp	r7, r4
2000042c:	d903      	bls.n	20000436 <__udivmoddi4+0x156>
2000042e:	f1be 0f00 	cmp.w	lr, #0
20000432:	f000 80d2 	beq.w	200005da <__udivmoddi4+0x2fa>
20000436:	4610      	mov	r0, r2
20000438:	1be4      	subs	r4, r4, r7
2000043a:	ea40 400c 	orr.w	r0, r0, ip, lsl #16
2000043e:	e799      	b.n	20000374 <__udivmoddi4+0x94>
20000440:	f1c1 0520 	rsb	r5, r1, #32
20000444:	408b      	lsls	r3, r1
20000446:	fa0c f401 	lsl.w	r4, ip, r1
2000044a:	fa00 f901 	lsl.w	r9, r0, r1
2000044e:	fa22 f705 	lsr.w	r7, r2, r5
20000452:	fa2c fc05 	lsr.w	ip, ip, r5
20000456:	408a      	lsls	r2, r1
20000458:	431f      	orrs	r7, r3
2000045a:	fa20 f305 	lsr.w	r3, r0, r5
2000045e:	0c38      	lsrs	r0, r7, #16
20000460:	4323      	orrs	r3, r4
20000462:	fa1f fe87 	uxth.w	lr, r7
20000466:	0c1c      	lsrs	r4, r3, #16
20000468:	fbbc f8f0 	udiv	r8, ip, r0
2000046c:	fb00 cc18 	mls	ip, r0, r8, ip
20000470:	ea44 440c 	orr.w	r4, r4, ip, lsl #16
20000474:	fb08 fc0e 	mul.w	ip, r8, lr
20000478:	45a4      	cmp	ip, r4
2000047a:	d90e      	bls.n	2000049a <__udivmoddi4+0x1ba>
2000047c:	193c      	adds	r4, r7, r4
2000047e:	f108 3aff 	add.w	sl, r8, #4294967295
20000482:	bf2c      	ite	cs
20000484:	f04f 0b01 	movcs.w	fp, #1
20000488:	f04f 0b00 	movcc.w	fp, #0
2000048c:	45a4      	cmp	ip, r4
2000048e:	d903      	bls.n	20000498 <__udivmoddi4+0x1b8>
20000490:	f1bb 0f00 	cmp.w	fp, #0
20000494:	f000 80b8 	beq.w	20000608 <__udivmoddi4+0x328>
20000498:	46d0      	mov	r8, sl
2000049a:	eba4 040c 	sub.w	r4, r4, ip
2000049e:	fa1f fc83 	uxth.w	ip, r3
200004a2:	fbb4 f3f0 	udiv	r3, r4, r0
200004a6:	fb00 4413 	mls	r4, r0, r3, r4
200004aa:	fb03 fe0e 	mul.w	lr, r3, lr
200004ae:	ea4c 4404 	orr.w	r4, ip, r4, lsl #16
200004b2:	45a6      	cmp	lr, r4
200004b4:	d90e      	bls.n	200004d4 <__udivmoddi4+0x1f4>
200004b6:	193c      	adds	r4, r7, r4
200004b8:	f103 30ff 	add.w	r0, r3, #4294967295
200004bc:	bf2c      	ite	cs
200004be:	f04f 0c01 	movcs.w	ip, #1
200004c2:	f04f 0c00 	movcc.w	ip, #0
200004c6:	45a6      	cmp	lr, r4
200004c8:	d903      	bls.n	200004d2 <__udivmoddi4+0x1f2>
200004ca:	f1bc 0f00 	cmp.w	ip, #0
200004ce:	f000 809f 	beq.w	20000610 <__udivmoddi4+0x330>
200004d2:	4603      	mov	r3, r0
200004d4:	ea43 4008 	orr.w	r0, r3, r8, lsl #16
200004d8:	eba4 040e 	sub.w	r4, r4, lr
200004dc:	fba0 ec02 	umull	lr, ip, r0, r2
200004e0:	4564      	cmp	r4, ip
200004e2:	4673      	mov	r3, lr
200004e4:	46e0      	mov	r8, ip
200004e6:	d302      	bcc.n	200004ee <__udivmoddi4+0x20e>
200004e8:	d107      	bne.n	200004fa <__udivmoddi4+0x21a>
200004ea:	45f1      	cmp	r9, lr
200004ec:	d205      	bcs.n	200004fa <__udivmoddi4+0x21a>
200004ee:	ebbe 0302 	subs.w	r3, lr, r2
200004f2:	eb6c 0c07 	sbc.w	ip, ip, r7
200004f6:	3801      	subs	r0, #1
200004f8:	46e0      	mov	r8, ip
200004fa:	b15e      	cbz	r6, 20000514 <__udivmoddi4+0x234>
200004fc:	ebb9 0203 	subs.w	r2, r9, r3
20000500:	eb64 0408 	sbc.w	r4, r4, r8
20000504:	fa04 f505 	lsl.w	r5, r4, r5
20000508:	fa22 f301 	lsr.w	r3, r2, r1
2000050c:	40cc      	lsrs	r4, r1
2000050e:	431d      	orrs	r5, r3
20000510:	e9c6 5400 	strd	r5, r4, [r6]
20000514:	2100      	movs	r1, #0
20000516:	e732      	b.n	2000037e <__udivmoddi4+0x9e>
20000518:	0842      	lsrs	r2, r0, #1
2000051a:	462f      	mov	r7, r5
2000051c:	084b      	lsrs	r3, r1, #1
2000051e:	46ac      	mov	ip, r5
20000520:	ea42 72c1 	orr.w	r2, r2, r1, lsl #31
20000524:	46ae      	mov	lr, r5
20000526:	07c4      	lsls	r4, r0, #31
20000528:	0c11      	lsrs	r1, r2, #16
2000052a:	b292      	uxth	r2, r2
2000052c:	ea41 4103 	orr.w	r1, r1, r3, lsl #16
20000530:	ea42 4201 	orr.w	r2, r2, r1, lsl #16
20000534:	fbb1 f1f5 	udiv	r1, r1, r5
20000538:	fbb3 f0f5 	udiv	r0, r3, r5
2000053c:	231f      	movs	r3, #31
2000053e:	eba2 020c 	sub.w	r2, r2, ip
20000542:	ea41 4100 	orr.w	r1, r1, r0, lsl #16
20000546:	e742      	b.n	200003ce <__udivmoddi4+0xee>
20000548:	409d      	lsls	r5, r3
2000054a:	f1c3 0220 	rsb	r2, r3, #32
2000054e:	4099      	lsls	r1, r3
20000550:	409c      	lsls	r4, r3
20000552:	fa2c fc02 	lsr.w	ip, ip, r2
20000556:	ea4f 4e15 	mov.w	lr, r5, lsr #16
2000055a:	fa20 f202 	lsr.w	r2, r0, r2
2000055e:	b2af      	uxth	r7, r5
20000560:	fbbc f8fe 	udiv	r8, ip, lr
20000564:	430a      	orrs	r2, r1
20000566:	fb0e cc18 	mls	ip, lr, r8, ip
2000056a:	0c11      	lsrs	r1, r2, #16
2000056c:	ea41 410c 	orr.w	r1, r1, ip, lsl #16
20000570:	fb08 fc07 	mul.w	ip, r8, r7
20000574:	458c      	cmp	ip, r1
20000576:	d950      	bls.n	2000061a <__udivmoddi4+0x33a>
20000578:	1869      	adds	r1, r5, r1
2000057a:	f108 30ff 	add.w	r0, r8, #4294967295
2000057e:	bf2c      	ite	cs
20000580:	f04f 0901 	movcs.w	r9, #1
20000584:	f04f 0900 	movcc.w	r9, #0
20000588:	458c      	cmp	ip, r1
2000058a:	d902      	bls.n	20000592 <__udivmoddi4+0x2b2>
2000058c:	f1b9 0f00 	cmp.w	r9, #0
20000590:	d030      	beq.n	200005f4 <__udivmoddi4+0x314>
20000592:	eba1 010c 	sub.w	r1, r1, ip
20000596:	fbb1 f8fe 	udiv	r8, r1, lr
2000059a:	fb08 fc07 	mul.w	ip, r8, r7
2000059e:	fb0e 1118 	mls	r1, lr, r8, r1
200005a2:	b292      	uxth	r2, r2
200005a4:	ea42 4201 	orr.w	r2, r2, r1, lsl #16
200005a8:	4562      	cmp	r2, ip
200005aa:	d234      	bcs.n	20000616 <__udivmoddi4+0x336>
200005ac:	18aa      	adds	r2, r5, r2
200005ae:	f108 31ff 	add.w	r1, r8, #4294967295
200005b2:	bf2c      	ite	cs
200005b4:	f04f 0901 	movcs.w	r9, #1
200005b8:	f04f 0900 	movcc.w	r9, #0
200005bc:	4562      	cmp	r2, ip
200005be:	d2be      	bcs.n	2000053e <__udivmoddi4+0x25e>
200005c0:	f1b9 0f00 	cmp.w	r9, #0
200005c4:	d1bb      	bne.n	2000053e <__udivmoddi4+0x25e>
200005c6:	f1a8 0102 	sub.w	r1, r8, #2
200005ca:	442a      	add	r2, r5
200005cc:	e7b7      	b.n	2000053e <__udivmoddi4+0x25e>
200005ce:	1a84      	subs	r4, r0, r2
200005d0:	eb6c 0203 	sbc.w	r2, ip, r3
200005d4:	2001      	movs	r0, #1
200005d6:	4617      	mov	r7, r2
200005d8:	e6e7      	b.n	200003aa <__udivmoddi4+0xca>
200005da:	442c      	add	r4, r5
200005dc:	3802      	subs	r0, #2
200005de:	e72b      	b.n	20000438 <__udivmoddi4+0x158>
200005e0:	f1ac 0c02 	sub.w	ip, ip, #2
200005e4:	442a      	add	r2, r5
200005e6:	e70c      	b.n	20000402 <__udivmoddi4+0x122>
200005e8:	3902      	subs	r1, #2
200005ea:	442a      	add	r2, r5
200005ec:	e6a5      	b.n	2000033a <__udivmoddi4+0x5a>
200005ee:	442c      	add	r4, r5
200005f0:	3802      	subs	r0, #2
200005f2:	e6ba      	b.n	2000036a <__udivmoddi4+0x8a>
200005f4:	eba5 0c0c 	sub.w	ip, r5, ip
200005f8:	f1a8 0002 	sub.w	r0, r8, #2
200005fc:	4461      	add	r1, ip
200005fe:	fbb1 f8fe 	udiv	r8, r1, lr
20000602:	fb08 fc07 	mul.w	ip, r8, r7
20000606:	e7ca      	b.n	2000059e <__udivmoddi4+0x2be>
20000608:	f1a8 0802 	sub.w	r8, r8, #2
2000060c:	443c      	add	r4, r7
2000060e:	e744      	b.n	2000049a <__udivmoddi4+0x1ba>
20000610:	3b02      	subs	r3, #2
20000612:	443c      	add	r4, r7
20000614:	e75e      	b.n	200004d4 <__udivmoddi4+0x1f4>
20000616:	4641      	mov	r1, r8
20000618:	e791      	b.n	2000053e <__udivmoddi4+0x25e>
2000061a:	eba1 010c 	sub.w	r1, r1, ip
2000061e:	4640      	mov	r0, r8
20000620:	fbb1 f8fe 	udiv	r8, r1, lr
20000624:	fb08 fc07 	mul.w	ip, r8, r7
20000628:	e7b9      	b.n	2000059e <__udivmoddi4+0x2be>
2000062a:	bf00      	nop

2000062c <__aeabi_idiv0>:
2000062c:	4770      	bx	lr
2000062e:	bf00      	nop

20000630 <__best_effort_wfe_or_timeout_veneer>:
20000630:	f85f f000 	ldr.w	pc, [pc]	@ 20000634 <__best_effort_wfe_or_timeout_veneer+0x4>
20000634:	10000e9d 	.word	0x10000e9d

20000638 <striped_spin_lock_num>:
20000638:	00000010                                ....

2000063c <irq_handler_chain_slots>:
2000063c:	00000000 	.word	0x00000000
20000640:	00010000 	.word	0x00010000
	...
2000064c:	00020000 	.word	0x00020000
	...
20000658:	00030000 	.word	0x00030000
	...
20000664:	00ff0000 	.word	0x00ff0000
20000668:	00000000 	.word	0x00000000

2000066c <irq_handler_chain_first_slot>:
2000066c:	b501      	push	{r0, lr}
2000066e:	6848      	ldr	r0, [r1, #4]
20000670:	3101      	adds	r1, #1
20000672:	468e      	mov	lr, r1
20000674:	4700      	bx	r0

20000676 <irq_handler_chain_remove_tail>:
20000676:	4670      	mov	r0, lr
20000678:	3809      	subs	r0, #9
2000067a:	4901      	ldr	r1, [pc, #4]	@ (20000680 <irq_handler_chain_remove_tail+0xa>)
2000067c:	4788      	blx	r1
2000067e:	bd01      	pop	{r0, pc}
20000680:	10000739 	.word	0x10000739

20000684 <default_alarm_pool>:
	...
20000698:	200006c0                                ... 

2000069c <stdio_uart>:
2000069c:	10003329 10003431 10003379 10003441     )3..14..y3..A4..
200006ac:	00000000 00000100                       ........

200006b4 <print_mutex>:
	...
