
C:/Users/assem.KEVINTHOMAS/OneDrive/Documents/Embedded-Hacking/drivers/0x09_dht11/build/0x09_dht11.elf:     file format elf32-littlearm

Sections:
Idx Name          Size      VMA       LMA       File off  Algn
  0 .text         000038ac  10000000  10000000  00001000  2**3
                  CONTENTS, ALLOC, LOAD, READONLY, CODE
  1 .rodata       00000220  100038b0  100038b0  000048b0  2**3
                  CONTENTS, ALLOC, LOAD, READONLY, DATA
  2 .ARM.exidx    00000008  10003ad0  10003ad0  00004ad0  2**2
                  CONTENTS, ALLOC, LOAD, READONLY, DATA
  3 .binary_info  0000002c  10003ad8  10003ad8  00004ad8  2**2
                  CONTENTS, ALLOC, LOAD, READONLY, DATA
  4 .ram_vector_table 00000110  20000000  20000000  00007000  2**2
                  ALLOC
  5 .uninitialized_data 00000000  20000110  20000110  000063ac  2**0
                  CONTENTS
  6 .data         00000894  20000110  10003b04  00005110  2**3
                  CONTENTS, ALLOC, LOAD, READONLY, CODE
  7 .tdata        00000000  200009a4  200009a4  000063ac  2**0
                  CONTENTS, ALLOC, LOAD, DATA, THREAD_LOCAL
  8 .tbss         00000000  200009a4  200009a4  00000000  2**0
                  ALLOC, THREAD_LOCAL
  9 .bss          0000022c  200009a8  10004398  000069a8  2**3
                  ALLOC
 10 .heap         00000800  20000bd4  10004398  00006bd4  2**2
                  ALLOC, READONLY
 11 .scratch_x    00000000  20080000  20080000  000063ac  2**0
                  CONTENTS
 12 .scratch_y    00000000  20081000  20081000  000063ac  2**0
                  CONTENTS
 13 .stack_dummy  00000800  20081000  20081000  00007000  2**5
                  ALLOC, READONLY
 14 .flash_end    00000014  10004398  10004398  00006398  2**2
                  CONTENTS, ALLOC, LOAD, READONLY, DATA
 15 .ARM.attributes 00000034  00000000  00000000  000063ac  2**0
                  CONTENTS, READONLY
 16 .comment      00000045  00000000  00000000  000063e0  2**0
                  CONTENTS, READONLY
 17 .debug_info   00021657  00000000  00000000  00006425  2**0
                  CONTENTS, READONLY, DEBUGGING, OCTETS
 18 .debug_abbrev 0000597b  00000000  00000000  00027a7c  2**0
                  CONTENTS, READONLY, DEBUGGING, OCTETS
 19 .debug_aranges 00000c10  00000000  00000000  0002d3f8  2**3
                  CONTENTS, READONLY, DEBUGGING, OCTETS
 20 .debug_rnglists 00003129  00000000  00000000  0002e008  2**0
                  CONTENTS, READONLY, DEBUGGING, OCTETS
 21 .debug_line   00016a65  00000000  00000000  00031131  2**0
                  CONTENTS, READONLY, DEBUGGING, OCTETS
 22 .debug_str    00005b86  00000000  00000000  00047b96  2**0
                  CONTENTS, READONLY, DEBUGGING, OCTETS
 23 .debug_frame  00002048  00000000  00000000  0004d71c  2**2
                  CONTENTS, READONLY, DEBUGGING, OCTETS
 24 .debug_loclists 0001022f  00000000  00000000  0004f764  2**0
                  CONTENTS, READONLY, DEBUGGING, OCTETS
 25 .debug_line_str 000002d5  00000000  00000000  0005f993  2**0
                  CONTENTS, READONLY, DEBUGGING, OCTETS

C:/Users/assem.KEVINTHOMAS/OneDrive/Documents/Embedded-Hacking/drivers/0x09_dht11/build/0x09_dht11.elf:     file format elf32-littlearm


Disassembly of section .text:

10000000 <__VECTOR_TABLE>:
10000000:	20082000 	.word	0x20082000
10000004:	1000015d 	.word	0x1000015d
10000008:	1000011b 	.word	0x1000011b
1000000c:	1000011d 	.word	0x1000011d
10000010:	10000111 	.word	0x10000111
10000014:	10000111 	.word	0x10000111
10000018:	10000111 	.word	0x10000111
1000001c:	10000111 	.word	0x10000111
10000020:	10000119 	.word	0x10000119
10000024:	10000119 	.word	0x10000119
10000028:	10000119 	.word	0x10000119
1000002c:	1000011f 	.word	0x1000011f
10000030:	10000111 	.word	0x10000111
10000034:	10000119 	.word	0x10000119
10000038:	10000121 	.word	0x10000121
1000003c:	10000123 	.word	0x10000123
10000040:	10000111 	.word	0x10000111
10000044:	10000111 	.word	0x10000111
10000048:	10000111 	.word	0x10000111
1000004c:	10000111 	.word	0x10000111
10000050:	10000111 	.word	0x10000111
10000054:	10000111 	.word	0x10000111
10000058:	10000111 	.word	0x10000111
1000005c:	10000111 	.word	0x10000111
10000060:	10000111 	.word	0x10000111
10000064:	10000111 	.word	0x10000111
10000068:	10000111 	.word	0x10000111
1000006c:	10000111 	.word	0x10000111
10000070:	10000111 	.word	0x10000111
10000074:	10000111 	.word	0x10000111
10000078:	10000111 	.word	0x10000111
1000007c:	10000111 	.word	0x10000111
10000080:	10000111 	.word	0x10000111
10000084:	10000111 	.word	0x10000111
10000088:	10000111 	.word	0x10000111
1000008c:	10000111 	.word	0x10000111
10000090:	10000111 	.word	0x10000111
10000094:	10000111 	.word	0x10000111
10000098:	10000111 	.word	0x10000111
1000009c:	10000111 	.word	0x10000111
100000a0:	10000111 	.word	0x10000111
100000a4:	10000111 	.word	0x10000111
100000a8:	10000111 	.word	0x10000111
100000ac:	10000111 	.word	0x10000111
100000b0:	10000111 	.word	0x10000111
100000b4:	10000111 	.word	0x10000111
100000b8:	10000111 	.word	0x10000111
100000bc:	10000111 	.word	0x10000111
100000c0:	10000111 	.word	0x10000111
100000c4:	10000111 	.word	0x10000111
100000c8:	10000111 	.word	0x10000111
100000cc:	10000111 	.word	0x10000111
100000d0:	10000111 	.word	0x10000111
100000d4:	10000111 	.word	0x10000111
100000d8:	10000111 	.word	0x10000111
100000dc:	10000111 	.word	0x10000111
100000e0:	10000111 	.word	0x10000111
100000e4:	10000111 	.word	0x10000111
100000e8:	10000111 	.word	0x10000111
100000ec:	10000111 	.word	0x10000111
100000f0:	10000111 	.word	0x10000111
100000f4:	10000111 	.word	0x10000111
100000f8:	10000111 	.word	0x10000111
100000fc:	10000111 	.word	0x10000111
10000100:	10000111 	.word	0x10000111
10000104:	10000111 	.word	0x10000111
10000108:	10000111 	.word	0x10000111
1000010c:	10000111 	.word	0x10000111

10000110 <__unhandled_user_irq>:
10000110:	f3ef 8005 	mrs	r0, IPSR
10000114:	3810      	subs	r0, #16

10000116 <unhandled_user_irq_num_in_r0>:
10000116:	be00      	bkpt	0x0000

10000118 <isr_invalid>:
10000118:	be00      	bkpt	0x0000

1000011a <isr_nmi>:
1000011a:	be00      	bkpt	0x0000

1000011c <isr_hardfault>:
1000011c:	be00      	bkpt	0x0000

1000011e <isr_svcall>:
1000011e:	be00      	bkpt	0x0000

10000120 <isr_pendsv>:
10000120:	be00      	bkpt	0x0000

10000122 <isr_systick>:
10000122:	be00      	bkpt	0x0000

10000124 <__default_isrs_end>:
10000124:	7188ebf2 	.word	0x7188ebf2
10000128:	10003ad8 	.word	0x10003ad8
1000012c:	10003b04 	.word	0x10003b04
10000130:	100001a0 	.word	0x100001a0
10000134:	e71aa390 	.word	0xe71aa390

10000138 <__binary_info_header_end>:
10000138:	ffffded3 	.word	0xffffded3
1000013c:	10210142 	.word	0x10210142
10000140:	000001ff 	.word	0x000001ff
10000144:	00004260 	.word	0x00004260
10000148:	ab123579 	.word	0xab123579

1000014c <_entry_point>:
1000014c:	f04f 0000 	mov.w	r0, #0

10000150 <_enter_vtable_in_r0>:
10000150:	491e      	ldr	r1, [pc, #120]	@ (100001cc <data_cpy_table+0x2c>)
10000152:	6008      	str	r0, [r1, #0]
10000154:	c806      	ldmia	r0!, {r1, r2}
10000156:	f381 8808 	msr	MSP, r1
1000015a:	4710      	bx	r2

1000015c <_reset_handler>:
1000015c:	f04f 4050 	mov.w	r0, #3489660928	@ 0xd0000000
10000160:	6800      	ldr	r0, [r0, #0]
10000162:	b110      	cbz	r0, 1000016a <hold_non_core0_in_bootrom+0x6>

10000164 <hold_non_core0_in_bootrom>:
10000164:	f04f 0000 	mov.w	r0, #0
10000168:	e7f2      	b.n	10000150 <_enter_vtable_in_r0>
1000016a:	a40d      	add	r4, pc, #52	@ (adr r4, 100001a0 <data_cpy_table>)
1000016c:	cc0e      	ldmia	r4!, {r1, r2, r3}
1000016e:	2900      	cmp	r1, #0
10000170:	d002      	beq.n	10000178 <hold_non_core0_in_bootrom+0x14>
10000172:	f000 f812 	bl	1000019a <data_cpy>
10000176:	e7f9      	b.n	1000016c <hold_non_core0_in_bootrom+0x8>
10000178:	4915      	ldr	r1, [pc, #84]	@ (100001d0 <data_cpy_table+0x30>)
1000017a:	4a16      	ldr	r2, [pc, #88]	@ (100001d4 <data_cpy_table+0x34>)
1000017c:	2000      	movs	r0, #0
1000017e:	e000      	b.n	10000182 <bss_fill_test>

10000180 <bss_fill_loop>:
10000180:	c101      	stmia	r1!, {r0}

10000182 <bss_fill_test>:
10000182:	4291      	cmp	r1, r2
10000184:	d1fc      	bne.n	10000180 <bss_fill_loop>

10000186 <platform_entry>:
10000186:	4914      	ldr	r1, [pc, #80]	@ (100001d8 <data_cpy_table+0x38>)
10000188:	4788      	blx	r1
1000018a:	4914      	ldr	r1, [pc, #80]	@ (100001dc <data_cpy_table+0x3c>)
1000018c:	4788      	blx	r1
1000018e:	4914      	ldr	r1, [pc, #80]	@ (100001e0 <data_cpy_table+0x40>)
10000190:	4788      	blx	r1
10000192:	be00      	bkpt	0x0000
10000194:	e7fd      	b.n	10000192 <platform_entry+0xc>

10000196 <data_cpy_loop>:
10000196:	c901      	ldmia	r1!, {r0}
10000198:	c201      	stmia	r2!, {r0}

1000019a <data_cpy>:
1000019a:	429a      	cmp	r2, r3
1000019c:	d3fb      	bcc.n	10000196 <data_cpy_loop>
1000019e:	4770      	bx	lr

100001a0 <data_cpy_table>:
100001a0:	10003b04 	.word	0x10003b04
100001a4:	20000110 	.word	0x20000110
100001a8:	200009a4 	.word	0x200009a4
100001ac:	10004398 	.word	0x10004398
100001b0:	20080000 	.word	0x20080000
100001b4:	20080000 	.word	0x20080000
100001b8:	10004398 	.word	0x10004398
100001bc:	20081000 	.word	0x20081000
100001c0:	20081000 	.word	0x20081000
100001c4:	00000000 	.word	0x00000000
100001c8:	4770      	bx	lr
100001ca:	0000      	.short	0x0000
100001cc:	e000ed08 	.word	0xe000ed08
100001d0:	200009a4 	.word	0x200009a4
100001d4:	20000bd4 	.word	0x20000bd4
100001d8:	1000310d 	.word	0x1000310d
100001dc:	10000235 	.word	0x10000235
100001e0:	10003105 	.word	0x10003105

100001e4 <_init>:
100001e4:	b5f8      	push	{r3, r4, r5, r6, r7, lr}
100001e6:	bf00      	nop

100001e8 <register_tm_clones>:
100001e8:	4b06      	ldr	r3, [pc, #24]	@ (10000204 <register_tm_clones+0x1c>)
100001ea:	4907      	ldr	r1, [pc, #28]	@ (10000208 <register_tm_clones+0x20>)
100001ec:	1ac9      	subs	r1, r1, r3
100001ee:	1089      	asrs	r1, r1, #2
100001f0:	bf48      	it	mi
100001f2:	3101      	addmi	r1, #1
100001f4:	1049      	asrs	r1, r1, #1
100001f6:	d003      	beq.n	10000200 <register_tm_clones+0x18>
100001f8:	4b04      	ldr	r3, [pc, #16]	@ (1000020c <register_tm_clones+0x24>)
100001fa:	b10b      	cbz	r3, 10000200 <register_tm_clones+0x18>
100001fc:	4801      	ldr	r0, [pc, #4]	@ (10000204 <register_tm_clones+0x1c>)
100001fe:	4718      	bx	r3
10000200:	4770      	bx	lr
10000202:	bf00      	nop
10000204:	200009a4 	.word	0x200009a4
10000208:	200009a4 	.word	0x200009a4
1000020c:	00000000 	.word	0x00000000

10000210 <frame_dummy>:
10000210:	b508      	push	{r3, lr}
10000212:	4b05      	ldr	r3, [pc, #20]	@ (10000228 <frame_dummy+0x18>)
10000214:	b11b      	cbz	r3, 1000021e <frame_dummy+0xe>
10000216:	4905      	ldr	r1, [pc, #20]	@ (1000022c <frame_dummy+0x1c>)
10000218:	4805      	ldr	r0, [pc, #20]	@ (10000230 <frame_dummy+0x20>)
1000021a:	f3af 8000 	nop.w
1000021e:	e8bd 4008 	ldmia.w	sp!, {r3, lr}
10000222:	f7ff bfe1 	b.w	100001e8 <register_tm_clones>
10000226:	bf00      	nop
10000228:	00000000 	.word	0x00000000
1000022c:	20000b8c 	.word	0x20000b8c
10000230:	100038ac 	.word	0x100038ac

10000234 <main>:
10000234:	b580      	push	{r7, lr}
10000236:	b084      	sub	sp, #16
10000238:	f003 f890 	bl	1000335c <stdio_init_all>
1000023c:	2004      	movs	r0, #4
1000023e:	f000 f82d 	bl	1000029c <dht11_init>
10000242:	2104      	movs	r1, #4
10000244:	4812      	ldr	r0, [pc, #72]	@ (10000290 <main+0x5c>)
10000246:	f003 f951 	bl	100034ec <__wrap_printf>
1000024a:	2400      	movs	r4, #0
1000024c:	e012      	b.n	10000274 <main+0x40>
1000024e:	9802      	ldr	r0, [sp, #8]
10000250:	f003 fafa 	bl	10003848 <____aeabi_f2d_veneer>
10000254:	4606      	mov	r6, r0
10000256:	9803      	ldr	r0, [sp, #12]
10000258:	460f      	mov	r7, r1
1000025a:	f003 faf5 	bl	10003848 <____aeabi_f2d_veneer>
1000025e:	4632      	mov	r2, r6
10000260:	e9cd 0100 	strd	r0, r1, [sp]
10000264:	463b      	mov	r3, r7
10000266:	480b      	ldr	r0, [pc, #44]	@ (10000294 <main+0x60>)
10000268:	f003 f940 	bl	100034ec <__wrap_printf>
1000026c:	f44f 60fa 	mov.w	r0, #2000	@ 0x7d0
10000270:	f000 fe96 	bl	10000fa0 <sleep_ms>
10000274:	a903      	add	r1, sp, #12
10000276:	a802      	add	r0, sp, #8
10000278:	9402      	str	r4, [sp, #8]
1000027a:	9403      	str	r4, [sp, #12]
1000027c:	f000 f81e 	bl	100002bc <dht11_read>
10000280:	2800      	cmp	r0, #0
10000282:	d1e4      	bne.n	1000024e <main+0x1a>
10000284:	2104      	movs	r1, #4
10000286:	4804      	ldr	r0, [pc, #16]	@ (10000298 <main+0x64>)
10000288:	f003 f930 	bl	100034ec <__wrap_printf>
1000028c:	e7ee      	b.n	1000026c <main+0x38>
1000028e:	bf00      	nop
10000290:	100038b0 	.word	0x100038b0
10000294:	100038d8 	.word	0x100038d8
10000298:	10003900 	.word	0x10003900

1000029c <dht11_init>:
1000029c:	b510      	push	{r4, lr}
1000029e:	4604      	mov	r4, r0
100002a0:	4b05      	ldr	r3, [pc, #20]	@ (100002b8 <dht11_init+0x1c>)
100002a2:	6018      	str	r0, [r3, #0]
100002a4:	f000 f8e2 	bl	1000046c <gpio_init>
100002a8:	4620      	mov	r0, r4
100002aa:	e8bd 4010 	ldmia.w	sp!, {r4, lr}
100002ae:	2200      	movs	r2, #0
100002b0:	2101      	movs	r1, #1
100002b2:	f000 b8c7 	b.w	10000444 <gpio_set_pulls>
100002b6:	bf00      	nop
100002b8:	20000b7c 	.word	0x20000b7c

100002bc <dht11_read>:
100002bc:	e92d 4ff0 	stmdb	sp!, {r4, r5, r6, r7, r8, r9, sl, fp, lr}
100002c0:	2700      	movs	r7, #0
100002c2:	f8df 8140 	ldr.w	r8, [pc, #320]	@ 10000404 <dht11_read+0x148>
100002c6:	b083      	sub	sp, #12
100002c8:	466e      	mov	r6, sp
100002ca:	f04f 0901 	mov.w	r9, #1
100002ce:	4605      	mov	r5, r0
100002d0:	468b      	mov	fp, r1
100002d2:	f8d8 2000 	ldr.w	r2, [r8]
100002d6:	9700      	str	r7, [sp, #0]
100002d8:	f88d 7004 	strb.w	r7, [sp, #4]
100002dc:	ec49 2044 	gpioc_bit_oe_put r2, r9
100002e0:	ec47 2040 	gpioc_bit_out_put r2, r7
100002e4:	2012      	movs	r0, #18
100002e6:	f000 fe5b 	bl	10000fa0 <sleep_ms>
100002ea:	f8d8 3000 	ldr.w	r3, [r8]
100002ee:	ec49 3040 	gpioc_bit_out_put r3, r9
100002f2:	2028      	movs	r0, #40	@ 0x28
100002f4:	2100      	movs	r1, #0
100002f6:	f000 fde7 	bl	10000ec8 <sleep_us>
100002fa:	f8d8 3000 	ldr.w	r3, [r8]
100002fe:	ec47 3044 	gpioc_bit_oe_put r3, r7
10000302:	f04f 4150 	mov.w	r1, #3489660928	@ 0xd0000000
10000306:	fa09 fc03 	lsl.w	ip, r9, r3
1000030a:	f242 7310 	movw	r3, #10000	@ 0x2710
1000030e:	e001      	b.n	10000314 <dht11_read+0x58>
10000310:	3b01      	subs	r3, #1
10000312:	d06e      	beq.n	100003f2 <dht11_read+0x136>
10000314:	684a      	ldr	r2, [r1, #4]
10000316:	ea12 0f0c 	tst.w	r2, ip
1000031a:	d1f9      	bne.n	10000310 <dht11_read+0x54>
1000031c:	f242 7310 	movw	r3, #10000	@ 0x2710
10000320:	f04f 4150 	mov.w	r1, #3489660928	@ 0xd0000000
10000324:	e001      	b.n	1000032a <dht11_read+0x6e>
10000326:	3b01      	subs	r3, #1
10000328:	d063      	beq.n	100003f2 <dht11_read+0x136>
1000032a:	684a      	ldr	r2, [r1, #4]
1000032c:	ea1c 0f02 	tst.w	ip, r2
10000330:	d0f9      	beq.n	10000326 <dht11_read+0x6a>
10000332:	f242 7310 	movw	r3, #10000	@ 0x2710
10000336:	f04f 4250 	mov.w	r2, #3489660928	@ 0xd0000000
1000033a:	e001      	b.n	10000340 <dht11_read+0x84>
1000033c:	3b01      	subs	r3, #1
1000033e:	d058      	beq.n	100003f2 <dht11_read+0x136>
10000340:	6851      	ldr	r1, [r2, #4]
10000342:	ea1c 0101 	ands.w	r1, ip, r1
10000346:	d1f9      	bne.n	1000033c <dht11_read+0x80>
10000348:	f04f 4e50 	mov.w	lr, #3489660928	@ 0xd0000000
1000034c:	482b      	ldr	r0, [pc, #172]	@ (100003fc <dht11_read+0x140>)
1000034e:	f242 7310 	movw	r3, #10000	@ 0x2710
10000352:	e001      	b.n	10000358 <dht11_read+0x9c>
10000354:	3b01      	subs	r3, #1
10000356:	d04c      	beq.n	100003f2 <dht11_read+0x136>
10000358:	f8de 2004 	ldr.w	r2, [lr, #4]
1000035c:	ea1c 0f02 	tst.w	ip, r2
10000360:	d0f8      	beq.n	10000354 <dht11_read+0x98>
10000362:	f242 7310 	movw	r3, #10000	@ 0x2710
10000366:	6a84      	ldr	r4, [r0, #40]	@ 0x28
10000368:	e001      	b.n	1000036e <dht11_read+0xb2>
1000036a:	3b01      	subs	r3, #1
1000036c:	d041      	beq.n	100003f2 <dht11_read+0x136>
1000036e:	f8de 2004 	ldr.w	r2, [lr, #4]
10000372:	ea1c 0f02 	tst.w	ip, r2
10000376:	d1f8      	bne.n	1000036a <dht11_read+0xae>
10000378:	10ca      	asrs	r2, r1, #3
1000037a:	6a87      	ldr	r7, [r0, #40]	@ 0x28
1000037c:	5cb3      	ldrb	r3, [r6, r2]
1000037e:	1b3f      	subs	r7, r7, r4
10000380:	005b      	lsls	r3, r3, #1
10000382:	b2db      	uxtb	r3, r3
10000384:	2f28      	cmp	r7, #40	@ 0x28
10000386:	f101 0101 	add.w	r1, r1, #1
1000038a:	bf88      	it	hi
1000038c:	f043 0301 	orrhi.w	r3, r3, #1
10000390:	2928      	cmp	r1, #40	@ 0x28
10000392:	54b3      	strb	r3, [r6, r2]
10000394:	d1db      	bne.n	1000034e <dht11_read+0x92>
10000396:	f89d 1000 	ldrb.w	r1, [sp]
1000039a:	f89d 6001 	ldrb.w	r6, [sp, #1]
1000039e:	f89d 2002 	ldrb.w	r2, [sp, #2]
100003a2:	f89d 0003 	ldrb.w	r0, [sp, #3]
100003a6:	198b      	adds	r3, r1, r6
100003a8:	4413      	add	r3, r2
100003aa:	f89d 7004 	ldrb.w	r7, [sp, #4]
100003ae:	4403      	add	r3, r0
100003b0:	b2db      	uxtb	r3, r3
100003b2:	429f      	cmp	r7, r3
100003b4:	d11d      	bne.n	100003f2 <dht11_read+0x136>
100003b6:	ee07 6a90 	vmov	s15, r6
100003ba:	eeb8 6ae7 	vcvt.f32.s32	s12, s15
100003be:	ee07 1a90 	vmov	s15, r1
100003c2:	eeb8 7ae7 	vcvt.f32.s32	s14, s15
100003c6:	ee07 0a90 	vmov	s15, r0
100003ca:	eef8 6ae7 	vcvt.f32.s32	s13, s15
100003ce:	ee07 2a90 	vmov	s15, r2
100003d2:	eddf 5a0b 	vldr	s11, [pc, #44]	@ 10000400 <dht11_read+0x144>
100003d6:	eef8 7ae7 	vcvt.f32.s32	s15, s15
100003da:	2001      	movs	r0, #1
100003dc:	eea6 7a25 	vfma.f32	s14, s12, s11
100003e0:	eee6 7aa5 	vfma.f32	s15, s13, s11
100003e4:	ed85 7a00 	vstr	s14, [r5]
100003e8:	edcb 7a00 	vstr	s15, [fp]
100003ec:	b003      	add	sp, #12
100003ee:	e8bd 8ff0 	ldmia.w	sp!, {r4, r5, r6, r7, r8, r9, sl, fp, pc}
100003f2:	2000      	movs	r0, #0
100003f4:	b003      	add	sp, #12
100003f6:	e8bd 8ff0 	ldmia.w	sp!, {r4, r5, r6, r7, r8, r9, sl, fp, pc}
100003fa:	bf00      	nop
100003fc:	400b0000 	.word	0x400b0000
10000400:	3dcccccd 	.word	0x3dcccccd
10000404:	20000b7c 	.word	0x20000b7c

10000408 <gpio_set_function>:
10000408:	b410      	push	{r4}
1000040a:	f44f 7480 	mov.w	r4, #256	@ 0x100
1000040e:	4b0c      	ldr	r3, [pc, #48]	@ (10000440 <gpio_set_function+0x38>)
10000410:	f853 2020 	ldr.w	r2, [r3, r0, lsl #2]
10000414:	eb03 0380 	add.w	r3, r3, r0, lsl #2
10000418:	00c0      	lsls	r0, r0, #3
1000041a:	f082 0240 	eor.w	r2, r2, #64	@ 0x40
1000041e:	f100 4080 	add.w	r0, r0, #1073741824	@ 0x40000000
10000422:	f503 5c80 	add.w	ip, r3, #4096	@ 0x1000
10000426:	f002 02c0 	and.w	r2, r2, #192	@ 0xc0
1000042a:	f500 3020 	add.w	r0, r0, #163840	@ 0x28000
1000042e:	f503 5340 	add.w	r3, r3, #12288	@ 0x3000
10000432:	f8cc 2000 	str.w	r2, [ip]
10000436:	6041      	str	r1, [r0, #4]
10000438:	601c      	str	r4, [r3, #0]
1000043a:	f85d 4b04 	ldr.w	r4, [sp], #4
1000043e:	4770      	bx	lr
10000440:	40038004 	.word	0x40038004

10000444 <gpio_set_pulls>:
10000444:	b410      	push	{r4}
10000446:	4c08      	ldr	r4, [pc, #32]	@ (10000468 <gpio_set_pulls+0x24>)
10000448:	00c9      	lsls	r1, r1, #3
1000044a:	ea41 0182 	orr.w	r1, r1, r2, lsl #2
1000044e:	f854 2020 	ldr.w	r2, [r4, r0, lsl #2]
10000452:	eb04 0380 	add.w	r3, r4, r0, lsl #2
10000456:	4051      	eors	r1, r2
10000458:	f503 5380 	add.w	r3, r3, #4096	@ 0x1000
1000045c:	f001 010c 	and.w	r1, r1, #12
10000460:	f85d 4b04 	ldr.w	r4, [sp], #4
10000464:	6019      	str	r1, [r3, #0]
10000466:	4770      	bx	lr
10000468:	40038004 	.word	0x40038004

1000046c <gpio_init>:
1000046c:	b430      	push	{r4, r5}
1000046e:	f04f 0300 	mov.w	r3, #0
10000472:	ec43 0044 	gpioc_bit_oe_put r0, r3
10000476:	ec43 0040 	gpioc_bit_out_put r0, r3
1000047a:	2505      	movs	r5, #5
1000047c:	f44f 7480 	mov.w	r4, #256	@ 0x100
10000480:	4b0b      	ldr	r3, [pc, #44]	@ (100004b0 <gpio_init+0x44>)
10000482:	00c2      	lsls	r2, r0, #3
10000484:	f853 1020 	ldr.w	r1, [r3, r0, lsl #2]
10000488:	eb03 0080 	add.w	r0, r3, r0, lsl #2
1000048c:	f081 0140 	eor.w	r1, r1, #64	@ 0x40
10000490:	f102 4380 	add.w	r3, r2, #1073741824	@ 0x40000000
10000494:	f503 3320 	add.w	r3, r3, #163840	@ 0x28000
10000498:	f001 02c0 	and.w	r2, r1, #192	@ 0xc0
1000049c:	f500 5180 	add.w	r1, r0, #4096	@ 0x1000
100004a0:	f500 5040 	add.w	r0, r0, #12288	@ 0x3000
100004a4:	600a      	str	r2, [r1, #0]
100004a6:	605d      	str	r5, [r3, #4]
100004a8:	6004      	str	r4, [r0, #0]
100004aa:	bc30      	pop	{r4, r5}
100004ac:	4770      	bx	lr
100004ae:	bf00      	nop
100004b0:	40038004 	.word	0x40038004

100004b4 <panic>:
100004b4:	b40f      	push	{r0, r1, r2, r3}
100004b6:	b500      	push	{lr}
100004b8:	b083      	sub	sp, #12
100004ba:	9c04      	ldr	r4, [sp, #16]
100004bc:	4807      	ldr	r0, [pc, #28]	@ (100004dc <panic+0x28>)
100004be:	f002 ff95 	bl	100033ec <__wrap_puts>
100004c2:	b13c      	cbz	r4, 100004d4 <panic+0x20>
100004c4:	a905      	add	r1, sp, #20
100004c6:	4620      	mov	r0, r4
100004c8:	9101      	str	r1, [sp, #4]
100004ca:	f002 fe01 	bl	100030d0 <weak_raw_vprintf>
100004ce:	4804      	ldr	r0, [pc, #16]	@ (100004e0 <panic+0x2c>)
100004d0:	f002 ff8c 	bl	100033ec <__wrap_puts>
100004d4:	2001      	movs	r0, #1
100004d6:	f002 fe13 	bl	10003100 <_exit>
100004da:	bf00      	nop
100004dc:	10003930 	.word	0x10003930
100004e0:	10003940 	.word	0x10003940

100004e4 <hw_claim_or_assert>:
100004e4:	b570      	push	{r4, r5, r6, lr}
100004e6:	4686      	mov	lr, r0
100004e8:	f3ef 8510 	mrs	r5, PRIMASK
100004ec:	b672      	cpsid	i
100004ee:	4c12      	ldr	r4, [pc, #72]	@ (10000538 <hw_claim_or_assert+0x54>)
100004f0:	e8d4 6fcf 	ldaexb	r6, [r4]
100004f4:	2001      	movs	r0, #1
100004f6:	2e00      	cmp	r6, #0
100004f8:	d1fa      	bne.n	100004f0 <hw_claim_or_assert+0xc>
100004fa:	e8c4 0f46 	strexb	r6, r0, [r4]
100004fe:	2e00      	cmp	r6, #0
10000500:	d1f6      	bne.n	100004f0 <hw_claim_or_assert+0xc>
10000502:	f3bf 8f5f 	dmb	sy
10000506:	f04f 0c01 	mov.w	ip, #1
1000050a:	08c8      	lsrs	r0, r1, #3
1000050c:	f001 0307 	and.w	r3, r1, #7
10000510:	fa0c f303 	lsl.w	r3, ip, r3
10000514:	f81e c000 	ldrb.w	ip, [lr, r0]
10000518:	ea1c 0603 	ands.w	r6, ip, r3
1000051c:	d108      	bne.n	10000530 <hw_claim_or_assert+0x4c>
1000051e:	ea4c 0c03 	orr.w	ip, ip, r3
10000522:	f80e c000 	strb.w	ip, [lr, r0]
10000526:	e8c4 6f8f 	stlb	r6, [r4]
1000052a:	f385 8810 	msr	PRIMASK, r5
1000052e:	bd70      	pop	{r4, r5, r6, pc}
10000530:	4610      	mov	r0, r2
10000532:	f7ff ffbf 	bl	100004b4 <panic>
10000536:	bf00      	nop
10000538:	20000b33 	.word	0x20000b33

1000053c <next_striped_spin_lock_num>:
1000053c:	4a04      	ldr	r2, [pc, #16]	@ (10000550 <next_striped_spin_lock_num+0x14>)
1000053e:	7810      	ldrb	r0, [r2, #0]
10000540:	1c43      	adds	r3, r0, #1
10000542:	b2db      	uxtb	r3, r3
10000544:	2b18      	cmp	r3, #24
10000546:	bf28      	it	cs
10000548:	2310      	movcs	r3, #16
1000054a:	7013      	strb	r3, [r2, #0]
1000054c:	4770      	bx	lr
1000054e:	bf00      	nop
10000550:	20000920 	.word	0x20000920

10000554 <spinlock_set_extexclall>:
10000554:	f04f 22e0 	mov.w	r2, #3758153728	@ 0xe000e000
10000558:	6893      	ldr	r3, [r2, #8]
1000055a:	f043 5300 	orr.w	r3, r3, #536870912	@ 0x20000000
1000055e:	6093      	str	r3, [r2, #8]
10000560:	4770      	bx	lr
10000562:	bf00      	nop

10000564 <spin_locks_reset>:
10000564:	2100      	movs	r1, #0
10000566:	4b04      	ldr	r3, [pc, #16]	@ (10000578 <spin_locks_reset+0x14>)
10000568:	f103 0220 	add.w	r2, r3, #32
1000056c:	e8c3 1f8f 	stlb	r1, [r3]
10000570:	3301      	adds	r3, #1
10000572:	4293      	cmp	r3, r2
10000574:	d1fa      	bne.n	1000056c <spin_locks_reset+0x8>
10000576:	4770      	bx	lr
10000578:	20000b28 	.word	0x20000b28

1000057c <runtime_init_per_core_irq_priorities>:
1000057c:	f04f 23e0 	mov.w	r3, #3758153728	@ 0xe000e000
10000580:	f04f 3280 	mov.w	r2, #2155905152	@ 0x80808080
10000584:	f8c3 2400 	str.w	r2, [r3, #1024]	@ 0x400
10000588:	f8c3 2404 	str.w	r2, [r3, #1028]	@ 0x404
1000058c:	f8c3 2408 	str.w	r2, [r3, #1032]	@ 0x408
10000590:	f8c3 240c 	str.w	r2, [r3, #1036]	@ 0x40c
10000594:	f8c3 2410 	str.w	r2, [r3, #1040]	@ 0x410
10000598:	f8c3 2414 	str.w	r2, [r3, #1044]	@ 0x414
1000059c:	f8c3 2418 	str.w	r2, [r3, #1048]	@ 0x418
100005a0:	f8c3 241c 	str.w	r2, [r3, #1052]	@ 0x41c
100005a4:	f8c3 2420 	str.w	r2, [r3, #1056]	@ 0x420
100005a8:	f8c3 2424 	str.w	r2, [r3, #1060]	@ 0x424
100005ac:	f8c3 2428 	str.w	r2, [r3, #1064]	@ 0x428
100005b0:	f8c3 242c 	str.w	r2, [r3, #1068]	@ 0x42c
100005b4:	f8c3 2430 	str.w	r2, [r3, #1072]	@ 0x430
100005b8:	b662      	cpsie	i
100005ba:	4770      	bx	lr

100005bc <irq_set_enabled>:
100005bc:	2301      	movs	r3, #1
100005be:	f000 021f 	and.w	r2, r0, #31
100005c2:	4093      	lsls	r3, r2
100005c4:	0940      	lsrs	r0, r0, #5
100005c6:	b141      	cbz	r1, 100005da <irq_set_enabled+0x1e>
100005c8:	0080      	lsls	r0, r0, #2
100005ca:	f100 4060 	add.w	r0, r0, #3758096384	@ 0xe0000000
100005ce:	f500 4061 	add.w	r0, r0, #57600	@ 0xe100
100005d2:	f8c0 3180 	str.w	r3, [r0, #384]	@ 0x180
100005d6:	6003      	str	r3, [r0, #0]
100005d8:	4770      	bx	lr
100005da:	4a02      	ldr	r2, [pc, #8]	@ (100005e4 <irq_set_enabled+0x28>)
100005dc:	3020      	adds	r0, #32
100005de:	f842 3020 	str.w	r3, [r2, r0, lsl #2]
100005e2:	4770      	bx	lr
100005e4:	e000e100 	.word	0xe000e100

100005e8 <irq_set_exclusive_handler>:
100005e8:	b5f8      	push	{r3, r4, r5, r6, r7, lr}
100005ea:	460d      	mov	r5, r1
100005ec:	f3ef 8710 	mrs	r7, PRIMASK
100005f0:	b672      	cpsid	i
100005f2:	4e12      	ldr	r6, [pc, #72]	@ (1000063c <irq_set_exclusive_handler+0x54>)
100005f4:	e8d6 2fcf 	ldaexb	r2, [r6]
100005f8:	2301      	movs	r3, #1
100005fa:	2a00      	cmp	r2, #0
100005fc:	d1fa      	bne.n	100005f4 <irq_set_exclusive_handler+0xc>
100005fe:	e8c6 3f42 	strexb	r2, r3, [r6]
10000602:	2a00      	cmp	r2, #0
10000604:	d1f6      	bne.n	100005f4 <irq_set_exclusive_handler+0xc>
10000606:	f3bf 8f5f 	dmb	sy
1000060a:	4b0d      	ldr	r3, [pc, #52]	@ (10000640 <irq_set_exclusive_handler+0x58>)
1000060c:	f100 0410 	add.w	r4, r0, #16
10000610:	689b      	ldr	r3, [r3, #8]
10000612:	4a0c      	ldr	r2, [pc, #48]	@ (10000644 <irq_set_exclusive_handler+0x5c>)
10000614:	f853 3024 	ldr.w	r3, [r3, r4, lsl #2]
10000618:	4293      	cmp	r3, r2
1000061a:	d003      	beq.n	10000624 <irq_set_exclusive_handler+0x3c>
1000061c:	4299      	cmp	r1, r3
1000061e:	d001      	beq.n	10000624 <irq_set_exclusive_handler+0x3c>
10000620:	f000 ff7a 	bl	10001518 <hard_assertion_failure>
10000624:	4b06      	ldr	r3, [pc, #24]	@ (10000640 <irq_set_exclusive_handler+0x58>)
10000626:	689b      	ldr	r3, [r3, #8]
10000628:	f843 5024 	str.w	r5, [r3, r4, lsl #2]
1000062c:	f3bf 8f5f 	dmb	sy
10000630:	2300      	movs	r3, #0
10000632:	e8c6 3f8f 	stlb	r3, [r6]
10000636:	f387 8810 	msr	PRIMASK, r7
1000063a:	bdf8      	pop	{r3, r4, r5, r6, r7, pc}
1000063c:	20000b31 	.word	0x20000b31
10000640:	e000ed00 	.word	0xe000ed00
10000644:	10000111 	.word	0x10000111

10000648 <irq_remove_handler>:
10000648:	e92d 4ff0 	stmdb	sp!, {r4, r5, r6, r7, r8, r9, sl, fp, lr}
1000064c:	b083      	sub	sp, #12
1000064e:	f3ef 8a10 	mrs	sl, PRIMASK
10000652:	b672      	cpsid	i
10000654:	4e71      	ldr	r6, [pc, #452]	@ (1000081c <irq_remove_handler+0x1d4>)
10000656:	e8d6 2fcf 	ldaexb	r2, [r6]
1000065a:	2301      	movs	r3, #1
1000065c:	2a00      	cmp	r2, #0
1000065e:	d1fa      	bne.n	10000656 <irq_remove_handler+0xe>
10000660:	e8c6 3f42 	strexb	r2, r3, [r6]
10000664:	2a00      	cmp	r2, #0
10000666:	d1f6      	bne.n	10000656 <irq_remove_handler+0xe>
10000668:	f3bf 8f5f 	dmb	sy
1000066c:	4b6c      	ldr	r3, [pc, #432]	@ (10000820 <irq_remove_handler+0x1d8>)
1000066e:	f100 0810 	add.w	r8, r0, #16
10000672:	689b      	ldr	r3, [r3, #8]
10000674:	4a6b      	ldr	r2, [pc, #428]	@ (10000824 <irq_remove_handler+0x1dc>)
10000676:	f853 5028 	ldr.w	r5, [r3, r8, lsl #2]
1000067a:	4295      	cmp	r5, r2
1000067c:	d045      	beq.n	1000070a <irq_remove_handler+0xc2>
1000067e:	428d      	cmp	r5, r1
10000680:	460c      	mov	r4, r1
10000682:	d050      	beq.n	10000726 <irq_remove_handler+0xde>
10000684:	4f68      	ldr	r7, [pc, #416]	@ (10000828 <irq_remove_handler+0x1e0>)
10000686:	1beb      	subs	r3, r5, r7
10000688:	2b2f      	cmp	r3, #47	@ 0x2f
1000068a:	d83e      	bhi.n	1000070a <irq_remove_handler+0xc2>
1000068c:	2101      	movs	r1, #1
1000068e:	ea4f 1950 	mov.w	r9, r0, lsr #5
10000692:	ea4f 0989 	mov.w	r9, r9, lsl #2
10000696:	f109 4960 	add.w	r9, r9, #3758096384	@ 0xe0000000
1000069a:	f509 4961 	add.w	r9, r9, #57600	@ 0xe100
1000069e:	f000 031f 	and.w	r3, r0, #31
100006a2:	fa01 f003 	lsl.w	r0, r1, r3
100006a6:	f8d9 3000 	ldr.w	r3, [r9]
100006aa:	f8c9 0080 	str.w	r0, [r9, #128]	@ 0x80
100006ae:	ea00 0b03 	and.w	fp, r0, r3
100006b2:	f3bf 8f5f 	dmb	sy
100006b6:	f3ef 8105 	mrs	r1, IPSR
100006ba:	b2c9      	uxtb	r1, r1
100006bc:	2900      	cmp	r1, #0
100006be:	d034      	beq.n	1000072a <irq_remove_handler+0xe2>
100006c0:	4588      	cmp	r8, r1
100006c2:	d005      	beq.n	100006d0 <irq_remove_handler+0x88>
100006c4:	e9cd 1000 	strd	r1, r0, [sp]
100006c8:	f000 ff26 	bl	10001518 <hard_assertion_failure>
100006cc:	e9dd 1000 	ldrd	r1, r0, [sp]
100006d0:	f025 0e01 	bic.w	lr, r5, #1
100006d4:	f8de c008 	ldr.w	ip, [lr, #8]
100006d8:	4564      	cmp	r4, ip
100006da:	d105      	bne.n	100006e8 <irq_remove_handler+0xa0>
100006dc:	e089      	b.n	100007f2 <irq_remove_handler+0x1aa>
100006de:	f8d3 c008 	ldr.w	ip, [r3, #8]
100006e2:	4564      	cmp	r4, ip
100006e4:	d031      	beq.n	1000074a <irq_remove_handler+0x102>
100006e6:	469e      	mov	lr, r3
100006e8:	f99e 2006 	ldrsb.w	r2, [lr, #6]
100006ec:	eb02 0342 	add.w	r3, r2, r2, lsl #1
100006f0:	2a00      	cmp	r2, #0
100006f2:	eb07 0383 	add.w	r3, r7, r3, lsl #2
100006f6:	daf2      	bge.n	100006de <irq_remove_handler+0x96>
100006f8:	4564      	cmp	r4, ip
100006fa:	d061      	beq.n	100007c0 <irq_remove_handler+0x178>
100006fc:	f1bb 0f00 	cmp.w	fp, #0
10000700:	d020      	beq.n	10000744 <irq_remove_handler+0xfc>
10000702:	f8c9 0180 	str.w	r0, [r9, #384]	@ 0x180
10000706:	f8c9 0000 	str.w	r0, [r9]
1000070a:	4b45      	ldr	r3, [pc, #276]	@ (10000820 <irq_remove_handler+0x1d8>)
1000070c:	689b      	ldr	r3, [r3, #8]
1000070e:	f843 5028 	str.w	r5, [r3, r8, lsl #2]
10000712:	f3bf 8f5f 	dmb	sy
10000716:	2300      	movs	r3, #0
10000718:	e8c6 3f8f 	stlb	r3, [r6]
1000071c:	f38a 8810 	msr	PRIMASK, sl
10000720:	b003      	add	sp, #12
10000722:	e8bd 8ff0 	ldmia.w	sp!, {r4, r5, r6, r7, r8, r9, sl, fp, pc}
10000726:	4615      	mov	r5, r2
10000728:	e7ef      	b.n	1000070a <irq_remove_handler+0xc2>
1000072a:	f025 0e01 	bic.w	lr, r5, #1
1000072e:	f8de c008 	ldr.w	ip, [lr, #8]
10000732:	4564      	cmp	r4, ip
10000734:	d1d8      	bne.n	100006e8 <irq_remove_handler+0xa0>
10000736:	f99e 4006 	ldrsb.w	r4, [lr, #6]
1000073a:	4673      	mov	r3, lr
1000073c:	2c00      	cmp	r4, #0
1000073e:	da08      	bge.n	10000752 <irq_remove_handler+0x10a>
10000740:	4615      	mov	r5, r2
10000742:	e046      	b.n	100007d2 <irq_remove_handler+0x18a>
10000744:	f8c9 0080 	str.w	r0, [r9, #128]	@ 0x80
10000748:	e7df      	b.n	1000070a <irq_remove_handler+0xc2>
1000074a:	f993 4006 	ldrsb.w	r4, [r3, #6]
1000074e:	2c00      	cmp	r4, #0
10000750:	db37      	blt.n	100007c2 <irq_remove_handler+0x17a>
10000752:	eb04 0c44 	add.w	ip, r4, r4, lsl #1
10000756:	eb07 0c8c 	add.w	ip, r7, ip, lsl #2
1000075a:	f89c 1007 	ldrb.w	r1, [ip, #7]
1000075e:	f8dc 2008 	ldr.w	r2, [ip, #8]
10000762:	71d9      	strb	r1, [r3, #7]
10000764:	609a      	str	r2, [r3, #8]
10000766:	f99c 2006 	ldrsb.w	r2, [ip, #6]
1000076a:	0061      	lsls	r1, r4, #1
1000076c:	2a00      	cmp	r2, #0
1000076e:	719a      	strb	r2, [r3, #6]
10000770:	db3d      	blt.n	100007ee <irq_remove_handler+0x1a6>
10000772:	f8bc e004 	ldrh.w	lr, [ip, #4]
10000776:	ea5f 5e4e 	movs.w	lr, lr, lsl #21
1000077a:	d505      	bpl.n	10000788 <irq_remove_handler+0x140>
1000077c:	f50e 1eff 	add.w	lr, lr, #2088960	@ 0x1fe000
10000780:	f50e 5eff 	add.w	lr, lr, #8160	@ 0x1fe0
10000784:	f10e 0e1f 	add.w	lr, lr, #31
10000788:	f06f 0c07 	mvn.w	ip, #7
1000078c:	190a      	adds	r2, r1, r4
1000078e:	ea4f 5e6e 	mov.w	lr, lr, asr #21
10000792:	0092      	lsls	r2, r2, #2
10000794:	eb02 024e 	add.w	r2, r2, lr, lsl #1
10000798:	3208      	adds	r2, #8
1000079a:	443a      	add	r2, r7
1000079c:	ebac 0c03 	sub.w	ip, ip, r3
100007a0:	4462      	add	r2, ip
100007a2:	f3c2 024a 	ubfx	r2, r2, #1, #11
100007a6:	ea6f 42c2 	mvn.w	r2, r2, lsl #19
100007aa:	ea6f 42d2 	mvn.w	r2, r2, lsr #19
100007ae:	809a      	strh	r2, [r3, #4]
100007b0:	4b1e      	ldr	r3, [pc, #120]	@ (1000082c <irq_remove_handler+0x1e4>)
100007b2:	4421      	add	r1, r4
100007b4:	781a      	ldrb	r2, [r3, #0]
100007b6:	eb07 0181 	add.w	r1, r7, r1, lsl #2
100007ba:	701c      	strb	r4, [r3, #0]
100007bc:	718a      	strb	r2, [r1, #6]
100007be:	e79d      	b.n	100006fc <irq_remove_handler+0xb4>
100007c0:	4673      	mov	r3, lr
100007c2:	b9d9      	cbnz	r1, 100007fc <irq_remove_handler+0x1b4>
100007c4:	22ff      	movs	r2, #255	@ 0xff
100007c6:	f88e 2006 	strb.w	r2, [lr, #6]
100007ca:	f64b 5201 	movw	r2, #48385	@ 0xbd01
100007ce:	f8ae 2004 	strh.w	r2, [lr, #4]
100007d2:	4c16      	ldr	r4, [pc, #88]	@ (1000082c <irq_remove_handler+0x1e4>)
100007d4:	f64a 22aa 	movw	r2, #43690	@ 0xaaaa
100007d8:	f894 c000 	ldrb.w	ip, [r4]
100007dc:	4619      	mov	r1, r3
100007de:	1bc9      	subs	r1, r1, r7
100007e0:	4149      	adcs	r1, r1
100007e2:	434a      	muls	r2, r1
100007e4:	0d12      	lsrs	r2, r2, #20
100007e6:	f883 c006 	strb.w	ip, [r3, #6]
100007ea:	7022      	strb	r2, [r4, #0]
100007ec:	e786      	b.n	100006fc <irq_remove_handler+0xb4>
100007ee:	4a10      	ldr	r2, [pc, #64]	@ (10000830 <irq_remove_handler+0x1e8>)
100007f0:	e7dd      	b.n	100007ae <irq_remove_handler+0x166>
100007f2:	f99e 4006 	ldrsb.w	r4, [lr, #6]
100007f6:	4673      	mov	r3, lr
100007f8:	2c00      	cmp	r4, #0
100007fa:	daaa      	bge.n	10000752 <irq_remove_handler+0x10a>
100007fc:	4a0d      	ldr	r2, [pc, #52]	@ (10000834 <irq_remove_handler+0x1ec>)
100007fe:	4c0e      	ldr	r4, [pc, #56]	@ (10000838 <irq_remove_handler+0x1f0>)
10000800:	1ad2      	subs	r2, r2, r3
10000802:	3a08      	subs	r2, #8
10000804:	f3c2 310a 	ubfx	r1, r2, #12, #11
10000808:	ea6f 5101 	mvn.w	r1, r1, lsl #20
1000080c:	ea6f 5111 	mvn.w	r1, r1, lsr #20
10000810:	ea44 0252 	orr.w	r2, r4, r2, lsr #1
10000814:	80da      	strh	r2, [r3, #6]
10000816:	8099      	strh	r1, [r3, #4]
10000818:	e770      	b.n	100006fc <irq_remove_handler+0xb4>
1000081a:	bf00      	nop
1000081c:	20000b31 	.word	0x20000b31
10000820:	e000ed00 	.word	0xe000ed00
10000824:	10000111 	.word	0x10000111
10000828:	20000924 	.word	0x20000924
1000082c:	20000bd0 	.word	0x20000bd0
10000830:	ffffbd01 	.word	0xffffbd01
10000834:	2000095e 	.word	0x2000095e
10000838:	fffff800 	.word	0xfffff800

1000083c <irq_add_tail_to_free_list>:
1000083c:	b5f0      	push	{r4, r5, r6, r7, lr}
1000083e:	f3ef 8505 	mrs	r5, IPSR
10000842:	b2ed      	uxtb	r5, r5
10000844:	f3ef 8c10 	mrs	ip, PRIMASK
10000848:	b672      	cpsid	i
1000084a:	4926      	ldr	r1, [pc, #152]	@ (100008e4 <irq_add_tail_to_free_list+0xa8>)
1000084c:	e8d1 2fcf 	ldaexb	r2, [r1]
10000850:	2301      	movs	r3, #1
10000852:	2a00      	cmp	r2, #0
10000854:	d1fa      	bne.n	1000084c <irq_add_tail_to_free_list+0x10>
10000856:	e8c1 3f42 	strexb	r2, r3, [r1]
1000085a:	2a00      	cmp	r2, #0
1000085c:	d1f6      	bne.n	1000084c <irq_add_tail_to_free_list+0x10>
1000085e:	f3bf 8f5f 	dmb	sy
10000862:	4e21      	ldr	r6, [pc, #132]	@ (100008e8 <irq_add_tail_to_free_list+0xac>)
10000864:	f040 0e01 	orr.w	lr, r0, #1
10000868:	68b4      	ldr	r4, [r6, #8]
1000086a:	f64a 23aa 	movw	r3, #43690	@ 0xaaaa
1000086e:	f854 7025 	ldr.w	r7, [r4, r5, lsl #2]
10000872:	4a1e      	ldr	r2, [pc, #120]	@ (100008ec <irq_add_tail_to_free_list+0xb0>)
10000874:	4604      	mov	r4, r0
10000876:	1aa4      	subs	r4, r4, r2
10000878:	4164      	adcs	r4, r4
1000087a:	4363      	muls	r3, r4
1000087c:	0d1b      	lsrs	r3, r3, #20
1000087e:	4577      	cmp	r7, lr
10000880:	b25b      	sxtb	r3, r3
10000882:	d01b      	beq.n	100008bc <irq_add_tail_to_free_list+0x80>
10000884:	f992 4006 	ldrsb.w	r4, [r2, #6]
10000888:	429c      	cmp	r4, r3
1000088a:	d01c      	beq.n	100008c6 <irq_add_tail_to_free_list+0x8a>
1000088c:	f992 4012 	ldrsb.w	r4, [r2, #18]
10000890:	429c      	cmp	r4, r3
10000892:	d023      	beq.n	100008dc <irq_add_tail_to_free_list+0xa0>
10000894:	f992 401e 	ldrsb.w	r4, [r2, #30]
10000898:	429c      	cmp	r4, r3
1000089a:	d021      	beq.n	100008e0 <irq_add_tail_to_free_list+0xa4>
1000089c:	f992 402a 	ldrsb.w	r4, [r2, #42]	@ 0x2a
100008a0:	429c      	cmp	r4, r3
100008a2:	bf08      	it	eq
100008a4:	2403      	moveq	r4, #3
100008a6:	d00f      	beq.n	100008c8 <irq_add_tail_to_free_list+0x8c>
100008a8:	4a11      	ldr	r2, [pc, #68]	@ (100008f0 <irq_add_tail_to_free_list+0xb4>)
100008aa:	2400      	movs	r4, #0
100008ac:	7815      	ldrb	r5, [r2, #0]
100008ae:	7013      	strb	r3, [r2, #0]
100008b0:	7185      	strb	r5, [r0, #6]
100008b2:	e8c1 4f8f 	stlb	r4, [r1]
100008b6:	f38c 8810 	msr	PRIMASK, ip
100008ba:	bdf0      	pop	{r4, r5, r6, r7, pc}
100008bc:	68b2      	ldr	r2, [r6, #8]
100008be:	4c0d      	ldr	r4, [pc, #52]	@ (100008f4 <irq_add_tail_to_free_list+0xb8>)
100008c0:	f842 4025 	str.w	r4, [r2, r5, lsl #2]
100008c4:	e7f0      	b.n	100008a8 <irq_add_tail_to_free_list+0x6c>
100008c6:	2400      	movs	r4, #0
100008c8:	eb04 0444 	add.w	r4, r4, r4, lsl #1
100008cc:	eb02 0284 	add.w	r2, r2, r4, lsl #2
100008d0:	24ff      	movs	r4, #255	@ 0xff
100008d2:	7194      	strb	r4, [r2, #6]
100008d4:	f64b 5401 	movw	r4, #48385	@ 0xbd01
100008d8:	8094      	strh	r4, [r2, #4]
100008da:	e7e5      	b.n	100008a8 <irq_add_tail_to_free_list+0x6c>
100008dc:	2401      	movs	r4, #1
100008de:	e7f3      	b.n	100008c8 <irq_add_tail_to_free_list+0x8c>
100008e0:	2402      	movs	r4, #2
100008e2:	e7f1      	b.n	100008c8 <irq_add_tail_to_free_list+0x8c>
100008e4:	20000b31 	.word	0x20000b31
100008e8:	e000ed00 	.word	0xe000ed00
100008ec:	20000924 	.word	0x20000924
100008f0:	20000bd0 	.word	0x20000bd0
100008f4:	10000111 	.word	0x10000111

100008f8 <lock_init>:
100008f8:	4b01      	ldr	r3, [pc, #4]	@ (10000900 <lock_init+0x8>)
100008fa:	440b      	add	r3, r1
100008fc:	6003      	str	r3, [r0, #0]
100008fe:	4770      	bx	lr
10000900:	20000b28 	.word	0x20000b28

10000904 <runtime_init_mutex>:
10000904:	b570      	push	{r4, r5, r6, lr}
10000906:	4c10      	ldr	r4, [pc, #64]	@ (10000948 <runtime_init_mutex+0x44>)
10000908:	4d10      	ldr	r5, [pc, #64]	@ (1000094c <runtime_init_mutex+0x48>)
1000090a:	42ac      	cmp	r4, r5
1000090c:	d20e      	bcs.n	1000092c <runtime_init_mutex+0x28>
1000090e:	26ff      	movs	r6, #255	@ 0xff
10000910:	6823      	ldr	r3, [r4, #0]
10000912:	b163      	cbz	r3, 1000092e <runtime_init_mutex+0x2a>
10000914:	f7ff fe12 	bl	1000053c <next_striped_spin_lock_num>
10000918:	4601      	mov	r1, r0
1000091a:	4620      	mov	r0, r4
1000091c:	f7ff ffec 	bl	100008f8 <lock_init>
10000920:	80a6      	strh	r6, [r4, #4]
10000922:	f3bf 8f5f 	dmb	sy
10000926:	3408      	adds	r4, #8
10000928:	42ac      	cmp	r4, r5
1000092a:	d3f1      	bcc.n	10000910 <runtime_init_mutex+0xc>
1000092c:	bd70      	pop	{r4, r5, r6, pc}
1000092e:	f7ff fe05 	bl	1000053c <next_striped_spin_lock_num>
10000932:	4601      	mov	r1, r0
10000934:	4620      	mov	r0, r4
10000936:	f7ff ffdf 	bl	100008f8 <lock_init>
1000093a:	7126      	strb	r6, [r4, #4]
1000093c:	f3bf 8f5f 	dmb	sy
10000940:	3408      	adds	r4, #8
10000942:	42ac      	cmp	r4, r5
10000944:	d3e4      	bcc.n	10000910 <runtime_init_mutex+0xc>
10000946:	bd70      	pop	{r4, r5, r6, pc}
10000948:	2000099c 	.word	0x2000099c
1000094c:	200009a4 	.word	0x200009a4

10000950 <sleep_until_callback>:
10000950:	4b0d      	ldr	r3, [pc, #52]	@ (10000988 <sleep_until_callback+0x38>)
10000952:	681a      	ldr	r2, [r3, #0]
10000954:	f3ef 8110 	mrs	r1, PRIMASK
10000958:	b672      	cpsid	i
1000095a:	e8d2 cfcf 	ldaexb	ip, [r2]
1000095e:	2001      	movs	r0, #1
10000960:	f1bc 0f00 	cmp.w	ip, #0
10000964:	d1f9      	bne.n	1000095a <sleep_until_callback+0xa>
10000966:	e8c2 0f4c 	strexb	ip, r0, [r2]
1000096a:	f1bc 0f00 	cmp.w	ip, #0
1000096e:	d1f4      	bne.n	1000095a <sleep_until_callback+0xa>
10000970:	f3bf 8f5f 	dmb	sy
10000974:	2200      	movs	r2, #0
10000976:	681b      	ldr	r3, [r3, #0]
10000978:	e8c3 2f8f 	stlb	r2, [r3]
1000097c:	f381 8810 	msr	PRIMASK, r1
10000980:	bf40      	sev
10000982:	2000      	movs	r0, #0
10000984:	2100      	movs	r1, #0
10000986:	4770      	bx	lr
10000988:	20000bc4 	.word	0x20000bc4
1000098c:	00000000 	.word	0x00000000

10000990 <alarm_pool_irq_handler>:
10000990:	e92d 4ff0 	stmdb	sp!, {r4, r5, r6, r7, r8, r9, sl, fp, lr}
10000994:	ed2d 8b02 	vpush	{d8}
10000998:	b085      	sub	sp, #20
1000099a:	f3ef 8305 	mrs	r3, IPSR
1000099e:	b2db      	uxtb	r3, r3
100009a0:	3b10      	subs	r3, #16
100009a2:	089a      	lsrs	r2, r3, #2
100009a4:	bf18      	it	ne
100009a6:	2201      	movne	r2, #1
100009a8:	f04f 0101 	mov.w	r1, #1
100009ac:	f003 0b03 	and.w	fp, r3, #3
100009b0:	bf18      	it	ne
100009b2:	4daf      	ldrne	r5, [pc, #700]	@ (10000c70 <alarm_pool_irq_handler+0x2e0>)
100009b4:	4baf      	ldr	r3, [pc, #700]	@ (10000c74 <alarm_pool_irq_handler+0x2e4>)
100009b6:	bf08      	it	eq
100009b8:	4daf      	ldreq	r5, [pc, #700]	@ (10000c78 <alarm_pool_irq_handler+0x2e8>)
100009ba:	eb0b 0282 	add.w	r2, fp, r2, lsl #2
100009be:	f853 6022 	ldr.w	r6, [r3, r2, lsl #2]
100009c2:	fa01 f20b 	lsl.w	r2, r1, fp
100009c6:	f505 5341 	add.w	r3, r5, #12352	@ 0x3040
100009ca:	ed9f 8ba7 	vldr	d8, [pc, #668]	@ 10000c68 <alarm_pool_irq_handler+0x2d8>
100009ce:	9201      	str	r2, [sp, #4]
100009d0:	605a      	str	r2, [r3, #4]
100009d2:	e02f      	b.n	10000a34 <alarm_pool_irq_handler+0xa4>
100009d4:	88b3      	ldrh	r3, [r6, #4]
100009d6:	041c      	lsls	r4, r3, #16
100009d8:	f140 8093 	bpl.w	10000b02 <alarm_pool_irq_handler+0x172>
100009dc:	79b3      	ldrb	r3, [r6, #6]
100009de:	2b00      	cmp	r3, #0
100009e0:	f040 80dd 	bne.w	10000b9e <alarm_pool_irq_handler+0x20e>
100009e4:	f9b6 2008 	ldrsh.w	r2, [r6, #8]
100009e8:	2a00      	cmp	r2, #0
100009ea:	f2c0 811e 	blt.w	10000c2a <alarm_pool_irq_handler+0x29a>
100009ee:	6973      	ldr	r3, [r6, #20]
100009f0:	eb02 0242 	add.w	r2, r2, r2, lsl #1
100009f4:	eb03 03c2 	add.w	r3, r3, r2, lsl #3
100009f8:	e9d3 4702 	ldrd	r4, r7, [r3, #8]
100009fc:	f1b7 3fff 	cmp.w	r7, #4294967295
10000a00:	bf08      	it	eq
10000a02:	f1b4 3fff 	cmpeq.w	r4, #4294967295
10000a06:	d00e      	beq.n	10000a26 <alarm_pool_irq_handler+0x96>
10000a08:	eb05 018b 	add.w	r1, r5, fp, lsl #2
10000a0c:	6aab      	ldr	r3, [r5, #40]	@ 0x28
10000a0e:	690a      	ldr	r2, [r1, #16]
10000a10:	1ad2      	subs	r2, r2, r3
10000a12:	1ae3      	subs	r3, r4, r3
10000a14:	4293      	cmp	r3, r2
10000a16:	d305      	bcc.n	10000a24 <alarm_pool_irq_handler+0x94>
10000a18:	2301      	movs	r3, #1
10000a1a:	6a2a      	ldr	r2, [r5, #32]
10000a1c:	fa03 f30b 	lsl.w	r3, r3, fp
10000a20:	4213      	tst	r3, r2
10000a22:	d100      	bne.n	10000a26 <alarm_pool_irq_handler+0x96>
10000a24:	610c      	str	r4, [r1, #16]
10000a26:	4628      	mov	r0, r5
10000a28:	f000 fba4 	bl	10001174 <timer_time_us_64>
10000a2c:	42a0      	cmp	r0, r4
10000a2e:	41b9      	sbcs	r1, r7
10000a30:	f2c0 80fb 	blt.w	10000c2a <alarm_pool_irq_handler+0x29a>
10000a34:	f9b6 3008 	ldrsh.w	r3, [r6, #8]
10000a38:	9a01      	ldr	r2, [sp, #4]
10000a3a:	2b00      	cmp	r3, #0
10000a3c:	9300      	str	r3, [sp, #0]
10000a3e:	63ea      	str	r2, [r5, #60]	@ 0x3c
10000a40:	dbc8      	blt.n	100009d4 <alarm_pool_irq_handler+0x44>
10000a42:	f8d6 8014 	ldr.w	r8, [r6, #20]
10000a46:	eb03 0943 	add.w	r9, r3, r3, lsl #1
10000a4a:	4628      	mov	r0, r5
10000a4c:	eb08 07c9 	add.w	r7, r8, r9, lsl #3
10000a50:	e9d7 4a02 	ldrd	r4, sl, [r7, #8]
10000a54:	f000 fb8e 	bl	10001174 <timer_time_us_64>
10000a58:	42a0      	cmp	r0, r4
10000a5a:	eb71 010a 	sbcs.w	r1, r1, sl
10000a5e:	dbb9      	blt.n	100009d4 <alarm_pool_irq_handler+0x44>
10000a60:	f1ba 0f00 	cmp.w	sl, #0
10000a64:	f2c0 80c3 	blt.w	10000bee <alarm_pool_irq_handler+0x25e>
10000a68:	e9d7 3104 	ldrd	r3, r1, [r7, #16]
10000a6c:	4a83      	ldr	r2, [pc, #524]	@ (10000c7c <alarm_pool_irq_handler+0x2ec>)
10000a6e:	4293      	cmp	r3, r2
10000a70:	f000 80ed 	beq.w	10000c4e <alarm_pool_irq_handler+0x2be>
10000a74:	887a      	ldrh	r2, [r7, #2]
10000a76:	f9b6 0008 	ldrsh.w	r0, [r6, #8]
10000a7a:	b292      	uxth	r2, r2
10000a7c:	ea42 4000 	orr.w	r0, r2, r0, lsl #16
10000a80:	4798      	blx	r3
10000a82:	4602      	mov	r2, r0
10000a84:	460b      	mov	r3, r1
10000a86:	ea52 0103 	orrs.w	r1, r2, r3
10000a8a:	f000 80b0 	beq.w	10000bee <alarm_pool_irq_handler+0x25e>
10000a8e:	2b00      	cmp	r3, #0
10000a90:	f280 80d1 	bge.w	10000c36 <alarm_pool_irq_handler+0x2a6>
10000a94:	ebb4 0e02 	subs.w	lr, r4, r2
10000a98:	eb6a 0a03 	sbc.w	sl, sl, r3
10000a9c:	f938 3039 	ldrsh.w	r3, [r8, r9, lsl #3]
10000aa0:	e9c7 ea02 	strd	lr, sl, [r7, #8]
10000aa4:	2b00      	cmp	r3, #0
10000aa6:	db95      	blt.n	100009d4 <alarm_pool_irq_handler+0x44>
10000aa8:	6971      	ldr	r1, [r6, #20]
10000aaa:	eb03 0243 	add.w	r2, r3, r3, lsl #1
10000aae:	eb01 02c2 	add.w	r2, r1, r2, lsl #3
10000ab2:	e9d2 7002 	ldrd	r7, r0, [r2, #8]
10000ab6:	45be      	cmp	lr, r7
10000ab8:	eb7a 0c00 	sbcs.w	ip, sl, r0
10000abc:	ea4f 0243 	mov.w	r2, r3, lsl #1
10000ac0:	db88      	blt.n	100009d4 <alarm_pool_irq_handler+0x44>
10000ac2:	46b4      	mov	ip, r6
10000ac4:	f82c 3f08 	strh.w	r3, [ip, #8]!
10000ac8:	e006      	b.n	10000ad8 <alarm_pool_irq_handler+0x148>
10000aca:	eb03 0043 	add.w	r0, r3, r3, lsl #1
10000ace:	eb01 00c0 	add.w	r0, r1, r0, lsl #3
10000ad2:	005a      	lsls	r2, r3, #1
10000ad4:	e9d0 7002 	ldrd	r7, r0, [r0, #8]
10000ad8:	45be      	cmp	lr, r7
10000ada:	441a      	add	r2, r3
10000adc:	eb7a 0000 	sbcs.w	r0, sl, r0
10000ae0:	eb01 04c2 	add.w	r4, r1, r2, lsl #3
10000ae4:	db04      	blt.n	10000af0 <alarm_pool_irq_handler+0x160>
10000ae6:	f931 3032 	ldrsh.w	r3, [r1, r2, lsl #3]
10000aea:	46a4      	mov	ip, r4
10000aec:	2b00      	cmp	r3, #0
10000aee:	daec      	bge.n	10000aca <alarm_pool_irq_handler+0x13a>
10000af0:	f828 3039 	strh.w	r3, [r8, r9, lsl #3]
10000af4:	9b00      	ldr	r3, [sp, #0]
10000af6:	f8ac 3000 	strh.w	r3, [ip]
10000afa:	88b3      	ldrh	r3, [r6, #4]
10000afc:	041c      	lsls	r4, r3, #16
10000afe:	f53f af6d 	bmi.w	100009dc <alarm_pool_irq_handler+0x4c>
10000b02:	6933      	ldr	r3, [r6, #16]
10000b04:	f3ef 8210 	mrs	r2, PRIMASK
10000b08:	b672      	cpsid	i
10000b0a:	e8d3 0fcf 	ldaexb	r0, [r3]
10000b0e:	2101      	movs	r1, #1
10000b10:	2800      	cmp	r0, #0
10000b12:	d1fa      	bne.n	10000b0a <alarm_pool_irq_handler+0x17a>
10000b14:	e8c3 1f40 	strexb	r0, r1, [r3]
10000b18:	2800      	cmp	r0, #0
10000b1a:	d1f6      	bne.n	10000b0a <alarm_pool_irq_handler+0x17a>
10000b1c:	f3bf 8f5f 	dmb	sy
10000b20:	f64f 74ff 	movw	r4, #65535	@ 0xffff
10000b24:	88b0      	ldrh	r0, [r6, #4]
10000b26:	2300      	movs	r3, #0
10000b28:	6931      	ldr	r1, [r6, #16]
10000b2a:	b200      	sxth	r0, r0
10000b2c:	80b4      	strh	r4, [r6, #4]
10000b2e:	e8c1 3f8f 	stlb	r3, [r1]
10000b32:	f382 8810 	msr	PRIMASK, r2
10000b36:	4298      	cmp	r0, r3
10000b38:	f6ff af50 	blt.w	100009dc <alarm_pool_irq_handler+0x4c>
10000b3c:	4607      	mov	r7, r0
10000b3e:	46a9      	mov	r9, r5
10000b40:	6974      	ldr	r4, [r6, #20]
10000b42:	f106 0808 	add.w	r8, r6, #8
10000b46:	eb07 0e47 	add.w	lr, r7, r7, lsl #1
10000b4a:	eb04 03ce 	add.w	r3, r4, lr, lsl #3
10000b4e:	e9d3 5002 	ldrd	r5, r0, [r3, #8]
10000b52:	f9b6 3008 	ldrsh.w	r3, [r6, #8]
10000b56:	46c4      	mov	ip, r8
10000b58:	2b00      	cmp	r3, #0
10000b5a:	db13      	blt.n	10000b84 <alarm_pool_irq_handler+0x1f4>
10000b5c:	46b2      	mov	sl, r6
10000b5e:	9700      	str	r7, [sp, #0]
10000b60:	e004      	b.n	10000b6c <alarm_pool_irq_handler+0x1dc>
10000b62:	f934 3036 	ldrsh.w	r3, [r4, r6, lsl #3]
10000b66:	4694      	mov	ip, r2
10000b68:	2b00      	cmp	r3, #0
10000b6a:	db09      	blt.n	10000b80 <alarm_pool_irq_handler+0x1f0>
10000b6c:	eb03 0643 	add.w	r6, r3, r3, lsl #1
10000b70:	eb04 02c6 	add.w	r2, r4, r6, lsl #3
10000b74:	e9d2 7102 	ldrd	r7, r1, [r2, #8]
10000b78:	42bd      	cmp	r5, r7
10000b7a:	eb70 0101 	sbcs.w	r1, r0, r1
10000b7e:	daf0      	bge.n	10000b62 <alarm_pool_irq_handler+0x1d2>
10000b80:	4656      	mov	r6, sl
10000b82:	9f00      	ldr	r7, [sp, #0]
10000b84:	f8ac 7000 	strh.w	r7, [ip]
10000b88:	f934 703e 	ldrsh.w	r7, [r4, lr, lsl #3]
10000b8c:	f824 303e 	strh.w	r3, [r4, lr, lsl #3]
10000b90:	2f00      	cmp	r7, #0
10000b92:	dad8      	bge.n	10000b46 <alarm_pool_irq_handler+0x1b6>
10000b94:	79b3      	ldrb	r3, [r6, #6]
10000b96:	464d      	mov	r5, r9
10000b98:	2b00      	cmp	r3, #0
10000b9a:	f43f af23 	beq.w	100009e4 <alarm_pool_irq_handler+0x54>
10000b9e:	2300      	movs	r3, #0
10000ba0:	71b3      	strb	r3, [r6, #6]
10000ba2:	f9b6 3008 	ldrsh.w	r3, [r6, #8]
10000ba6:	f106 0808 	add.w	r8, r6, #8
10000baa:	1c58      	adds	r0, r3, #1
10000bac:	d03d      	beq.n	10000c2a <alarm_pool_irq_handler+0x29a>
10000bae:	461a      	mov	r2, r3
10000bb0:	6977      	ldr	r7, [r6, #20]
10000bb2:	e003      	b.n	10000bbc <alarm_pool_irq_handler+0x22c>
10000bb4:	4680      	mov	r8, r0
10000bb6:	1c59      	adds	r1, r3, #1
10000bb8:	f43f af16 	beq.w	100009e8 <alarm_pool_irq_handler+0x58>
10000bbc:	eb03 0143 	add.w	r1, r3, r3, lsl #1
10000bc0:	eb07 00c1 	add.w	r0, r7, r1, lsl #3
10000bc4:	f8b0 c002 	ldrh.w	ip, [r0, #2]
10000bc8:	461c      	mov	r4, r3
10000bca:	f41c 4f00 	tst.w	ip, #32768	@ 0x8000
10000bce:	469e      	mov	lr, r3
10000bd0:	f937 3031 	ldrsh.w	r3, [r7, r1, lsl #3]
10000bd4:	d0ee      	beq.n	10000bb4 <alarm_pool_irq_handler+0x224>
10000bd6:	4294      	cmp	r4, r2
10000bd8:	ed80 8b02 	vstr	d8, [r0, #8]
10000bdc:	d005      	beq.n	10000bea <alarm_pool_irq_handler+0x25a>
10000bde:	f8a8 3000 	strh.w	r3, [r8]
10000be2:	8932      	ldrh	r2, [r6, #8]
10000be4:	f827 2031 	strh.w	r2, [r7, r1, lsl #3]
10000be8:	8134      	strh	r4, [r6, #8]
10000bea:	4672      	mov	r2, lr
10000bec:	e7e3      	b.n	10000bb6 <alarm_pool_irq_handler+0x226>
10000bee:	f838 3039 	ldrh.w	r3, [r8, r9, lsl #3]
10000bf2:	8133      	strh	r3, [r6, #8]
10000bf4:	6933      	ldr	r3, [r6, #16]
10000bf6:	f3ef 8210 	mrs	r2, PRIMASK
10000bfa:	b672      	cpsid	i
10000bfc:	e8d3 0fcf 	ldaexb	r0, [r3]
10000c00:	2101      	movs	r1, #1
10000c02:	2800      	cmp	r0, #0
10000c04:	d1fa      	bne.n	10000bfc <alarm_pool_irq_handler+0x26c>
10000c06:	e8c3 1f40 	strexb	r0, r1, [r3]
10000c0a:	2800      	cmp	r0, #0
10000c0c:	d1f6      	bne.n	10000bfc <alarm_pool_irq_handler+0x26c>
10000c0e:	f3bf 8f5f 	dmb	sy
10000c12:	8873      	ldrh	r3, [r6, #2]
10000c14:	6931      	ldr	r1, [r6, #16]
10000c16:	f828 3039 	strh.w	r3, [r8, r9, lsl #3]
10000c1a:	9b00      	ldr	r3, [sp, #0]
10000c1c:	8073      	strh	r3, [r6, #2]
10000c1e:	2300      	movs	r3, #0
10000c20:	e8c1 3f8f 	stlb	r3, [r1]
10000c24:	f382 8810 	msr	PRIMASK, r2
10000c28:	e6d4      	b.n	100009d4 <alarm_pool_irq_handler+0x44>
10000c2a:	bf40      	sev
10000c2c:	b005      	add	sp, #20
10000c2e:	ecbd 8b02 	vpop	{d8}
10000c32:	e8bd 8ff0 	ldmia.w	sp!, {r4, r5, r6, r7, r8, r9, sl, fp, pc}
10000c36:	4628      	mov	r0, r5
10000c38:	e9cd 2302 	strd	r2, r3, [sp, #8]
10000c3c:	f000 fa9a 	bl	10001174 <timer_time_us_64>
10000c40:	9a02      	ldr	r2, [sp, #8]
10000c42:	9b03      	ldr	r3, [sp, #12]
10000c44:	eb10 0e02 	adds.w	lr, r0, r2
10000c48:	eb43 0a01 	adc.w	sl, r3, r1
10000c4c:	e726      	b.n	10000a9c <alarm_pool_irq_handler+0x10c>
10000c4e:	4608      	mov	r0, r1
10000c50:	690b      	ldr	r3, [r1, #16]
10000c52:	9102      	str	r1, [sp, #8]
10000c54:	4798      	blx	r3
10000c56:	2800      	cmp	r0, #0
10000c58:	d0c9      	beq.n	10000bee <alarm_pool_irq_handler+0x25e>
10000c5a:	9902      	ldr	r1, [sp, #8]
10000c5c:	e9d1 2300 	ldrd	r2, r3, [r1]
10000c60:	e711      	b.n	10000a86 <alarm_pool_irq_handler+0xf6>
10000c62:	bf00      	nop
10000c64:	f3af 8000 	nop.w
10000c68:	ffffffff 	.word	0xffffffff
10000c6c:	ffffffff 	.word	0xffffffff
10000c70:	400b8000 	.word	0x400b8000
10000c74:	20000ba4 	.word	0x20000ba4
10000c78:	400b0000 	.word	0x400b0000
10000c7c:	10000991 	.word	0x10000991

10000c80 <runtime_init_default_alarm_pool>:
10000c80:	e92d 4ff8 	stmdb	sp!, {r3, r4, r5, r6, r7, r8, r9, sl, fp, lr}
10000c84:	4c36      	ldr	r4, [pc, #216]	@ (10000d60 <runtime_init_default_alarm_pool+0xe0>)
10000c86:	6925      	ldr	r5, [r4, #16]
10000c88:	b12d      	cbz	r5, 10000c96 <runtime_init_default_alarm_pool+0x16>
10000c8a:	e8bd 4ff8 	ldmia.w	sp!, {r3, r4, r5, r6, r7, r8, r9, sl, fp, lr}
10000c8e:	210a      	movs	r1, #10
10000c90:	4834      	ldr	r0, [pc, #208]	@ (10000d64 <runtime_init_default_alarm_pool+0xe4>)
10000c92:	f7ff be31 	b.w	100008f8 <lock_init>
10000c96:	f8df 80e4 	ldr.w	r8, [pc, #228]	@ 10000d7c <runtime_init_default_alarm_pool+0xfc>
10000c9a:	2103      	movs	r1, #3
10000c9c:	4640      	mov	r0, r8
10000c9e:	f000 fa57 	bl	10001150 <timer_hardware_alarm_claim>
10000ca2:	2603      	movs	r6, #3
10000ca4:	f8c4 800c 	str.w	r8, [r4, #12]
10000ca8:	f7ff fc48 	bl	1000053c <next_striped_spin_lock_num>
10000cac:	f04f 4c50 	mov.w	ip, #3489660928	@ 0xd0000000
10000cb0:	4b2d      	ldr	r3, [pc, #180]	@ (10000d68 <runtime_init_default_alarm_pool+0xe8>)
10000cb2:	7026      	strb	r6, [r4, #0]
10000cb4:	4403      	add	r3, r0
10000cb6:	6123      	str	r3, [r4, #16]
10000cb8:	f8dc 3000 	ldr.w	r3, [ip]
10000cbc:	210f      	movs	r1, #15
10000cbe:	7063      	strb	r3, [r4, #1]
10000cc0:	6963      	ldr	r3, [r4, #20]
10000cc2:	8061      	strh	r1, [r4, #2]
10000cc4:	831d      	strh	r5, [r3, #24]
10000cc6:	f04f 0504 	mov.w	r5, #4
10000cca:	f8a3 5078 	strh.w	r5, [r3, #120]	@ 0x78
10000cce:	f04f 0505 	mov.w	r5, #5
10000cd2:	f8a3 5090 	strh.w	r5, [r3, #144]	@ 0x90
10000cd6:	f04f 0506 	mov.w	r5, #6
10000cda:	f8a3 50a8 	strh.w	r5, [r3, #168]	@ 0xa8
10000cde:	f04f 0507 	mov.w	r5, #7
10000ce2:	210e      	movs	r1, #14
10000ce4:	f64f 72ff 	movw	r2, #65535	@ 0xffff
10000ce8:	2708      	movs	r7, #8
10000cea:	f04f 0e0a 	mov.w	lr, #10
10000cee:	f8a3 50c0 	strh.w	r5, [r3, #192]	@ 0xc0
10000cf2:	f04f 0901 	mov.w	r9, #1
10000cf6:	f04f 0c0c 	mov.w	ip, #12
10000cfa:	f04f 0b02 	mov.w	fp, #2
10000cfe:	f04f 0a09 	mov.w	sl, #9
10000d02:	200d      	movs	r0, #13
10000d04:	f04f 050b 	mov.w	r5, #11
10000d08:	f8a3 1168 	strh.w	r1, [r3, #360]	@ 0x168
10000d0c:	4917      	ldr	r1, [pc, #92]	@ (10000d6c <runtime_init_default_alarm_pool+0xec>)
10000d0e:	80a2      	strh	r2, [r4, #4]
10000d10:	f8a3 e108 	strh.w	lr, [r3, #264]	@ 0x108
10000d14:	60a1      	str	r1, [r4, #8]
10000d16:	f8a3 b048 	strh.w	fp, [r3, #72]	@ 0x48
10000d1a:	f8a3 a0f0 	strh.w	sl, [r3, #240]	@ 0xf0
10000d1e:	f8a3 5120 	strh.w	r5, [r3, #288]	@ 0x120
10000d22:	f8a3 c138 	strh.w	ip, [r3, #312]	@ 0x138
10000d26:	f8a3 0150 	strh.w	r0, [r3, #336]	@ 0x150
10000d2a:	f8a3 9030 	strh.w	r9, [r3, #48]	@ 0x30
10000d2e:	f8a3 6060 	strh.w	r6, [r3, #96]	@ 0x60
10000d32:	f8a3 70d8 	strh.w	r7, [r3, #216]	@ 0xd8
10000d36:	801a      	strh	r2, [r3, #0]
10000d38:	4b0d      	ldr	r3, [pc, #52]	@ (10000d70 <runtime_init_default_alarm_pool+0xf0>)
10000d3a:	4630      	mov	r0, r6
10000d3c:	f8c8 7020 	str.w	r7, [r8, #32]
10000d40:	490c      	ldr	r1, [pc, #48]	@ (10000d74 <runtime_init_default_alarm_pool+0xf4>)
10000d42:	60dc      	str	r4, [r3, #12]
10000d44:	f7ff fc50 	bl	100005e8 <irq_set_exclusive_handler>
10000d48:	4649      	mov	r1, r9
10000d4a:	4630      	mov	r0, r6
10000d4c:	f7ff fc36 	bl	100005bc <irq_set_enabled>
10000d50:	4b09      	ldr	r3, [pc, #36]	@ (10000d78 <runtime_init_default_alarm_pool+0xf8>)
10000d52:	210a      	movs	r1, #10
10000d54:	641f      	str	r7, [r3, #64]	@ 0x40
10000d56:	4803      	ldr	r0, [pc, #12]	@ (10000d64 <runtime_init_default_alarm_pool+0xe4>)
10000d58:	e8bd 4ff8 	ldmia.w	sp!, {r3, r4, r5, r6, r7, r8, r9, sl, fp, lr}
10000d5c:	f7ff bdcc 	b.w	100008f8 <lock_init>
10000d60:	2000096c 	.word	0x2000096c
10000d64:	20000bc4 	.word	0x20000bc4
10000d68:	20000b28 	.word	0x20000b28
10000d6c:	0010ffff 	.word	0x0010ffff
10000d70:	20000ba4 	.word	0x20000ba4
10000d74:	10000991 	.word	0x10000991
10000d78:	400b2000 	.word	0x400b2000
10000d7c:	400b0000 	.word	0x400b0000

10000d80 <alarm_pool_add_alarm_at_force_in_context>:
10000d80:	4601      	mov	r1, r0
10000d82:	b5f0      	push	{r4, r5, r6, r7, lr}
10000d84:	6900      	ldr	r0, [r0, #16]
10000d86:	f3ef 8710 	mrs	r7, PRIMASK
10000d8a:	b672      	cpsid	i
10000d8c:	e8d0 5fcf 	ldaexb	r5, [r0]
10000d90:	2401      	movs	r4, #1
10000d92:	2d00      	cmp	r5, #0
10000d94:	d1fa      	bne.n	10000d8c <alarm_pool_add_alarm_at_force_in_context+0xc>
10000d96:	e8c0 4f45 	strexb	r5, r4, [r0]
10000d9a:	2d00      	cmp	r5, #0
10000d9c:	d1f6      	bne.n	10000d8c <alarm_pool_add_alarm_at_force_in_context+0xc>
10000d9e:	f3bf 8f5f 	dmb	sy
10000da2:	f9b1 e002 	ldrsh.w	lr, [r1, #2]
10000da6:	694c      	ldr	r4, [r1, #20]
10000da8:	eb0e 0c4e 	add.w	ip, lr, lr, lsl #1
10000dac:	f1be 0f00 	cmp.w	lr, #0
10000db0:	ea4f 05cc 	mov.w	r5, ip, lsl #3
10000db4:	6908      	ldr	r0, [r1, #16]
10000db6:	eb04 0ccc 	add.w	ip, r4, ip, lsl #3
10000dba:	db3c      	blt.n	10000e36 <alarm_pool_add_alarm_at_force_in_context+0xb6>
10000dbc:	5b66      	ldrh	r6, [r4, r5]
10000dbe:	804e      	strh	r6, [r1, #2]
10000dc0:	2600      	movs	r6, #0
10000dc2:	e8c0 6f8f 	stlb	r6, [r0]
10000dc6:	f387 8810 	msr	PRIMASK, r7
10000dca:	f8bc 0002 	ldrh.w	r0, [ip, #2]
10000dce:	e9cc 2302 	strd	r2, r3, [ip, #8]
10000dd2:	3001      	adds	r0, #1
10000dd4:	f3c0 000e 	ubfx	r0, r0, #0, #15
10000dd8:	2801      	cmp	r0, #1
10000dda:	bf38      	it	cc
10000ddc:	2001      	movcc	r0, #1
10000dde:	9b05      	ldr	r3, [sp, #20]
10000de0:	f8ac 0002 	strh.w	r0, [ip, #2]
10000de4:	f8cc 3010 	str.w	r3, [ip, #16]
10000de8:	9b06      	ldr	r3, [sp, #24]
10000dea:	ea40 400e 	orr.w	r0, r0, lr, lsl #16
10000dee:	f8cc 3014 	str.w	r3, [ip, #20]
10000df2:	690b      	ldr	r3, [r1, #16]
10000df4:	f3ef 8210 	mrs	r2, PRIMASK
10000df8:	b672      	cpsid	i
10000dfa:	e8d3 cfcf 	ldaexb	ip, [r3]
10000dfe:	2701      	movs	r7, #1
10000e00:	f1bc 0f00 	cmp.w	ip, #0
10000e04:	d1f9      	bne.n	10000dfa <alarm_pool_add_alarm_at_force_in_context+0x7a>
10000e06:	e8c3 7f4c 	strexb	ip, r7, [r3]
10000e0a:	f1bc 0f00 	cmp.w	ip, #0
10000e0e:	d1f4      	bne.n	10000dfa <alarm_pool_add_alarm_at_force_in_context+0x7a>
10000e10:	f3bf 8f5f 	dmb	sy
10000e14:	888b      	ldrh	r3, [r1, #4]
10000e16:	5363      	strh	r3, [r4, r5]
10000e18:	f8a1 e004 	strh.w	lr, [r1, #4]
10000e1c:	690b      	ldr	r3, [r1, #16]
10000e1e:	e8c3 6f8f 	stlb	r6, [r3]
10000e22:	f382 8810 	msr	PRIMASK, r2
10000e26:	2201      	movs	r2, #1
10000e28:	68cb      	ldr	r3, [r1, #12]
10000e2a:	7809      	ldrb	r1, [r1, #0]
10000e2c:	f503 5301 	add.w	r3, r3, #8256	@ 0x2040
10000e30:	408a      	lsls	r2, r1
10000e32:	605a      	str	r2, [r3, #4]
10000e34:	bdf0      	pop	{r4, r5, r6, r7, pc}
10000e36:	2300      	movs	r3, #0
10000e38:	e8c0 3f8f 	stlb	r3, [r0]
10000e3c:	f387 8810 	msr	PRIMASK, r7
10000e40:	f04f 30ff 	mov.w	r0, #4294967295
10000e44:	bdf0      	pop	{r4, r5, r6, r7, pc}
10000e46:	bf00      	nop

10000e48 <alarm_pool_cancel_alarm>:
10000e48:	4603      	mov	r3, r0
10000e4a:	8940      	ldrh	r0, [r0, #10]
10000e4c:	ebb0 4f21 	cmp.w	r0, r1, asr #16
10000e50:	dd37      	ble.n	10000ec2 <alarm_pool_cancel_alarm+0x7a>
10000e52:	6958      	ldr	r0, [r3, #20]
10000e54:	140a      	asrs	r2, r1, #16
10000e56:	eb02 0242 	add.w	r2, r2, r2, lsl #1
10000e5a:	b510      	push	{r4, lr}
10000e5c:	eb00 00c2 	add.w	r0, r0, r2, lsl #3
10000e60:	691c      	ldr	r4, [r3, #16]
10000e62:	f3ef 8c10 	mrs	ip, PRIMASK
10000e66:	b672      	cpsid	i
10000e68:	e8d4 efcf 	ldaexb	lr, [r4]
10000e6c:	2201      	movs	r2, #1
10000e6e:	f1be 0f00 	cmp.w	lr, #0
10000e72:	d1f9      	bne.n	10000e68 <alarm_pool_cancel_alarm+0x20>
10000e74:	e8c4 2f4e 	strexb	lr, r2, [r4]
10000e78:	f1be 0f00 	cmp.w	lr, #0
10000e7c:	d1f4      	bne.n	10000e68 <alarm_pool_cancel_alarm+0x20>
10000e7e:	f3bf 8f5f 	dmb	sy
10000e82:	8842      	ldrh	r2, [r0, #2]
10000e84:	b289      	uxth	r1, r1
10000e86:	b292      	uxth	r2, r2
10000e88:	428a      	cmp	r2, r1
10000e8a:	d007      	beq.n	10000e9c <alarm_pool_cancel_alarm+0x54>
10000e8c:	2200      	movs	r2, #0
10000e8e:	691b      	ldr	r3, [r3, #16]
10000e90:	e8c3 2f8f 	stlb	r2, [r3]
10000e94:	f38c 8810 	msr	PRIMASK, ip
10000e98:	2000      	movs	r0, #0
10000e9a:	bd10      	pop	{r4, pc}
10000e9c:	f442 4200 	orr.w	r2, r2, #32768	@ 0x8000
10000ea0:	8042      	strh	r2, [r0, #2]
10000ea2:	2101      	movs	r1, #1
10000ea4:	2200      	movs	r2, #0
10000ea6:	6918      	ldr	r0, [r3, #16]
10000ea8:	7199      	strb	r1, [r3, #6]
10000eaa:	e8c0 2f8f 	stlb	r2, [r0]
10000eae:	f38c 8810 	msr	PRIMASK, ip
10000eb2:	781c      	ldrb	r4, [r3, #0]
10000eb4:	68da      	ldr	r2, [r3, #12]
10000eb6:	4608      	mov	r0, r1
10000eb8:	f502 5301 	add.w	r3, r2, #8256	@ 0x2040
10000ebc:	40a1      	lsls	r1, r4
10000ebe:	6059      	str	r1, [r3, #4]
10000ec0:	bd10      	pop	{r4, pc}
10000ec2:	2000      	movs	r0, #0
10000ec4:	4770      	bx	lr
10000ec6:	bf00      	nop

10000ec8 <sleep_us>:
10000ec8:	e92d 41f0 	stmdb	sp!, {r4, r5, r6, r7, r8, lr}
10000ecc:	b082      	sub	sp, #8
10000ece:	4604      	mov	r4, r0
10000ed0:	460e      	mov	r6, r1
10000ed2:	f000 f957 	bl	10001184 <time_us_64>
10000ed6:	f04f 32ff 	mov.w	r2, #4294967295
10000eda:	f06f 4300 	mvn.w	r3, #2147483648	@ 0x80000000
10000ede:	1824      	adds	r4, r4, r0
10000ee0:	eb46 0601 	adc.w	r6, r6, r1
10000ee4:	42a2      	cmp	r2, r4
10000ee6:	eb73 0106 	sbcs.w	r1, r3, r6
10000eea:	bf3c      	itt	cc
10000eec:	4614      	movcc	r4, r2
10000eee:	461e      	movcc	r6, r3
10000ef0:	1fa5      	subs	r5, r4, #6
10000ef2:	f146 37ff 	adc.w	r7, r6, #4294967295
10000ef6:	42ac      	cmp	r4, r5
10000ef8:	eb76 0307 	sbcs.w	r3, r6, r7
10000efc:	bf3c      	itt	cc
10000efe:	2500      	movcc	r5, #0
10000f00:	462f      	movcc	r7, r5
10000f02:	f000 f93f 	bl	10001184 <time_us_64>
10000f06:	1a28      	subs	r0, r5, r0
10000f08:	eb67 0c01 	sbc.w	ip, r7, r1
10000f0c:	2801      	cmp	r0, #1
10000f0e:	f17c 0c00 	sbcs.w	ip, ip, #0
10000f12:	da06      	bge.n	10000f22 <sleep_us+0x5a>
10000f14:	4620      	mov	r0, r4
10000f16:	4631      	mov	r1, r6
10000f18:	b002      	add	sp, #8
10000f1a:	e8bd 41f0 	ldmia.w	sp!, {r4, r5, r6, r7, r8, lr}
10000f1e:	f000 b969 	b.w	100011f4 <busy_wait_until>
10000f22:	f000 f92f 	bl	10001184 <time_us_64>
10000f26:	4285      	cmp	r5, r0
10000f28:	eb67 0101 	sbc.w	r1, r7, r1
10000f2c:	2900      	cmp	r1, #0
10000f2e:	db0a      	blt.n	10000f46 <sleep_us+0x7e>
10000f30:	2100      	movs	r1, #0
10000f32:	4b17      	ldr	r3, [pc, #92]	@ (10000f90 <sleep_us+0xc8>)
10000f34:	462a      	mov	r2, r5
10000f36:	9300      	str	r3, [sp, #0]
10000f38:	4816      	ldr	r0, [pc, #88]	@ (10000f94 <sleep_us+0xcc>)
10000f3a:	463b      	mov	r3, r7
10000f3c:	9101      	str	r1, [sp, #4]
10000f3e:	f7ff ff1f 	bl	10000d80 <alarm_pool_add_alarm_at_force_in_context>
10000f42:	3001      	adds	r0, #1
10000f44:	d0e6      	beq.n	10000f14 <sleep_us+0x4c>
10000f46:	f04f 0c00 	mov.w	ip, #0
10000f4a:	4a13      	ldr	r2, [pc, #76]	@ (10000f98 <sleep_us+0xd0>)
10000f4c:	4913      	ldr	r1, [pc, #76]	@ (10000f9c <sleep_us+0xd4>)
10000f4e:	6a53      	ldr	r3, [r2, #36]	@ 0x24
10000f50:	429f      	cmp	r7, r3
10000f52:	d804      	bhi.n	10000f5e <sleep_us+0x96>
10000f54:	6a90      	ldr	r0, [r2, #40]	@ 0x28
10000f56:	42a8      	cmp	r0, r5
10000f58:	d2dc      	bcs.n	10000f14 <sleep_us+0x4c>
10000f5a:	429f      	cmp	r7, r3
10000f5c:	d1da      	bne.n	10000f14 <sleep_us+0x4c>
10000f5e:	680b      	ldr	r3, [r1, #0]
10000f60:	f3ef 8010 	mrs	r0, PRIMASK
10000f64:	b672      	cpsid	i
10000f66:	e8d3 8fcf 	ldaexb	r8, [r3]
10000f6a:	f05f 0e01 	movs.w	lr, #1
10000f6e:	f1b8 0f00 	cmp.w	r8, #0
10000f72:	d1f8      	bne.n	10000f66 <sleep_us+0x9e>
10000f74:	e8c3 ef48 	strexb	r8, lr, [r3]
10000f78:	f1b8 0f00 	cmp.w	r8, #0
10000f7c:	d1f3      	bne.n	10000f66 <sleep_us+0x9e>
10000f7e:	f3bf 8f5f 	dmb	sy
10000f82:	680b      	ldr	r3, [r1, #0]
10000f84:	e8c3 cf8f 	stlb	ip, [r3]
10000f88:	f380 8810 	msr	PRIMASK, r0
10000f8c:	bf20      	wfe
10000f8e:	e7de      	b.n	10000f4e <sleep_us+0x86>
10000f90:	10000951 	.word	0x10000951
10000f94:	2000096c 	.word	0x2000096c
10000f98:	400b0000 	.word	0x400b0000
10000f9c:	20000bc4 	.word	0x20000bc4

10000fa0 <sleep_ms>:
10000fa0:	e92d 41f0 	stmdb	sp!, {r4, r5, r6, r7, r8, lr}
10000fa4:	b082      	sub	sp, #8
10000fa6:	4606      	mov	r6, r0
10000fa8:	f000 f8ec 	bl	10001184 <time_us_64>
10000fac:	f44f 737a 	mov.w	r3, #1000	@ 0x3e8
10000fb0:	4604      	mov	r4, r0
10000fb2:	f04f 30ff 	mov.w	r0, #4294967295
10000fb6:	f06f 4200 	mvn.w	r2, #2147483648	@ 0x80000000
10000fba:	fbe6 4103 	umlal	r4, r1, r6, r3
10000fbe:	42a0      	cmp	r0, r4
10000fc0:	eb72 0301 	sbcs.w	r3, r2, r1
10000fc4:	bf3a      	itte	cc
10000fc6:	4604      	movcc	r4, r0
10000fc8:	4615      	movcc	r5, r2
10000fca:	460d      	movcs	r5, r1
10000fcc:	1fa6      	subs	r6, r4, #6
10000fce:	f145 37ff 	adc.w	r7, r5, #4294967295
10000fd2:	42b4      	cmp	r4, r6
10000fd4:	eb75 0307 	sbcs.w	r3, r5, r7
10000fd8:	bf3c      	itt	cc
10000fda:	2600      	movcc	r6, #0
10000fdc:	4637      	movcc	r7, r6
10000fde:	f000 f8d1 	bl	10001184 <time_us_64>
10000fe2:	1a30      	subs	r0, r6, r0
10000fe4:	eb67 0101 	sbc.w	r1, r7, r1
10000fe8:	2801      	cmp	r0, #1
10000fea:	f171 0100 	sbcs.w	r1, r1, #0
10000fee:	da06      	bge.n	10000ffe <sleep_ms+0x5e>
10000ff0:	4620      	mov	r0, r4
10000ff2:	4629      	mov	r1, r5
10000ff4:	b002      	add	sp, #8
10000ff6:	e8bd 41f0 	ldmia.w	sp!, {r4, r5, r6, r7, r8, lr}
10000ffa:	f000 b8fb 	b.w	100011f4 <busy_wait_until>
10000ffe:	f000 f8c1 	bl	10001184 <time_us_64>
10001002:	4286      	cmp	r6, r0
10001004:	eb67 0101 	sbc.w	r1, r7, r1
10001008:	2900      	cmp	r1, #0
1000100a:	db0a      	blt.n	10001022 <sleep_ms+0x82>
1000100c:	2100      	movs	r1, #0
1000100e:	4b17      	ldr	r3, [pc, #92]	@ (1000106c <sleep_ms+0xcc>)
10001010:	4632      	mov	r2, r6
10001012:	9300      	str	r3, [sp, #0]
10001014:	4816      	ldr	r0, [pc, #88]	@ (10001070 <sleep_ms+0xd0>)
10001016:	463b      	mov	r3, r7
10001018:	9101      	str	r1, [sp, #4]
1000101a:	f7ff feb1 	bl	10000d80 <alarm_pool_add_alarm_at_force_in_context>
1000101e:	3001      	adds	r0, #1
10001020:	d0e6      	beq.n	10000ff0 <sleep_ms+0x50>
10001022:	f04f 0c00 	mov.w	ip, #0
10001026:	4a13      	ldr	r2, [pc, #76]	@ (10001074 <sleep_ms+0xd4>)
10001028:	4913      	ldr	r1, [pc, #76]	@ (10001078 <sleep_ms+0xd8>)
1000102a:	6a53      	ldr	r3, [r2, #36]	@ 0x24
1000102c:	429f      	cmp	r7, r3
1000102e:	d804      	bhi.n	1000103a <sleep_ms+0x9a>
10001030:	6a90      	ldr	r0, [r2, #40]	@ 0x28
10001032:	42b0      	cmp	r0, r6
10001034:	d2dc      	bcs.n	10000ff0 <sleep_ms+0x50>
10001036:	429f      	cmp	r7, r3
10001038:	d1da      	bne.n	10000ff0 <sleep_ms+0x50>
1000103a:	680b      	ldr	r3, [r1, #0]
1000103c:	f3ef 8010 	mrs	r0, PRIMASK
10001040:	b672      	cpsid	i
10001042:	e8d3 8fcf 	ldaexb	r8, [r3]
10001046:	f05f 0e01 	movs.w	lr, #1
1000104a:	f1b8 0f00 	cmp.w	r8, #0
1000104e:	d1f8      	bne.n	10001042 <sleep_ms+0xa2>
10001050:	e8c3 ef48 	strexb	r8, lr, [r3]
10001054:	f1b8 0f00 	cmp.w	r8, #0
10001058:	d1f3      	bne.n	10001042 <sleep_ms+0xa2>
1000105a:	f3bf 8f5f 	dmb	sy
1000105e:	680b      	ldr	r3, [r1, #0]
10001060:	e8c3 cf8f 	stlb	ip, [r3]
10001064:	f380 8810 	msr	PRIMASK, r0
10001068:	bf20      	wfe
1000106a:	e7de      	b.n	1000102a <sleep_ms+0x8a>
1000106c:	10000951 	.word	0x10000951
10001070:	2000096c 	.word	0x2000096c
10001074:	400b0000 	.word	0x400b0000
10001078:	20000bc4 	.word	0x20000bc4

1000107c <best_effort_wfe_or_timeout>:
1000107c:	e92d 43f0 	stmdb	sp!, {r4, r5, r6, r7, r8, r9, lr}
10001080:	4606      	mov	r6, r0
10001082:	460d      	mov	r5, r1
10001084:	b083      	sub	sp, #12
10001086:	f3ef 8405 	mrs	r4, IPSR
1000108a:	b2e4      	uxtb	r4, r4
1000108c:	b13c      	cbz	r4, 1000109e <best_effort_wfe_or_timeout+0x22>
1000108e:	4b2d      	ldr	r3, [pc, #180]	@ (10001144 <best_effort_wfe_or_timeout+0xc8>)
10001090:	6a5a      	ldr	r2, [r3, #36]	@ 0x24
10001092:	42aa      	cmp	r2, r5
10001094:	d21c      	bcs.n	100010d0 <best_effort_wfe_or_timeout+0x54>
10001096:	2000      	movs	r0, #0
10001098:	b003      	add	sp, #12
1000109a:	e8bd 83f0 	ldmia.w	sp!, {r4, r5, r6, r7, r8, r9, pc}
1000109e:	4f2a      	ldr	r7, [pc, #168]	@ (10001148 <best_effort_wfe_or_timeout+0xcc>)
100010a0:	f8d7 900c 	ldr.w	r9, [r7, #12]
100010a4:	f897 8000 	ldrb.w	r8, [r7]
100010a8:	4648      	mov	r0, r9
100010aa:	f000 f863 	bl	10001174 <timer_time_us_64>
100010ae:	f108 0804 	add.w	r8, r8, #4
100010b2:	f859 3028 	ldr.w	r3, [r9, r8, lsl #2]
100010b6:	1a1b      	subs	r3, r3, r0
100010b8:	1a30      	subs	r0, r6, r0
100010ba:	eb65 0101 	sbc.w	r1, r5, r1
100010be:	4298      	cmp	r0, r3
100010c0:	f171 0100 	sbcs.w	r1, r1, #0
100010c4:	db10      	blt.n	100010e8 <best_effort_wfe_or_timeout+0x6c>
100010c6:	bf20      	wfe
100010c8:	4b1e      	ldr	r3, [pc, #120]	@ (10001144 <best_effort_wfe_or_timeout+0xc8>)
100010ca:	6a5a      	ldr	r2, [r3, #36]	@ 0x24
100010cc:	42aa      	cmp	r2, r5
100010ce:	d3e2      	bcc.n	10001096 <best_effort_wfe_or_timeout+0x1a>
100010d0:	bf14      	ite	ne
100010d2:	2401      	movne	r4, #1
100010d4:	2400      	moveq	r4, #0
100010d6:	6a9b      	ldr	r3, [r3, #40]	@ 0x28
100010d8:	42b3      	cmp	r3, r6
100010da:	bf34      	ite	cc
100010dc:	4620      	movcc	r0, r4
100010de:	f044 0001 	orrcs.w	r0, r4, #1
100010e2:	b003      	add	sp, #12
100010e4:	e8bd 83f0 	ldmia.w	sp!, {r4, r5, r6, r7, r8, r9, pc}
100010e8:	f000 f84c 	bl	10001184 <time_us_64>
100010ec:	4286      	cmp	r6, r0
100010ee:	eb65 0101 	sbc.w	r1, r5, r1
100010f2:	2900      	cmp	r1, #0
100010f4:	db14      	blt.n	10001120 <best_effort_wfe_or_timeout+0xa4>
100010f6:	4b15      	ldr	r3, [pc, #84]	@ (1000114c <best_effort_wfe_or_timeout+0xd0>)
100010f8:	4638      	mov	r0, r7
100010fa:	e9cd 3400 	strd	r3, r4, [sp]
100010fe:	4632      	mov	r2, r6
10001100:	462b      	mov	r3, r5
10001102:	f7ff fe3d 	bl	10000d80 <alarm_pool_add_alarm_at_force_in_context>
10001106:	1e01      	subs	r1, r0, #0
10001108:	dd0a      	ble.n	10001120 <best_effort_wfe_or_timeout+0xa4>
1000110a:	4b0e      	ldr	r3, [pc, #56]	@ (10001144 <best_effort_wfe_or_timeout+0xc8>)
1000110c:	6a5a      	ldr	r2, [r3, #36]	@ 0x24
1000110e:	42aa      	cmp	r2, r5
10001110:	d316      	bcc.n	10001140 <best_effort_wfe_or_timeout+0xc4>
10001112:	6a9b      	ldr	r3, [r3, #40]	@ 0x28
10001114:	42b3      	cmp	r3, r6
10001116:	d311      	bcc.n	1000113c <best_effort_wfe_or_timeout+0xc0>
10001118:	480b      	ldr	r0, [pc, #44]	@ (10001148 <best_effort_wfe_or_timeout+0xcc>)
1000111a:	f7ff fe95 	bl	10000e48 <alarm_pool_cancel_alarm>
1000111e:	e7b6      	b.n	1000108e <best_effort_wfe_or_timeout+0x12>
10001120:	4b08      	ldr	r3, [pc, #32]	@ (10001144 <best_effort_wfe_or_timeout+0xc8>)
10001122:	6a5c      	ldr	r4, [r3, #36]	@ 0x24
10001124:	42ac      	cmp	r4, r5
10001126:	d3b6      	bcc.n	10001096 <best_effort_wfe_or_timeout+0x1a>
10001128:	1b64      	subs	r4, r4, r5
1000112a:	bf18      	it	ne
1000112c:	2401      	movne	r4, #1
1000112e:	6a9b      	ldr	r3, [r3, #40]	@ 0x28
10001130:	42b3      	cmp	r3, r6
10001132:	bf34      	ite	cc
10001134:	4620      	movcc	r0, r4
10001136:	f044 0001 	orrcs.w	r0, r4, #1
1000113a:	e7ad      	b.n	10001098 <best_effort_wfe_or_timeout+0x1c>
1000113c:	42aa      	cmp	r2, r5
1000113e:	d1eb      	bne.n	10001118 <best_effort_wfe_or_timeout+0x9c>
10001140:	bf20      	wfe
10001142:	e7e9      	b.n	10001118 <best_effort_wfe_or_timeout+0x9c>
10001144:	400b0000 	.word	0x400b0000
10001148:	2000096c 	.word	0x2000096c
1000114c:	10000951 	.word	0x10000951

10001150 <timer_hardware_alarm_claim>:
10001150:	b410      	push	{r4}
10001152:	4b05      	ldr	r3, [pc, #20]	@ (10001168 <timer_hardware_alarm_claim+0x18>)
10001154:	4c05      	ldr	r4, [pc, #20]	@ (1000116c <timer_hardware_alarm_claim+0x1c>)
10001156:	4a06      	ldr	r2, [pc, #24]	@ (10001170 <timer_hardware_alarm_claim+0x20>)
10001158:	42a0      	cmp	r0, r4
1000115a:	bf14      	ite	ne
1000115c:	4618      	movne	r0, r3
1000115e:	1c58      	addeq	r0, r3, #1
10001160:	f85d 4b04 	ldr.w	r4, [sp], #4
10001164:	f7ff b9be 	b.w	100004e4 <hw_claim_or_assert>
10001168:	20000b50 	.word	0x20000b50
1000116c:	400b8000 	.word	0x400b8000
10001170:	10003944 	.word	0x10003944

10001174 <timer_time_us_64>:
10001174:	4603      	mov	r3, r0
10001176:	6a41      	ldr	r1, [r0, #36]	@ 0x24
10001178:	460a      	mov	r2, r1
1000117a:	6a98      	ldr	r0, [r3, #40]	@ 0x28
1000117c:	6a59      	ldr	r1, [r3, #36]	@ 0x24
1000117e:	428a      	cmp	r2, r1
10001180:	d1fa      	bne.n	10001178 <timer_time_us_64+0x4>
10001182:	4770      	bx	lr

10001184 <time_us_64>:
10001184:	4b03      	ldr	r3, [pc, #12]	@ (10001194 <time_us_64+0x10>)
10001186:	6a59      	ldr	r1, [r3, #36]	@ 0x24
10001188:	460a      	mov	r2, r1
1000118a:	6a98      	ldr	r0, [r3, #40]	@ 0x28
1000118c:	6a59      	ldr	r1, [r3, #36]	@ 0x24
1000118e:	4291      	cmp	r1, r2
10001190:	d1fa      	bne.n	10001188 <time_us_64+0x4>
10001192:	4770      	bx	lr
10001194:	400b0000 	.word	0x400b0000

10001198 <busy_wait_us>:
10001198:	b430      	push	{r4, r5}
1000119a:	4a15      	ldr	r2, [pc, #84]	@ (100011f0 <busy_wait_us+0x58>)
1000119c:	6a53      	ldr	r3, [r2, #36]	@ 0x24
1000119e:	469c      	mov	ip, r3
100011a0:	6a94      	ldr	r4, [r2, #40]	@ 0x28
100011a2:	6a53      	ldr	r3, [r2, #36]	@ 0x24
100011a4:	4563      	cmp	r3, ip
100011a6:	d1fa      	bne.n	1000119e <busy_wait_us+0x6>
100011a8:	1902      	adds	r2, r0, r4
100011aa:	4159      	adcs	r1, r3
100011ac:	f04f 0500 	mov.w	r5, #0
100011b0:	bf28      	it	cs
100011b2:	2501      	movcs	r5, #1
100011b4:	4b0e      	ldr	r3, [pc, #56]	@ (100011f0 <busy_wait_us+0x58>)
100011b6:	6a5b      	ldr	r3, [r3, #36]	@ 0x24
100011b8:	b1b5      	cbz	r5, 100011e8 <busy_wait_us+0x50>
100011ba:	1c5a      	adds	r2, r3, #1
100011bc:	bf08      	it	eq
100011be:	461a      	moveq	r2, r3
100011c0:	d008      	beq.n	100011d4 <busy_wait_us+0x3c>
100011c2:	f04f 31ff 	mov.w	r1, #4294967295
100011c6:	460a      	mov	r2, r1
100011c8:	4809      	ldr	r0, [pc, #36]	@ (100011f0 <busy_wait_us+0x58>)
100011ca:	6a43      	ldr	r3, [r0, #36]	@ 0x24
100011cc:	428b      	cmp	r3, r1
100011ce:	d3fc      	bcc.n	100011ca <busy_wait_us+0x32>
100011d0:	428b      	cmp	r3, r1
100011d2:	d107      	bne.n	100011e4 <busy_wait_us+0x4c>
100011d4:	4906      	ldr	r1, [pc, #24]	@ (100011f0 <busy_wait_us+0x58>)
100011d6:	e002      	b.n	100011de <busy_wait_us+0x46>
100011d8:	6a48      	ldr	r0, [r1, #36]	@ 0x24
100011da:	4298      	cmp	r0, r3
100011dc:	d102      	bne.n	100011e4 <busy_wait_us+0x4c>
100011de:	6a88      	ldr	r0, [r1, #40]	@ 0x28
100011e0:	4290      	cmp	r0, r2
100011e2:	d3f9      	bcc.n	100011d8 <busy_wait_us+0x40>
100011e4:	bc30      	pop	{r4, r5}
100011e6:	4770      	bx	lr
100011e8:	4299      	cmp	r1, r3
100011ea:	d8ed      	bhi.n	100011c8 <busy_wait_us+0x30>
100011ec:	e7f0      	b.n	100011d0 <busy_wait_us+0x38>
100011ee:	bf00      	nop
100011f0:	400b0000 	.word	0x400b0000

100011f4 <busy_wait_until>:
100011f4:	4a07      	ldr	r2, [pc, #28]	@ (10001214 <busy_wait_until+0x20>)
100011f6:	6a53      	ldr	r3, [r2, #36]	@ 0x24
100011f8:	4299      	cmp	r1, r3
100011fa:	d8fc      	bhi.n	100011f6 <busy_wait_until+0x2>
100011fc:	4299      	cmp	r1, r3
100011fe:	d107      	bne.n	10001210 <busy_wait_until+0x1c>
10001200:	4b04      	ldr	r3, [pc, #16]	@ (10001214 <busy_wait_until+0x20>)
10001202:	e002      	b.n	1000120a <busy_wait_until+0x16>
10001204:	6a5a      	ldr	r2, [r3, #36]	@ 0x24
10001206:	4291      	cmp	r1, r2
10001208:	d102      	bne.n	10001210 <busy_wait_until+0x1c>
1000120a:	6a9a      	ldr	r2, [r3, #40]	@ 0x28
1000120c:	4290      	cmp	r0, r2
1000120e:	d8f9      	bhi.n	10001204 <busy_wait_until+0x10>
10001210:	4770      	bx	lr
10001212:	bf00      	nop
10001214:	400b0000 	.word	0x400b0000

10001218 <uart_init>:
10001218:	b5f8      	push	{r3, r4, r5, r6, r7, lr}
1000121a:	4605      	mov	r5, r0
1000121c:	2006      	movs	r0, #6
1000121e:	460e      	mov	r6, r1
10001220:	f000 f8e4 	bl	100013ec <clock_get_hz>
10001224:	2800      	cmp	r0, #0
10001226:	d042      	beq.n	100012ae <uart_init+0x96>
10001228:	4a35      	ldr	r2, [pc, #212]	@ (10001300 <uart_init+0xe8>)
1000122a:	4836      	ldr	r0, [pc, #216]	@ (10001304 <uart_init+0xec>)
1000122c:	4295      	cmp	r5, r2
1000122e:	bf14      	ite	ne
10001230:	f04f 6280 	movne.w	r2, #67108864	@ 0x4000000
10001234:	f04f 6200 	moveq.w	r2, #134217728	@ 0x8000000
10001238:	4b33      	ldr	r3, [pc, #204]	@ (10001308 <uart_init+0xf0>)
1000123a:	4934      	ldr	r1, [pc, #208]	@ (1000130c <uart_init+0xf4>)
1000123c:	6002      	str	r2, [r0, #0]
1000123e:	601a      	str	r2, [r3, #0]
10001240:	688c      	ldr	r4, [r1, #8]
10001242:	ea32 0404 	bics.w	r4, r2, r4
10001246:	d1fb      	bne.n	10001240 <uart_init+0x28>
10001248:	4b2d      	ldr	r3, [pc, #180]	@ (10001300 <uart_init+0xe8>)
1000124a:	f44f 7180 	mov.w	r1, #256	@ 0x100
1000124e:	1aeb      	subs	r3, r5, r3
10001250:	fab3 f383 	clz	r3, r3
10001254:	4a2e      	ldr	r2, [pc, #184]	@ (10001310 <uart_init+0xf8>)
10001256:	095b      	lsrs	r3, r3, #5
10001258:	2006      	movs	r0, #6
1000125a:	f822 1013 	strh.w	r1, [r2, r3, lsl #1]
1000125e:	f000 f8c5 	bl	100013ec <clock_get_hz>
10001262:	00c3      	lsls	r3, r0, #3
10001264:	fbb3 f3f6 	udiv	r3, r3, r6
10001268:	3301      	adds	r3, #1
1000126a:	09da      	lsrs	r2, r3, #7
1000126c:	d120      	bne.n	100012b0 <uart_init+0x98>
1000126e:	2640      	movs	r6, #64	@ 0x40
10001270:	2101      	movs	r1, #1
10001272:	6269      	str	r1, [r5, #36]	@ 0x24
10001274:	62aa      	str	r2, [r5, #40]	@ 0x28
10001276:	6b2f      	ldr	r7, [r5, #48]	@ 0x30
10001278:	07fb      	lsls	r3, r7, #31
1000127a:	d422      	bmi.n	100012c2 <uart_init+0xaa>
1000127c:	462b      	mov	r3, r5
1000127e:	2200      	movs	r2, #0
10001280:	f853 1f2c 	ldr.w	r1, [r3, #44]!
10001284:	2006      	movs	r0, #6
10001286:	f503 5480 	add.w	r4, r3, #4096	@ 0x1000
1000128a:	6022      	str	r2, [r4, #0]
1000128c:	632f      	str	r7, [r5, #48]	@ 0x30
1000128e:	f000 f8ad 	bl	100013ec <clock_get_hz>
10001292:	f240 3101 	movw	r1, #769	@ 0x301
10001296:	2203      	movs	r2, #3
10001298:	0080      	lsls	r0, r0, #2
1000129a:	fbb0 f0f6 	udiv	r0, r0, r6
1000129e:	6aeb      	ldr	r3, [r5, #44]	@ 0x2c
100012a0:	f083 0370 	eor.w	r3, r3, #112	@ 0x70
100012a4:	f003 037e 	and.w	r3, r3, #126	@ 0x7e
100012a8:	6023      	str	r3, [r4, #0]
100012aa:	6329      	str	r1, [r5, #48]	@ 0x30
100012ac:	64aa      	str	r2, [r5, #72]	@ 0x48
100012ae:	bdf8      	pop	{r3, r4, r5, r6, r7, pc}
100012b0:	f64f 71fe 	movw	r1, #65534	@ 0xfffe
100012b4:	428a      	cmp	r2, r1
100012b6:	d91b      	bls.n	100012f0 <uart_init+0xd8>
100012b8:	4622      	mov	r2, r4
100012ba:	f64f 71ff 	movw	r1, #65535	@ 0xffff
100012be:	4e15      	ldr	r6, [pc, #84]	@ (10001314 <uart_init+0xfc>)
100012c0:	e7d7      	b.n	10001272 <uart_init+0x5a>
100012c2:	f240 3201 	movw	r2, #769	@ 0x301
100012c6:	f505 5340 	add.w	r3, r5, #12288	@ 0x3000
100012ca:	631a      	str	r2, [r3, #48]	@ 0x30
100012cc:	6a6b      	ldr	r3, [r5, #36]	@ 0x24
100012ce:	6aac      	ldr	r4, [r5, #40]	@ 0x28
100012d0:	2006      	movs	r0, #6
100012d2:	eb04 1483 	add.w	r4, r4, r3, lsl #6
100012d6:	f000 f889 	bl	100013ec <clock_get_hz>
100012da:	4b0f      	ldr	r3, [pc, #60]	@ (10001318 <uart_init+0x100>)
100012dc:	02a4      	lsls	r4, r4, #10
100012de:	fba3 2300 	umull	r2, r3, r3, r0
100012e2:	0adb      	lsrs	r3, r3, #11
100012e4:	2100      	movs	r1, #0
100012e6:	fbb4 f0f3 	udiv	r0, r4, r3
100012ea:	f7ff ff55 	bl	10001198 <busy_wait_us>
100012ee:	e7c5      	b.n	1000127c <uart_init+0x64>
100012f0:	f3c3 0345 	ubfx	r3, r3, #1, #6
100012f4:	4611      	mov	r1, r2
100012f6:	eb03 1682 	add.w	r6, r3, r2, lsl #6
100012fa:	461a      	mov	r2, r3
100012fc:	e7b9      	b.n	10001272 <uart_init+0x5a>
100012fe:	bf00      	nop
10001300:	40078000 	.word	0x40078000
10001304:	40022000 	.word	0x40022000
10001308:	40023000 	.word	0x40023000
1000130c:	40020000 	.word	0x40020000
10001310:	20000bc8 	.word	0x20000bc8
10001314:	003fffc0 	.word	0x003fffc0
10001318:	8f2b7b75 	.word	0x8f2b7b75

1000131c <clock_configure_undivided>:
1000131c:	eb00 0c40 	add.w	ip, r0, r0, lsl #1
10001320:	ea4f 0c8c 	mov.w	ip, ip, lsl #2
10001324:	f10c 4c80 	add.w	ip, ip, #1073741824	@ 0x40000000
10001328:	f50c 3c80 	add.w	ip, ip, #65536	@ 0x10000
1000132c:	b5f0      	push	{r4, r5, r6, r7, lr}
1000132e:	4616      	mov	r6, r2
10001330:	f8dc 2004 	ldr.w	r2, [ip, #4]
10001334:	1f05      	subs	r5, r0, #4
10001336:	f5b2 3f80 	cmp.w	r2, #65536	@ 0x10000
1000133a:	bf38      	it	cc
1000133c:	f44f 3280 	movcc.w	r2, #65536	@ 0x10000
10001340:	b2ed      	uxtb	r5, r5
10001342:	bf38      	it	cc
10001344:	f8cc 2004 	strcc.w	r2, [ip, #4]
10001348:	2d01      	cmp	r5, #1
1000134a:	d92a      	bls.n	100013a2 <clock_configure_undivided+0x86>
1000134c:	f44f 6700 	mov.w	r7, #2048	@ 0x800
10001350:	4c25      	ldr	r4, [pc, #148]	@ (100013e8 <clock_configure_undivided+0xcc>)
10001352:	f50c 5240 	add.w	r2, ip, #12288	@ 0x3000
10001356:	6017      	str	r7, [r2, #0]
10001358:	f854 2020 	ldr.w	r2, [r4, r0, lsl #2]
1000135c:	b9b2      	cbnz	r2, 1000138c <clock_configure_undivided+0x70>
1000135e:	f8dc 2000 	ldr.w	r2, [ip]
10001362:	2d01      	cmp	r5, #1
10001364:	ea82 1246 	eor.w	r2, r2, r6, lsl #5
10001368:	f002 02e0 	and.w	r2, r2, #224	@ 0xe0
1000136c:	f50c 5680 	add.w	r6, ip, #4096	@ 0x1000
10001370:	6032      	str	r2, [r6, #0]
10001372:	d92a      	bls.n	100013ca <clock_configure_undivided+0xae>
10001374:	f44f 6100 	mov.w	r1, #2048	@ 0x800
10001378:	f844 3020 	str.w	r3, [r4, r0, lsl #2]
1000137c:	f44f 3380 	mov.w	r3, #65536	@ 0x10000
10001380:	f50c 5200 	add.w	r2, ip, #8192	@ 0x2000
10001384:	6011      	str	r1, [r2, #0]
10001386:	f8cc 3004 	str.w	r3, [ip, #4]
1000138a:	bdf0      	pop	{r4, r5, r6, r7, pc}
1000138c:	6967      	ldr	r7, [r4, #20]
1000138e:	fbb7 fef2 	udiv	lr, r7, r2
10001392:	f10e 0e01 	add.w	lr, lr, #1
10001396:	eb0e 0e4e 	add.w	lr, lr, lr, lsl #1
1000139a:	f1be 0e03 	subs.w	lr, lr, #3
1000139e:	d2fc      	bcs.n	1000139a <clock_configure_undivided+0x7e>
100013a0:	e7dd      	b.n	1000135e <clock_configure_undivided+0x42>
100013a2:	2901      	cmp	r1, #1
100013a4:	d1d2      	bne.n	1000134c <clock_configure_undivided+0x30>
100013a6:	2403      	movs	r4, #3
100013a8:	f50c 5240 	add.w	r2, ip, #12288	@ 0x3000
100013ac:	6014      	str	r4, [r2, #0]
100013ae:	f8dc 2008 	ldr.w	r2, [ip, #8]
100013b2:	07d2      	lsls	r2, r2, #31
100013b4:	d5fb      	bpl.n	100013ae <clock_configure_undivided+0x92>
100013b6:	f8dc 2000 	ldr.w	r2, [ip]
100013ba:	4c0b      	ldr	r4, [pc, #44]	@ (100013e8 <clock_configure_undivided+0xcc>)
100013bc:	ea82 1246 	eor.w	r2, r2, r6, lsl #5
100013c0:	f002 02e0 	and.w	r2, r2, #224	@ 0xe0
100013c4:	f50c 5680 	add.w	r6, ip, #4096	@ 0x1000
100013c8:	6032      	str	r2, [r6, #0]
100013ca:	2201      	movs	r2, #1
100013cc:	f8dc 5000 	ldr.w	r5, [ip]
100013d0:	404d      	eors	r5, r1
100013d2:	f005 0503 	and.w	r5, r5, #3
100013d6:	6035      	str	r5, [r6, #0]
100013d8:	fa02 f101 	lsl.w	r1, r2, r1
100013dc:	f8dc 2008 	ldr.w	r2, [ip, #8]
100013e0:	420a      	tst	r2, r1
100013e2:	d0fb      	beq.n	100013dc <clock_configure_undivided+0xc0>
100013e4:	e7c6      	b.n	10001374 <clock_configure_undivided+0x58>
100013e6:	bf00      	nop
100013e8:	20000b54 	.word	0x20000b54

100013ec <clock_get_hz>:
100013ec:	4b01      	ldr	r3, [pc, #4]	@ (100013f4 <clock_get_hz+0x8>)
100013ee:	f853 0020 	ldr.w	r0, [r3, r0, lsl #2]
100013f2:	4770      	bx	lr
100013f4:	20000b54 	.word	0x20000b54

100013f8 <pll_init>:
100013f8:	b470      	push	{r4, r5, r6}
100013fa:	9d03      	ldr	r5, [sp, #12]
100013fc:	6804      	ldr	r4, [r0, #0]
100013fe:	032d      	lsls	r5, r5, #12
10001400:	ea45 4503 	orr.w	r5, r5, r3, lsl #16
10001404:	4b1b      	ldr	r3, [pc, #108]	@ (10001474 <pll_init+0x7c>)
10001406:	2c00      	cmp	r4, #0
10001408:	fbb3 f3f1 	udiv	r3, r3, r1
1000140c:	fbb2 f6f3 	udiv	r6, r2, r3
10001410:	db1f      	blt.n	10001452 <pll_init+0x5a>
10001412:	4a19      	ldr	r2, [pc, #100]	@ (10001478 <pll_init+0x80>)
10001414:	4b19      	ldr	r3, [pc, #100]	@ (1000147c <pll_init+0x84>)
10001416:	4290      	cmp	r0, r2
10001418:	bf14      	ite	ne
1000141a:	f44f 4280 	movne.w	r2, #16384	@ 0x4000
1000141e:	f44f 4200 	moveq.w	r2, #32768	@ 0x8000
10001422:	4c17      	ldr	r4, [pc, #92]	@ (10001480 <pll_init+0x88>)
10001424:	601a      	str	r2, [r3, #0]
10001426:	f503 5380 	add.w	r3, r3, #4096	@ 0x1000
1000142a:	601a      	str	r2, [r3, #0]
1000142c:	68a3      	ldr	r3, [r4, #8]
1000142e:	ea32 0303 	bics.w	r3, r2, r3
10001432:	d1fb      	bne.n	1000142c <pll_init+0x34>
10001434:	2221      	movs	r2, #33	@ 0x21
10001436:	f500 5340 	add.w	r3, r0, #12288	@ 0x3000
1000143a:	3304      	adds	r3, #4
1000143c:	6001      	str	r1, [r0, #0]
1000143e:	6086      	str	r6, [r0, #8]
10001440:	601a      	str	r2, [r3, #0]
10001442:	6802      	ldr	r2, [r0, #0]
10001444:	2a00      	cmp	r2, #0
10001446:	dafc      	bge.n	10001442 <pll_init+0x4a>
10001448:	2208      	movs	r2, #8
1000144a:	60c5      	str	r5, [r0, #12]
1000144c:	601a      	str	r2, [r3, #0]
1000144e:	bc70      	pop	{r4, r5, r6}
10001450:	4770      	bx	lr
10001452:	6803      	ldr	r3, [r0, #0]
10001454:	f003 033f 	and.w	r3, r3, #63	@ 0x3f
10001458:	428b      	cmp	r3, r1
1000145a:	d1da      	bne.n	10001412 <pll_init+0x1a>
1000145c:	6883      	ldr	r3, [r0, #8]
1000145e:	f3c3 030b 	ubfx	r3, r3, #0, #12
10001462:	42b3      	cmp	r3, r6
10001464:	d1d5      	bne.n	10001412 <pll_init+0x1a>
10001466:	68c3      	ldr	r3, [r0, #12]
10001468:	f403 23ee 	and.w	r3, r3, #487424	@ 0x77000
1000146c:	42ab      	cmp	r3, r5
1000146e:	d1d0      	bne.n	10001412 <pll_init+0x1a>
10001470:	e7ed      	b.n	1000144e <pll_init+0x56>
10001472:	bf00      	nop
10001474:	00b71b00 	.word	0x00b71b00
10001478:	40058000 	.word	0x40058000
1000147c:	40022000 	.word	0x40022000
10001480:	40020000 	.word	0x40020000

10001484 <tick_start>:
10001484:	2301      	movs	r3, #1
10001486:	eb00 0040 	add.w	r0, r0, r0, lsl #1
1000148a:	0080      	lsls	r0, r0, #2
1000148c:	f100 4080 	add.w	r0, r0, #1073741824	@ 0x40000000
10001490:	f500 1084 	add.w	r0, r0, #1081344	@ 0x108000
10001494:	6041      	str	r1, [r0, #4]
10001496:	6003      	str	r3, [r0, #0]
10001498:	4770      	bx	lr
1000149a:	bf00      	nop

1000149c <rom_func_lookup>:
1000149c:	2300      	movs	r3, #0
1000149e:	8adb      	ldrh	r3, [r3, #22]
100014a0:	2200      	movs	r2, #0
100014a2:	e842 f200 	tt	r2, r2
100014a6:	0252      	lsls	r2, r2, #9
100014a8:	d401      	bmi.n	100014ae <rom_func_lookup+0x12>
100014aa:	2110      	movs	r1, #16
100014ac:	4718      	bx	r3
100014ae:	2104      	movs	r1, #4
100014b0:	4718      	bx	r3
100014b2:	bf00      	nop

100014b4 <runtime_init_bootrom_locking_enable>:
100014b4:	4a03      	ldr	r2, [pc, #12]	@ (100014c4 <runtime_init_bootrom_locking_enable+0x10>)
100014b6:	f8d2 3828 	ldr.w	r3, [r2, #2088]	@ 0x828
100014ba:	2b00      	cmp	r3, #0
100014bc:	d0fb      	beq.n	100014b6 <runtime_init_bootrom_locking_enable+0x2>
100014be:	f3bf 8f5f 	dmb	sy
100014c2:	4770      	bx	lr
100014c4:	400e0000 	.word	0x400e0000

100014c8 <runtime_init_boot_locks_reset>:
100014c8:	2100      	movs	r1, #0
100014ca:	4b04      	ldr	r3, [pc, #16]	@ (100014dc <runtime_init_boot_locks_reset+0x14>)
100014cc:	4a04      	ldr	r2, [pc, #16]	@ (100014e0 <runtime_init_boot_locks_reset+0x18>)
100014ce:	f3bf 8f5f 	dmb	sy
100014d2:	f843 1b04 	str.w	r1, [r3], #4
100014d6:	4293      	cmp	r3, r2
100014d8:	d1f9      	bne.n	100014ce <runtime_init_boot_locks_reset+0x6>
100014da:	4770      	bx	lr
100014dc:	400e080c 	.word	0x400e080c
100014e0:	400e082c 	.word	0x400e082c

100014e4 <xosc_init>:
100014e4:	b410      	push	{r4}
100014e6:	f44f 708d 	mov.w	r0, #282	@ 0x11a
100014ea:	f44f 642a 	mov.w	r4, #2720	@ 0xaa0
100014ee:	4a06      	ldr	r2, [pc, #24]	@ (10001508 <xosc_init+0x24>)
100014f0:	4b06      	ldr	r3, [pc, #24]	@ (1000150c <xosc_init+0x28>)
100014f2:	4907      	ldr	r1, [pc, #28]	@ (10001510 <xosc_init+0x2c>)
100014f4:	6014      	str	r4, [r2, #0]
100014f6:	60d0      	str	r0, [r2, #12]
100014f8:	6019      	str	r1, [r3, #0]
100014fa:	6853      	ldr	r3, [r2, #4]
100014fc:	2b00      	cmp	r3, #0
100014fe:	dafc      	bge.n	100014fa <xosc_init+0x16>
10001500:	f85d 4b04 	ldr.w	r4, [sp], #4
10001504:	4770      	bx	lr
10001506:	bf00      	nop
10001508:	40048000 	.word	0x40048000
1000150c:	4004a000 	.word	0x4004a000
10001510:	00fab000 	.word	0x00fab000

10001514 <first_per_core_initializer>:
10001514:	4770      	bx	lr
10001516:	bf00      	nop

10001518 <hard_assertion_failure>:
10001518:	b508      	push	{r3, lr}
1000151a:	4801      	ldr	r0, [pc, #4]	@ (10001520 <hard_assertion_failure+0x8>)
1000151c:	f7fe ffca 	bl	100004b4 <panic>
10001520:	10003968 	.word	0x10003968

10001524 <runtime_run_initializers>:
10001524:	b538      	push	{r3, r4, r5, lr}
10001526:	4c05      	ldr	r4, [pc, #20]	@ (1000153c <runtime_run_initializers+0x18>)
10001528:	4d05      	ldr	r5, [pc, #20]	@ (10001540 <runtime_run_initializers+0x1c>)
1000152a:	42ac      	cmp	r4, r5
1000152c:	d204      	bcs.n	10001538 <runtime_run_initializers+0x14>
1000152e:	f854 3b04 	ldr.w	r3, [r4], #4
10001532:	4798      	blx	r3
10001534:	42ac      	cmp	r4, r5
10001536:	d3fa      	bcc.n	1000152e <runtime_run_initializers+0xa>
10001538:	bd38      	pop	{r3, r4, r5, pc}
1000153a:	bf00      	nop
1000153c:	10003868 	.word	0x10003868
10001540:	100038a8 	.word	0x100038a8

10001544 <runtime_init_early_resets>:
10001544:	b410      	push	{r4}
10001546:	4807      	ldr	r0, [pc, #28]	@ (10001564 <runtime_init_early_resets+0x20>)
10001548:	4c07      	ldr	r4, [pc, #28]	@ (10001568 <runtime_init_early_resets+0x24>)
1000154a:	4b08      	ldr	r3, [pc, #32]	@ (1000156c <runtime_init_early_resets+0x28>)
1000154c:	4a08      	ldr	r2, [pc, #32]	@ (10001570 <runtime_init_early_resets+0x2c>)
1000154e:	4909      	ldr	r1, [pc, #36]	@ (10001574 <runtime_init_early_resets+0x30>)
10001550:	6004      	str	r4, [r0, #0]
10001552:	601a      	str	r2, [r3, #0]
10001554:	688b      	ldr	r3, [r1, #8]
10001556:	ea32 0303 	bics.w	r3, r2, r3
1000155a:	d1fb      	bne.n	10001554 <runtime_init_early_resets+0x10>
1000155c:	f85d 4b04 	ldr.w	r4, [sp], #4
10001560:	4770      	bx	lr
10001562:	bf00      	nop
10001564:	40022000 	.word	0x40022000
10001568:	efef3b7f 	.word	0xefef3b7f
1000156c:	40023000 	.word	0x40023000
10001570:	03f3fff6 	.word	0x03f3fff6
10001574:	40020000 	.word	0x40020000

10001578 <runtime_init_usb_power_down>:
10001578:	4b04      	ldr	r3, [pc, #16]	@ (1000158c <runtime_init_usb_power_down+0x14>)
1000157a:	6cdb      	ldr	r3, [r3, #76]	@ 0x4c
1000157c:	f5b3 4f00 	cmp.w	r3, #32768	@ 0x8000
10001580:	d103      	bne.n	1000158a <runtime_init_usb_power_down+0x12>
10001582:	f44f 2280 	mov.w	r2, #262144	@ 0x40000
10001586:	4b02      	ldr	r3, [pc, #8]	@ (10001590 <runtime_init_usb_power_down+0x18>)
10001588:	64da      	str	r2, [r3, #76]	@ 0x4c
1000158a:	4770      	bx	lr
1000158c:	50110000 	.word	0x50110000
10001590:	50112000 	.word	0x50112000

10001594 <runtime_init_per_core_enable_coprocessors>:
10001594:	f04f 22e0 	mov.w	r2, #3758153728	@ 0xe000e000
10001598:	4b04      	ldr	r3, [pc, #16]	@ (100015ac <runtime_init_per_core_enable_coprocessors+0x18>)
1000159a:	f8d2 1d88 	ldr.w	r1, [r2, #3464]	@ 0xd88
1000159e:	430b      	orrs	r3, r1
100015a0:	f8c2 3d88 	str.w	r3, [r2, #3464]	@ 0xd88
100015a4:	ee10 0430 			dcp_rcmp r0
100015a8:	4770      	bx	lr
100015aa:	bf00      	nop
100015ac:	00300303 	.word	0x00300303

100015b0 <runtime_init_post_clock_resets>:
100015b0:	f06f 4160 	mvn.w	r1, #3758096384	@ 0xe0000000
100015b4:	4b04      	ldr	r3, [pc, #16]	@ (100015c8 <runtime_init_post_clock_resets+0x18>)
100015b6:	4a05      	ldr	r2, [pc, #20]	@ (100015cc <runtime_init_post_clock_resets+0x1c>)
100015b8:	6019      	str	r1, [r3, #0]
100015ba:	6893      	ldr	r3, [r2, #8]
100015bc:	43db      	mvns	r3, r3
100015be:	f033 4360 	bics.w	r3, r3, #3758096384	@ 0xe0000000
100015c2:	d1fa      	bne.n	100015ba <runtime_init_post_clock_resets+0xa>
100015c4:	4770      	bx	lr
100015c6:	bf00      	nop
100015c8:	40023000 	.word	0x40023000
100015cc:	40020000 	.word	0x40020000

100015d0 <runtime_init_bootrom_reset>:
100015d0:	b510      	push	{r4, lr}
100015d2:	f245 2053 	movw	r0, #21075	@ 0x5253
100015d6:	f7ff ff61 	bl	1000149c <rom_func_lookup>
100015da:	e8bd 4010 	ldmia.w	sp!, {r4, lr}
100015de:	4603      	mov	r3, r0
100015e0:	2004      	movs	r0, #4
100015e2:	4718      	bx	r3

100015e4 <runtime_init_per_core_bootrom_reset>:
100015e4:	b510      	push	{r4, lr}
100015e6:	f245 2053 	movw	r0, #21075	@ 0x5253
100015ea:	f7ff ff57 	bl	1000149c <rom_func_lookup>
100015ee:	e8bd 4010 	ldmia.w	sp!, {r4, lr}
100015f2:	4603      	mov	r3, r0
100015f4:	2001      	movs	r0, #1
100015f6:	4718      	bx	r3

100015f8 <runtime_init_spin_locks_reset>:
100015f8:	f7fe bfb4 	b.w	10000564 <spin_locks_reset>

100015fc <runtime_init_install_ram_vector_table>:
100015fc:	4914      	ldr	r1, [pc, #80]	@ (10001650 <runtime_init_install_ram_vector_table+0x54>)
100015fe:	4b15      	ldr	r3, [pc, #84]	@ (10001654 <runtime_init_install_ram_vector_table+0x58>)
10001600:	b570      	push	{r4, r5, r6, lr}
10001602:	1a5c      	subs	r4, r3, r1
10001604:	10a6      	asrs	r6, r4, #2
10001606:	2e44      	cmp	r6, #68	@ 0x44
10001608:	4632      	mov	r2, r6
1000160a:	bf28      	it	cs
1000160c:	2244      	movcs	r2, #68	@ 0x44
1000160e:	4d12      	ldr	r5, [pc, #72]	@ (10001658 <runtime_init_install_ram_vector_table+0x5c>)
10001610:	0092      	lsls	r2, r2, #2
10001612:	4628      	mov	r0, r5
10001614:	f002 f872 	bl	100036fc <memcpy>
10001618:	f5b4 7f86 	cmp.w	r4, #268	@ 0x10c
1000161c:	d813      	bhi.n	10001646 <runtime_init_install_ram_vector_table+0x4a>
1000161e:	4a0f      	ldr	r2, [pc, #60]	@ (1000165c <runtime_init_install_ram_vector_table+0x60>)
10001620:	f1c6 0044 	rsb	r0, r6, #68	@ 0x44
10001624:	d012      	beq.n	1000164c <runtime_init_install_ram_vector_table+0x50>
10001626:	192b      	adds	r3, r5, r4
10001628:	0841      	lsrs	r1, r0, #1
1000162a:	eb03 01c1 	add.w	r1, r3, r1, lsl #3
1000162e:	e9c3 2200 	strd	r2, r2, [r3]
10001632:	3308      	adds	r3, #8
10001634:	428b      	cmp	r3, r1
10001636:	d1fa      	bne.n	1000162e <runtime_init_install_ram_vector_table+0x32>
10001638:	07c3      	lsls	r3, r0, #31
1000163a:	d504      	bpl.n	10001646 <runtime_init_install_ram_vector_table+0x4a>
1000163c:	f020 0001 	bic.w	r0, r0, #1
10001640:	4430      	add	r0, r6
10001642:	f845 2020 	str.w	r2, [r5, r0, lsl #2]
10001646:	4b06      	ldr	r3, [pc, #24]	@ (10001660 <runtime_init_install_ram_vector_table+0x64>)
10001648:	609d      	str	r5, [r3, #8]
1000164a:	bd70      	pop	{r4, r5, r6, pc}
1000164c:	2043      	movs	r0, #67	@ 0x43
1000164e:	e7f8      	b.n	10001642 <runtime_init_install_ram_vector_table+0x46>
10001650:	10000000 	.word	0x10000000
10001654:	10000110 	.word	0x10000110
10001658:	20000000 	.word	0x20000000
1000165c:	10000111 	.word	0x10000111
10001660:	e000ed00 	.word	0xe000ed00

10001664 <runtime_init_clocks>:
10001664:	2300      	movs	r3, #0
10001666:	b570      	push	{r4, r5, r6, lr}
10001668:	4c2b      	ldr	r4, [pc, #172]	@ (10001718 <runtime_init_clocks+0xb4>)
1000166a:	b082      	sub	sp, #8
1000166c:	f8c4 3084 	str.w	r3, [r4, #132]	@ 0x84
10001670:	f7ff ff38 	bl	100014e4 <xosc_init>
10001674:	2201      	movs	r2, #1
10001676:	4b29      	ldr	r3, [pc, #164]	@ (1000171c <runtime_init_clocks+0xb8>)
10001678:	63da      	str	r2, [r3, #60]	@ 0x3c
1000167a:	6c63      	ldr	r3, [r4, #68]	@ 0x44
1000167c:	2b01      	cmp	r3, #1
1000167e:	d1fc      	bne.n	1000167a <runtime_init_clocks+0x16>
10001680:	2103      	movs	r1, #3
10001682:	4a26      	ldr	r2, [pc, #152]	@ (1000171c <runtime_init_clocks+0xb8>)
10001684:	4b24      	ldr	r3, [pc, #144]	@ (10001718 <runtime_init_clocks+0xb4>)
10001686:	6311      	str	r1, [r2, #48]	@ 0x30
10001688:	6b9c      	ldr	r4, [r3, #56]	@ 0x38
1000168a:	2c01      	cmp	r4, #1
1000168c:	d1fc      	bne.n	10001688 <runtime_init_clocks+0x24>
1000168e:	2602      	movs	r6, #2
10001690:	2505      	movs	r5, #5
10001692:	4621      	mov	r1, r4
10001694:	2305      	movs	r3, #5
10001696:	4a22      	ldr	r2, [pc, #136]	@ (10001720 <runtime_init_clocks+0xbc>)
10001698:	4822      	ldr	r0, [pc, #136]	@ (10001724 <runtime_init_clocks+0xc0>)
1000169a:	9600      	str	r6, [sp, #0]
1000169c:	f7ff feac 	bl	100013f8 <pll_init>
100016a0:	4621      	mov	r1, r4
100016a2:	462b      	mov	r3, r5
100016a4:	4a20      	ldr	r2, [pc, #128]	@ (10001728 <runtime_init_clocks+0xc4>)
100016a6:	4821      	ldr	r0, [pc, #132]	@ (1000172c <runtime_init_clocks+0xc8>)
100016a8:	9500      	str	r5, [sp, #0]
100016aa:	f7ff fea5 	bl	100013f8 <pll_init>
100016ae:	2200      	movs	r2, #0
100016b0:	2004      	movs	r0, #4
100016b2:	4631      	mov	r1, r6
100016b4:	4b1e      	ldr	r3, [pc, #120]	@ (10001730 <runtime_init_clocks+0xcc>)
100016b6:	f7ff fe31 	bl	1000131c <clock_configure_undivided>
100016ba:	4621      	mov	r1, r4
100016bc:	4628      	mov	r0, r5
100016be:	2200      	movs	r2, #0
100016c0:	4b1c      	ldr	r3, [pc, #112]	@ (10001734 <runtime_init_clocks+0xd0>)
100016c2:	f7ff fe2b 	bl	1000131c <clock_configure_undivided>
100016c6:	2200      	movs	r2, #0
100016c8:	2008      	movs	r0, #8
100016ca:	4611      	mov	r1, r2
100016cc:	4b1a      	ldr	r3, [pc, #104]	@ (10001738 <runtime_init_clocks+0xd4>)
100016ce:	f7ff fe25 	bl	1000131c <clock_configure_undivided>
100016d2:	2200      	movs	r2, #0
100016d4:	2009      	movs	r0, #9
100016d6:	4611      	mov	r1, r2
100016d8:	4b17      	ldr	r3, [pc, #92]	@ (10001738 <runtime_init_clocks+0xd4>)
100016da:	f7ff fe1f 	bl	1000131c <clock_configure_undivided>
100016de:	2200      	movs	r2, #0
100016e0:	2006      	movs	r0, #6
100016e2:	4611      	mov	r1, r2
100016e4:	4b13      	ldr	r3, [pc, #76]	@ (10001734 <runtime_init_clocks+0xd0>)
100016e6:	f7ff fe19 	bl	1000131c <clock_configure_undivided>
100016ea:	2200      	movs	r2, #0
100016ec:	4b11      	ldr	r3, [pc, #68]	@ (10001734 <runtime_init_clocks+0xd0>)
100016ee:	2007      	movs	r0, #7
100016f0:	4611      	mov	r1, r2
100016f2:	f7ff fe13 	bl	1000131c <clock_configure_undivided>
100016f6:	2004      	movs	r0, #4
100016f8:	f7ff fe78 	bl	100013ec <clock_get_hz>
100016fc:	2400      	movs	r4, #0
100016fe:	4b0f      	ldr	r3, [pc, #60]	@ (1000173c <runtime_init_clocks+0xd8>)
10001700:	fba3 3500 	umull	r3, r5, r3, r0
10001704:	0cad      	lsrs	r5, r5, #18
10001706:	b2e0      	uxtb	r0, r4
10001708:	4629      	mov	r1, r5
1000170a:	3401      	adds	r4, #1
1000170c:	f7ff feba 	bl	10001484 <tick_start>
10001710:	2c06      	cmp	r4, #6
10001712:	d1f8      	bne.n	10001706 <runtime_init_clocks+0xa2>
10001714:	b002      	add	sp, #8
10001716:	bd70      	pop	{r4, r5, r6, pc}
10001718:	40010000 	.word	0x40010000
1000171c:	40013000 	.word	0x40013000
10001720:	59682f00 	.word	0x59682f00
10001724:	40050000 	.word	0x40050000
10001728:	47868c00 	.word	0x47868c00
1000172c:	40058000 	.word	0x40058000
10001730:	00b71b00 	.word	0x00b71b00
10001734:	08f0d180 	.word	0x08f0d180
10001738:	02dc6c00 	.word	0x02dc6c00
1000173c:	431bde83 	.word	0x431bde83

10001740 <generic_save_state>:
10001740:	b086      	sub	sp, #24
10001742:	b403      	push	{r0, r1}
10001744:	fc51 0408 	dcp_pxmd r0, r1
10001748:	e9cd 0102 	strd	r0, r1, [sp, #8]
1000174c:	fc51 0409 	dcp_pymd r0, r1
10001750:	e9cd 0104 	strd	r0, r1, [sp, #16]
10001754:	ec51 040a 	dcp_refd r0, r1
10001758:	e9cd 0106 	strd	r0, r1, [sp, #24]
1000175c:	bc03      	pop	{r0, r1}
1000175e:	47f0      	blx	lr

10001760 <generic_restore_state>:
10001760:	e8bd 5000 	ldmia.w	sp!, {ip, lr}
10001764:	ec4e c400 	dcp_wxmd ip, lr
10001768:	e8bd 5000 	ldmia.w	sp!, {ip, lr}
1000176c:	ec4e c401 	dcp_wymd ip, lr
10001770:	e8bd 5000 	ldmia.w	sp!, {ip, lr}
10001774:	ec4e c402 	dcp_wefd ip, lr
10001778:	bd00      	pop	{pc}
1000177a:	0000      	movs	r0, r0
1000177c:	b500      	push	{lr}
1000177e:	f7ff ffdf 	bl	10001740 <generic_save_state>
10001782:	e002      	b.n	1000178a <__wrap___aeabi_dadd+0x6>

10001784 <__wrap___aeabi_dadd>:
10001784:	fe10 f430 	dcp_pcmp APSR_nzcv
10001788:	d4f8      	bmi.n	1000177c <generic_restore_state+0x1c>
1000178a:	ec41 0410 	dcp_wxup r0, r1
1000178e:	ec43 2411 	dcp_wyup r2, r3
10001792:	ee00 0401 			dcp_add0
10001796:	ee10 0401 			dcp_add1
1000179a:	ee80 0420 			dcp_nrdd
1000179e:	ec51 0410 	dcp_rdda r0, r1
100017a2:	4770      	bx	lr
100017a4:	b500      	push	{lr}
100017a6:	f7ff ffcb 	bl	10001740 <generic_save_state>
100017aa:	e002      	b.n	100017b2 <__wrap___aeabi_dsub+0x6>

100017ac <__wrap___aeabi_dsub>:
100017ac:	fe10 f430 	dcp_pcmp APSR_nzcv
100017b0:	d4f8      	bmi.n	100017a4 <__wrap___aeabi_dadd+0x20>
100017b2:	ec41 0410 	dcp_wxup r0, r1
100017b6:	ec43 2411 	dcp_wyup r2, r3
100017ba:	ee00 0401 			dcp_add0
100017be:	ee10 0421 			dcp_sub1
100017c2:	ee80 0420 			dcp_nrdd
100017c6:	ec51 0430 	dcp_rdds r0, r1
100017ca:	4770      	bx	lr
100017cc:	b500      	push	{lr}
100017ce:	f7ff ffb7 	bl	10001740 <generic_save_state>
100017d2:	e002      	b.n	100017da <__wrap___aeabi_dmul+0x6>

100017d4 <__wrap___aeabi_dmul>:
100017d4:	fe10 f430 	dcp_pcmp APSR_nzcv
100017d8:	d4f8      	bmi.n	100017cc <__wrap___aeabi_dsub+0x20>
100017da:	b510      	push	{r4, lr}
100017dc:	ec41 0410 	dcp_wxup r0, r1
100017e0:	ec43 2411 	dcp_wyup r2, r3
100017e4:	ec51 0404 	dcp_rxms r0, r1, #0x0
100017e8:	ec53 2405 	dcp_ryms r2, r3, #0x0
100017ec:	fba0 4c02 	umull	r4, ip, r0, r2
100017f0:	f05f 0e00 	movs.w	lr, #0
100017f4:	fbe0 ce03 	umlal	ip, lr, r0, r3
100017f8:	fbe1 ce02 	umlal	ip, lr, r1, r2
100017fc:	ec4c 4420 	dcp_wxms r4, ip
10001800:	2400      	movs	r4, #0
10001802:	fbe1 e403 	umlal	lr, r4, r1, r3
10001806:	ec44 e430 	dcp_wxmo lr, r4
1000180a:	ee80 0420 			dcp_nrdd
1000180e:	ec51 0450 	dcp_rddm r0, r1
10001812:	e8bd 4010 	ldmia.w	sp!, {r4, lr}
10001816:	4770      	bx	lr
10001818:	b500      	push	{lr}
1000181a:	f7ff ff91 	bl	10001740 <generic_save_state>
1000181e:	e002      	b.n	10001826 <__wrap___aeabi_ddiv+0x6>

10001820 <__wrap___aeabi_ddiv>:
10001820:	fe10 f430 	dcp_pcmp APSR_nzcv
10001824:	d4f8      	bmi.n	10001818 <__wrap___aeabi_dmul+0x44>
10001826:	ec41 0410 	dcp_wxup r0, r1
1000182a:	ec43 2411 	dcp_wyup r2, r3
1000182e:	ec51 0421 	dcp_rymr r0, r1
10001832:	fba0 1201 	umull	r1, r2, r0, r1
10001836:	ea6f 0282 	mvn.w	r2, r2, lsl #2
1000183a:	fb52 0010 	smmlar	r0, r2, r0, r0
1000183e:	fb52 f212 	smmulr	r2, r2, r2
10001842:	fb52 0010 	smmlar	r0, r2, r0, r0
10001846:	eba0 7cd0 	sub.w	ip, r0, r0, lsr #31
1000184a:	ec53 2404 	dcp_rxms r2, r3, #0x0
1000184e:	fb5c f113 	smmulr	r1, ip, r3
10001852:	ec53 2415 	dcp_ryms r2, r3, #0x1
10001856:	fba1 2002 	umull	r2, r0, r1, r2
1000185a:	fb01 0003 	mla	r0, r1, r3, r0
1000185e:	ec53 2444 	dcp_rxms r2, r3, #0x4
10001862:	eba2 0000 	sub.w	r0, r2, r0
10001866:	fb50 f21c 	smmulr	r2, r0, ip
1000186a:	ea4f 1311 	mov.w	r3, r1, lsr #4
1000186e:	eb12 7001 	adds.w	r0, r2, r1, lsl #28
10001872:	eb43 71e2 	adc.w	r1, r3, r2, asr #31
10001876:	ea40 5051 	orr.w	r0, r0, r1, lsr #21
1000187a:	ea20 5091 	bic.w	r0, r0, r1, lsr #22
1000187e:	f020 0007 	bic.w	r0, r0, #7
10001882:	ec53 2475 	dcp_ryms r2, r3, #0x7
10001886:	fba0 3c02 	umull	r3, ip, r0, r2
1000188a:	ec53 2475 	dcp_ryms r2, r3, #0x7
1000188e:	fb00 cc03 	mla	ip, r0, r3, ip
10001892:	fb01 cc02 	mla	ip, r1, r2, ip
10001896:	ec53 2404 	dcp_rxms r2, r3, #0x0
1000189a:	ebac 4c82 	sub.w	ip, ip, r2, lsl #18
1000189e:	ea40 705c 	orr.w	r0, r0, ip, lsr #29
100018a2:	f1a0 0001 	sub.w	r0, r0, #1
100018a6:	ec41 0440 	dcp_wxdd r0, r1
100018aa:	ee80 0420 			dcp_nrdd
100018ae:	ec51 0470 	dcp_rddd r0, r1
100018b2:	4770      	bx	lr
100018b4:	b500      	push	{lr}
100018b6:	f7ff ff43 	bl	10001740 <generic_save_state>
100018ba:	e002      	b.n	100018c2 <__wrap___aeabi_i2d+0x6>

100018bc <__wrap___aeabi_i2d>:
100018bc:	fe10 f430 	dcp_pcmp APSR_nzcv
100018c0:	d4f8      	bmi.n	100018b4 <__wrap___aeabi_ddiv+0x94>
100018c2:	ec40 0470 	dcp_wxic r0, r0
100018c6:	ee00 0401 			dcp_add0
100018ca:	ee10 0421 			dcp_sub1
100018ce:	ee80 0420 			dcp_nrdd
100018d2:	ec51 0430 	dcp_rdds r0, r1
100018d6:	4770      	bx	lr
100018d8:	b500      	push	{lr}
100018da:	f7ff ff31 	bl	10001740 <generic_save_state>
100018de:	e002      	b.n	100018e6 <__wrap___aeabi_ui2d+0x6>

100018e0 <__wrap___aeabi_ui2d>:
100018e0:	fe10 f430 	dcp_pcmp APSR_nzcv
100018e4:	d4f8      	bmi.n	100018d8 <__wrap___aeabi_i2d+0x1c>
100018e6:	ec40 0460 	dcp_wxuc r0, r0
100018ea:	ee00 0401 			dcp_add0
100018ee:	ee10 0421 			dcp_sub1
100018f2:	ee80 0420 			dcp_nrdd
100018f6:	ec51 0430 	dcp_rdds r0, r1
100018fa:	4770      	bx	lr
100018fc:	b500      	push	{lr}
100018fe:	f7ff ff1f 	bl	10001740 <generic_save_state>
10001902:	e002      	b.n	1000190a <double2int_z_entry>

10001904 <__wrap___aeabi_d2iz>:
10001904:	fe10 f430 	dcp_pcmp APSR_nzcv
10001908:	d4f8      	bmi.n	100018fc <__wrap___aeabi_ui2d+0x1c>

1000190a <double2int_z_entry>:
1000190a:	ec41 0480 	dcp_wxdc r0, r1
1000190e:	ee00 0401 			dcp_add0
10001912:	ee10 0401 			dcp_add1
10001916:	ee80 0440 			dcp_ntdc
1000191a:	ee10 0413 			dcp_rdic r0
1000191e:	4770      	bx	lr
10001920:	b500      	push	{lr}
10001922:	f7ff ff0d 	bl	10001740 <generic_save_state>
10001926:	e002      	b.n	1000192e <double2uint_z_entry>

10001928 <__wrap___aeabi_d2uiz>:
10001928:	fe10 f430 	dcp_pcmp APSR_nzcv
1000192c:	d4f8      	bmi.n	10001920 <double2int_z_entry+0x16>

1000192e <double2uint_z_entry>:
1000192e:	ec41 0480 	dcp_wxdc r0, r1
10001932:	ee00 0401 			dcp_add0
10001936:	ee10 0401 			dcp_add1
1000193a:	ee80 0440 			dcp_ntdc
1000193e:	ee10 0433 			dcp_rduc r0
10001942:	4770      	bx	lr
10001944:	b500      	push	{lr}
10001946:	f7ff fefb 	bl	10001740 <generic_save_state>
1000194a:	e002      	b.n	10001952 <__wrap___aeabi_dcmpun+0x6>

1000194c <__wrap___aeabi_dcmpun>:
1000194c:	fe10 f430 	dcp_pcmp APSR_nzcv
10001950:	d4f8      	bmi.n	10001944 <double2uint_z_entry+0x16>
10001952:	ec41 0410 	dcp_wxup r0, r1
10001956:	ec43 2411 	dcp_wyup r2, r3
1000195a:	ee00 0401 			dcp_add0
1000195e:	ee10 0430 			dcp_rcmp r0
10001962:	f3c0 7000 	ubfx	r0, r0, #28, #1
10001966:	4770      	bx	lr
10001968:	b500      	push	{lr}
1000196a:	f7ff fee9 	bl	10001740 <generic_save_state>
1000196e:	e002      	b.n	10001976 <__wrap___aeabi_dcmplt+0x6>

10001970 <__wrap___aeabi_dcmplt>:
10001970:	fe10 f430 	dcp_pcmp APSR_nzcv
10001974:	d4f8      	bmi.n	10001968 <__wrap___aeabi_dcmpun+0x1c>
10001976:	ec43 2410 	dcp_wxup r2, r3
1000197a:	ec41 0411 	dcp_wyup r0, r1
1000197e:	ee00 0401 			dcp_add0
10001982:	ee10 f430 			dcp_rcmp APSR_nzcv
10001986:	bf8c      	ite	hi
10001988:	2001      	movhi	r0, #1
1000198a:	2000      	movls	r0, #0
1000198c:	4770      	bx	lr
1000198e:	bf00      	nop
10001990:	b500      	push	{lr}
10001992:	f7ff fed5 	bl	10001740 <generic_save_state>
10001996:	e002      	b.n	1000199e <__wrap___aeabi_dcmple+0x6>

10001998 <__wrap___aeabi_dcmple>:
10001998:	fe10 f430 	dcp_pcmp APSR_nzcv
1000199c:	d4f8      	bmi.n	10001990 <__wrap___aeabi_dcmplt+0x20>
1000199e:	ec43 2410 	dcp_wxup r2, r3
100019a2:	ec41 0411 	dcp_wyup r0, r1
100019a6:	ee00 0401 			dcp_add0
100019aa:	ee10 f430 			dcp_rcmp APSR_nzcv
100019ae:	bf2c      	ite	cs
100019b0:	2001      	movcs	r0, #1
100019b2:	2000      	movcc	r0, #0
100019b4:	4770      	bx	lr
100019b6:	bf00      	nop
100019b8:	b500      	push	{lr}
100019ba:	f7ff fec1 	bl	10001740 <generic_save_state>
100019be:	e002      	b.n	100019c6 <__wrap___aeabi_dcmpge+0x6>

100019c0 <__wrap___aeabi_dcmpge>:
100019c0:	fe10 f430 	dcp_pcmp APSR_nzcv
100019c4:	d4f8      	bmi.n	100019b8 <__wrap___aeabi_dcmple+0x20>
100019c6:	ec41 0410 	dcp_wxup r0, r1
100019ca:	ec43 2411 	dcp_wyup r2, r3
100019ce:	ee00 0401 			dcp_add0
100019d2:	ee10 f430 			dcp_rcmp APSR_nzcv
100019d6:	bf2c      	ite	cs
100019d8:	2001      	movcs	r0, #1
100019da:	2000      	movcc	r0, #0
100019dc:	4770      	bx	lr
100019de:	bf00      	nop
100019e0:	b500      	push	{lr}
100019e2:	f7ff fead 	bl	10001740 <generic_save_state>
100019e6:	e002      	b.n	100019ee <__wrap___aeabi_dcmpgt+0x6>

100019e8 <__wrap___aeabi_dcmpgt>:
100019e8:	fe10 f430 	dcp_pcmp APSR_nzcv
100019ec:	d4f8      	bmi.n	100019e0 <__wrap___aeabi_dcmpge+0x20>
100019ee:	ec41 0410 	dcp_wxup r0, r1
100019f2:	ec43 2411 	dcp_wyup r2, r3
100019f6:	ee00 0401 			dcp_add0
100019fa:	ee10 f430 			dcp_rcmp APSR_nzcv
100019fe:	bf8c      	ite	hi
10001a00:	2001      	movhi	r0, #1
10001a02:	2000      	movls	r0, #0
10001a04:	4770      	bx	lr
10001a06:	bf00      	nop

10001a08 <_out_null>:
10001a08:	4770      	bx	lr
10001a0a:	bf00      	nop

10001a0c <_out_rev>:
10001a0c:	e92d 4ff0 	stmdb	sp!, {r4, r5, r6, r7, r8, r9, sl, fp, lr}
10001a10:	b083      	sub	sp, #12
10001a12:	4699      	mov	r9, r3
10001a14:	e9dd ab0d 	ldrd	sl, fp, [sp, #52]	@ 0x34
10001a18:	9b0f      	ldr	r3, [sp, #60]	@ 0x3c
10001a1a:	4688      	mov	r8, r1
10001a1c:	4611      	mov	r1, r2
10001a1e:	079a      	lsls	r2, r3, #30
10001a20:	4607      	mov	r7, r0
10001a22:	d116      	bne.n	10001a52 <_out_rev+0x46>
10001a24:	45da      	cmp	sl, fp
10001a26:	d23a      	bcs.n	10001a9e <_out_rev+0x92>
10001a28:	460c      	mov	r4, r1
10001a2a:	460d      	mov	r5, r1
10001a2c:	ebab 060a 	sub.w	r6, fp, sl
10001a30:	440e      	add	r6, r1
10001a32:	4622      	mov	r2, r4
10001a34:	464b      	mov	r3, r9
10001a36:	4641      	mov	r1, r8
10001a38:	2020      	movs	r0, #32
10001a3a:	3401      	adds	r4, #1
10001a3c:	47b8      	blx	r7
10001a3e:	42b4      	cmp	r4, r6
10001a40:	d1f7      	bne.n	10001a32 <_out_rev+0x26>
10001a42:	4629      	mov	r1, r5
10001a44:	f1ba 0f00 	cmp.w	sl, #0
10001a48:	d108      	bne.n	10001a5c <_out_rev+0x50>
10001a4a:	4620      	mov	r0, r4
10001a4c:	b003      	add	sp, #12
10001a4e:	e8bd 8ff0 	ldmia.w	sp!, {r4, r5, r6, r7, r8, r9, sl, fp, pc}
10001a52:	460c      	mov	r4, r1
10001a54:	f1ba 0f00 	cmp.w	sl, #0
10001a58:	d010      	beq.n	10001a7c <_out_rev+0x70>
10001a5a:	460e      	mov	r6, r1
10001a5c:	4655      	mov	r5, sl
10001a5e:	9b0c      	ldr	r3, [sp, #48]	@ 0x30
10001a60:	442e      	add	r6, r5
10001a62:	449a      	add	sl, r3
10001a64:	9101      	str	r1, [sp, #4]
10001a66:	1b72      	subs	r2, r6, r5
10001a68:	464b      	mov	r3, r9
10001a6a:	3d01      	subs	r5, #1
10001a6c:	4641      	mov	r1, r8
10001a6e:	f81a 0d01 	ldrb.w	r0, [sl, #-1]!
10001a72:	4634      	mov	r4, r6
10001a74:	47b8      	blx	r7
10001a76:	2d00      	cmp	r5, #0
10001a78:	d1f5      	bne.n	10001a66 <_out_rev+0x5a>
10001a7a:	9901      	ldr	r1, [sp, #4]
10001a7c:	9b0f      	ldr	r3, [sp, #60]	@ 0x3c
10001a7e:	079b      	lsls	r3, r3, #30
10001a80:	d5e3      	bpl.n	10001a4a <_out_rev+0x3e>
10001a82:	1a65      	subs	r5, r4, r1
10001a84:	45ab      	cmp	fp, r5
10001a86:	d9e0      	bls.n	10001a4a <_out_rev+0x3e>
10001a88:	4622      	mov	r2, r4
10001a8a:	464b      	mov	r3, r9
10001a8c:	4641      	mov	r1, r8
10001a8e:	2020      	movs	r0, #32
10001a90:	3501      	adds	r5, #1
10001a92:	47b8      	blx	r7
10001a94:	455d      	cmp	r5, fp
10001a96:	f104 0401 	add.w	r4, r4, #1
10001a9a:	d3f5      	bcc.n	10001a88 <_out_rev+0x7c>
10001a9c:	e7d5      	b.n	10001a4a <_out_rev+0x3e>
10001a9e:	460c      	mov	r4, r1
10001aa0:	f1ba 0f00 	cmp.w	sl, #0
10001aa4:	d1d9      	bne.n	10001a5a <_out_rev+0x4e>
10001aa6:	e7d0      	b.n	10001a4a <_out_rev+0x3e>

10001aa8 <_ntoa_format>:
10001aa8:	e92d 4ff0 	stmdb	sp!, {r4, r5, r6, r7, r8, r9, sl, fp, lr}
10001aac:	9f0f      	ldr	r7, [sp, #60]	@ 0x3c
10001aae:	f8dd 8024 	ldr.w	r8, [sp, #36]	@ 0x24
10001ab2:	f017 0f02 	tst.w	r7, #2
10001ab6:	9c0a      	ldr	r4, [sp, #40]	@ 0x28
10001ab8:	f89d a02c 	ldrb.w	sl, [sp, #44]	@ 0x2c
10001abc:	9d0e      	ldr	r5, [sp, #56]	@ 0x38
10001abe:	e9dd 960c 	ldrd	r9, r6, [sp, #48]	@ 0x30
10001ac2:	d144      	bne.n	10001b4e <_ntoa_format+0xa6>
10001ac4:	bbf5      	cbnz	r5, 10001b44 <_ntoa_format+0x9c>
10001ac6:	42b4      	cmp	r4, r6
10001ac8:	d241      	bcs.n	10001b4e <_ntoa_format+0xa6>
10001aca:	f007 0b01 	and.w	fp, r7, #1
10001ace:	f104 3cff 	add.w	ip, r4, #4294967295
10001ad2:	f04f 0e30 	mov.w	lr, #48	@ 0x30
10001ad6:	44c4      	add	ip, r8
10001ad8:	e004      	b.n	10001ae4 <_ntoa_format+0x3c>
10001ada:	3401      	adds	r4, #1
10001adc:	42a6      	cmp	r6, r4
10001ade:	f80c ef01 	strb.w	lr, [ip, #1]!
10001ae2:	d901      	bls.n	10001ae8 <_ntoa_format+0x40>
10001ae4:	2c20      	cmp	r4, #32
10001ae6:	d1f8      	bne.n	10001ada <_ntoa_format+0x32>
10001ae8:	f1bb 0f00 	cmp.w	fp, #0
10001aec:	f000 8088 	beq.w	10001c00 <_ntoa_format+0x158>
10001af0:	42a5      	cmp	r5, r4
10001af2:	d92c      	bls.n	10001b4e <_ntoa_format+0xa6>
10001af4:	f104 3cff 	add.w	ip, r4, #4294967295
10001af8:	f04f 0e30 	mov.w	lr, #48	@ 0x30
10001afc:	44c4      	add	ip, r8
10001afe:	e004      	b.n	10001b0a <_ntoa_format+0x62>
10001b00:	3401      	adds	r4, #1
10001b02:	42ac      	cmp	r4, r5
10001b04:	f80c ef01 	strb.w	lr, [ip, #1]!
10001b08:	d021      	beq.n	10001b4e <_ntoa_format+0xa6>
10001b0a:	2c20      	cmp	r4, #32
10001b0c:	d1f8      	bne.n	10001b00 <_ntoa_format+0x58>
10001b0e:	f017 0f10 	tst.w	r7, #16
10001b12:	d00e      	beq.n	10001b32 <_ntoa_format+0x8a>
10001b14:	f417 6f80 	tst.w	r7, #1024	@ 0x400
10001b18:	d154      	bne.n	10001bc4 <_ntoa_format+0x11c>
10001b1a:	42a6      	cmp	r6, r4
10001b1c:	d063      	beq.n	10001be6 <_ntoa_format+0x13e>
10001b1e:	42a5      	cmp	r5, r4
10001b20:	d061      	beq.n	10001be6 <_ntoa_format+0x13e>
10001b22:	f1b9 0f10 	cmp.w	r9, #16
10001b26:	d050      	beq.n	10001bca <_ntoa_format+0x122>
10001b28:	f1b9 0f02 	cmp.w	r9, #2
10001b2c:	d056      	beq.n	10001bdc <_ntoa_format+0x134>
10001b2e:	2c20      	cmp	r4, #32
10001b30:	d129      	bne.n	10001b86 <_ntoa_format+0xde>
10001b32:	2420      	movs	r4, #32
10001b34:	e9cd 570b 	strd	r5, r7, [sp, #44]	@ 0x2c
10001b38:	e9cd 8409 	strd	r8, r4, [sp, #36]	@ 0x24
10001b3c:	e8bd 4ff0 	ldmia.w	sp!, {r4, r5, r6, r7, r8, r9, sl, fp, lr}
10001b40:	f7ff bf64 	b.w	10001a0c <_out_rev>
10001b44:	f017 0b01 	ands.w	fp, r7, #1
10001b48:	d134      	bne.n	10001bb4 <_ntoa_format+0x10c>
10001b4a:	42b4      	cmp	r4, r6
10001b4c:	d3bf      	bcc.n	10001ace <_ntoa_format+0x26>
10001b4e:	f017 0f10 	tst.w	r7, #16
10001b52:	d01e      	beq.n	10001b92 <_ntoa_format+0xea>
10001b54:	f417 6f80 	tst.w	r7, #1024	@ 0x400
10001b58:	d1e3      	bne.n	10001b22 <_ntoa_format+0x7a>
10001b5a:	2c00      	cmp	r4, #0
10001b5c:	d1dd      	bne.n	10001b1a <_ntoa_format+0x72>
10001b5e:	f1b9 0f10 	cmp.w	r9, #16
10001b62:	d063      	beq.n	10001c2c <_ntoa_format+0x184>
10001b64:	f1b9 0f02 	cmp.w	r9, #2
10001b68:	d077      	beq.n	10001c5a <_ntoa_format+0x1b2>
10001b6a:	2430      	movs	r4, #48	@ 0x30
10001b6c:	f888 4000 	strb.w	r4, [r8]
10001b70:	2401      	movs	r4, #1
10001b72:	f1ba 0f00 	cmp.w	sl, #0
10001b76:	d111      	bne.n	10001b9c <_ntoa_format+0xf4>
10001b78:	077e      	lsls	r6, r7, #29
10001b7a:	d548      	bpl.n	10001c0e <_ntoa_format+0x166>
10001b7c:	262b      	movs	r6, #43	@ 0x2b
10001b7e:	f808 6004 	strb.w	r6, [r8, r4]
10001b82:	3401      	adds	r4, #1
10001b84:	e7d6      	b.n	10001b34 <_ntoa_format+0x8c>
10001b86:	4626      	mov	r6, r4
10001b88:	3401      	adds	r4, #1
10001b8a:	f04f 0c30 	mov.w	ip, #48	@ 0x30
10001b8e:	f808 c006 	strb.w	ip, [r8, r6]
10001b92:	2c20      	cmp	r4, #32
10001b94:	d0cd      	beq.n	10001b32 <_ntoa_format+0x8a>
10001b96:	f1ba 0f00 	cmp.w	sl, #0
10001b9a:	d0ed      	beq.n	10001b78 <_ntoa_format+0xd0>
10001b9c:	262d      	movs	r6, #45	@ 0x2d
10001b9e:	f808 6004 	strb.w	r6, [r8, r4]
10001ba2:	3401      	adds	r4, #1
10001ba4:	e9cd 570b 	strd	r5, r7, [sp, #44]	@ 0x2c
10001ba8:	e9cd 8409 	strd	r8, r4, [sp, #36]	@ 0x24
10001bac:	e8bd 4ff0 	ldmia.w	sp!, {r4, r5, r6, r7, r8, r9, sl, fp, lr}
10001bb0:	f7ff bf2c 	b.w	10001a0c <_out_rev>
10001bb4:	f1ba 0f00 	cmp.w	sl, #0
10001bb8:	d030      	beq.n	10001c1c <_ntoa_format+0x174>
10001bba:	42b4      	cmp	r4, r6
10001bbc:	f105 35ff 	add.w	r5, r5, #4294967295
10001bc0:	d385      	bcc.n	10001ace <_ntoa_format+0x26>
10001bc2:	e795      	b.n	10001af0 <_ntoa_format+0x48>
10001bc4:	f1b9 0f10 	cmp.w	r9, #16
10001bc8:	d1b3      	bne.n	10001b32 <_ntoa_format+0x8a>
10001bca:	06be      	lsls	r6, r7, #26
10001bcc:	d53b      	bpl.n	10001c46 <_ntoa_format+0x19e>
10001bce:	2c20      	cmp	r4, #32
10001bd0:	d0af      	beq.n	10001b32 <_ntoa_format+0x8a>
10001bd2:	2658      	movs	r6, #88	@ 0x58
10001bd4:	f808 6004 	strb.w	r6, [r8, r4]
10001bd8:	3401      	adds	r4, #1
10001bda:	e7a8      	b.n	10001b2e <_ntoa_format+0x86>
10001bdc:	2c20      	cmp	r4, #32
10001bde:	d0a8      	beq.n	10001b32 <_ntoa_format+0x8a>
10001be0:	4626      	mov	r6, r4
10001be2:	3401      	adds	r4, #1
10001be4:	e007      	b.n	10001bf6 <_ntoa_format+0x14e>
10001be6:	1e66      	subs	r6, r4, #1
10001be8:	d0b9      	beq.n	10001b5e <_ntoa_format+0xb6>
10001bea:	f1b9 0f10 	cmp.w	r9, #16
10001bee:	d036      	beq.n	10001c5e <_ntoa_format+0x1b6>
10001bf0:	f1b9 0f02 	cmp.w	r9, #2
10001bf4:	d1c9      	bne.n	10001b8a <_ntoa_format+0xe2>
10001bf6:	f04f 0c62 	mov.w	ip, #98	@ 0x62
10001bfa:	f808 c006 	strb.w	ip, [r8, r6]
10001bfe:	e796      	b.n	10001b2e <_ntoa_format+0x86>
10001c00:	f017 0f10 	tst.w	r7, #16
10001c04:	d0c5      	beq.n	10001b92 <_ntoa_format+0xea>
10001c06:	f417 6f80 	tst.w	r7, #1024	@ 0x400
10001c0a:	d086      	beq.n	10001b1a <_ntoa_format+0x72>
10001c0c:	e789      	b.n	10001b22 <_ntoa_format+0x7a>
10001c0e:	073e      	lsls	r6, r7, #28
10001c10:	d590      	bpl.n	10001b34 <_ntoa_format+0x8c>
10001c12:	2620      	movs	r6, #32
10001c14:	f808 6004 	strb.w	r6, [r8, r4]
10001c18:	3401      	adds	r4, #1
10001c1a:	e78b      	b.n	10001b34 <_ntoa_format+0x8c>
10001c1c:	f017 0f0c 	tst.w	r7, #12
10001c20:	d000      	beq.n	10001c24 <_ntoa_format+0x17c>
10001c22:	3d01      	subs	r5, #1
10001c24:	42b4      	cmp	r4, r6
10001c26:	f4ff af52 	bcc.w	10001ace <_ntoa_format+0x26>
10001c2a:	e761      	b.n	10001af0 <_ntoa_format+0x48>
10001c2c:	06bc      	lsls	r4, r7, #26
10001c2e:	d412      	bmi.n	10001c56 <_ntoa_format+0x1ae>
10001c30:	2478      	movs	r4, #120	@ 0x78
10001c32:	f888 4000 	strb.w	r4, [r8]
10001c36:	2430      	movs	r4, #48	@ 0x30
10001c38:	f888 4001 	strb.w	r4, [r8, #1]
10001c3c:	2402      	movs	r4, #2
10001c3e:	f1ba 0f00 	cmp.w	sl, #0
10001c42:	d099      	beq.n	10001b78 <_ntoa_format+0xd0>
10001c44:	e7aa      	b.n	10001b9c <_ntoa_format+0xf4>
10001c46:	2c20      	cmp	r4, #32
10001c48:	f43f af73 	beq.w	10001b32 <_ntoa_format+0x8a>
10001c4c:	2678      	movs	r6, #120	@ 0x78
10001c4e:	f808 6004 	strb.w	r6, [r8, r4]
10001c52:	3401      	adds	r4, #1
10001c54:	e76b      	b.n	10001b2e <_ntoa_format+0x86>
10001c56:	2458      	movs	r4, #88	@ 0x58
10001c58:	e7eb      	b.n	10001c32 <_ntoa_format+0x18a>
10001c5a:	2462      	movs	r4, #98	@ 0x62
10001c5c:	e7e9      	b.n	10001c32 <_ntoa_format+0x18a>
10001c5e:	f017 0f20 	tst.w	r7, #32
10001c62:	f1a4 0c02 	sub.w	ip, r4, #2
10001c66:	d004      	beq.n	10001c72 <_ntoa_format+0x1ca>
10001c68:	f04f 0e58 	mov.w	lr, #88	@ 0x58
10001c6c:	f808 e00c 	strb.w	lr, [r8, ip]
10001c70:	e78b      	b.n	10001b8a <_ntoa_format+0xe2>
10001c72:	f04f 0e78 	mov.w	lr, #120	@ 0x78
10001c76:	f808 e00c 	strb.w	lr, [r8, ip]
10001c7a:	e786      	b.n	10001b8a <_ntoa_format+0xe2>

10001c7c <_out_char>:
10001c7c:	b900      	cbnz	r0, 10001c80 <_out_char+0x4>
10001c7e:	4770      	bx	lr
10001c80:	f001 bb72 	b.w	10003368 <__wrap_putchar>

10001c84 <_out_fct>:
10001c84:	b110      	cbz	r0, 10001c8c <_out_fct+0x8>
10001c86:	e9d1 3100 	ldrd	r3, r1, [r1]
10001c8a:	4718      	bx	r3
10001c8c:	4770      	bx	lr
10001c8e:	bf00      	nop

10001c90 <_ftoa>:
10001c90:	e92d 4ff0 	stmdb	sp!, {r4, r5, r6, r7, r8, r9, sl, fp, lr}
10001c94:	b097      	sub	sp, #92	@ 0x5c
10001c96:	ed9d 7b20 	vldr	d7, [sp, #128]	@ 0x80
10001c9a:	e9dd 5b22 	ldrd	r5, fp, [sp, #136]	@ 0x88
10001c9e:	4607      	mov	r7, r0
10001ca0:	4688      	mov	r8, r1
10001ca2:	ec51 0b17 	vmov	r0, r1, d7
10001ca6:	9c24      	ldr	r4, [sp, #144]	@ 0x90
10001ca8:	4699      	mov	r9, r3
10001caa:	920c      	str	r2, [sp, #48]	@ 0x30
10001cac:	460b      	mov	r3, r1
10001cae:	4602      	mov	r2, r0
10001cb0:	ed8d 7b04 	vstr	d7, [sp, #16]
10001cb4:	9407      	str	r4, [sp, #28]
10001cb6:	f7ff fe49 	bl	1000194c <__wrap___aeabi_dcmpun>
10001cba:	2800      	cmp	r0, #0
10001cbc:	f040 81f4 	bne.w	100020a8 <_ftoa+0x418>
10001cc0:	e9dd 0104 	ldrd	r0, r1, [sp, #16]
10001cc4:	f04f 32ff 	mov.w	r2, #4294967295
10001cc8:	f46f 1380 	mvn.w	r3, #1048576	@ 0x100000
10001ccc:	f7ff fe50 	bl	10001970 <__wrap___aeabi_dcmplt>
10001cd0:	2800      	cmp	r0, #0
10001cd2:	f040 811b 	bne.w	10001f0c <_ftoa+0x27c>
10001cd6:	e9dd 0104 	ldrd	r0, r1, [sp, #16]
10001cda:	f04f 32ff 	mov.w	r2, #4294967295
10001cde:	4bac      	ldr	r3, [pc, #688]	@ (10001f90 <_ftoa+0x300>)
10001ce0:	f7ff fe82 	bl	100019e8 <__wrap___aeabi_dcmpgt>
10001ce4:	2800      	cmp	r0, #0
10001ce6:	f040 80ee 	bne.w	10001ec6 <_ftoa+0x236>
10001cea:	e9dd 0104 	ldrd	r0, r1, [sp, #16]
10001cee:	a3a4      	add	r3, pc, #656	@ (adr r3, 10001f80 <_ftoa+0x2f0>)
10001cf0:	e9d3 2300 	ldrd	r2, r3, [r3]
10001cf4:	f7ff fe78 	bl	100019e8 <__wrap___aeabi_dcmpgt>
10001cf8:	2800      	cmp	r0, #0
10001cfa:	f040 80d3 	bne.w	10001ea4 <_ftoa+0x214>
10001cfe:	e9dd 0104 	ldrd	r0, r1, [sp, #16]
10001d02:	a3a1      	add	r3, pc, #644	@ (adr r3, 10001f88 <_ftoa+0x2f8>)
10001d04:	e9d3 2300 	ldrd	r2, r3, [r3]
10001d08:	f7ff fe32 	bl	10001970 <__wrap___aeabi_dcmplt>
10001d0c:	2800      	cmp	r0, #0
10001d0e:	f040 80c9 	bne.w	10001ea4 <_ftoa+0x214>
10001d12:	e9dd 0104 	ldrd	r0, r1, [sp, #16]
10001d16:	2200      	movs	r2, #0
10001d18:	2300      	movs	r3, #0
10001d1a:	f7ff fe29 	bl	10001970 <__wrap___aeabi_dcmplt>
10001d1e:	2800      	cmp	r0, #0
10001d20:	f040 80e8 	bne.w	10001ef4 <_ftoa+0x264>
10001d24:	4623      	mov	r3, r4
10001d26:	900d      	str	r0, [sp, #52]	@ 0x34
10001d28:	f413 6f80 	tst.w	r3, #1024	@ 0x400
10001d2c:	bf08      	it	eq
10001d2e:	2506      	moveq	r5, #6
10001d30:	2130      	movs	r1, #48	@ 0x30
10001d32:	462b      	mov	r3, r5
10001d34:	aa0e      	add	r2, sp, #56	@ 0x38
10001d36:	f1a5 0620 	sub.w	r6, r5, #32
10001d3a:	e005      	b.n	10001d48 <_ftoa+0xb8>
10001d3c:	3b01      	subs	r3, #1
10001d3e:	42b3      	cmp	r3, r6
10001d40:	f802 1b01 	strb.w	r1, [r2], #1
10001d44:	f000 8193 	beq.w	1000206e <_ftoa+0x3de>
10001d48:	2b09      	cmp	r3, #9
10001d4a:	d8f7      	bhi.n	10001d3c <_ftoa+0xac>
10001d4c:	461e      	mov	r6, r3
10001d4e:	1aed      	subs	r5, r5, r3
10001d50:	e9dd 0104 	ldrd	r0, r1, [sp, #16]
10001d54:	f7ff fdd6 	bl	10001904 <__wrap___aeabi_d2iz>
10001d58:	4b8e      	ldr	r3, [pc, #568]	@ (10001f94 <_ftoa+0x304>)
10001d5a:	4604      	mov	r4, r0
10001d5c:	eb03 03c6 	add.w	r3, r3, r6, lsl #3
10001d60:	ed93 7b00 	vldr	d7, [r3]
10001d64:	ed8d 7b08 	vstr	d7, [sp, #32]
10001d68:	f7ff fda8 	bl	100018bc <__wrap___aeabi_i2d>
10001d6c:	4602      	mov	r2, r0
10001d6e:	460b      	mov	r3, r1
10001d70:	e9dd 0104 	ldrd	r0, r1, [sp, #16]
10001d74:	f7ff fd1a 	bl	100017ac <__wrap___aeabi_dsub>
10001d78:	e9dd 2308 	ldrd	r2, r3, [sp, #32]
10001d7c:	f7ff fd2a 	bl	100017d4 <__wrap___aeabi_dmul>
10001d80:	4602      	mov	r2, r0
10001d82:	460b      	mov	r3, r1
10001d84:	e9cd 230a 	strd	r2, r3, [sp, #40]	@ 0x28
10001d88:	f7ff fdce 	bl	10001928 <__wrap___aeabi_d2uiz>
10001d8c:	4682      	mov	sl, r0
10001d8e:	f7ff fda7 	bl	100018e0 <__wrap___aeabi_ui2d>
10001d92:	4602      	mov	r2, r0
10001d94:	460b      	mov	r3, r1
10001d96:	e9dd 010a 	ldrd	r0, r1, [sp, #40]	@ 0x28
10001d9a:	f7ff fd07 	bl	100017ac <__wrap___aeabi_dsub>
10001d9e:	4602      	mov	r2, r0
10001da0:	460b      	mov	r3, r1
10001da2:	e9cd 230a 	strd	r2, r3, [sp, #40]	@ 0x28
10001da6:	2200      	movs	r2, #0
10001da8:	4b7b      	ldr	r3, [pc, #492]	@ (10001f98 <_ftoa+0x308>)
10001daa:	f7ff fe1d 	bl	100019e8 <__wrap___aeabi_dcmpgt>
10001dae:	2800      	cmp	r0, #0
10001db0:	f000 80fe 	beq.w	10001fb0 <_ftoa+0x320>
10001db4:	f10a 0a01 	add.w	sl, sl, #1
10001db8:	4650      	mov	r0, sl
10001dba:	f7ff fd91 	bl	100018e0 <__wrap___aeabi_ui2d>
10001dbe:	4602      	mov	r2, r0
10001dc0:	460b      	mov	r3, r1
10001dc2:	e9dd 0108 	ldrd	r0, r1, [sp, #32]
10001dc6:	f7ff fde7 	bl	10001998 <__wrap___aeabi_dcmple>
10001dca:	b110      	cbz	r0, 10001dd2 <_ftoa+0x142>
10001dcc:	f04f 0a00 	mov.w	sl, #0
10001dd0:	3401      	adds	r4, #1
10001dd2:	2e00      	cmp	r6, #0
10001dd4:	f000 80fd 	beq.w	10001fd2 <_ftoa+0x342>
10001dd8:	1e68      	subs	r0, r5, #1
10001dda:	ab0e      	add	r3, sp, #56	@ 0x38
10001ddc:	f8df c1cc 	ldr.w	ip, [pc, #460]	@ 10001fac <_ftoa+0x31c>
10001de0:	4418      	add	r0, r3
10001de2:	e00f      	b.n	10001e04 <_ftoa+0x174>
10001de4:	fbac 210a 	umull	r2, r1, ip, sl
10001de8:	08c9      	lsrs	r1, r1, #3
10001dea:	eb01 0281 	add.w	r2, r1, r1, lsl #2
10001dee:	ebaa 0242 	sub.w	r2, sl, r2, lsl #1
10001df2:	3230      	adds	r2, #48	@ 0x30
10001df4:	f1ba 0f09 	cmp.w	sl, #9
10001df8:	f800 2f01 	strb.w	r2, [r0, #1]!
10001dfc:	f240 811c 	bls.w	10002038 <_ftoa+0x3a8>
10001e00:	468a      	mov	sl, r1
10001e02:	461d      	mov	r5, r3
10001e04:	2d20      	cmp	r5, #32
10001e06:	f105 0301 	add.w	r3, r5, #1
10001e0a:	f106 36ff 	add.w	r6, r6, #4294967295
10001e0e:	d1e9      	bne.n	10001de4 <_ftoa+0x154>
10001e10:	2520      	movs	r5, #32
10001e12:	1e69      	subs	r1, r5, #1
10001e14:	ab0e      	add	r3, sp, #56	@ 0x38
10001e16:	4861      	ldr	r0, [pc, #388]	@ (10001f9c <_ftoa+0x30c>)
10001e18:	4419      	add	r1, r3
10001e1a:	e010      	b.n	10001e3e <_ftoa+0x1ae>
10001e1c:	fb80 6204 	smull	r6, r2, r0, r4
10001e20:	ebc3 03a2 	rsb	r3, r3, r2, asr #2
10001e24:	eb03 0283 	add.w	r2, r3, r3, lsl #2
10001e28:	eba4 0442 	sub.w	r4, r4, r2, lsl #1
10001e2c:	f104 0230 	add.w	r2, r4, #48	@ 0x30
10001e30:	3501      	adds	r5, #1
10001e32:	461c      	mov	r4, r3
10001e34:	f801 2f01 	strb.w	r2, [r1, #1]!
10001e38:	2b00      	cmp	r3, #0
10001e3a:	f000 80eb 	beq.w	10002014 <_ftoa+0x384>
10001e3e:	2d20      	cmp	r5, #32
10001e40:	ea4f 73e4 	mov.w	r3, r4, asr #31
10001e44:	d1ea      	bne.n	10001e1c <_ftoa+0x18c>
10001e46:	9b07      	ldr	r3, [sp, #28]
10001e48:	f003 0303 	and.w	r3, r3, #3
10001e4c:	2b01      	cmp	r3, #1
10001e4e:	d118      	bne.n	10001e82 <_ftoa+0x1f2>
10001e50:	f1bb 0f00 	cmp.w	fp, #0
10001e54:	d015      	beq.n	10001e82 <_ftoa+0x1f2>
10001e56:	9b0d      	ldr	r3, [sp, #52]	@ 0x34
10001e58:	2b00      	cmp	r3, #0
10001e5a:	f000 810a 	beq.w	10002072 <_ftoa+0x3e2>
10001e5e:	f10b 3bff 	add.w	fp, fp, #4294967295
10001e62:	f1bb 0f20 	cmp.w	fp, #32
10001e66:	d90c      	bls.n	10001e82 <_ftoa+0x1f2>
10001e68:	1e6b      	subs	r3, r5, #1
10001e6a:	a90e      	add	r1, sp, #56	@ 0x38
10001e6c:	2230      	movs	r2, #48	@ 0x30
10001e6e:	440b      	add	r3, r1
10001e70:	e005      	b.n	10001e7e <_ftoa+0x1ee>
10001e72:	3501      	adds	r5, #1
10001e74:	455d      	cmp	r5, fp
10001e76:	f803 2f01 	strb.w	r2, [r3, #1]!
10001e7a:	f080 80d1 	bcs.w	10002020 <_ftoa+0x390>
10001e7e:	2d20      	cmp	r5, #32
10001e80:	d1f7      	bne.n	10001e72 <_ftoa+0x1e2>
10001e82:	9b07      	ldr	r3, [sp, #28]
10001e84:	ac0e      	add	r4, sp, #56	@ 0x38
10001e86:	e9cd b302 	strd	fp, r3, [sp, #8]
10001e8a:	4641      	mov	r1, r8
10001e8c:	464b      	mov	r3, r9
10001e8e:	4638      	mov	r0, r7
10001e90:	9a0c      	ldr	r2, [sp, #48]	@ 0x30
10001e92:	9501      	str	r5, [sp, #4]
10001e94:	9400      	str	r4, [sp, #0]
10001e96:	f7ff fdb9 	bl	10001a0c <_out_rev>
10001e9a:	4682      	mov	sl, r0
10001e9c:	4650      	mov	r0, sl
10001e9e:	b017      	add	sp, #92	@ 0x5c
10001ea0:	e8bd 8ff0 	ldmia.w	sp!, {r4, r5, r6, r7, r8, r9, sl, fp, pc}
10001ea4:	9b07      	ldr	r3, [sp, #28]
10001ea6:	ed9d 7b04 	vldr	d7, [sp, #16]
10001eaa:	e9cd b323 	strd	fp, r3, [sp, #140]	@ 0x8c
10001eae:	4641      	mov	r1, r8
10001eb0:	464b      	mov	r3, r9
10001eb2:	4638      	mov	r0, r7
10001eb4:	9a0c      	ldr	r2, [sp, #48]	@ 0x30
10001eb6:	ed8d 7b20 	vstr	d7, [sp, #128]	@ 0x80
10001eba:	9522      	str	r5, [sp, #136]	@ 0x88
10001ebc:	b017      	add	sp, #92	@ 0x5c
10001ebe:	e8bd 4ff0 	ldmia.w	sp!, {r4, r5, r6, r7, r8, r9, sl, fp, lr}
10001ec2:	f000 b945 	b.w	10002150 <_etoa>
10001ec6:	0761      	lsls	r1, r4, #29
10001ec8:	4623      	mov	r3, r4
10001eca:	bf4c      	ite	mi
10001ecc:	2304      	movmi	r3, #4
10001ece:	2303      	movpl	r3, #3
10001ed0:	4641      	mov	r1, r8
10001ed2:	9321      	str	r3, [sp, #132]	@ 0x84
10001ed4:	4638      	mov	r0, r7
10001ed6:	464b      	mov	r3, r9
10001ed8:	9a07      	ldr	r2, [sp, #28]
10001eda:	bf48      	it	mi
10001edc:	4c30      	ldrmi	r4, [pc, #192]	@ (10001fa0 <_ftoa+0x310>)
10001ede:	e9cd b222 	strd	fp, r2, [sp, #136]	@ 0x88
10001ee2:	bf58      	it	pl
10001ee4:	4c2f      	ldrpl	r4, [pc, #188]	@ (10001fa4 <_ftoa+0x314>)
10001ee6:	9a0c      	ldr	r2, [sp, #48]	@ 0x30
10001ee8:	9420      	str	r4, [sp, #128]	@ 0x80
10001eea:	b017      	add	sp, #92	@ 0x5c
10001eec:	e8bd 4ff0 	ldmia.w	sp!, {r4, r5, r6, r7, r8, r9, sl, fp, lr}
10001ef0:	f7ff bd8c 	b.w	10001a0c <_out_rev>
10001ef4:	e9dd 2304 	ldrd	r2, r3, [sp, #16]
10001ef8:	2000      	movs	r0, #0
10001efa:	2100      	movs	r1, #0
10001efc:	f7ff fc56 	bl	100017ac <__wrap___aeabi_dsub>
10001f00:	2301      	movs	r3, #1
10001f02:	e9cd 0104 	strd	r0, r1, [sp, #16]
10001f06:	930d      	str	r3, [sp, #52]	@ 0x34
10001f08:	4623      	mov	r3, r4
10001f0a:	e70d      	b.n	10001d28 <_ftoa+0x98>
10001f0c:	4623      	mov	r3, r4
10001f0e:	079c      	lsls	r4, r3, #30
10001f10:	f040 80aa 	bne.w	10002068 <_ftoa+0x3d8>
10001f14:	f1bb 0f04 	cmp.w	fp, #4
10001f18:	f240 80a6 	bls.w	10002068 <_ftoa+0x3d8>
10001f1c:	9b0c      	ldr	r3, [sp, #48]	@ 0x30
10001f1e:	461d      	mov	r5, r3
10001f20:	1f1c      	subs	r4, r3, #4
10001f22:	eb04 0a0b 	add.w	sl, r4, fp
10001f26:	462a      	mov	r2, r5
10001f28:	464b      	mov	r3, r9
10001f2a:	4641      	mov	r1, r8
10001f2c:	2020      	movs	r0, #32
10001f2e:	3501      	adds	r5, #1
10001f30:	47b8      	blx	r7
10001f32:	45aa      	cmp	sl, r5
10001f34:	d1f7      	bne.n	10001f26 <_ftoa+0x296>
10001f36:	4655      	mov	r5, sl
10001f38:	4c1b      	ldr	r4, [pc, #108]	@ (10001fa8 <_ftoa+0x318>)
10001f3a:	1f26      	subs	r6, r4, #4
10001f3c:	f814 0d01 	ldrb.w	r0, [r4, #-1]!
10001f40:	462a      	mov	r2, r5
10001f42:	464b      	mov	r3, r9
10001f44:	4641      	mov	r1, r8
10001f46:	47b8      	blx	r7
10001f48:	42b4      	cmp	r4, r6
10001f4a:	f105 0501 	add.w	r5, r5, #1
10001f4e:	d1f5      	bne.n	10001f3c <_ftoa+0x2ac>
10001f50:	9b07      	ldr	r3, [sp, #28]
10001f52:	f10a 0a04 	add.w	sl, sl, #4
10001f56:	0798      	lsls	r0, r3, #30
10001f58:	d5a0      	bpl.n	10001e9c <_ftoa+0x20c>
10001f5a:	9c0c      	ldr	r4, [sp, #48]	@ 0x30
10001f5c:	ebaa 0304 	sub.w	r3, sl, r4
10001f60:	459b      	cmp	fp, r3
10001f62:	d99b      	bls.n	10001e9c <_ftoa+0x20c>
10001f64:	4652      	mov	r2, sl
10001f66:	464b      	mov	r3, r9
10001f68:	4641      	mov	r1, r8
10001f6a:	2020      	movs	r0, #32
10001f6c:	f10a 0a01 	add.w	sl, sl, #1
10001f70:	47b8      	blx	r7
10001f72:	ebaa 0304 	sub.w	r3, sl, r4
10001f76:	455b      	cmp	r3, fp
10001f78:	d3f4      	bcc.n	10001f64 <_ftoa+0x2d4>
10001f7a:	e78f      	b.n	10001e9c <_ftoa+0x20c>
10001f7c:	f3af 8000 	nop.w
10001f80:	00000000 	.word	0x00000000
10001f84:	41cdcd65 	.word	0x41cdcd65
10001f88:	00000000 	.word	0x00000000
10001f8c:	c1cdcd65 	.word	0xc1cdcd65
10001f90:	7fefffff 	.word	0x7fefffff
10001f94:	10003a60 	.word	0x10003a60
10001f98:	3fe00000 	.word	0x3fe00000
10001f9c:	66666667 	.word	0x66666667
10001fa0:	100039b8 	.word	0x100039b8
10001fa4:	100039c0 	.word	0x100039c0
10001fa8:	100039cc 	.word	0x100039cc
10001fac:	cccccccd 	.word	0xcccccccd
10001fb0:	2200      	movs	r2, #0
10001fb2:	e9dd 010a 	ldrd	r0, r1, [sp, #40]	@ 0x28
10001fb6:	4b63      	ldr	r3, [pc, #396]	@ (10002144 <_ftoa+0x4b4>)
10001fb8:	f7ff fcda 	bl	10001970 <__wrap___aeabi_dcmplt>
10001fbc:	2800      	cmp	r0, #0
10001fbe:	f47f af08 	bne.w	10001dd2 <_ftoa+0x142>
10001fc2:	f1ba 0f00 	cmp.w	sl, #0
10001fc6:	d16a      	bne.n	1000209e <_ftoa+0x40e>
10001fc8:	f10a 0a01 	add.w	sl, sl, #1
10001fcc:	2e00      	cmp	r6, #0
10001fce:	f47f af03 	bne.w	10001dd8 <_ftoa+0x148>
10001fd2:	4620      	mov	r0, r4
10001fd4:	f7ff fc72 	bl	100018bc <__wrap___aeabi_i2d>
10001fd8:	4602      	mov	r2, r0
10001fda:	460b      	mov	r3, r1
10001fdc:	e9dd 0104 	ldrd	r0, r1, [sp, #16]
10001fe0:	f7ff fbe4 	bl	100017ac <__wrap___aeabi_dsub>
10001fe4:	4602      	mov	r2, r0
10001fe6:	460b      	mov	r3, r1
10001fe8:	e9cd 2304 	strd	r2, r3, [sp, #16]
10001fec:	2200      	movs	r2, #0
10001fee:	4b55      	ldr	r3, [pc, #340]	@ (10002144 <_ftoa+0x4b4>)
10001ff0:	f7ff fcbe 	bl	10001970 <__wrap___aeabi_dcmplt>
10001ff4:	2800      	cmp	r0, #0
10001ff6:	f47f af0c 	bne.w	10001e12 <_ftoa+0x182>
10001ffa:	e9dd 0104 	ldrd	r0, r1, [sp, #16]
10001ffe:	2200      	movs	r2, #0
10002000:	4b50      	ldr	r3, [pc, #320]	@ (10002144 <_ftoa+0x4b4>)
10002002:	f7ff fcf1 	bl	100019e8 <__wrap___aeabi_dcmpgt>
10002006:	2800      	cmp	r0, #0
10002008:	f47f af03 	bne.w	10001e12 <_ftoa+0x182>
1000200c:	3401      	adds	r4, #1
1000200e:	f024 0401 	bic.w	r4, r4, #1
10002012:	e6fe      	b.n	10001e12 <_ftoa+0x182>
10002014:	9b07      	ldr	r3, [sp, #28]
10002016:	f003 0303 	and.w	r3, r3, #3
1000201a:	2b01      	cmp	r3, #1
1000201c:	f000 8082 	beq.w	10002124 <_ftoa+0x494>
10002020:	2d20      	cmp	r5, #32
10002022:	f43f af2e 	beq.w	10001e82 <_ftoa+0x1f2>
10002026:	9b0d      	ldr	r3, [sp, #52]	@ 0x34
10002028:	b37b      	cbz	r3, 1000208a <_ftoa+0x3fa>
1000202a:	222d      	movs	r2, #45	@ 0x2d
1000202c:	eb0d 0305 	add.w	r3, sp, r5
10002030:	f883 2038 	strb.w	r2, [r3, #56]	@ 0x38
10002034:	3501      	adds	r5, #1
10002036:	e724      	b.n	10001e82 <_ftoa+0x1f2>
10002038:	2b20      	cmp	r3, #32
1000203a:	f43f aee9 	beq.w	10001e10 <_ftoa+0x180>
1000203e:	aa0e      	add	r2, sp, #56	@ 0x38
10002040:	4415      	add	r5, r2
10002042:	441e      	add	r6, r3
10002044:	2230      	movs	r2, #48	@ 0x30
10002046:	e004      	b.n	10002052 <_ftoa+0x3c2>
10002048:	2b20      	cmp	r3, #32
1000204a:	f805 2f01 	strb.w	r2, [r5, #1]!
1000204e:	f43f aedf 	beq.w	10001e10 <_ftoa+0x180>
10002052:	429e      	cmp	r6, r3
10002054:	f103 0301 	add.w	r3, r3, #1
10002058:	d1f6      	bne.n	10002048 <_ftoa+0x3b8>
1000205a:	222e      	movs	r2, #46	@ 0x2e
1000205c:	eb0d 0306 	add.w	r3, sp, r6
10002060:	f883 2038 	strb.w	r2, [r3, #56]	@ 0x38
10002064:	1c75      	adds	r5, r6, #1
10002066:	e6d4      	b.n	10001e12 <_ftoa+0x182>
10002068:	f8dd a030 	ldr.w	sl, [sp, #48]	@ 0x30
1000206c:	e763      	b.n	10001f36 <_ftoa+0x2a6>
1000206e:	2520      	movs	r5, #32
10002070:	e66e      	b.n	10001d50 <_ftoa+0xc0>
10002072:	9b07      	ldr	r3, [sp, #28]
10002074:	f013 0f0c 	tst.w	r3, #12
10002078:	d050      	beq.n	1000211c <_ftoa+0x48c>
1000207a:	f10b 3bff 	add.w	fp, fp, #4294967295
1000207e:	45ab      	cmp	fp, r5
10002080:	f63f aef2 	bhi.w	10001e68 <_ftoa+0x1d8>
10002084:	2d20      	cmp	r5, #32
10002086:	f43f aefc 	beq.w	10001e82 <_ftoa+0x1f2>
1000208a:	9b07      	ldr	r3, [sp, #28]
1000208c:	075a      	lsls	r2, r3, #29
1000208e:	d501      	bpl.n	10002094 <_ftoa+0x404>
10002090:	222b      	movs	r2, #43	@ 0x2b
10002092:	e7cb      	b.n	1000202c <_ftoa+0x39c>
10002094:	071b      	lsls	r3, r3, #28
10002096:	f57f aef4 	bpl.w	10001e82 <_ftoa+0x1f2>
1000209a:	2220      	movs	r2, #32
1000209c:	e7c6      	b.n	1000202c <_ftoa+0x39c>
1000209e:	f01a 0f01 	tst.w	sl, #1
100020a2:	f43f ae96 	beq.w	10001dd2 <_ftoa+0x142>
100020a6:	e78f      	b.n	10001fc8 <_ftoa+0x338>
100020a8:	07a6      	lsls	r6, r4, #30
100020aa:	d134      	bne.n	10002116 <_ftoa+0x486>
100020ac:	f1bb 0f03 	cmp.w	fp, #3
100020b0:	d931      	bls.n	10002116 <_ftoa+0x486>
100020b2:	9b0c      	ldr	r3, [sp, #48]	@ 0x30
100020b4:	461d      	mov	r5, r3
100020b6:	1edc      	subs	r4, r3, #3
100020b8:	eb04 0a0b 	add.w	sl, r4, fp
100020bc:	462a      	mov	r2, r5
100020be:	464b      	mov	r3, r9
100020c0:	4641      	mov	r1, r8
100020c2:	2020      	movs	r0, #32
100020c4:	3501      	adds	r5, #1
100020c6:	47b8      	blx	r7
100020c8:	4555      	cmp	r5, sl
100020ca:	d1f7      	bne.n	100020bc <_ftoa+0x42c>
100020cc:	4655      	mov	r5, sl
100020ce:	4c1e      	ldr	r4, [pc, #120]	@ (10002148 <_ftoa+0x4b8>)
100020d0:	1ee6      	subs	r6, r4, #3
100020d2:	f814 0d01 	ldrb.w	r0, [r4, #-1]!
100020d6:	462a      	mov	r2, r5
100020d8:	464b      	mov	r3, r9
100020da:	4641      	mov	r1, r8
100020dc:	47b8      	blx	r7
100020de:	42a6      	cmp	r6, r4
100020e0:	f105 0501 	add.w	r5, r5, #1
100020e4:	d1f5      	bne.n	100020d2 <_ftoa+0x442>
100020e6:	9b07      	ldr	r3, [sp, #28]
100020e8:	f10a 0a03 	add.w	sl, sl, #3
100020ec:	079d      	lsls	r5, r3, #30
100020ee:	f57f aed5 	bpl.w	10001e9c <_ftoa+0x20c>
100020f2:	9c0c      	ldr	r4, [sp, #48]	@ 0x30
100020f4:	ebaa 0304 	sub.w	r3, sl, r4
100020f8:	459b      	cmp	fp, r3
100020fa:	f67f aecf 	bls.w	10001e9c <_ftoa+0x20c>
100020fe:	4652      	mov	r2, sl
10002100:	464b      	mov	r3, r9
10002102:	4641      	mov	r1, r8
10002104:	2020      	movs	r0, #32
10002106:	f10a 0a01 	add.w	sl, sl, #1
1000210a:	47b8      	blx	r7
1000210c:	ebaa 0304 	sub.w	r3, sl, r4
10002110:	459b      	cmp	fp, r3
10002112:	d8f4      	bhi.n	100020fe <_ftoa+0x46e>
10002114:	e6c2      	b.n	10001e9c <_ftoa+0x20c>
10002116:	f8dd a030 	ldr.w	sl, [sp, #48]	@ 0x30
1000211a:	e7d7      	b.n	100020cc <_ftoa+0x43c>
1000211c:	45ab      	cmp	fp, r5
1000211e:	f63f aea3 	bhi.w	10001e68 <_ftoa+0x1d8>
10002122:	e6ae      	b.n	10001e82 <_ftoa+0x1f2>
10002124:	f1bb 0f00 	cmp.w	fp, #0
10002128:	f43f af7a 	beq.w	10002020 <_ftoa+0x390>
1000212c:	9b0d      	ldr	r3, [sp, #52]	@ 0x34
1000212e:	2b00      	cmp	r3, #0
10002130:	d09f      	beq.n	10002072 <_ftoa+0x3e2>
10002132:	f10b 3bff 	add.w	fp, fp, #4294967295
10002136:	455d      	cmp	r5, fp
10002138:	f4ff ae96 	bcc.w	10001e68 <_ftoa+0x1d8>
1000213c:	2d20      	cmp	r5, #32
1000213e:	f47f af74 	bne.w	1000202a <_ftoa+0x39a>
10002142:	e69e      	b.n	10001e82 <_ftoa+0x1f2>
10002144:	3fe00000 	.word	0x3fe00000
10002148:	100039c7 	.word	0x100039c7
1000214c:	00000000 	.word	0x00000000

10002150 <_etoa>:
10002150:	e92d 4ff0 	stmdb	sp!, {r4, r5, r6, r7, r8, r9, sl, fp, lr}
10002154:	b09f      	sub	sp, #124	@ 0x7c
10002156:	9e2a      	ldr	r6, [sp, #168]	@ 0xa8
10002158:	e9dd 4528 	ldrd	r4, r5, [sp, #160]	@ 0xa0
1000215c:	4607      	mov	r7, r0
1000215e:	4693      	mov	fp, r2
10002160:	9108      	str	r1, [sp, #32]
10002162:	9309      	str	r3, [sp, #36]	@ 0x24
10002164:	4622      	mov	r2, r4
10002166:	462b      	mov	r3, r5
10002168:	4620      	mov	r0, r4
1000216a:	4629      	mov	r1, r5
1000216c:	960e      	str	r6, [sp, #56]	@ 0x38
1000216e:	e9dd a62b 	ldrd	sl, r6, [sp, #172]	@ 0xac
10002172:	f7ff fbeb 	bl	1000194c <__wrap___aeabi_dcmpun>
10002176:	2800      	cmp	r0, #0
10002178:	f040 80be 	bne.w	100022f8 <_etoa+0x1a8>
1000217c:	4620      	mov	r0, r4
1000217e:	4629      	mov	r1, r5
10002180:	f04f 32ff 	mov.w	r2, #4294967295
10002184:	4b78      	ldr	r3, [pc, #480]	@ (10002368 <_etoa+0x218>)
10002186:	f7ff fc2f 	bl	100019e8 <__wrap___aeabi_dcmpgt>
1000218a:	2800      	cmp	r0, #0
1000218c:	f040 80b4 	bne.w	100022f8 <_etoa+0x1a8>
10002190:	4620      	mov	r0, r4
10002192:	4629      	mov	r1, r5
10002194:	f04f 32ff 	mov.w	r2, #4294967295
10002198:	f46f 1380 	mvn.w	r3, #1048576	@ 0x100000
1000219c:	f7ff fbe8 	bl	10001970 <__wrap___aeabi_dcmplt>
100021a0:	2800      	cmp	r0, #0
100021a2:	f040 80a9 	bne.w	100022f8 <_etoa+0x1a8>
100021a6:	4620      	mov	r0, r4
100021a8:	4629      	mov	r1, r5
100021aa:	2200      	movs	r2, #0
100021ac:	2300      	movs	r3, #0
100021ae:	f7ff fbdf 	bl	10001970 <__wrap___aeabi_dcmplt>
100021b2:	2800      	cmp	r0, #0
100021b4:	f040 81d5 	bne.w	10002562 <_etoa+0x412>
100021b8:	e9cd 450a 	strd	r4, r5, [sp, #40]	@ 0x28
100021bc:	e9dd 230a 	ldrd	r2, r3, [sp, #40]	@ 0x28
100021c0:	4690      	mov	r8, r2
100021c2:	4699      	mov	r9, r3
100021c4:	f406 6200 	and.w	r2, r6, #2048	@ 0x800
100021c8:	f416 6380 	ands.w	r3, r6, #1024	@ 0x400
100021cc:	920f      	str	r2, [sp, #60]	@ 0x3c
100021ce:	9313      	str	r3, [sp, #76]	@ 0x4c
100021d0:	f040 80a1 	bne.w	10002316 <_etoa+0x1c6>
100021d4:	ea58 0309 	orrs.w	r3, r8, r9
100021d8:	f040 80ca 	bne.w	10002370 <_etoa+0x220>
100021dc:	2a00      	cmp	r2, #0
100021de:	f040 81e3 	bne.w	100025a8 <_etoa+0x458>
100021e2:	2306      	movs	r3, #6
100021e4:	930e      	str	r3, [sp, #56]	@ 0x38
100021e6:	f016 0202 	ands.w	r2, r6, #2
100021ea:	9210      	str	r2, [sp, #64]	@ 0x40
100021ec:	f040 81d4 	bne.w	10002598 <_etoa+0x448>
100021f0:	4653      	mov	r3, sl
100021f2:	2b04      	cmp	r3, #4
100021f4:	bf38      	it	cc
100021f6:	2304      	movcc	r3, #4
100021f8:	920c      	str	r2, [sp, #48]	@ 0x30
100021fa:	2204      	movs	r2, #4
100021fc:	3b04      	subs	r3, #4
100021fe:	9212      	str	r2, [sp, #72]	@ 0x48
10002200:	930f      	str	r3, [sp, #60]	@ 0x3c
10002202:	4620      	mov	r0, r4
10002204:	4629      	mov	r1, r5
10002206:	2200      	movs	r2, #0
10002208:	2300      	movs	r3, #0
1000220a:	f7ff fbb1 	bl	10001970 <__wrap___aeabi_dcmplt>
1000220e:	2800      	cmp	r0, #0
10002210:	f040 81f3 	bne.w	100025fa <_etoa+0x4aa>
10002214:	ed9d 7b0a 	vldr	d7, [sp, #40]	@ 0x28
10002218:	9b0f      	ldr	r3, [sp, #60]	@ 0x3c
1000221a:	465a      	mov	r2, fp
1000221c:	9303      	str	r3, [sp, #12]
1000221e:	9b0e      	ldr	r3, [sp, #56]	@ 0x38
10002220:	ed8d 7b00 	vstr	d7, [sp]
10002224:	9302      	str	r3, [sp, #8]
10002226:	f426 6300 	bic.w	r3, r6, #2048	@ 0x800
1000222a:	9304      	str	r3, [sp, #16]
1000222c:	4638      	mov	r0, r7
1000222e:	9b09      	ldr	r3, [sp, #36]	@ 0x24
10002230:	9908      	ldr	r1, [sp, #32]
10002232:	f7ff fd2d 	bl	10001c90 <_ftoa>
10002236:	4602      	mov	r2, r0
10002238:	f016 0f20 	tst.w	r6, #32
1000223c:	9b09      	ldr	r3, [sp, #36]	@ 0x24
1000223e:	9908      	ldr	r1, [sp, #32]
10002240:	bf0c      	ite	eq
10002242:	2065      	moveq	r0, #101	@ 0x65
10002244:	2045      	movne	r0, #69	@ 0x45
10002246:	f102 0801 	add.w	r8, r2, #1
1000224a:	47b8      	blx	r7
1000224c:	9a0c      	ldr	r2, [sp, #48]	@ 0x30
1000224e:	9b12      	ldr	r3, [sp, #72]	@ 0x48
10002250:	ac16      	add	r4, sp, #88	@ 0x58
10002252:	1e5d      	subs	r5, r3, #1
10002254:	ea82 73e2 	eor.w	r3, r2, r2, asr #31
10002258:	eba3 73e2 	sub.w	r3, r3, r2, asr #31
1000225c:	0fd1      	lsrs	r1, r2, #31
1000225e:	2600      	movs	r6, #0
10002260:	4622      	mov	r2, r4
10002262:	4699      	mov	r9, r3
10002264:	f8df c104 	ldr.w	ip, [pc, #260]	@ 1000236c <_etoa+0x21c>
10002268:	e001      	b.n	1000226e <_etoa+0x11e>
1000226a:	2e20      	cmp	r6, #32
1000226c:	d010      	beq.n	10002290 <_etoa+0x140>
1000226e:	46ce      	mov	lr, r9
10002270:	fbac 3009 	umull	r3, r0, ip, r9
10002274:	08c0      	lsrs	r0, r0, #3
10002276:	eb00 0380 	add.w	r3, r0, r0, lsl #2
1000227a:	eba9 0343 	sub.w	r3, r9, r3, lsl #1
1000227e:	3330      	adds	r3, #48	@ 0x30
10002280:	f1be 0f09 	cmp.w	lr, #9
10002284:	4681      	mov	r9, r0
10002286:	f106 0601 	add.w	r6, r6, #1
1000228a:	f802 3b01 	strb.w	r3, [r2], #1
1000228e:	d8ec      	bhi.n	1000226a <_etoa+0x11a>
10002290:	2305      	movs	r3, #5
10002292:	2000      	movs	r0, #0
10002294:	9306      	str	r3, [sp, #24]
10002296:	230a      	movs	r3, #10
10002298:	9505      	str	r5, [sp, #20]
1000229a:	9400      	str	r4, [sp, #0]
1000229c:	9d09      	ldr	r5, [sp, #36]	@ 0x24
1000229e:	9c08      	ldr	r4, [sp, #32]
100022a0:	4642      	mov	r2, r8
100022a2:	e9cd 3003 	strd	r3, r0, [sp, #12]
100022a6:	e9cd 6101 	strd	r6, r1, [sp, #4]
100022aa:	462b      	mov	r3, r5
100022ac:	4621      	mov	r1, r4
100022ae:	4638      	mov	r0, r7
100022b0:	f7ff fbfa 	bl	10001aa8 <_ntoa_format>
100022b4:	9a10      	ldr	r2, [sp, #64]	@ 0x40
100022b6:	4680      	mov	r8, r0
100022b8:	b1d2      	cbz	r2, 100022f0 <_etoa+0x1a0>
100022ba:	eba0 060b 	sub.w	r6, r0, fp
100022be:	45b2      	cmp	sl, r6
100022c0:	d916      	bls.n	100022f0 <_etoa+0x1a0>
100022c2:	eb0b 0206 	add.w	r2, fp, r6
100022c6:	462b      	mov	r3, r5
100022c8:	4621      	mov	r1, r4
100022ca:	2020      	movs	r0, #32
100022cc:	3601      	adds	r6, #1
100022ce:	47b8      	blx	r7
100022d0:	45b2      	cmp	sl, r6
100022d2:	d8f6      	bhi.n	100022c2 <_etoa+0x172>
100022d4:	f10b 33ff 	add.w	r3, fp, #4294967295
100022d8:	4453      	add	r3, sl
100022da:	f1cb 0201 	rsb	r2, fp, #1
100022de:	eba3 0308 	sub.w	r3, r3, r8
100022e2:	4442      	add	r2, r8
100022e4:	4592      	cmp	sl, r2
100022e6:	bf38      	it	cc
100022e8:	2300      	movcc	r3, #0
100022ea:	f108 0801 	add.w	r8, r8, #1
100022ee:	4498      	add	r8, r3
100022f0:	4640      	mov	r0, r8
100022f2:	b01f      	add	sp, #124	@ 0x7c
100022f4:	e8bd 8ff0 	ldmia.w	sp!, {r4, r5, r6, r7, r8, r9, sl, fp, pc}
100022f8:	465a      	mov	r2, fp
100022fa:	4638      	mov	r0, r7
100022fc:	e9cd 4528 	strd	r4, r5, [sp, #160]	@ 0xa0
10002300:	e9cd a62b 	strd	sl, r6, [sp, #172]	@ 0xac
10002304:	9c0e      	ldr	r4, [sp, #56]	@ 0x38
10002306:	9b09      	ldr	r3, [sp, #36]	@ 0x24
10002308:	9908      	ldr	r1, [sp, #32]
1000230a:	942a      	str	r4, [sp, #168]	@ 0xa8
1000230c:	b01f      	add	sp, #124	@ 0x7c
1000230e:	e8bd 4ff0 	ldmia.w	sp!, {r4, r5, r6, r7, r8, r9, sl, fp, lr}
10002312:	f7ff bcbd 	b.w	10001c90 <_ftoa>
10002316:	ea58 0309 	orrs.w	r3, r8, r9
1000231a:	d12b      	bne.n	10002374 <_etoa+0x224>
1000231c:	2a00      	cmp	r2, #0
1000231e:	f43f af62 	beq.w	100021e6 <_etoa+0x96>
10002322:	2300      	movs	r3, #0
10002324:	930c      	str	r3, [sp, #48]	@ 0x30
10002326:	9b0e      	ldr	r3, [sp, #56]	@ 0x38
10002328:	9a0c      	ldr	r2, [sp, #48]	@ 0x30
1000232a:	4293      	cmp	r3, r2
1000232c:	f300 81b9 	bgt.w	100026a2 <_etoa+0x552>
10002330:	f04f 0800 	mov.w	r8, #0
10002334:	4620      	mov	r0, r4
10002336:	4629      	mov	r1, r5
10002338:	2200      	movs	r2, #0
1000233a:	2300      	movs	r3, #0
1000233c:	f7ff fb18 	bl	10001970 <__wrap___aeabi_dcmplt>
10002340:	2800      	cmp	r0, #0
10002342:	f040 8113 	bne.w	1000256c <_etoa+0x41c>
10002346:	ed9d 7b0a 	vldr	d7, [sp, #40]	@ 0x28
1000234a:	f426 6600 	bic.w	r6, r6, #2048	@ 0x800
1000234e:	f446 6680 	orr.w	r6, r6, #1024	@ 0x400
10002352:	ed8d 7b28 	vstr	d7, [sp, #160]	@ 0xa0
10002356:	465a      	mov	r2, fp
10002358:	4638      	mov	r0, r7
1000235a:	e9cd 8a2a 	strd	r8, sl, [sp, #168]	@ 0xa8
1000235e:	9b09      	ldr	r3, [sp, #36]	@ 0x24
10002360:	9908      	ldr	r1, [sp, #32]
10002362:	962c      	str	r6, [sp, #176]	@ 0xb0
10002364:	e7d2      	b.n	1000230c <_etoa+0x1bc>
10002366:	bf00      	nop
10002368:	7fefffff 	.word	0x7fefffff
1000236c:	cccccccd 	.word	0xcccccccd
10002370:	2306      	movs	r3, #6
10002372:	930e      	str	r3, [sp, #56]	@ 0x38
10002374:	f3c9 500a 	ubfx	r0, r9, #20, #11
10002378:	f2a0 30ff 	subw	r0, r0, #1023	@ 0x3ff
1000237c:	f7ff fa9e 	bl	100018bc <__wrap___aeabi_i2d>
10002380:	a3c1      	add	r3, pc, #772	@ (adr r3, 10002688 <_etoa+0x538>)
10002382:	e9d3 2300 	ldrd	r2, r3, [r3]
10002386:	f7ff fa25 	bl	100017d4 <__wrap___aeabi_dmul>
1000238a:	a3c1      	add	r3, pc, #772	@ (adr r3, 10002690 <_etoa+0x540>)
1000238c:	e9d3 2300 	ldrd	r2, r3, [r3]
10002390:	f7ff f9f8 	bl	10001784 <__wrap___aeabi_dadd>
10002394:	f3c9 0913 	ubfx	r9, r9, #0, #20
10002398:	e9cd 010c 	strd	r0, r1, [sp, #48]	@ 0x30
1000239c:	f049 517f 	orr.w	r1, r9, #1069547520	@ 0x3fc00000
100023a0:	4640      	mov	r0, r8
100023a2:	2200      	movs	r2, #0
100023a4:	4bb2      	ldr	r3, [pc, #712]	@ (10002670 <_etoa+0x520>)
100023a6:	f441 1140 	orr.w	r1, r1, #3145728	@ 0x300000
100023aa:	f7ff f9ff 	bl	100017ac <__wrap___aeabi_dsub>
100023ae:	a3a4      	add	r3, pc, #656	@ (adr r3, 10002640 <_etoa+0x4f0>)
100023b0:	e9d3 2300 	ldrd	r2, r3, [r3]
100023b4:	f7ff fa0e 	bl	100017d4 <__wrap___aeabi_dmul>
100023b8:	4602      	mov	r2, r0
100023ba:	460b      	mov	r3, r1
100023bc:	e9dd 010c 	ldrd	r0, r1, [sp, #48]	@ 0x30
100023c0:	f7ff f9e0 	bl	10001784 <__wrap___aeabi_dadd>
100023c4:	f7ff fa9e 	bl	10001904 <__wrap___aeabi_d2iz>
100023c8:	900c      	str	r0, [sp, #48]	@ 0x30
100023ca:	f7ff fa77 	bl	100018bc <__wrap___aeabi_i2d>
100023ce:	a39e      	add	r3, pc, #632	@ (adr r3, 10002648 <_etoa+0x4f8>)
100023d0:	e9d3 2300 	ldrd	r2, r3, [r3]
100023d4:	4680      	mov	r8, r0
100023d6:	4689      	mov	r9, r1
100023d8:	f7ff f9fc 	bl	100017d4 <__wrap___aeabi_dmul>
100023dc:	2200      	movs	r2, #0
100023de:	4ba5      	ldr	r3, [pc, #660]	@ (10002674 <_etoa+0x524>)
100023e0:	f7ff f9d0 	bl	10001784 <__wrap___aeabi_dadd>
100023e4:	f7ff fa8e 	bl	10001904 <__wrap___aeabi_d2iz>
100023e8:	4603      	mov	r3, r0
100023ea:	4649      	mov	r1, r9
100023ec:	4640      	mov	r0, r8
100023ee:	9312      	str	r3, [sp, #72]	@ 0x48
100023f0:	a397      	add	r3, pc, #604	@ (adr r3, 10002650 <_etoa+0x500>)
100023f2:	e9d3 2300 	ldrd	r2, r3, [r3]
100023f6:	f7ff f9ed 	bl	100017d4 <__wrap___aeabi_dmul>
100023fa:	4680      	mov	r8, r0
100023fc:	9812      	ldr	r0, [sp, #72]	@ 0x48
100023fe:	4689      	mov	r9, r1
10002400:	f7ff fa5c 	bl	100018bc <__wrap___aeabi_i2d>
10002404:	a394      	add	r3, pc, #592	@ (adr r3, 10002658 <_etoa+0x508>)
10002406:	e9d3 2300 	ldrd	r2, r3, [r3]
1000240a:	f7ff f9e3 	bl	100017d4 <__wrap___aeabi_dmul>
1000240e:	4602      	mov	r2, r0
10002410:	460b      	mov	r3, r1
10002412:	4640      	mov	r0, r8
10002414:	4649      	mov	r1, r9
10002416:	f7ff f9c9 	bl	100017ac <__wrap___aeabi_dsub>
1000241a:	4602      	mov	r2, r0
1000241c:	460b      	mov	r3, r1
1000241e:	4680      	mov	r8, r0
10002420:	4689      	mov	r9, r1
10002422:	f7ff f9d7 	bl	100017d4 <__wrap___aeabi_dmul>
10002426:	4642      	mov	r2, r8
10002428:	464b      	mov	r3, r9
1000242a:	e9cd 0110 	strd	r0, r1, [sp, #64]	@ 0x40
1000242e:	4640      	mov	r0, r8
10002430:	4649      	mov	r1, r9
10002432:	f7ff f9a7 	bl	10001784 <__wrap___aeabi_dadd>
10002436:	2200      	movs	r2, #0
10002438:	e9cd 0114 	strd	r0, r1, [sp, #80]	@ 0x50
1000243c:	e9dd 0110 	ldrd	r0, r1, [sp, #64]	@ 0x40
10002440:	4b8d      	ldr	r3, [pc, #564]	@ (10002678 <_etoa+0x528>)
10002442:	f7ff f9ed 	bl	10001820 <__wrap___aeabi_ddiv>
10002446:	2200      	movs	r2, #0
10002448:	4b8c      	ldr	r3, [pc, #560]	@ (1000267c <_etoa+0x52c>)
1000244a:	f7ff f99b 	bl	10001784 <__wrap___aeabi_dadd>
1000244e:	4602      	mov	r2, r0
10002450:	460b      	mov	r3, r1
10002452:	e9dd 0110 	ldrd	r0, r1, [sp, #64]	@ 0x40
10002456:	f7ff f9e3 	bl	10001820 <__wrap___aeabi_ddiv>
1000245a:	2200      	movs	r2, #0
1000245c:	4b88      	ldr	r3, [pc, #544]	@ (10002680 <_etoa+0x530>)
1000245e:	f7ff f991 	bl	10001784 <__wrap___aeabi_dadd>
10002462:	4602      	mov	r2, r0
10002464:	460b      	mov	r3, r1
10002466:	e9dd 0110 	ldrd	r0, r1, [sp, #64]	@ 0x40
1000246a:	f7ff f9d9 	bl	10001820 <__wrap___aeabi_ddiv>
1000246e:	4642      	mov	r2, r8
10002470:	464b      	mov	r3, r9
10002472:	4680      	mov	r8, r0
10002474:	4689      	mov	r9, r1
10002476:	2000      	movs	r0, #0
10002478:	f04f 4180 	mov.w	r1, #1073741824	@ 0x40000000
1000247c:	f7ff f996 	bl	100017ac <__wrap___aeabi_dsub>
10002480:	4602      	mov	r2, r0
10002482:	460b      	mov	r3, r1
10002484:	4640      	mov	r0, r8
10002486:	4649      	mov	r1, r9
10002488:	f7ff f97c 	bl	10001784 <__wrap___aeabi_dadd>
1000248c:	4602      	mov	r2, r0
1000248e:	460b      	mov	r3, r1
10002490:	e9dd 0114 	ldrd	r0, r1, [sp, #80]	@ 0x50
10002494:	f7ff f9c4 	bl	10001820 <__wrap___aeabi_ddiv>
10002498:	2200      	movs	r2, #0
1000249a:	4b7a      	ldr	r3, [pc, #488]	@ (10002684 <_etoa+0x534>)
1000249c:	f7ff f972 	bl	10001784 <__wrap___aeabi_dadd>
100024a0:	9b12      	ldr	r3, [sp, #72]	@ 0x48
100024a2:	2200      	movs	r2, #0
100024a4:	f203 3cff 	addw	ip, r3, #1023	@ 0x3ff
100024a8:	ea4f 530c 	mov.w	r3, ip, lsl #20
100024ac:	f7ff f992 	bl	100017d4 <__wrap___aeabi_dmul>
100024b0:	4680      	mov	r8, r0
100024b2:	4689      	mov	r9, r1
100024b4:	e9dd 010a 	ldrd	r0, r1, [sp, #40]	@ 0x28
100024b8:	4642      	mov	r2, r8
100024ba:	464b      	mov	r3, r9
100024bc:	f7ff fa58 	bl	10001970 <__wrap___aeabi_dcmplt>
100024c0:	b150      	cbz	r0, 100024d8 <_etoa+0x388>
100024c2:	9b0c      	ldr	r3, [sp, #48]	@ 0x30
100024c4:	4640      	mov	r0, r8
100024c6:	3b01      	subs	r3, #1
100024c8:	4649      	mov	r1, r9
100024ca:	930c      	str	r3, [sp, #48]	@ 0x30
100024cc:	2200      	movs	r2, #0
100024ce:	4b6b      	ldr	r3, [pc, #428]	@ (1000267c <_etoa+0x52c>)
100024d0:	f7ff f9a6 	bl	10001820 <__wrap___aeabi_ddiv>
100024d4:	4680      	mov	r8, r0
100024d6:	4689      	mov	r9, r1
100024d8:	9a0c      	ldr	r2, [sp, #48]	@ 0x30
100024da:	4643      	mov	r3, r8
100024dc:	3263      	adds	r2, #99	@ 0x63
100024de:	2ac6      	cmp	r2, #198	@ 0xc6
100024e0:	f006 0202 	and.w	r2, r6, #2
100024e4:	9210      	str	r2, [sp, #64]	@ 0x40
100024e6:	4649      	mov	r1, r9
100024e8:	9a0f      	ldr	r2, [sp, #60]	@ 0x3c
100024ea:	d82c      	bhi.n	10002546 <_etoa+0x3f6>
100024ec:	2a00      	cmp	r2, #0
100024ee:	d05e      	beq.n	100025ae <_etoa+0x45e>
100024f0:	2204      	movs	r2, #4
100024f2:	9212      	str	r2, [sp, #72]	@ 0x48
100024f4:	430b      	orrs	r3, r1
100024f6:	f43f af16 	beq.w	10002326 <_etoa+0x1d6>
100024fa:	e9dd 010a 	ldrd	r0, r1, [sp, #40]	@ 0x28
100024fe:	a358      	add	r3, pc, #352	@ (adr r3, 10002660 <_etoa+0x510>)
10002500:	e9d3 2300 	ldrd	r2, r3, [r3]
10002504:	f7ff fa5c 	bl	100019c0 <__wrap___aeabi_dcmpge>
10002508:	b148      	cbz	r0, 1000251e <_etoa+0x3ce>
1000250a:	e9dd 010a 	ldrd	r0, r1, [sp, #40]	@ 0x28
1000250e:	a356      	add	r3, pc, #344	@ (adr r3, 10002668 <_etoa+0x518>)
10002510:	e9d3 2300 	ldrd	r2, r3, [r3]
10002514:	f7ff fa2c 	bl	10001970 <__wrap___aeabi_dcmplt>
10002518:	2800      	cmp	r0, #0
1000251a:	f47f af04 	bne.w	10002326 <_etoa+0x1d6>
1000251e:	9b0e      	ldr	r3, [sp, #56]	@ 0x38
10002520:	2b00      	cmp	r3, #0
10002522:	d050      	beq.n	100025c6 <_etoa+0x476>
10002524:	9a13      	ldr	r2, [sp, #76]	@ 0x4c
10002526:	2a00      	cmp	r2, #0
10002528:	d07d      	beq.n	10002626 <_etoa+0x4d6>
1000252a:	3b01      	subs	r3, #1
1000252c:	930e      	str	r3, [sp, #56]	@ 0x38
1000252e:	9b12      	ldr	r3, [sp, #72]	@ 0x48
10002530:	459a      	cmp	sl, r3
10002532:	d905      	bls.n	10002540 <_etoa+0x3f0>
10002534:	9b10      	ldr	r3, [sp, #64]	@ 0x40
10002536:	2b00      	cmp	r3, #0
10002538:	f000 80ae 	beq.w	10002698 <_etoa+0x548>
1000253c:	2302      	movs	r3, #2
1000253e:	9310      	str	r3, [sp, #64]	@ 0x40
10002540:	2300      	movs	r3, #0
10002542:	930f      	str	r3, [sp, #60]	@ 0x3c
10002544:	e044      	b.n	100025d0 <_etoa+0x480>
10002546:	bb22      	cbnz	r2, 10002592 <_etoa+0x442>
10002548:	f1ba 0f05 	cmp.w	sl, #5
1000254c:	d94f      	bls.n	100025ee <_etoa+0x49e>
1000254e:	f006 0302 	and.w	r3, r6, #2
10002552:	2b00      	cmp	r3, #0
10002554:	d149      	bne.n	100025ea <_etoa+0x49a>
10002556:	2305      	movs	r3, #5
10002558:	9312      	str	r3, [sp, #72]	@ 0x48
1000255a:	f1aa 0305 	sub.w	r3, sl, #5
1000255e:	930f      	str	r3, [sp, #60]	@ 0x3c
10002560:	e03a      	b.n	100025d8 <_etoa+0x488>
10002562:	f105 4300 	add.w	r3, r5, #2147483648	@ 0x80000000
10002566:	940a      	str	r4, [sp, #40]	@ 0x28
10002568:	930b      	str	r3, [sp, #44]	@ 0x2c
1000256a:	e627      	b.n	100021bc <_etoa+0x6c>
1000256c:	f426 6600 	bic.w	r6, r6, #2048	@ 0x800
10002570:	f446 6680 	orr.w	r6, r6, #1024	@ 0x400
10002574:	4638      	mov	r0, r7
10002576:	962c      	str	r6, [sp, #176]	@ 0xb0
10002578:	e9dd 670a 	ldrd	r6, r7, [sp, #40]	@ 0x28
1000257c:	4634      	mov	r4, r6
1000257e:	f107 4500 	add.w	r5, r7, #2147483648	@ 0x80000000
10002582:	465a      	mov	r2, fp
10002584:	e9cd 8a2a 	strd	r8, sl, [sp, #168]	@ 0xa8
10002588:	e9cd 4528 	strd	r4, r5, [sp, #160]	@ 0xa0
1000258c:	9b09      	ldr	r3, [sp, #36]	@ 0x24
1000258e:	9908      	ldr	r1, [sp, #32]
10002590:	e6bc      	b.n	1000230c <_etoa+0x1bc>
10002592:	2205      	movs	r2, #5
10002594:	9212      	str	r2, [sp, #72]	@ 0x48
10002596:	e7ad      	b.n	100024f4 <_etoa+0x3a4>
10002598:	2300      	movs	r3, #0
1000259a:	2202      	movs	r2, #2
1000259c:	e9cd 320f 	strd	r3, r2, [sp, #60]	@ 0x3c
100025a0:	2204      	movs	r2, #4
100025a2:	930c      	str	r3, [sp, #48]	@ 0x30
100025a4:	9212      	str	r2, [sp, #72]	@ 0x48
100025a6:	e62c      	b.n	10002202 <_etoa+0xb2>
100025a8:	f04f 0805 	mov.w	r8, #5
100025ac:	e6c2      	b.n	10002334 <_etoa+0x1e4>
100025ae:	f1ba 0f04 	cmp.w	sl, #4
100025b2:	d91f      	bls.n	100025f4 <_etoa+0x4a4>
100025b4:	9b10      	ldr	r3, [sp, #64]	@ 0x40
100025b6:	2b00      	cmp	r3, #0
100025b8:	d178      	bne.n	100026ac <_etoa+0x55c>
100025ba:	2304      	movs	r3, #4
100025bc:	9312      	str	r3, [sp, #72]	@ 0x48
100025be:	f1aa 0304 	sub.w	r3, sl, #4
100025c2:	930f      	str	r3, [sp, #60]	@ 0x3c
100025c4:	e004      	b.n	100025d0 <_etoa+0x480>
100025c6:	9b12      	ldr	r3, [sp, #72]	@ 0x48
100025c8:	459a      	cmp	sl, r3
100025ca:	d831      	bhi.n	10002630 <_etoa+0x4e0>
100025cc:	9b0e      	ldr	r3, [sp, #56]	@ 0x38
100025ce:	930f      	str	r3, [sp, #60]	@ 0x3c
100025d0:	9b0c      	ldr	r3, [sp, #48]	@ 0x30
100025d2:	2b00      	cmp	r3, #0
100025d4:	f43f ae15 	beq.w	10002202 <_etoa+0xb2>
100025d8:	e9dd 010a 	ldrd	r0, r1, [sp, #40]	@ 0x28
100025dc:	4642      	mov	r2, r8
100025de:	464b      	mov	r3, r9
100025e0:	f7ff f91e 	bl	10001820 <__wrap___aeabi_ddiv>
100025e4:	e9cd 010a 	strd	r0, r1, [sp, #40]	@ 0x28
100025e8:	e60b      	b.n	10002202 <_etoa+0xb2>
100025ea:	2302      	movs	r3, #2
100025ec:	9310      	str	r3, [sp, #64]	@ 0x40
100025ee:	2305      	movs	r3, #5
100025f0:	9312      	str	r3, [sp, #72]	@ 0x48
100025f2:	e7f1      	b.n	100025d8 <_etoa+0x488>
100025f4:	2304      	movs	r3, #4
100025f6:	9312      	str	r3, [sp, #72]	@ 0x48
100025f8:	e7ea      	b.n	100025d0 <_etoa+0x480>
100025fa:	e9dd 450a 	ldrd	r4, r5, [sp, #40]	@ 0x28
100025fe:	46a0      	mov	r8, r4
10002600:	9b0f      	ldr	r3, [sp, #60]	@ 0x3c
10002602:	f105 4900 	add.w	r9, r5, #2147483648	@ 0x80000000
10002606:	9303      	str	r3, [sp, #12]
10002608:	9b0e      	ldr	r3, [sp, #56]	@ 0x38
1000260a:	465a      	mov	r2, fp
1000260c:	9302      	str	r3, [sp, #8]
1000260e:	f426 6300 	bic.w	r3, r6, #2048	@ 0x800
10002612:	9304      	str	r3, [sp, #16]
10002614:	4638      	mov	r0, r7
10002616:	e9cd 8900 	strd	r8, r9, [sp]
1000261a:	9b09      	ldr	r3, [sp, #36]	@ 0x24
1000261c:	9908      	ldr	r1, [sp, #32]
1000261e:	f7ff fb37 	bl	10001c90 <_ftoa>
10002622:	4602      	mov	r2, r0
10002624:	e608      	b.n	10002238 <_etoa+0xe8>
10002626:	9b12      	ldr	r3, [sp, #72]	@ 0x48
10002628:	459a      	cmp	sl, r3
1000262a:	d844      	bhi.n	100026b6 <_etoa+0x566>
1000262c:	920f      	str	r2, [sp, #60]	@ 0x3c
1000262e:	e7cf      	b.n	100025d0 <_etoa+0x480>
10002630:	9b10      	ldr	r3, [sp, #64]	@ 0x40
10002632:	b38b      	cbz	r3, 10002698 <_etoa+0x548>
10002634:	9b0e      	ldr	r3, [sp, #56]	@ 0x38
10002636:	930f      	str	r3, [sp, #60]	@ 0x3c
10002638:	2302      	movs	r3, #2
1000263a:	9310      	str	r3, [sp, #64]	@ 0x40
1000263c:	e7c8      	b.n	100025d0 <_etoa+0x480>
1000263e:	bf00      	nop
10002640:	636f4361 	.word	0x636f4361
10002644:	3fd287a7 	.word	0x3fd287a7
10002648:	0979a371 	.word	0x0979a371
1000264c:	400a934f 	.word	0x400a934f
10002650:	bbb55516 	.word	0xbbb55516
10002654:	40026bb1 	.word	0x40026bb1
10002658:	fefa39ef 	.word	0xfefa39ef
1000265c:	3fe62e42 	.word	0x3fe62e42
10002660:	eb1c432d 	.word	0xeb1c432d
10002664:	3f1a36e2 	.word	0x3f1a36e2
10002668:	00000000 	.word	0x00000000
1000266c:	412e8480 	.word	0x412e8480
10002670:	3ff80000 	.word	0x3ff80000
10002674:	3fe00000 	.word	0x3fe00000
10002678:	402c0000 	.word	0x402c0000
1000267c:	40240000 	.word	0x40240000
10002680:	40180000 	.word	0x40180000
10002684:	3ff00000 	.word	0x3ff00000
10002688:	509f79fb 	.word	0x509f79fb
1000268c:	3fd34413 	.word	0x3fd34413
10002690:	8b60c8b3 	.word	0x8b60c8b3
10002694:	3fc68a28 	.word	0x3fc68a28
10002698:	9b12      	ldr	r3, [sp, #72]	@ 0x48
1000269a:	ebaa 0303 	sub.w	r3, sl, r3
1000269e:	930f      	str	r3, [sp, #60]	@ 0x3c
100026a0:	e796      	b.n	100025d0 <_etoa+0x480>
100026a2:	eba3 0802 	sub.w	r8, r3, r2
100026a6:	f108 38ff 	add.w	r8, r8, #4294967295
100026aa:	e643      	b.n	10002334 <_etoa+0x1e4>
100026ac:	2304      	movs	r3, #4
100026ae:	9312      	str	r3, [sp, #72]	@ 0x48
100026b0:	2302      	movs	r3, #2
100026b2:	9310      	str	r3, [sp, #64]	@ 0x40
100026b4:	e78c      	b.n	100025d0 <_etoa+0x480>
100026b6:	9b10      	ldr	r3, [sp, #64]	@ 0x40
100026b8:	2b00      	cmp	r3, #0
100026ba:	d0ed      	beq.n	10002698 <_etoa+0x548>
100026bc:	2302      	movs	r3, #2
100026be:	920f      	str	r2, [sp, #60]	@ 0x3c
100026c0:	9310      	str	r3, [sp, #64]	@ 0x40
100026c2:	e785      	b.n	100025d0 <_etoa+0x480>

100026c4 <_vsnprintf>:
100026c4:	e92d 4ff0 	stmdb	sp!, {r4, r5, r6, r7, r8, r9, sl, fp, lr}
100026c8:	b09b      	sub	sp, #108	@ 0x6c
100026ca:	9c24      	ldr	r4, [sp, #144]	@ 0x90
100026cc:	4d95      	ldr	r5, [pc, #596]	@ (10002924 <_vsnprintf+0x260>)
100026ce:	940a      	str	r4, [sp, #40]	@ 0x28
100026d0:	4c95      	ldr	r4, [pc, #596]	@ (10002928 <_vsnprintf+0x264>)
100026d2:	f1b1 0a00 	subs.w	sl, r1, #0
100026d6:	bf18      	it	ne
100026d8:	4683      	movne	fp, r0
100026da:	6025      	str	r5, [r4, #0]
100026dc:	7818      	ldrb	r0, [r3, #0]
100026de:	4c93      	ldr	r4, [pc, #588]	@ (1000292c <_vsnprintf+0x268>)
100026e0:	4691      	mov	r9, r2
100026e2:	bf08      	it	eq
100026e4:	46a3      	moveq	fp, r4
100026e6:	9309      	str	r3, [sp, #36]	@ 0x24
100026e8:	2800      	cmp	r0, #0
100026ea:	f000 8293 	beq.w	10002c14 <_vsnprintf+0x550>
100026ee:	f04f 0800 	mov.w	r8, #0
100026f2:	e00a      	b.n	1000270a <_vsnprintf+0x46>
100026f4:	4642      	mov	r2, r8
100026f6:	464b      	mov	r3, r9
100026f8:	4651      	mov	r1, sl
100026fa:	f108 0801 	add.w	r8, r8, #1
100026fe:	47d8      	blx	fp
10002700:	9b09      	ldr	r3, [sp, #36]	@ 0x24
10002702:	7818      	ldrb	r0, [r3, #0]
10002704:	2800      	cmp	r0, #0
10002706:	f000 80ce 	beq.w	100028a6 <_vsnprintf+0x1e2>
1000270a:	9b09      	ldr	r3, [sp, #36]	@ 0x24
1000270c:	2825      	cmp	r0, #37	@ 0x25
1000270e:	f103 0301 	add.w	r3, r3, #1
10002712:	9309      	str	r3, [sp, #36]	@ 0x24
10002714:	d1ee      	bne.n	100026f4 <_vsnprintf+0x30>
10002716:	461c      	mov	r4, r3
10002718:	2300      	movs	r3, #0
1000271a:	4622      	mov	r2, r4
1000271c:	f812 0b01 	ldrb.w	r0, [r2], #1
10002720:	f1a0 0120 	sub.w	r1, r0, #32
10002724:	2910      	cmp	r1, #16
10002726:	d80a      	bhi.n	1000273e <_vsnprintf+0x7a>
10002728:	e8df f001 	tbb	[pc, r1]
1000272c:	3c090940 	.word	0x3c090940
10002730:	09090909 	.word	0x09090909
10002734:	38090909 	.word	0x38090909
10002738:	09093409 	.word	0x09093409
1000273c:	30          	.byte	0x30
1000273d:	00          	.byte	0x00
1000273e:	f1a0 0130 	sub.w	r1, r0, #48	@ 0x30
10002742:	2909      	cmp	r1, #9
10002744:	9409      	str	r4, [sp, #36]	@ 0x24
10002746:	f240 808a 	bls.w	1000285e <_vsnprintf+0x19a>
1000274a:	282a      	cmp	r0, #42	@ 0x2a
1000274c:	f000 80f0 	beq.w	10002930 <_vsnprintf+0x26c>
10002750:	2500      	movs	r5, #0
10002752:	282e      	cmp	r0, #46	@ 0x2e
10002754:	f000 8096 	beq.w	10002884 <_vsnprintf+0x1c0>
10002758:	2600      	movs	r6, #0
1000275a:	f1a0 0168 	sub.w	r1, r0, #104	@ 0x68
1000275e:	2912      	cmp	r1, #18
10002760:	d82d      	bhi.n	100027be <_vsnprintf+0xfa>
10002762:	e8df f011 	tbh	[pc, r1, lsl #1]
10002766:	0149      	.short	0x0149
10002768:	0143002c 	.word	0x0143002c
1000276c:	0138002c 	.word	0x0138002c
10002770:	002c002c 	.word	0x002c002c
10002774:	002c002c 	.word	0x002c002c
10002778:	002c002c 	.word	0x002c002c
1000277c:	0027002c 	.word	0x0027002c
10002780:	002c002c 	.word	0x002c002c
10002784:	002c002c 	.word	0x002c002c
10002788:	0027002c 	.word	0x0027002c
1000278c:	4614      	mov	r4, r2
1000278e:	f043 0301 	orr.w	r3, r3, #1
10002792:	e7c2      	b.n	1000271a <_vsnprintf+0x56>
10002794:	4614      	mov	r4, r2
10002796:	f043 0302 	orr.w	r3, r3, #2
1000279a:	e7be      	b.n	1000271a <_vsnprintf+0x56>
1000279c:	4614      	mov	r4, r2
1000279e:	f043 0304 	orr.w	r3, r3, #4
100027a2:	e7ba      	b.n	1000271a <_vsnprintf+0x56>
100027a4:	4614      	mov	r4, r2
100027a6:	f043 0310 	orr.w	r3, r3, #16
100027aa:	e7b6      	b.n	1000271a <_vsnprintf+0x56>
100027ac:	4614      	mov	r4, r2
100027ae:	f043 0308 	orr.w	r3, r3, #8
100027b2:	e7b2      	b.n	1000271a <_vsnprintf+0x56>
100027b4:	9909      	ldr	r1, [sp, #36]	@ 0x24
100027b6:	7848      	ldrb	r0, [r1, #1]
100027b8:	f443 7380 	orr.w	r3, r3, #256	@ 0x100
100027bc:	3201      	adds	r2, #1
100027be:	2867      	cmp	r0, #103	@ 0x67
100027c0:	9209      	str	r2, [sp, #36]	@ 0x24
100027c2:	d87e      	bhi.n	100028c2 <_vsnprintf+0x1fe>
100027c4:	2824      	cmp	r0, #36	@ 0x24
100027c6:	f240 80c1 	bls.w	1000294c <_vsnprintf+0x288>
100027ca:	f1a0 0225 	sub.w	r2, r0, #37	@ 0x25
100027ce:	2a42      	cmp	r2, #66	@ 0x42
100027d0:	f200 80bc 	bhi.w	1000294c <_vsnprintf+0x288>
100027d4:	e8df f012 	tbh	[pc, r2, lsl #1]
100027d8:	00ba0150 	.word	0x00ba0150
100027dc:	00ba00ba 	.word	0x00ba00ba
100027e0:	00ba00ba 	.word	0x00ba00ba
100027e4:	00ba00ba 	.word	0x00ba00ba
100027e8:	00ba00ba 	.word	0x00ba00ba
100027ec:	00ba00ba 	.word	0x00ba00ba
100027f0:	00ba00ba 	.word	0x00ba00ba
100027f4:	00ba00ba 	.word	0x00ba00ba
100027f8:	00ba00ba 	.word	0x00ba00ba
100027fc:	00ba00ba 	.word	0x00ba00ba
10002800:	00ba00ba 	.word	0x00ba00ba
10002804:	00ba00ba 	.word	0x00ba00ba
10002808:	00ba00ba 	.word	0x00ba00ba
1000280c:	00ba00ba 	.word	0x00ba00ba
10002810:	00ba00ba 	.word	0x00ba00ba
10002814:	00ba00ba 	.word	0x00ba00ba
10002818:	01370119 	.word	0x01370119
1000281c:	00ba0119 	.word	0x00ba0119
10002820:	00ba00ba 	.word	0x00ba00ba
10002824:	00ba00ba 	.word	0x00ba00ba
10002828:	00ba00ba 	.word	0x00ba00ba
1000282c:	00ba00ba 	.word	0x00ba00ba
10002830:	00ba00ba 	.word	0x00ba00ba
10002834:	00ba00ba 	.word	0x00ba00ba
10002838:	00ba00ba 	.word	0x00ba00ba
1000283c:	01bc00ba 	.word	0x01bc00ba
10002840:	00ba00ba 	.word	0x00ba00ba
10002844:	00ba00ba 	.word	0x00ba00ba
10002848:	00ba00ba 	.word	0x00ba00ba
1000284c:	00ba00ba 	.word	0x00ba00ba
10002850:	01bc00ba 	.word	0x01bc00ba
10002854:	01bc0158 	.word	0x01bc0158
10002858:	01370119 	.word	0x01370119
1000285c:	0119      	.short	0x0119
1000285e:	2500      	movs	r5, #0
10002860:	e000      	b.n	10002864 <_vsnprintf+0x1a0>
10002862:	3201      	adds	r2, #1
10002864:	eb05 0585 	add.w	r5, r5, r5, lsl #2
10002868:	eb00 0545 	add.w	r5, r0, r5, lsl #1
1000286c:	7810      	ldrb	r0, [r2, #0]
1000286e:	3d30      	subs	r5, #48	@ 0x30
10002870:	f1a0 0130 	sub.w	r1, r0, #48	@ 0x30
10002874:	2909      	cmp	r1, #9
10002876:	d9f4      	bls.n	10002862 <_vsnprintf+0x19e>
10002878:	282e      	cmp	r0, #46	@ 0x2e
1000287a:	9209      	str	r2, [sp, #36]	@ 0x24
1000287c:	f102 0201 	add.w	r2, r2, #1
10002880:	f47f af6a 	bne.w	10002758 <_vsnprintf+0x94>
10002884:	9909      	ldr	r1, [sp, #36]	@ 0x24
10002886:	f443 6380 	orr.w	r3, r3, #1024	@ 0x400
1000288a:	7848      	ldrb	r0, [r1, #1]
1000288c:	4611      	mov	r1, r2
1000288e:	f1a0 0630 	sub.w	r6, r0, #48	@ 0x30
10002892:	2e09      	cmp	r6, #9
10002894:	f240 8121 	bls.w	10002ada <_vsnprintf+0x416>
10002898:	282a      	cmp	r0, #42	@ 0x2a
1000289a:	f000 812f 	beq.w	10002afc <_vsnprintf+0x438>
1000289e:	9209      	str	r2, [sp, #36]	@ 0x24
100028a0:	2600      	movs	r6, #0
100028a2:	3201      	adds	r2, #1
100028a4:	e759      	b.n	1000275a <_vsnprintf+0x96>
100028a6:	4644      	mov	r4, r8
100028a8:	45c1      	cmp	r9, r8
100028aa:	d801      	bhi.n	100028b0 <_vsnprintf+0x1ec>
100028ac:	f109 38ff 	add.w	r8, r9, #4294967295
100028b0:	464b      	mov	r3, r9
100028b2:	4642      	mov	r2, r8
100028b4:	4651      	mov	r1, sl
100028b6:	2000      	movs	r0, #0
100028b8:	47d8      	blx	fp
100028ba:	4620      	mov	r0, r4
100028bc:	b01b      	add	sp, #108	@ 0x6c
100028be:	e8bd 8ff0 	ldmia.w	sp!, {r4, r5, r6, r7, r8, r9, sl, fp, pc}
100028c2:	f1a0 0269 	sub.w	r2, r0, #105	@ 0x69
100028c6:	b2d2      	uxtb	r2, r2
100028c8:	2a0f      	cmp	r2, #15
100028ca:	d83f      	bhi.n	1000294c <_vsnprintf+0x288>
100028cc:	2101      	movs	r1, #1
100028ce:	f249 0741 	movw	r7, #36929	@ 0x9041
100028d2:	4091      	lsls	r1, r2
100028d4:	4039      	ands	r1, r7
100028d6:	f040 80f3 	bne.w	10002ac0 <_vsnprintf+0x3fc>
100028da:	2a0a      	cmp	r2, #10
100028dc:	d03d      	beq.n	1000295a <_vsnprintf+0x296>
100028de:	2a07      	cmp	r2, #7
100028e0:	d134      	bne.n	1000294c <_vsnprintf+0x288>
100028e2:	9d0a      	ldr	r5, [sp, #40]	@ 0x28
100028e4:	f855 2b04 	ldr.w	r2, [r5], #4
100028e8:	2a00      	cmp	r2, #0
100028ea:	f000 8113 	beq.w	10002b14 <_vsnprintf+0x450>
100028ee:	f043 0021 	orr.w	r0, r3, #33	@ 0x21
100028f2:	ab12      	add	r3, sp, #72	@ 0x48
100028f4:	461f      	mov	r7, r3
100028f6:	930b      	str	r3, [sp, #44]	@ 0x2c
100028f8:	e003      	b.n	10002902 <_vsnprintf+0x23e>
100028fa:	2920      	cmp	r1, #32
100028fc:	f000 8114 	beq.w	10002b28 <_vsnprintf+0x464>
10002900:	461a      	mov	r2, r3
10002902:	f002 040f 	and.w	r4, r2, #15
10002906:	4623      	mov	r3, r4
10002908:	2c09      	cmp	r4, #9
1000290a:	bf94      	ite	ls
1000290c:	3330      	addls	r3, #48	@ 0x30
1000290e:	3337      	addhi	r3, #55	@ 0x37
10002910:	2a0f      	cmp	r2, #15
10002912:	f807 3b01 	strb.w	r3, [r7], #1
10002916:	f101 0101 	add.w	r1, r1, #1
1000291a:	ea4f 1312 	mov.w	r3, r2, lsr #4
1000291e:	d8ec      	bhi.n	100028fa <_vsnprintf+0x236>
10002920:	e102      	b.n	10002b28 <_vsnprintf+0x464>
10002922:	bf00      	nop
10002924:	100026c5 	.word	0x100026c5
10002928:	20000b88 	.word	0x20000b88
1000292c:	10001a09 	.word	0x10001a09
10002930:	990a      	ldr	r1, [sp, #40]	@ 0x28
10002932:	9809      	ldr	r0, [sp, #36]	@ 0x24
10002934:	f851 5b04 	ldr.w	r5, [r1], #4
10002938:	7840      	ldrb	r0, [r0, #1]
1000293a:	2d00      	cmp	r5, #0
1000293c:	e9cd 2109 	strd	r2, r1, [sp, #36]	@ 0x24
10002940:	bfbc      	itt	lt
10002942:	f043 0302 	orrlt.w	r3, r3, #2
10002946:	426d      	neglt	r5, r5
10002948:	3201      	adds	r2, #1
1000294a:	e702      	b.n	10002752 <_vsnprintf+0x8e>
1000294c:	4642      	mov	r2, r8
1000294e:	464b      	mov	r3, r9
10002950:	4651      	mov	r1, sl
10002952:	f108 0801 	add.w	r8, r8, #1
10002956:	47d8      	blx	fp
10002958:	e6d2      	b.n	10002700 <_vsnprintf+0x3c>
1000295a:	990a      	ldr	r1, [sp, #40]	@ 0x28
1000295c:	2e00      	cmp	r6, #0
1000295e:	f851 7b04 	ldr.w	r7, [r1], #4
10002962:	bf18      	it	ne
10002964:	4632      	movne	r2, r6
10002966:	7838      	ldrb	r0, [r7, #0]
10002968:	bf08      	it	eq
1000296a:	f04f 32ff 	moveq.w	r2, #4294967295
1000296e:	2800      	cmp	r0, #0
10002970:	f000 837b 	beq.w	1000306a <_vsnprintf+0x9a6>
10002974:	18bc      	adds	r4, r7, r2
10002976:	46a4      	mov	ip, r4
10002978:	463a      	mov	r2, r7
1000297a:	e004      	b.n	10002986 <_vsnprintf+0x2c2>
1000297c:	f812 4f01 	ldrb.w	r4, [r2, #1]!
10002980:	2c00      	cmp	r4, #0
10002982:	f000 813f 	beq.w	10002c04 <_vsnprintf+0x540>
10002986:	4594      	cmp	ip, r2
10002988:	d1f8      	bne.n	1000297c <_vsnprintf+0x2b8>
1000298a:	4664      	mov	r4, ip
1000298c:	1be4      	subs	r4, r4, r7
1000298e:	055a      	lsls	r2, r3, #21
10002990:	f140 8122 	bpl.w	10002bd8 <_vsnprintf+0x514>
10002994:	42b4      	cmp	r4, r6
10002996:	bf28      	it	cs
10002998:	4634      	movcs	r4, r6
1000299a:	f013 0302 	ands.w	r3, r3, #2
1000299e:	f000 8288 	beq.w	10002eb2 <_vsnprintf+0x7ee>
100029a2:	2302      	movs	r3, #2
100029a4:	e9cd 510a 	strd	r5, r1, [sp, #40]	@ 0x28
100029a8:	4642      	mov	r2, r8
100029aa:	461d      	mov	r5, r3
100029ac:	4446      	add	r6, r8
100029ae:	e008      	b.n	100029c2 <_vsnprintf+0x2fe>
100029b0:	464b      	mov	r3, r9
100029b2:	4651      	mov	r1, sl
100029b4:	47d8      	blx	fp
100029b6:	f817 0f01 	ldrb.w	r0, [r7, #1]!
100029ba:	f108 0801 	add.w	r8, r8, #1
100029be:	b110      	cbz	r0, 100029c6 <_vsnprintf+0x302>
100029c0:	4642      	mov	r2, r8
100029c2:	4546      	cmp	r6, r8
100029c4:	d1f4      	bne.n	100029b0 <_vsnprintf+0x2ec>
100029c6:	462b      	mov	r3, r5
100029c8:	990b      	ldr	r1, [sp, #44]	@ 0x2c
100029ca:	9d0a      	ldr	r5, [sp, #40]	@ 0x28
100029cc:	2b00      	cmp	r3, #0
100029ce:	f040 8141 	bne.w	10002c54 <_vsnprintf+0x590>
100029d2:	910a      	str	r1, [sp, #40]	@ 0x28
100029d4:	e694      	b.n	10002700 <_vsnprintf+0x3c>
100029d6:	9909      	ldr	r1, [sp, #36]	@ 0x24
100029d8:	7848      	ldrb	r0, [r1, #1]
100029da:	286c      	cmp	r0, #108	@ 0x6c
100029dc:	f47f aeec 	bne.w	100027b8 <_vsnprintf+0xf4>
100029e0:	460a      	mov	r2, r1
100029e2:	7888      	ldrb	r0, [r1, #2]
100029e4:	f443 7340 	orr.w	r3, r3, #768	@ 0x300
100029e8:	3203      	adds	r2, #3
100029ea:	e6e8      	b.n	100027be <_vsnprintf+0xfa>
100029ec:	9909      	ldr	r1, [sp, #36]	@ 0x24
100029ee:	f443 7300 	orr.w	r3, r3, #512	@ 0x200
100029f2:	7848      	ldrb	r0, [r1, #1]
100029f4:	3201      	adds	r2, #1
100029f6:	e6e2      	b.n	100027be <_vsnprintf+0xfa>
100029f8:	9909      	ldr	r1, [sp, #36]	@ 0x24
100029fa:	7848      	ldrb	r0, [r1, #1]
100029fc:	2868      	cmp	r0, #104	@ 0x68
100029fe:	f000 8103 	beq.w	10002c08 <_vsnprintf+0x544>
10002a02:	f043 0380 	orr.w	r3, r3, #128	@ 0x80
10002a06:	3201      	adds	r2, #1
10002a08:	e6d9      	b.n	100027be <_vsnprintf+0xfa>
10002a0a:	2867      	cmp	r0, #103	@ 0x67
10002a0c:	f000 80d9 	beq.w	10002bc2 <_vsnprintf+0x4fe>
10002a10:	2847      	cmp	r0, #71	@ 0x47
10002a12:	f000 80dc 	beq.w	10002bce <_vsnprintf+0x50a>
10002a16:	2845      	cmp	r0, #69	@ 0x45
10002a18:	f000 80db 	beq.w	10002bd2 <_vsnprintf+0x50e>
10002a1c:	e9cd 5303 	strd	r5, r3, [sp, #12]
10002a20:	9b0a      	ldr	r3, [sp, #40]	@ 0x28
10002a22:	9602      	str	r6, [sp, #8]
10002a24:	3307      	adds	r3, #7
10002a26:	f023 0307 	bic.w	r3, r3, #7
10002a2a:	461c      	mov	r4, r3
10002a2c:	4642      	mov	r2, r8
10002a2e:	e8f4 6702 	ldrd	r6, r7, [r4], #8
10002a32:	464b      	mov	r3, r9
10002a34:	4651      	mov	r1, sl
10002a36:	4658      	mov	r0, fp
10002a38:	e9cd 6700 	strd	r6, r7, [sp]
10002a3c:	940a      	str	r4, [sp, #40]	@ 0x28
10002a3e:	f7ff fb87 	bl	10002150 <_etoa>
10002a42:	4680      	mov	r8, r0
10002a44:	e65c      	b.n	10002700 <_vsnprintf+0x3c>
10002a46:	2846      	cmp	r0, #70	@ 0x46
10002a48:	bf08      	it	eq
10002a4a:	f043 0320 	orreq.w	r3, r3, #32
10002a4e:	e9cd 5303 	strd	r5, r3, [sp, #12]
10002a52:	9b0a      	ldr	r3, [sp, #40]	@ 0x28
10002a54:	9602      	str	r6, [sp, #8]
10002a56:	3307      	adds	r3, #7
10002a58:	f023 0307 	bic.w	r3, r3, #7
10002a5c:	461c      	mov	r4, r3
10002a5e:	4642      	mov	r2, r8
10002a60:	e8f4 6702 	ldrd	r6, r7, [r4], #8
10002a64:	464b      	mov	r3, r9
10002a66:	4651      	mov	r1, sl
10002a68:	4658      	mov	r0, fp
10002a6a:	e9cd 6700 	strd	r6, r7, [sp]
10002a6e:	940a      	str	r4, [sp, #40]	@ 0x28
10002a70:	f7ff f90e 	bl	10001c90 <_ftoa>
10002a74:	4680      	mov	r8, r0
10002a76:	e643      	b.n	10002700 <_vsnprintf+0x3c>
10002a78:	4642      	mov	r2, r8
10002a7a:	464b      	mov	r3, r9
10002a7c:	4651      	mov	r1, sl
10002a7e:	2025      	movs	r0, #37	@ 0x25
10002a80:	f108 0801 	add.w	r8, r8, #1
10002a84:	47d8      	blx	fp
10002a86:	e63b      	b.n	10002700 <_vsnprintf+0x3c>
10002a88:	9a0a      	ldr	r2, [sp, #40]	@ 0x28
10002a8a:	0799      	lsls	r1, r3, #30
10002a8c:	f102 0404 	add.w	r4, r2, #4
10002a90:	f108 0601 	add.w	r6, r8, #1
10002a94:	f140 80c6 	bpl.w	10002c24 <_vsnprintf+0x560>
10002a98:	7810      	ldrb	r0, [r2, #0]
10002a9a:	464b      	mov	r3, r9
10002a9c:	4642      	mov	r2, r8
10002a9e:	4651      	mov	r1, sl
10002aa0:	47d8      	blx	fp
10002aa2:	2d01      	cmp	r5, #1
10002aa4:	bf88      	it	hi
10002aa6:	44a8      	addhi	r8, r5
10002aa8:	f240 81bd 	bls.w	10002e26 <_vsnprintf+0x762>
10002aac:	4632      	mov	r2, r6
10002aae:	464b      	mov	r3, r9
10002ab0:	4651      	mov	r1, sl
10002ab2:	2020      	movs	r0, #32
10002ab4:	3601      	adds	r6, #1
10002ab6:	47d8      	blx	fp
10002ab8:	4546      	cmp	r6, r8
10002aba:	d1f7      	bne.n	10002aac <_vsnprintf+0x3e8>
10002abc:	940a      	str	r4, [sp, #40]	@ 0x28
10002abe:	e61f      	b.n	10002700 <_vsnprintf+0x3c>
10002ac0:	286f      	cmp	r0, #111	@ 0x6f
10002ac2:	f000 8081 	beq.w	10002bc8 <_vsnprintf+0x504>
10002ac6:	f240 8248 	bls.w	10002f5a <_vsnprintf+0x896>
10002aca:	2878      	cmp	r0, #120	@ 0x78
10002acc:	f000 8190 	beq.w	10002df0 <_vsnprintf+0x72c>
10002ad0:	270a      	movs	r7, #10
10002ad2:	f023 0310 	bic.w	r3, r3, #16
10002ad6:	46bc      	mov	ip, r7
10002ad8:	e041      	b.n	10002b5e <_vsnprintf+0x49a>
10002ada:	2600      	movs	r6, #0
10002adc:	eb06 0686 	add.w	r6, r6, r6, lsl #2
10002ae0:	eb00 0046 	add.w	r0, r0, r6, lsl #1
10002ae4:	f1a0 0630 	sub.w	r6, r0, #48	@ 0x30
10002ae8:	f811 0f01 	ldrb.w	r0, [r1, #1]!
10002aec:	f1a0 0230 	sub.w	r2, r0, #48	@ 0x30
10002af0:	2a09      	cmp	r2, #9
10002af2:	d9f3      	bls.n	10002adc <_vsnprintf+0x418>
10002af4:	460a      	mov	r2, r1
10002af6:	9109      	str	r1, [sp, #36]	@ 0x24
10002af8:	3201      	adds	r2, #1
10002afa:	e62e      	b.n	1000275a <_vsnprintf+0x96>
10002afc:	e9dd 2109 	ldrd	r2, r1, [sp, #36]	@ 0x24
10002b00:	f851 6b04 	ldr.w	r6, [r1], #4
10002b04:	7890      	ldrb	r0, [r2, #2]
10002b06:	3202      	adds	r2, #2
10002b08:	9209      	str	r2, [sp, #36]	@ 0x24
10002b0a:	910a      	str	r1, [sp, #40]	@ 0x28
10002b0c:	3201      	adds	r2, #1
10002b0e:	ea26 76e6 	bic.w	r6, r6, r6, asr #31
10002b12:	e622      	b.n	1000275a <_vsnprintf+0x96>
10002b14:	f023 0010 	bic.w	r0, r3, #16
10002b18:	f413 6280 	ands.w	r2, r3, #1024	@ 0x400
10002b1c:	f040 0021 	orr.w	r0, r0, #33	@ 0x21
10002b20:	f43f aee7 	beq.w	100028f2 <_vsnprintf+0x22e>
10002b24:	ab12      	add	r3, sp, #72	@ 0x48
10002b26:	930b      	str	r3, [sp, #44]	@ 0x2c
10002b28:	9b0b      	ldr	r3, [sp, #44]	@ 0x2c
10002b2a:	9006      	str	r0, [sp, #24]
10002b2c:	9300      	str	r3, [sp, #0]
10002b2e:	2308      	movs	r3, #8
10002b30:	2010      	movs	r0, #16
10002b32:	9305      	str	r3, [sp, #20]
10002b34:	2300      	movs	r3, #0
10002b36:	4642      	mov	r2, r8
10002b38:	e9cd 3002 	strd	r3, r0, [sp, #8]
10002b3c:	9101      	str	r1, [sp, #4]
10002b3e:	464b      	mov	r3, r9
10002b40:	4651      	mov	r1, sl
10002b42:	4658      	mov	r0, fp
10002b44:	9604      	str	r6, [sp, #16]
10002b46:	f7fe ffaf 	bl	10001aa8 <_ntoa_format>
10002b4a:	950a      	str	r5, [sp, #40]	@ 0x28
10002b4c:	4680      	mov	r8, r0
10002b4e:	e5d7      	b.n	10002700 <_vsnprintf+0x3c>
10002b50:	2858      	cmp	r0, #88	@ 0x58
10002b52:	d062      	beq.n	10002c1a <_vsnprintf+0x556>
10002b54:	2862      	cmp	r0, #98	@ 0x62
10002b56:	f040 808f 	bne.w	10002c78 <_vsnprintf+0x5b4>
10002b5a:	2702      	movs	r7, #2
10002b5c:	46bc      	mov	ip, r7
10002b5e:	f413 6080 	ands.w	r0, r3, #1024	@ 0x400
10002b62:	f000 80dd 	beq.w	10002d20 <_vsnprintf+0x65c>
10002b66:	f023 030d 	bic.w	r3, r3, #13
10002b6a:	f413 7200 	ands.w	r2, r3, #512	@ 0x200
10002b6e:	f040 8181 	bne.w	10002e74 <_vsnprintf+0x7b0>
10002b72:	990a      	ldr	r1, [sp, #40]	@ 0x28
10002b74:	1d0f      	adds	r7, r1, #4
10002b76:	f413 7180 	ands.w	r1, r3, #256	@ 0x100
10002b7a:	f040 8237 	bne.w	10002fec <_vsnprintf+0x928>
10002b7e:	065c      	lsls	r4, r3, #25
10002b80:	9a0a      	ldr	r2, [sp, #40]	@ 0x28
10002b82:	f140 813b 	bpl.w	10002dfc <_vsnprintf+0x738>
10002b86:	7812      	ldrb	r2, [r2, #0]
10002b88:	2a00      	cmp	r2, #0
10002b8a:	f040 814e 	bne.w	10002e2a <_vsnprintf+0x766>
10002b8e:	f023 0310 	bic.w	r3, r3, #16
10002b92:	2800      	cmp	r0, #0
10002b94:	f000 8149 	beq.w	10002e2a <_vsnprintf+0x766>
10002b98:	4611      	mov	r1, r2
10002b9a:	aa12      	add	r2, sp, #72	@ 0x48
10002b9c:	920b      	str	r2, [sp, #44]	@ 0x2c
10002b9e:	e9cd 5305 	strd	r5, r3, [sp, #20]
10002ba2:	e9cd c603 	strd	ip, r6, [sp, #12]
10002ba6:	9101      	str	r1, [sp, #4]
10002ba8:	9b0b      	ldr	r3, [sp, #44]	@ 0x2c
10002baa:	4642      	mov	r2, r8
10002bac:	9300      	str	r3, [sp, #0]
10002bae:	2300      	movs	r3, #0
10002bb0:	4651      	mov	r1, sl
10002bb2:	9302      	str	r3, [sp, #8]
10002bb4:	4658      	mov	r0, fp
10002bb6:	464b      	mov	r3, r9
10002bb8:	f7fe ff76 	bl	10001aa8 <_ntoa_format>
10002bbc:	970a      	str	r7, [sp, #40]	@ 0x28
10002bbe:	4680      	mov	r8, r0
10002bc0:	e59e      	b.n	10002700 <_vsnprintf+0x3c>
10002bc2:	f443 6300 	orr.w	r3, r3, #2048	@ 0x800
10002bc6:	e729      	b.n	10002a1c <_vsnprintf+0x358>
10002bc8:	2708      	movs	r7, #8
10002bca:	46bc      	mov	ip, r7
10002bcc:	e7c7      	b.n	10002b5e <_vsnprintf+0x49a>
10002bce:	f443 6300 	orr.w	r3, r3, #2048	@ 0x800
10002bd2:	f043 0320 	orr.w	r3, r3, #32
10002bd6:	e721      	b.n	10002a1c <_vsnprintf+0x358>
10002bd8:	f013 0302 	ands.w	r3, r3, #2
10002bdc:	f000 818e 	beq.w	10002efc <_vsnprintf+0x838>
10002be0:	2302      	movs	r3, #2
10002be2:	950a      	str	r5, [sp, #40]	@ 0x28
10002be4:	461e      	mov	r6, r3
10002be6:	460d      	mov	r5, r1
10002be8:	4642      	mov	r2, r8
10002bea:	464b      	mov	r3, r9
10002bec:	4651      	mov	r1, sl
10002bee:	47d8      	blx	fp
10002bf0:	f817 0f01 	ldrb.w	r0, [r7, #1]!
10002bf4:	f108 0801 	add.w	r8, r8, #1
10002bf8:	2800      	cmp	r0, #0
10002bfa:	d1f5      	bne.n	10002be8 <_vsnprintf+0x524>
10002bfc:	4629      	mov	r1, r5
10002bfe:	4633      	mov	r3, r6
10002c00:	9d0a      	ldr	r5, [sp, #40]	@ 0x28
10002c02:	e6e3      	b.n	100029cc <_vsnprintf+0x308>
10002c04:	1bd4      	subs	r4, r2, r7
10002c06:	e6c2      	b.n	1000298e <_vsnprintf+0x2ca>
10002c08:	460a      	mov	r2, r1
10002c0a:	7888      	ldrb	r0, [r1, #2]
10002c0c:	f043 03c0 	orr.w	r3, r3, #192	@ 0xc0
10002c10:	3203      	adds	r2, #3
10002c12:	e5d4      	b.n	100027be <_vsnprintf+0xfa>
10002c14:	4604      	mov	r4, r0
10002c16:	4680      	mov	r8, r0
10002c18:	e646      	b.n	100028a8 <_vsnprintf+0x1e4>
10002c1a:	2710      	movs	r7, #16
10002c1c:	f043 0320 	orr.w	r3, r3, #32
10002c20:	46bc      	mov	ip, r7
10002c22:	e79c      	b.n	10002b5e <_vsnprintf+0x49a>
10002c24:	2d01      	cmp	r5, #1
10002c26:	f240 80f8 	bls.w	10002e1a <_vsnprintf+0x756>
10002c2a:	4646      	mov	r6, r8
10002c2c:	f108 37ff 	add.w	r7, r8, #4294967295
10002c30:	442f      	add	r7, r5
10002c32:	4632      	mov	r2, r6
10002c34:	464b      	mov	r3, r9
10002c36:	4651      	mov	r1, sl
10002c38:	2020      	movs	r0, #32
10002c3a:	3601      	adds	r6, #1
10002c3c:	47d8      	blx	fp
10002c3e:	42be      	cmp	r6, r7
10002c40:	d1f7      	bne.n	10002c32 <_vsnprintf+0x56e>
10002c42:	9b0a      	ldr	r3, [sp, #40]	@ 0x28
10002c44:	4632      	mov	r2, r6
10002c46:	7818      	ldrb	r0, [r3, #0]
10002c48:	4651      	mov	r1, sl
10002c4a:	464b      	mov	r3, r9
10002c4c:	47d8      	blx	fp
10002c4e:	44a8      	add	r8, r5
10002c50:	940a      	str	r4, [sp, #40]	@ 0x28
10002c52:	e555      	b.n	10002700 <_vsnprintf+0x3c>
10002c54:	4646      	mov	r6, r8
10002c56:	42a5      	cmp	r5, r4
10002c58:	f67f aebb 	bls.w	100029d2 <_vsnprintf+0x30e>
10002c5c:	44a8      	add	r8, r5
10002c5e:	eba8 0804 	sub.w	r8, r8, r4
10002c62:	460c      	mov	r4, r1
10002c64:	4632      	mov	r2, r6
10002c66:	464b      	mov	r3, r9
10002c68:	4651      	mov	r1, sl
10002c6a:	2020      	movs	r0, #32
10002c6c:	3601      	adds	r6, #1
10002c6e:	47d8      	blx	fp
10002c70:	4546      	cmp	r6, r8
10002c72:	d1f7      	bne.n	10002c64 <_vsnprintf+0x5a0>
10002c74:	4621      	mov	r1, r4
10002c76:	e6ac      	b.n	100029d2 <_vsnprintf+0x30e>
10002c78:	f413 6280 	ands.w	r2, r3, #1024	@ 0x400
10002c7c:	f000 80bb 	beq.w	10002df6 <_vsnprintf+0x732>
10002c80:	f44f 6280 	mov.w	r2, #1024	@ 0x400
10002c84:	f023 0c11 	bic.w	ip, r3, #17
10002c88:	f41c 7700 	ands.w	r7, ip, #512	@ 0x200
10002c8c:	9b0a      	ldr	r3, [sp, #40]	@ 0x28
10002c8e:	d14a      	bne.n	10002d26 <_vsnprintf+0x662>
10002c90:	f41c 7080 	ands.w	r0, ip, #256	@ 0x100
10002c94:	f103 0404 	add.w	r4, r3, #4
10002c98:	f040 8134 	bne.w	10002f04 <_vsnprintf+0x840>
10002c9c:	f01c 0f40 	tst.w	ip, #64	@ 0x40
10002ca0:	f040 80a3 	bne.w	10002dea <_vsnprintf+0x726>
10002ca4:	f01c 0f80 	tst.w	ip, #128	@ 0x80
10002ca8:	f000 81d3 	beq.w	10003052 <_vsnprintf+0x98e>
10002cac:	f9b3 1000 	ldrsh.w	r1, [r3]
10002cb0:	ea81 77e1 	eor.w	r7, r1, r1, asr #31
10002cb4:	eba7 77e1 	sub.w	r7, r7, r1, asr #31
10002cb8:	b2bf      	uxth	r7, r7
10002cba:	0fcb      	lsrs	r3, r1, #31
10002cbc:	2900      	cmp	r1, #0
10002cbe:	f000 8156 	beq.w	10002f6e <_vsnprintf+0x8aa>
10002cc2:	463a      	mov	r2, r7
10002cc4:	a912      	add	r1, sp, #72	@ 0x48
10002cc6:	460f      	mov	r7, r1
10002cc8:	f8df e3d8 	ldr.w	lr, [pc, #984]	@ 100030a4 <_vsnprintf+0x9e0>
10002ccc:	910b      	str	r1, [sp, #44]	@ 0x2c
10002cce:	930a      	str	r3, [sp, #40]	@ 0x28
10002cd0:	950c      	str	r5, [sp, #48]	@ 0x30
10002cd2:	e001      	b.n	10002cd8 <_vsnprintf+0x614>
10002cd4:	2820      	cmp	r0, #32
10002cd6:	d00f      	beq.n	10002cf8 <_vsnprintf+0x634>
10002cd8:	4615      	mov	r5, r2
10002cda:	fbae 1302 	umull	r1, r3, lr, r2
10002cde:	08db      	lsrs	r3, r3, #3
10002ce0:	eb03 0183 	add.w	r1, r3, r3, lsl #2
10002ce4:	eba2 0141 	sub.w	r1, r2, r1, lsl #1
10002ce8:	3130      	adds	r1, #48	@ 0x30
10002cea:	2d09      	cmp	r5, #9
10002cec:	461a      	mov	r2, r3
10002cee:	f100 0001 	add.w	r0, r0, #1
10002cf2:	f807 1b01 	strb.w	r1, [r7], #1
10002cf6:	d8ed      	bhi.n	10002cd4 <_vsnprintf+0x610>
10002cf8:	9b0a      	ldr	r3, [sp, #40]	@ 0x28
10002cfa:	9d0c      	ldr	r5, [sp, #48]	@ 0x30
10002cfc:	e9cd 5c05 	strd	r5, ip, [sp, #20]
10002d00:	e9cd 0301 	strd	r0, r3, [sp, #4]
10002d04:	9604      	str	r6, [sp, #16]
10002d06:	9b0b      	ldr	r3, [sp, #44]	@ 0x2c
10002d08:	4642      	mov	r2, r8
10002d0a:	9300      	str	r3, [sp, #0]
10002d0c:	230a      	movs	r3, #10
10002d0e:	4651      	mov	r1, sl
10002d10:	9303      	str	r3, [sp, #12]
10002d12:	4658      	mov	r0, fp
10002d14:	464b      	mov	r3, r9
10002d16:	f7fe fec7 	bl	10001aa8 <_ntoa_format>
10002d1a:	940a      	str	r4, [sp, #40]	@ 0x28
10002d1c:	4680      	mov	r8, r0
10002d1e:	e4ef      	b.n	10002700 <_vsnprintf+0x3c>
10002d20:	f023 030c 	bic.w	r3, r3, #12
10002d24:	e721      	b.n	10002b6a <_vsnprintf+0x4a6>
10002d26:	3307      	adds	r3, #7
10002d28:	f023 0307 	bic.w	r3, r3, #7
10002d2c:	4619      	mov	r1, r3
10002d2e:	4608      	mov	r0, r1
10002d30:	685b      	ldr	r3, [r3, #4]
10002d32:	f850 1b08 	ldr.w	r1, [r0], #8
10002d36:	0fdf      	lsrs	r7, r3, #31
10002d38:	900a      	str	r0, [sp, #40]	@ 0x28
10002d3a:	ea51 0003 	orrs.w	r0, r1, r3
10002d3e:	d162      	bne.n	10002e06 <_vsnprintf+0x742>
10002d40:	2a00      	cmp	r2, #0
10002d42:	f040 819f 	bne.w	10003084 <_vsnprintf+0x9c0>
10002d46:	4613      	mov	r3, r2
10002d48:	4611      	mov	r1, r2
10002d4a:	aa12      	add	r2, sp, #72	@ 0x48
10002d4c:	e9cd 750c 	strd	r7, r5, [sp, #48]	@ 0x30
10002d50:	2000      	movs	r0, #0
10002d52:	4615      	mov	r5, r2
10002d54:	e9cd 680e 	strd	r6, r8, [sp, #56]	@ 0x38
10002d58:	f8df e348 	ldr.w	lr, [pc, #840]	@ 100030a4 <_vsnprintf+0x9e0>
10002d5c:	920b      	str	r2, [sp, #44]	@ 0x2c
10002d5e:	e001      	b.n	10002d64 <_vsnprintf+0x6a0>
10002d60:	2820      	cmp	r0, #32
10002d62:	d02d      	beq.n	10002dc0 <_vsnprintf+0x6fc>
10002d64:	185a      	adds	r2, r3, r1
10002d66:	f142 0200 	adc.w	r2, r2, #0
10002d6a:	fbae 7802 	umull	r7, r8, lr, r2
10002d6e:	f028 0703 	bic.w	r7, r8, #3
10002d72:	eb07 0798 	add.w	r7, r7, r8, lsr #2
10002d76:	1bd2      	subs	r2, r2, r7
10002d78:	461e      	mov	r6, r3
10002d7a:	1a9b      	subs	r3, r3, r2
10002d7c:	f161 0700 	sbc.w	r7, r1, #0
10002d80:	460c      	mov	r4, r1
10002d82:	f04f 31cc 	mov.w	r1, #3435973836	@ 0xcccccccc
10002d86:	fb01 f103 	mul.w	r1, r1, r3
10002d8a:	fb0e 1107 	mla	r1, lr, r7, r1
10002d8e:	fba3 730e 	umull	r7, r3, r3, lr
10002d92:	4419      	add	r1, r3
10002d94:	2305      	movs	r3, #5
10002d96:	f007 0801 	and.w	r8, r7, #1
10002d9a:	fba8 3803 	umull	r3, r8, r8, r3
10002d9e:	189b      	adds	r3, r3, r2
10002da0:	2e0a      	cmp	r6, #10
10002da2:	f103 0330 	add.w	r3, r3, #48	@ 0x30
10002da6:	ea4f 0757 	mov.w	r7, r7, lsr #1
10002daa:	f174 0400 	sbcs.w	r4, r4, #0
10002dae:	f805 3b01 	strb.w	r3, [r5], #1
10002db2:	f100 0001 	add.w	r0, r0, #1
10002db6:	ea47 73c1 	orr.w	r3, r7, r1, lsl #31
10002dba:	ea4f 0151 	mov.w	r1, r1, lsr #1
10002dbe:	d2cf      	bcs.n	10002d60 <_vsnprintf+0x69c>
10002dc0:	e9dd 750c 	ldrd	r7, r5, [sp, #48]	@ 0x30
10002dc4:	e9dd 680e 	ldrd	r6, r8, [sp, #56]	@ 0x38
10002dc8:	9b0b      	ldr	r3, [sp, #44]	@ 0x2c
10002dca:	4642      	mov	r2, r8
10002dcc:	9300      	str	r3, [sp, #0]
10002dce:	230a      	movs	r3, #10
10002dd0:	e9cd 5c05 	strd	r5, ip, [sp, #20]
10002dd4:	e9cd 0701 	strd	r0, r7, [sp, #4]
10002dd8:	9604      	str	r6, [sp, #16]
10002dda:	9303      	str	r3, [sp, #12]
10002ddc:	464b      	mov	r3, r9
10002dde:	4651      	mov	r1, sl
10002de0:	4658      	mov	r0, fp
10002de2:	f7fe fe61 	bl	10001aa8 <_ntoa_format>
10002de6:	4680      	mov	r8, r0
10002de8:	e48a      	b.n	10002700 <_vsnprintf+0x3c>
10002dea:	7819      	ldrb	r1, [r3, #0]
10002dec:	460f      	mov	r7, r1
10002dee:	e764      	b.n	10002cba <_vsnprintf+0x5f6>
10002df0:	2710      	movs	r7, #16
10002df2:	46bc      	mov	ip, r7
10002df4:	e6b3      	b.n	10002b5e <_vsnprintf+0x49a>
10002df6:	f023 0c10 	bic.w	ip, r3, #16
10002dfa:	e745      	b.n	10002c88 <_vsnprintf+0x5c4>
10002dfc:	061c      	lsls	r4, r3, #24
10002dfe:	bf4c      	ite	mi
10002e00:	8812      	ldrhmi	r2, [r2, #0]
10002e02:	6812      	ldrpl	r2, [r2, #0]
10002e04:	e6c0      	b.n	10002b88 <_vsnprintf+0x4c4>
10002e06:	460a      	mov	r2, r1
10002e08:	1e19      	subs	r1, r3, #0
10002e0a:	db01      	blt.n	10002e10 <_vsnprintf+0x74c>
10002e0c:	4613      	mov	r3, r2
10002e0e:	e79c      	b.n	10002d4a <_vsnprintf+0x686>
10002e10:	4252      	negs	r2, r2
10002e12:	4613      	mov	r3, r2
10002e14:	eb61 0141 	sbc.w	r1, r1, r1, lsl #1
10002e18:	e797      	b.n	10002d4a <_vsnprintf+0x686>
10002e1a:	4613      	mov	r3, r2
10002e1c:	4651      	mov	r1, sl
10002e1e:	7818      	ldrb	r0, [r3, #0]
10002e20:	4642      	mov	r2, r8
10002e22:	464b      	mov	r3, r9
10002e24:	47d8      	blx	fp
10002e26:	46b0      	mov	r8, r6
10002e28:	e648      	b.n	10002abc <_vsnprintf+0x3f8>
10002e2a:	f013 0f20 	tst.w	r3, #32
10002e2e:	bf14      	ite	ne
10002e30:	2041      	movne	r0, #65	@ 0x41
10002e32:	2061      	moveq	r0, #97	@ 0x61
10002e34:	ac12      	add	r4, sp, #72	@ 0x48
10002e36:	46a6      	mov	lr, r4
10002e38:	940b      	str	r4, [sp, #44]	@ 0x2c
10002e3a:	930a      	str	r3, [sp, #40]	@ 0x28
10002e3c:	f1a0 040a 	sub.w	r4, r0, #10
10002e40:	950c      	str	r5, [sp, #48]	@ 0x30
10002e42:	e002      	b.n	10002e4a <_vsnprintf+0x786>
10002e44:	2920      	cmp	r1, #32
10002e46:	d012      	beq.n	10002e6e <_vsnprintf+0x7aa>
10002e48:	462a      	mov	r2, r5
10002e4a:	fbb2 f5fc 	udiv	r5, r2, ip
10002e4e:	fb0c 2015 	mls	r0, ip, r5, r2
10002e52:	b2c3      	uxtb	r3, r0
10002e54:	2809      	cmp	r0, #9
10002e56:	f103 0030 	add.w	r0, r3, #48	@ 0x30
10002e5a:	bf8a      	itet	hi
10002e5c:	191b      	addhi	r3, r3, r4
10002e5e:	b2c3      	uxtbls	r3, r0
10002e60:	b2db      	uxtbhi	r3, r3
10002e62:	4562      	cmp	r2, ip
10002e64:	f80e 3b01 	strb.w	r3, [lr], #1
10002e68:	f101 0101 	add.w	r1, r1, #1
10002e6c:	d2ea      	bcs.n	10002e44 <_vsnprintf+0x780>
10002e6e:	9b0a      	ldr	r3, [sp, #40]	@ 0x28
10002e70:	9d0c      	ldr	r5, [sp, #48]	@ 0x30
10002e72:	e694      	b.n	10002b9e <_vsnprintf+0x4da>
10002e74:	9a0a      	ldr	r2, [sp, #40]	@ 0x28
10002e76:	3207      	adds	r2, #7
10002e78:	f022 0207 	bic.w	r2, r2, #7
10002e7c:	6851      	ldr	r1, [r2, #4]
10002e7e:	f852 4b08 	ldr.w	r4, [r2], #8
10002e82:	468e      	mov	lr, r1
10002e84:	920a      	str	r2, [sp, #40]	@ 0x28
10002e86:	ea54 0201 	orrs.w	r2, r4, r1
10002e8a:	d176      	bne.n	10002f7a <_vsnprintf+0x8b6>
10002e8c:	f023 0310 	bic.w	r3, r3, #16
10002e90:	2800      	cmp	r0, #0
10002e92:	d072      	beq.n	10002f7a <_vsnprintf+0x8b6>
10002e94:	2200      	movs	r2, #0
10002e96:	4611      	mov	r1, r2
10002e98:	aa12      	add	r2, sp, #72	@ 0x48
10002e9a:	920b      	str	r2, [sp, #44]	@ 0x2c
10002e9c:	e9cd 5305 	strd	r5, r3, [sp, #20]
10002ea0:	9b0b      	ldr	r3, [sp, #44]	@ 0x2c
10002ea2:	4642      	mov	r2, r8
10002ea4:	9300      	str	r3, [sp, #0]
10002ea6:	2300      	movs	r3, #0
10002ea8:	e9cd c603 	strd	ip, r6, [sp, #12]
10002eac:	9101      	str	r1, [sp, #4]
10002eae:	9302      	str	r3, [sp, #8]
10002eb0:	e794      	b.n	10002ddc <_vsnprintf+0x718>
10002eb2:	42a5      	cmp	r5, r4
10002eb4:	bf98      	it	ls
10002eb6:	3401      	addls	r4, #1
10002eb8:	f67f ad74 	bls.w	100029a4 <_vsnprintf+0x2e0>
10002ebc:	f44f 6380 	mov.w	r3, #1024	@ 0x400
10002ec0:	e9cd 750a 	strd	r7, r5, [sp, #40]	@ 0x28
10002ec4:	eb05 0208 	add.w	r2, r5, r8
10002ec8:	461f      	mov	r7, r3
10002eca:	460d      	mov	r5, r1
10002ecc:	1b14      	subs	r4, r2, r4
10002ece:	4642      	mov	r2, r8
10002ed0:	464b      	mov	r3, r9
10002ed2:	4651      	mov	r1, sl
10002ed4:	2020      	movs	r0, #32
10002ed6:	f108 0801 	add.w	r8, r8, #1
10002eda:	47d8      	blx	fp
10002edc:	45a0      	cmp	r8, r4
10002ede:	d1f6      	bne.n	10002ece <_vsnprintf+0x80a>
10002ee0:	463b      	mov	r3, r7
10002ee2:	9f0a      	ldr	r7, [sp, #40]	@ 0x28
10002ee4:	4629      	mov	r1, r5
10002ee6:	7838      	ldrb	r0, [r7, #0]
10002ee8:	9d0b      	ldr	r5, [sp, #44]	@ 0x2c
10002eea:	1c6c      	adds	r4, r5, #1
10002eec:	2800      	cmp	r0, #0
10002eee:	f43f ad70 	beq.w	100029d2 <_vsnprintf+0x30e>
10002ef2:	2b00      	cmp	r3, #0
10002ef4:	f43f ae75 	beq.w	10002be2 <_vsnprintf+0x51e>
10002ef8:	2300      	movs	r3, #0
10002efa:	e553      	b.n	100029a4 <_vsnprintf+0x2e0>
10002efc:	42a5      	cmp	r5, r4
10002efe:	d8df      	bhi.n	10002ec0 <_vsnprintf+0x7fc>
10002f00:	3401      	adds	r4, #1
10002f02:	e66e      	b.n	10002be2 <_vsnprintf+0x51e>
10002f04:	6819      	ldr	r1, [r3, #0]
10002f06:	0fcb      	lsrs	r3, r1, #31
10002f08:	2900      	cmp	r1, #0
10002f0a:	f000 80a8 	beq.w	1000305e <_vsnprintf+0x99a>
10002f0e:	ea81 72e1 	eor.w	r2, r1, r1, asr #31
10002f12:	eba2 72e1 	sub.w	r2, r2, r1, asr #31
10002f16:	a912      	add	r1, sp, #72	@ 0x48
10002f18:	4608      	mov	r0, r1
10002f1a:	f8df e188 	ldr.w	lr, [pc, #392]	@ 100030a4 <_vsnprintf+0x9e0>
10002f1e:	910b      	str	r1, [sp, #44]	@ 0x2c
10002f20:	930a      	str	r3, [sp, #40]	@ 0x28
10002f22:	950c      	str	r5, [sp, #48]	@ 0x30
10002f24:	e001      	b.n	10002f2a <_vsnprintf+0x866>
10002f26:	2f20      	cmp	r7, #32
10002f28:	d00f      	beq.n	10002f4a <_vsnprintf+0x886>
10002f2a:	4615      	mov	r5, r2
10002f2c:	fbae 1302 	umull	r1, r3, lr, r2
10002f30:	08db      	lsrs	r3, r3, #3
10002f32:	eb03 0183 	add.w	r1, r3, r3, lsl #2
10002f36:	eba2 0141 	sub.w	r1, r2, r1, lsl #1
10002f3a:	3130      	adds	r1, #48	@ 0x30
10002f3c:	2d09      	cmp	r5, #9
10002f3e:	461a      	mov	r2, r3
10002f40:	f107 0701 	add.w	r7, r7, #1
10002f44:	f800 1b01 	strb.w	r1, [r0], #1
10002f48:	d8ed      	bhi.n	10002f26 <_vsnprintf+0x862>
10002f4a:	9b0a      	ldr	r3, [sp, #40]	@ 0x28
10002f4c:	9d0c      	ldr	r5, [sp, #48]	@ 0x30
10002f4e:	e9cd 5c05 	strd	r5, ip, [sp, #20]
10002f52:	e9cd 7301 	strd	r7, r3, [sp, #4]
10002f56:	9604      	str	r6, [sp, #16]
10002f58:	e6d5      	b.n	10002d06 <_vsnprintf+0x642>
10002f5a:	2869      	cmp	r0, #105	@ 0x69
10002f5c:	f023 0c10 	bic.w	ip, r3, #16
10002f60:	f040 808c 	bne.w	1000307c <_vsnprintf+0x9b8>
10002f64:	f413 6280 	ands.w	r2, r3, #1024	@ 0x400
10002f68:	f43f ae8e 	beq.w	10002c88 <_vsnprintf+0x5c4>
10002f6c:	e688      	b.n	10002c80 <_vsnprintf+0x5bc>
10002f6e:	2a00      	cmp	r2, #0
10002f70:	f43f aea8 	beq.w	10002cc4 <_vsnprintf+0x600>
10002f74:	aa12      	add	r2, sp, #72	@ 0x48
10002f76:	920b      	str	r2, [sp, #44]	@ 0x2c
10002f78:	e6c0      	b.n	10002cfc <_vsnprintf+0x638>
10002f7a:	f013 0f20 	tst.w	r3, #32
10002f7e:	bf14      	ite	ne
10002f80:	2241      	movne	r2, #65	@ 0x41
10002f82:	2261      	moveq	r2, #97	@ 0x61
10002f84:	2000      	movs	r0, #0
10002f86:	a912      	add	r1, sp, #72	@ 0x48
10002f88:	3a0a      	subs	r2, #10
10002f8a:	e9cd 680e 	strd	r6, r8, [sp, #56]	@ 0x38
10002f8e:	e9cd 350c 	strd	r3, r5, [sp, #48]	@ 0x30
10002f92:	f8cd b044 	str.w	fp, [sp, #68]	@ 0x44
10002f96:	4606      	mov	r6, r0
10002f98:	4688      	mov	r8, r1
10002f9a:	4675      	mov	r5, lr
10002f9c:	4693      	mov	fp, r2
10002f9e:	910b      	str	r1, [sp, #44]	@ 0x2c
10002fa0:	f8cd c040 	str.w	ip, [sp, #64]	@ 0x40
10002fa4:	e003      	b.n	10002fae <_vsnprintf+0x8ea>
10002fa6:	2e20      	cmp	r6, #32
10002fa8:	d017      	beq.n	10002fda <_vsnprintf+0x916>
10002faa:	4604      	mov	r4, r0
10002fac:	460d      	mov	r5, r1
10002fae:	4629      	mov	r1, r5
10002fb0:	463a      	mov	r2, r7
10002fb2:	2300      	movs	r3, #0
10002fb4:	4620      	mov	r0, r4
10002fb6:	f000 fc4b 	bl	10003850 <____aeabi_uldivmod_veneer>
10002fba:	b2d2      	uxtb	r2, r2
10002fbc:	2a09      	cmp	r2, #9
10002fbe:	f102 0330 	add.w	r3, r2, #48	@ 0x30
10002fc2:	bf88      	it	hi
10002fc4:	eb02 030b 	addhi.w	r3, r2, fp
10002fc8:	42bc      	cmp	r4, r7
10002fca:	b2db      	uxtb	r3, r3
10002fcc:	f175 0500 	sbcs.w	r5, r5, #0
10002fd0:	f808 3b01 	strb.w	r3, [r8], #1
10002fd4:	f106 0601 	add.w	r6, r6, #1
10002fd8:	d2e5      	bcs.n	10002fa6 <_vsnprintf+0x8e2>
10002fda:	4631      	mov	r1, r6
10002fdc:	e9dd 350c 	ldrd	r3, r5, [sp, #48]	@ 0x30
10002fe0:	e9dd cb10 	ldrd	ip, fp, [sp, #64]	@ 0x40
10002fe4:	f8dd 803c 	ldr.w	r8, [sp, #60]	@ 0x3c
10002fe8:	9e0e      	ldr	r6, [sp, #56]	@ 0x38
10002fea:	e757      	b.n	10002e9c <_vsnprintf+0x7d8>
10002fec:	990a      	ldr	r1, [sp, #40]	@ 0x28
10002fee:	6809      	ldr	r1, [r1, #0]
10002ff0:	b951      	cbnz	r1, 10003008 <_vsnprintf+0x944>
10002ff2:	f023 0310 	bic.w	r3, r3, #16
10002ff6:	b138      	cbz	r0, 10003008 <_vsnprintf+0x944>
10002ff8:	a912      	add	r1, sp, #72	@ 0x48
10002ffa:	910b      	str	r1, [sp, #44]	@ 0x2c
10002ffc:	e9cd 5305 	strd	r5, r3, [sp, #20]
10003000:	e9cd c603 	strd	ip, r6, [sp, #12]
10003004:	9201      	str	r2, [sp, #4]
10003006:	e5cf      	b.n	10002ba8 <_vsnprintf+0x4e4>
10003008:	f013 0f20 	tst.w	r3, #32
1000300c:	bf14      	ite	ne
1000300e:	2041      	movne	r0, #65	@ 0x41
10003010:	2061      	moveq	r0, #97	@ 0x61
10003012:	ac12      	add	r4, sp, #72	@ 0x48
10003014:	46a6      	mov	lr, r4
10003016:	940b      	str	r4, [sp, #44]	@ 0x2c
10003018:	930a      	str	r3, [sp, #40]	@ 0x28
1000301a:	f1a0 040a 	sub.w	r4, r0, #10
1000301e:	950c      	str	r5, [sp, #48]	@ 0x30
10003020:	e002      	b.n	10003028 <_vsnprintf+0x964>
10003022:	2a20      	cmp	r2, #32
10003024:	d012      	beq.n	1000304c <_vsnprintf+0x988>
10003026:	4629      	mov	r1, r5
10003028:	fbb1 f5fc 	udiv	r5, r1, ip
1000302c:	fb0c 1015 	mls	r0, ip, r5, r1
10003030:	b2c3      	uxtb	r3, r0
10003032:	2809      	cmp	r0, #9
10003034:	f103 0030 	add.w	r0, r3, #48	@ 0x30
10003038:	bf8a      	itet	hi
1000303a:	191b      	addhi	r3, r3, r4
1000303c:	b2c3      	uxtbls	r3, r0
1000303e:	b2db      	uxtbhi	r3, r3
10003040:	4561      	cmp	r1, ip
10003042:	f80e 3b01 	strb.w	r3, [lr], #1
10003046:	f102 0201 	add.w	r2, r2, #1
1000304a:	d2ea      	bcs.n	10003022 <_vsnprintf+0x95e>
1000304c:	9b0a      	ldr	r3, [sp, #40]	@ 0x28
1000304e:	9d0c      	ldr	r5, [sp, #48]	@ 0x30
10003050:	e7d4      	b.n	10002ffc <_vsnprintf+0x938>
10003052:	6819      	ldr	r1, [r3, #0]
10003054:	ea81 77e1 	eor.w	r7, r1, r1, asr #31
10003058:	eba7 77e1 	sub.w	r7, r7, r1, asr #31
1000305c:	e62d      	b.n	10002cba <_vsnprintf+0x5f6>
1000305e:	2a00      	cmp	r2, #0
10003060:	f43f af59 	beq.w	10002f16 <_vsnprintf+0x852>
10003064:	aa12      	add	r2, sp, #72	@ 0x48
10003066:	920b      	str	r2, [sp, #44]	@ 0x2c
10003068:	e771      	b.n	10002f4e <_vsnprintf+0x88a>
1000306a:	f413 6480 	ands.w	r4, r3, #1024	@ 0x400
1000306e:	d00d      	beq.n	1000308c <_vsnprintf+0x9c8>
10003070:	f013 0402 	ands.w	r4, r3, #2
10003074:	d012      	beq.n	1000309c <_vsnprintf+0x9d8>
10003076:	4604      	mov	r4, r0
10003078:	4646      	mov	r6, r8
1000307a:	e5ec      	b.n	10002c56 <_vsnprintf+0x592>
1000307c:	270a      	movs	r7, #10
1000307e:	4663      	mov	r3, ip
10003080:	46bc      	mov	ip, r7
10003082:	e56c      	b.n	10002b5e <_vsnprintf+0x49a>
10003084:	ab12      	add	r3, sp, #72	@ 0x48
10003086:	2000      	movs	r0, #0
10003088:	930b      	str	r3, [sp, #44]	@ 0x2c
1000308a:	e69d      	b.n	10002dc8 <_vsnprintf+0x704>
1000308c:	f013 0302 	ands.w	r3, r3, #2
10003090:	f47f ade0 	bne.w	10002c54 <_vsnprintf+0x590>
10003094:	2d00      	cmp	r5, #0
10003096:	f47f af13 	bne.w	10002ec0 <_vsnprintf+0x7fc>
1000309a:	e49a      	b.n	100029d2 <_vsnprintf+0x30e>
1000309c:	2d00      	cmp	r5, #0
1000309e:	f47f af0d 	bne.w	10002ebc <_vsnprintf+0x7f8>
100030a2:	e496      	b.n	100029d2 <_vsnprintf+0x30e>
100030a4:	cccccccd 	.word	0xcccccccd

100030a8 <vfctprintf>:
100030a8:	b570      	push	{r4, r5, r6, lr}
100030aa:	4694      	mov	ip, r2
100030ac:	461e      	mov	r6, r3
100030ae:	4605      	mov	r5, r0
100030b0:	460c      	mov	r4, r1
100030b2:	b084      	sub	sp, #16
100030b4:	f04f 32ff 	mov.w	r2, #4294967295
100030b8:	4663      	mov	r3, ip
100030ba:	a902      	add	r1, sp, #8
100030bc:	9600      	str	r6, [sp, #0]
100030be:	4803      	ldr	r0, [pc, #12]	@ (100030cc <vfctprintf+0x24>)
100030c0:	e9cd 5402 	strd	r5, r4, [sp, #8]
100030c4:	f7ff fafe 	bl	100026c4 <_vsnprintf>
100030c8:	b004      	add	sp, #16
100030ca:	bd70      	pop	{r4, r5, r6, pc}
100030cc:	10001c85 	.word	0x10001c85

100030d0 <weak_raw_vprintf>:
100030d0:	b510      	push	{r4, lr}
100030d2:	4b09      	ldr	r3, [pc, #36]	@ (100030f8 <weak_raw_vprintf+0x28>)
100030d4:	b084      	sub	sp, #16
100030d6:	681c      	ldr	r4, [r3, #0]
100030d8:	b14c      	cbz	r4, 100030ee <weak_raw_vprintf+0x1e>
100030da:	4603      	mov	r3, r0
100030dc:	9100      	str	r1, [sp, #0]
100030de:	f04f 32ff 	mov.w	r2, #4294967295
100030e2:	a903      	add	r1, sp, #12
100030e4:	4805      	ldr	r0, [pc, #20]	@ (100030fc <weak_raw_vprintf+0x2c>)
100030e6:	47a0      	blx	r4
100030e8:	2001      	movs	r0, #1
100030ea:	b004      	add	sp, #16
100030ec:	bd10      	pop	{r4, pc}
100030ee:	f000 f97d 	bl	100033ec <__wrap_puts>
100030f2:	4620      	mov	r0, r4
100030f4:	b004      	add	sp, #16
100030f6:	bd10      	pop	{r4, pc}
100030f8:	20000b88 	.word	0x20000b88
100030fc:	10001c7d 	.word	0x10001c7d

10003100 <_exit>:
10003100:	be00      	bkpt	0x0000
10003102:	e7fd      	b.n	10003100 <_exit>

10003104 <exit>:
10003104:	b508      	push	{r3, lr}
10003106:	f7ff fffb 	bl	10003100 <_exit>
1000310a:	bf00      	nop

1000310c <runtime_init>:
1000310c:	b538      	push	{r3, r4, r5, lr}
1000310e:	4c06      	ldr	r4, [pc, #24]	@ (10003128 <runtime_init+0x1c>)
10003110:	4d06      	ldr	r5, [pc, #24]	@ (1000312c <runtime_init+0x20>)
10003112:	f7fe fa07 	bl	10001524 <runtime_run_initializers>
10003116:	42ac      	cmp	r4, r5
10003118:	d204      	bcs.n	10003124 <runtime_init+0x18>
1000311a:	f854 3b04 	ldr.w	r3, [r4], #4
1000311e:	4798      	blx	r3
10003120:	42ac      	cmp	r4, r5
10003122:	d3fa      	bcc.n	1000311a <runtime_init+0xe>
10003124:	bd38      	pop	{r3, r4, r5, pc}
10003126:	bf00      	nop
10003128:	100038a8 	.word	0x100038a8
1000312c:	100038ac 	.word	0x100038ac

10003130 <stdio_out_chars_no_crlf>:
10003130:	6803      	ldr	r3, [r0, #0]
10003132:	4608      	mov	r0, r1
10003134:	4611      	mov	r1, r2
10003136:	4718      	bx	r3

10003138 <stdio_out_chars_crlf>:
10003138:	e92d 41f0 	stmdb	sp!, {r4, r5, r6, r7, r8, lr}
1000313c:	4615      	mov	r5, r2
1000313e:	7d42      	ldrb	r2, [r0, #21]
10003140:	4607      	mov	r7, r0
10003142:	4688      	mov	r8, r1
10003144:	2a00      	cmp	r2, #0
10003146:	d046      	beq.n	100031d6 <stdio_out_chars_crlf+0x9e>
10003148:	2d00      	cmp	r5, #0
1000314a:	dd1d      	ble.n	10003188 <stdio_out_chars_crlf+0x50>
1000314c:	780b      	ldrb	r3, [r1, #0]
1000314e:	2b0a      	cmp	r3, #10
10003150:	d023      	beq.n	1000319a <stdio_out_chars_crlf+0x62>
10003152:	2d01      	cmp	r5, #1
10003154:	f04f 0c00 	mov.w	ip, #0
10003158:	d018      	beq.n	1000318c <stdio_out_chars_crlf+0x54>
1000315a:	4646      	mov	r6, r8
1000315c:	2401      	movs	r4, #1
1000315e:	f816 2f01 	ldrb.w	r2, [r6, #1]!
10003162:	4621      	mov	r1, r4
10003164:	2a0a      	cmp	r2, #10
10003166:	f104 0401 	add.w	r4, r4, #1
1000316a:	d022      	beq.n	100031b2 <stdio_out_chars_crlf+0x7a>
1000316c:	42a5      	cmp	r5, r4
1000316e:	d1f6      	bne.n	1000315e <stdio_out_chars_crlf+0x26>
10003170:	4565      	cmp	r5, ip
10003172:	dc0b      	bgt.n	1000318c <stdio_out_chars_crlf+0x54>
10003174:	eb08 0305 	add.w	r3, r8, r5
10003178:	f813 3c01 	ldrb.w	r3, [r3, #-1]
1000317c:	f1a3 030d 	sub.w	r3, r3, #13
10003180:	fab3 f383 	clz	r3, r3
10003184:	095b      	lsrs	r3, r3, #5
10003186:	753b      	strb	r3, [r7, #20]
10003188:	e8bd 81f0 	ldmia.w	sp!, {r4, r5, r6, r7, r8, pc}
1000318c:	683b      	ldr	r3, [r7, #0]
1000318e:	eba5 010c 	sub.w	r1, r5, ip
10003192:	eb08 000c 	add.w	r0, r8, ip
10003196:	4798      	blx	r3
10003198:	e7ec      	b.n	10003174 <stdio_out_chars_crlf+0x3c>
1000319a:	7d03      	ldrb	r3, [r0, #20]
1000319c:	2b00      	cmp	r3, #0
1000319e:	d1d8      	bne.n	10003152 <stdio_out_chars_crlf+0x1a>
100031a0:	6803      	ldr	r3, [r0, #0]
100031a2:	2102      	movs	r1, #2
100031a4:	480f      	ldr	r0, [pc, #60]	@ (100031e4 <stdio_out_chars_crlf+0xac>)
100031a6:	4798      	blx	r3
100031a8:	2d01      	cmp	r5, #1
100031aa:	d0e3      	beq.n	10003174 <stdio_out_chars_crlf+0x3c>
100031ac:	f04f 0c01 	mov.w	ip, #1
100031b0:	e7d3      	b.n	1000315a <stdio_out_chars_crlf+0x22>
100031b2:	f816 3c01 	ldrb.w	r3, [r6, #-1]
100031b6:	2b0d      	cmp	r3, #13
100031b8:	d0d8      	beq.n	1000316c <stdio_out_chars_crlf+0x34>
100031ba:	458c      	cmp	ip, r1
100031bc:	eb08 000c 	add.w	r0, r8, ip
100031c0:	eba1 010c 	sub.w	r1, r1, ip
100031c4:	da01      	bge.n	100031ca <stdio_out_chars_crlf+0x92>
100031c6:	683b      	ldr	r3, [r7, #0]
100031c8:	4798      	blx	r3
100031ca:	2102      	movs	r1, #2
100031cc:	4805      	ldr	r0, [pc, #20]	@ (100031e4 <stdio_out_chars_crlf+0xac>)
100031ce:	683b      	ldr	r3, [r7, #0]
100031d0:	4798      	blx	r3
100031d2:	46a4      	mov	ip, r4
100031d4:	e7ca      	b.n	1000316c <stdio_out_chars_crlf+0x34>
100031d6:	4629      	mov	r1, r5
100031d8:	4640      	mov	r0, r8
100031da:	683b      	ldr	r3, [r7, #0]
100031dc:	e8bd 41f0 	ldmia.w	sp!, {r4, r5, r6, r7, r8, lr}
100031e0:	4718      	bx	r3
100031e2:	bf00      	nop
100031e4:	10003ab0 	.word	0x10003ab0

100031e8 <stdio_buffered_printer>:
100031e8:	680b      	ldr	r3, [r1, #0]
100031ea:	e92d 41f0 	stmdb	sp!, {r4, r5, r6, r7, r8, lr}
100031ee:	2b80      	cmp	r3, #128	@ 0x80
100031f0:	460d      	mov	r5, r1
100031f2:	4606      	mov	r6, r0
100031f4:	d005      	beq.n	10003202 <stdio_buffered_printer+0x1a>
100031f6:	1c5a      	adds	r2, r3, #1
100031f8:	442b      	add	r3, r5
100031fa:	602a      	str	r2, [r5, #0]
100031fc:	711e      	strb	r6, [r3, #4]
100031fe:	e8bd 81f0 	ldmia.w	sp!, {r4, r5, r6, r7, r8, pc}
10003202:	4b0f      	ldr	r3, [pc, #60]	@ (10003240 <stdio_buffered_printer+0x58>)
10003204:	681c      	ldr	r4, [r3, #0]
10003206:	b1a4      	cbz	r4, 10003232 <stdio_buffered_printer+0x4a>
10003208:	4f0e      	ldr	r7, [pc, #56]	@ (10003244 <stdio_buffered_printer+0x5c>)
1000320a:	f101 0804 	add.w	r8, r1, #4
1000320e:	e001      	b.n	10003214 <stdio_buffered_printer+0x2c>
10003210:	6924      	ldr	r4, [r4, #16]
10003212:	b174      	cbz	r4, 10003232 <stdio_buffered_printer+0x4a>
10003214:	6823      	ldr	r3, [r4, #0]
10003216:	2b00      	cmp	r3, #0
10003218:	d0fa      	beq.n	10003210 <stdio_buffered_printer+0x28>
1000321a:	683b      	ldr	r3, [r7, #0]
1000321c:	b10b      	cbz	r3, 10003222 <stdio_buffered_printer+0x3a>
1000321e:	42a3      	cmp	r3, r4
10003220:	d1f6      	bne.n	10003210 <stdio_buffered_printer+0x28>
10003222:	4620      	mov	r0, r4
10003224:	4641      	mov	r1, r8
10003226:	682a      	ldr	r2, [r5, #0]
10003228:	f7ff ff86 	bl	10003138 <stdio_out_chars_crlf>
1000322c:	6924      	ldr	r4, [r4, #16]
1000322e:	2c00      	cmp	r4, #0
10003230:	d1f0      	bne.n	10003214 <stdio_buffered_printer+0x2c>
10003232:	2300      	movs	r3, #0
10003234:	2201      	movs	r2, #1
10003236:	442b      	add	r3, r5
10003238:	602a      	str	r2, [r5, #0]
1000323a:	711e      	strb	r6, [r3, #4]
1000323c:	e8bd 81f0 	ldmia.w	sp!, {r4, r5, r6, r7, r8, pc}
10003240:	20000b80 	.word	0x20000b80
10003244:	20000b84 	.word	0x20000b84

10003248 <stdio_put_string>:
10003248:	e92d 47f0 	stmdb	sp!, {r4, r5, r6, r7, r8, r9, sl, lr}
1000324c:	b082      	sub	sp, #8
1000324e:	460d      	mov	r5, r1
10003250:	4691      	mov	r9, r2
10003252:	461c      	mov	r4, r3
10003254:	4606      	mov	r6, r0
10003256:	f7fd ff95 	bl	10001184 <time_us_64>
1000325a:	f04f 3cff 	mov.w	ip, #4294967295
1000325e:	f06f 4700 	mvn.w	r7, #2147483648	@ 0x80000000
10003262:	4a2e      	ldr	r2, [pc, #184]	@ (1000331c <stdio_put_string+0xd4>)
10003264:	1882      	adds	r2, r0, r2
10003266:	f141 0300 	adc.w	r3, r1, #0
1000326a:	4594      	cmp	ip, r2
1000326c:	eb77 0103 	sbcs.w	r1, r7, r3
10003270:	bf3c      	itt	cc
10003272:	4662      	movcc	r2, ip
10003274:	463b      	movcc	r3, r7
10003276:	482a      	ldr	r0, [pc, #168]	@ (10003320 <stdio_put_string+0xd8>)
10003278:	f000 faf2 	bl	10003860 <__mutex_try_enter_block_until_veneer>
1000327c:	1c6b      	adds	r3, r5, #1
1000327e:	4680      	mov	r8, r0
10003280:	d040      	beq.n	10003304 <stdio_put_string+0xbc>
10003282:	b30c      	cbz	r4, 100032c8 <stdio_put_string+0x80>
10003284:	4f27      	ldr	r7, [pc, #156]	@ (10003324 <stdio_put_string+0xdc>)
10003286:	4b28      	ldr	r3, [pc, #160]	@ (10003328 <stdio_put_string+0xe0>)
10003288:	681c      	ldr	r4, [r3, #0]
1000328a:	b1b4      	cbz	r4, 100032ba <stdio_put_string+0x72>
1000328c:	f1b9 0f00 	cmp.w	r9, #0
10003290:	d11c      	bne.n	100032cc <stdio_put_string+0x84>
10003292:	f8df 909c 	ldr.w	r9, [pc, #156]	@ 10003330 <stdio_put_string+0xe8>
10003296:	e001      	b.n	1000329c <stdio_put_string+0x54>
10003298:	6924      	ldr	r4, [r4, #16]
1000329a:	b174      	cbz	r4, 100032ba <stdio_put_string+0x72>
1000329c:	6823      	ldr	r3, [r4, #0]
1000329e:	2b00      	cmp	r3, #0
100032a0:	d0fa      	beq.n	10003298 <stdio_put_string+0x50>
100032a2:	f8d9 3000 	ldr.w	r3, [r9]
100032a6:	b10b      	cbz	r3, 100032ac <stdio_put_string+0x64>
100032a8:	429c      	cmp	r4, r3
100032aa:	d1f5      	bne.n	10003298 <stdio_put_string+0x50>
100032ac:	4620      	mov	r0, r4
100032ae:	462a      	mov	r2, r5
100032b0:	4631      	mov	r1, r6
100032b2:	47b8      	blx	r7
100032b4:	6924      	ldr	r4, [r4, #16]
100032b6:	2c00      	cmp	r4, #0
100032b8:	d1f0      	bne.n	1000329c <stdio_put_string+0x54>
100032ba:	f1b8 0f00 	cmp.w	r8, #0
100032be:	d126      	bne.n	1000330e <stdio_put_string+0xc6>
100032c0:	4628      	mov	r0, r5
100032c2:	b002      	add	sp, #8
100032c4:	e8bd 87f0 	ldmia.w	sp!, {r4, r5, r6, r7, r8, r9, sl, pc}
100032c8:	4f18      	ldr	r7, [pc, #96]	@ (1000332c <stdio_put_string+0xe4>)
100032ca:	e7dc      	b.n	10003286 <stdio_put_string+0x3e>
100032cc:	f04f 0a0a 	mov.w	sl, #10
100032d0:	f8df 905c 	ldr.w	r9, [pc, #92]	@ 10003330 <stdio_put_string+0xe8>
100032d4:	e002      	b.n	100032dc <stdio_put_string+0x94>
100032d6:	6924      	ldr	r4, [r4, #16]
100032d8:	2c00      	cmp	r4, #0
100032da:	d0ee      	beq.n	100032ba <stdio_put_string+0x72>
100032dc:	6823      	ldr	r3, [r4, #0]
100032de:	2b00      	cmp	r3, #0
100032e0:	d0f9      	beq.n	100032d6 <stdio_put_string+0x8e>
100032e2:	f8d9 3000 	ldr.w	r3, [r9]
100032e6:	b10b      	cbz	r3, 100032ec <stdio_put_string+0xa4>
100032e8:	42a3      	cmp	r3, r4
100032ea:	d1f4      	bne.n	100032d6 <stdio_put_string+0x8e>
100032ec:	462a      	mov	r2, r5
100032ee:	4631      	mov	r1, r6
100032f0:	4620      	mov	r0, r4
100032f2:	47b8      	blx	r7
100032f4:	2201      	movs	r2, #1
100032f6:	4620      	mov	r0, r4
100032f8:	f10d 0107 	add.w	r1, sp, #7
100032fc:	f88d a007 	strb.w	sl, [sp, #7]
10003300:	47b8      	blx	r7
10003302:	e7e8      	b.n	100032d6 <stdio_put_string+0x8e>
10003304:	4630      	mov	r0, r6
10003306:	f000 fa6f 	bl	100037e8 <strlen>
1000330a:	4605      	mov	r5, r0
1000330c:	e7b9      	b.n	10003282 <stdio_put_string+0x3a>
1000330e:	4804      	ldr	r0, [pc, #16]	@ (10003320 <stdio_put_string+0xd8>)
10003310:	f000 faa2 	bl	10003858 <__mutex_exit_veneer>
10003314:	4628      	mov	r0, r5
10003316:	b002      	add	sp, #8
10003318:	e8bd 87f0 	ldmia.w	sp!, {r4, r5, r6, r7, r8, r9, sl, pc}
1000331c:	000f4240 	.word	0x000f4240
10003320:	2000099c 	.word	0x2000099c
10003324:	10003139 	.word	0x10003139
10003328:	20000b80 	.word	0x20000b80
1000332c:	10003131 	.word	0x10003131
10003330:	20000b84 	.word	0x20000b84

10003334 <stdio_set_driver_enabled>:
10003334:	4a08      	ldr	r2, [pc, #32]	@ (10003358 <stdio_set_driver_enabled+0x24>)
10003336:	6813      	ldr	r3, [r2, #0]
10003338:	b923      	cbnz	r3, 10003344 <stdio_set_driver_enabled+0x10>
1000333a:	e00a      	b.n	10003352 <stdio_set_driver_enabled+0x1e>
1000333c:	f103 0210 	add.w	r2, r3, #16
10003340:	691b      	ldr	r3, [r3, #16]
10003342:	b133      	cbz	r3, 10003352 <stdio_set_driver_enabled+0x1e>
10003344:	4283      	cmp	r3, r0
10003346:	d1f9      	bne.n	1000333c <stdio_set_driver_enabled+0x8>
10003348:	b929      	cbnz	r1, 10003356 <stdio_set_driver_enabled+0x22>
1000334a:	6918      	ldr	r0, [r3, #16]
1000334c:	6010      	str	r0, [r2, #0]
1000334e:	6119      	str	r1, [r3, #16]
10003350:	4770      	bx	lr
10003352:	b101      	cbz	r1, 10003356 <stdio_set_driver_enabled+0x22>
10003354:	6010      	str	r0, [r2, #0]
10003356:	4770      	bx	lr
10003358:	20000b80 	.word	0x20000b80

1000335c <stdio_init_all>:
1000335c:	b508      	push	{r3, lr}
1000335e:	f000 f9a3 	bl	100036a8 <stdio_uart_init>
10003362:	2001      	movs	r0, #1
10003364:	bd08      	pop	{r3, pc}
10003366:	bf00      	nop

10003368 <__wrap_putchar>:
10003368:	b5f0      	push	{r4, r5, r6, r7, lr}
1000336a:	b083      	sub	sp, #12
1000336c:	4606      	mov	r6, r0
1000336e:	f88d 0007 	strb.w	r0, [sp, #7]
10003372:	f7fd ff07 	bl	10001184 <time_us_64>
10003376:	f04f 35ff 	mov.w	r5, #4294967295
1000337a:	f06f 4400 	mvn.w	r4, #2147483648	@ 0x80000000
1000337e:	4a17      	ldr	r2, [pc, #92]	@ (100033dc <__wrap_putchar+0x74>)
10003380:	1882      	adds	r2, r0, r2
10003382:	f141 0300 	adc.w	r3, r1, #0
10003386:	4295      	cmp	r5, r2
10003388:	eb74 0103 	sbcs.w	r1, r4, r3
1000338c:	bf3c      	itt	cc
1000338e:	4623      	movcc	r3, r4
10003390:	462a      	movcc	r2, r5
10003392:	4813      	ldr	r0, [pc, #76]	@ (100033e0 <__wrap_putchar+0x78>)
10003394:	f000 fa64 	bl	10003860 <__mutex_try_enter_block_until_veneer>
10003398:	4b12      	ldr	r3, [pc, #72]	@ (100033e4 <__wrap_putchar+0x7c>)
1000339a:	4607      	mov	r7, r0
1000339c:	681c      	ldr	r4, [r3, #0]
1000339e:	b19c      	cbz	r4, 100033c8 <__wrap_putchar+0x60>
100033a0:	4d11      	ldr	r5, [pc, #68]	@ (100033e8 <__wrap_putchar+0x80>)
100033a2:	e001      	b.n	100033a8 <__wrap_putchar+0x40>
100033a4:	6924      	ldr	r4, [r4, #16]
100033a6:	b17c      	cbz	r4, 100033c8 <__wrap_putchar+0x60>
100033a8:	6823      	ldr	r3, [r4, #0]
100033aa:	2b00      	cmp	r3, #0
100033ac:	d0fa      	beq.n	100033a4 <__wrap_putchar+0x3c>
100033ae:	682b      	ldr	r3, [r5, #0]
100033b0:	b10b      	cbz	r3, 100033b6 <__wrap_putchar+0x4e>
100033b2:	429c      	cmp	r4, r3
100033b4:	d1f6      	bne.n	100033a4 <__wrap_putchar+0x3c>
100033b6:	4620      	mov	r0, r4
100033b8:	2201      	movs	r2, #1
100033ba:	f10d 0107 	add.w	r1, sp, #7
100033be:	f7ff febb 	bl	10003138 <stdio_out_chars_crlf>
100033c2:	6924      	ldr	r4, [r4, #16]
100033c4:	2c00      	cmp	r4, #0
100033c6:	d1ef      	bne.n	100033a8 <__wrap_putchar+0x40>
100033c8:	b917      	cbnz	r7, 100033d0 <__wrap_putchar+0x68>
100033ca:	4630      	mov	r0, r6
100033cc:	b003      	add	sp, #12
100033ce:	bdf0      	pop	{r4, r5, r6, r7, pc}
100033d0:	4803      	ldr	r0, [pc, #12]	@ (100033e0 <__wrap_putchar+0x78>)
100033d2:	f000 fa41 	bl	10003858 <__mutex_exit_veneer>
100033d6:	4630      	mov	r0, r6
100033d8:	b003      	add	sp, #12
100033da:	bdf0      	pop	{r4, r5, r6, r7, pc}
100033dc:	000f4240 	.word	0x000f4240
100033e0:	2000099c 	.word	0x2000099c
100033e4:	20000b80 	.word	0x20000b80
100033e8:	20000b84 	.word	0x20000b84

100033ec <__wrap_puts>:
100033ec:	b538      	push	{r3, r4, r5, lr}
100033ee:	4604      	mov	r4, r0
100033f0:	f000 f9fa 	bl	100037e8 <strlen>
100033f4:	2301      	movs	r3, #1
100033f6:	4605      	mov	r5, r0
100033f8:	461a      	mov	r2, r3
100033fa:	4620      	mov	r0, r4
100033fc:	4629      	mov	r1, r5
100033fe:	f7ff ff23 	bl	10003248 <stdio_put_string>
10003402:	4b08      	ldr	r3, [pc, #32]	@ (10003424 <__wrap_puts+0x38>)
10003404:	681c      	ldr	r4, [r3, #0]
10003406:	b12c      	cbz	r4, 10003414 <__wrap_puts+0x28>
10003408:	6863      	ldr	r3, [r4, #4]
1000340a:	b12b      	cbz	r3, 10003418 <__wrap_puts+0x2c>
1000340c:	4798      	blx	r3
1000340e:	6924      	ldr	r4, [r4, #16]
10003410:	2c00      	cmp	r4, #0
10003412:	d1f9      	bne.n	10003408 <__wrap_puts+0x1c>
10003414:	4628      	mov	r0, r5
10003416:	bd38      	pop	{r3, r4, r5, pc}
10003418:	6924      	ldr	r4, [r4, #16]
1000341a:	2c00      	cmp	r4, #0
1000341c:	d1f4      	bne.n	10003408 <__wrap_puts+0x1c>
1000341e:	4628      	mov	r0, r5
10003420:	bd38      	pop	{r3, r4, r5, pc}
10003422:	bf00      	nop
10003424:	20000b80 	.word	0x20000b80

10003428 <__wrap_vprintf>:
10003428:	e92d 41f0 	stmdb	sp!, {r4, r5, r6, r7, r8, lr}
1000342c:	b0a2      	sub	sp, #136	@ 0x88
1000342e:	4604      	mov	r4, r0
10003430:	460d      	mov	r5, r1
10003432:	f7fd fea7 	bl	10001184 <time_us_64>
10003436:	f04f 37ff 	mov.w	r7, #4294967295
1000343a:	f06f 4600 	mvn.w	r6, #2147483648	@ 0x80000000
1000343e:	4a26      	ldr	r2, [pc, #152]	@ (100034d8 <__wrap_vprintf+0xb0>)
10003440:	f8df 80a4 	ldr.w	r8, [pc, #164]	@ 100034e8 <__wrap_vprintf+0xc0>
10003444:	1882      	adds	r2, r0, r2
10003446:	f141 0300 	adc.w	r3, r1, #0
1000344a:	4297      	cmp	r7, r2
1000344c:	eb76 0103 	sbcs.w	r1, r6, r3
10003450:	bf3c      	itt	cc
10003452:	463a      	movcc	r2, r7
10003454:	4633      	movcc	r3, r6
10003456:	4821      	ldr	r0, [pc, #132]	@ (100034dc <__wrap_vprintf+0xb4>)
10003458:	f000 fa02 	bl	10003860 <__mutex_try_enter_block_until_veneer>
1000345c:	2700      	movs	r7, #0
1000345e:	462b      	mov	r3, r5
10003460:	4622      	mov	r2, r4
10003462:	4606      	mov	r6, r0
10003464:	a901      	add	r1, sp, #4
10003466:	481e      	ldr	r0, [pc, #120]	@ (100034e0 <__wrap_vprintf+0xb8>)
10003468:	9701      	str	r7, [sp, #4]
1000346a:	f7ff fe1d 	bl	100030a8 <vfctprintf>
1000346e:	9b01      	ldr	r3, [sp, #4]
10003470:	4605      	mov	r5, r0
10003472:	f8d8 4000 	ldr.w	r4, [r8]
10003476:	b1c3      	cbz	r3, 100034aa <__wrap_vprintf+0x82>
10003478:	2c00      	cmp	r4, #0
1000347a:	d02b      	beq.n	100034d4 <__wrap_vprintf+0xac>
1000347c:	4f19      	ldr	r7, [pc, #100]	@ (100034e4 <__wrap_vprintf+0xbc>)
1000347e:	e001      	b.n	10003484 <__wrap_vprintf+0x5c>
10003480:	6924      	ldr	r4, [r4, #16]
10003482:	b174      	cbz	r4, 100034a2 <__wrap_vprintf+0x7a>
10003484:	6823      	ldr	r3, [r4, #0]
10003486:	2b00      	cmp	r3, #0
10003488:	d0fa      	beq.n	10003480 <__wrap_vprintf+0x58>
1000348a:	683b      	ldr	r3, [r7, #0]
1000348c:	b10b      	cbz	r3, 10003492 <__wrap_vprintf+0x6a>
1000348e:	42a3      	cmp	r3, r4
10003490:	d1f6      	bne.n	10003480 <__wrap_vprintf+0x58>
10003492:	4620      	mov	r0, r4
10003494:	9a01      	ldr	r2, [sp, #4]
10003496:	a902      	add	r1, sp, #8
10003498:	f7ff fe4e 	bl	10003138 <stdio_out_chars_crlf>
1000349c:	6924      	ldr	r4, [r4, #16]
1000349e:	2c00      	cmp	r4, #0
100034a0:	d1f0      	bne.n	10003484 <__wrap_vprintf+0x5c>
100034a2:	2300      	movs	r3, #0
100034a4:	f8d8 4000 	ldr.w	r4, [r8]
100034a8:	9301      	str	r3, [sp, #4]
100034aa:	b12c      	cbz	r4, 100034b8 <__wrap_vprintf+0x90>
100034ac:	6863      	ldr	r3, [r4, #4]
100034ae:	b143      	cbz	r3, 100034c2 <__wrap_vprintf+0x9a>
100034b0:	4798      	blx	r3
100034b2:	6924      	ldr	r4, [r4, #16]
100034b4:	2c00      	cmp	r4, #0
100034b6:	d1f9      	bne.n	100034ac <__wrap_vprintf+0x84>
100034b8:	b92e      	cbnz	r6, 100034c6 <__wrap_vprintf+0x9e>
100034ba:	4628      	mov	r0, r5
100034bc:	b022      	add	sp, #136	@ 0x88
100034be:	e8bd 81f0 	ldmia.w	sp!, {r4, r5, r6, r7, r8, pc}
100034c2:	6924      	ldr	r4, [r4, #16]
100034c4:	e7f1      	b.n	100034aa <__wrap_vprintf+0x82>
100034c6:	4805      	ldr	r0, [pc, #20]	@ (100034dc <__wrap_vprintf+0xb4>)
100034c8:	f000 f9c6 	bl	10003858 <__mutex_exit_veneer>
100034cc:	4628      	mov	r0, r5
100034ce:	b022      	add	sp, #136	@ 0x88
100034d0:	e8bd 81f0 	ldmia.w	sp!, {r4, r5, r6, r7, r8, pc}
100034d4:	9401      	str	r4, [sp, #4]
100034d6:	e7ef      	b.n	100034b8 <__wrap_vprintf+0x90>
100034d8:	000f4240 	.word	0x000f4240
100034dc:	2000099c 	.word	0x2000099c
100034e0:	100031e9 	.word	0x100031e9
100034e4:	20000b84 	.word	0x20000b84
100034e8:	20000b80 	.word	0x20000b80

100034ec <__wrap_printf>:
100034ec:	b40f      	push	{r0, r1, r2, r3}
100034ee:	b500      	push	{lr}
100034f0:	b083      	sub	sp, #12
100034f2:	a904      	add	r1, sp, #16
100034f4:	f851 0b04 	ldr.w	r0, [r1], #4
100034f8:	9101      	str	r1, [sp, #4]
100034fa:	f7ff ff95 	bl	10003428 <__wrap_vprintf>
100034fe:	b003      	add	sp, #12
10003500:	f85d eb04 	ldr.w	lr, [sp], #4
10003504:	b004      	add	sp, #16
10003506:	4770      	bx	lr

10003508 <stdio_uart_out_chars>:
10003508:	f1b1 0c00 	subs.w	ip, r1, #0
1000350c:	dd1d      	ble.n	1000354a <stdio_uart_out_chars+0x42>
1000350e:	4a0f      	ldr	r2, [pc, #60]	@ (1000354c <stdio_uart_out_chars+0x44>)
10003510:	4b0f      	ldr	r3, [pc, #60]	@ (10003550 <stdio_uart_out_chars+0x48>)
10003512:	6812      	ldr	r2, [r2, #0]
10003514:	b530      	push	{r4, r5, lr}
10003516:	1ad3      	subs	r3, r2, r3
10003518:	fab3 f383 	clz	r3, r3
1000351c:	240d      	movs	r4, #13
1000351e:	4d0d      	ldr	r5, [pc, #52]	@ (10003554 <stdio_uart_out_chars+0x4c>)
10003520:	095b      	lsrs	r3, r3, #5
10003522:	1e41      	subs	r1, r0, #1
10003524:	f935 e013 	ldrsh.w	lr, [r5, r3, lsl #1]
10003528:	448c      	add	ip, r1
1000352a:	f811 0f01 	ldrb.w	r0, [r1, #1]!
1000352e:	4586      	cmp	lr, r0
10003530:	d006      	beq.n	10003540 <stdio_uart_out_chars+0x38>
10003532:	6993      	ldr	r3, [r2, #24]
10003534:	069b      	lsls	r3, r3, #26
10003536:	d4fc      	bmi.n	10003532 <stdio_uart_out_chars+0x2a>
10003538:	4561      	cmp	r1, ip
1000353a:	6010      	str	r0, [r2, #0]
1000353c:	d1f5      	bne.n	1000352a <stdio_uart_out_chars+0x22>
1000353e:	bd30      	pop	{r4, r5, pc}
10003540:	6993      	ldr	r3, [r2, #24]
10003542:	069d      	lsls	r5, r3, #26
10003544:	d4fc      	bmi.n	10003540 <stdio_uart_out_chars+0x38>
10003546:	6014      	str	r4, [r2, #0]
10003548:	e7f3      	b.n	10003532 <stdio_uart_out_chars+0x2a>
1000354a:	4770      	bx	lr
1000354c:	20000bcc 	.word	0x20000bcc
10003550:	40078000 	.word	0x40078000
10003554:	20000bc8 	.word	0x20000bc8

10003558 <stdio_uart_in_chars>:
10003558:	4b22      	ldr	r3, [pc, #136]	@ (100035e4 <stdio_uart_in_chars+0x8c>)
1000355a:	f1b1 0c00 	subs.w	ip, r1, #0
1000355e:	b410      	push	{r4}
10003560:	681c      	ldr	r4, [r3, #0]
10003562:	dd2e      	ble.n	100035c2 <stdio_uart_in_chars+0x6a>
10003564:	4603      	mov	r3, r0
10003566:	2000      	movs	r0, #0
10003568:	4a1f      	ldr	r2, [pc, #124]	@ (100035e8 <stdio_uart_in_chars+0x90>)
1000356a:	1e59      	subs	r1, r3, #1
1000356c:	6812      	ldr	r2, [r2, #0]
1000356e:	6993      	ldr	r3, [r2, #24]
10003570:	06db      	lsls	r3, r3, #27
10003572:	d417      	bmi.n	100035a4 <stdio_uart_in_chars+0x4c>
10003574:	3001      	adds	r0, #1
10003576:	6993      	ldr	r3, [r2, #24]
10003578:	06db      	lsls	r3, r3, #27
1000357a:	d4fc      	bmi.n	10003576 <stdio_uart_in_chars+0x1e>
1000357c:	6813      	ldr	r3, [r2, #0]
1000357e:	4584      	cmp	ip, r0
10003580:	f801 3f01 	strb.w	r3, [r1, #1]!
10003584:	d1f3      	bne.n	1000356e <stdio_uart_in_chars+0x16>
10003586:	b14c      	cbz	r4, 1000359c <stdio_uart_in_chars+0x44>
10003588:	2150      	movs	r1, #80	@ 0x50
1000358a:	4613      	mov	r3, r2
1000358c:	6391      	str	r1, [r2, #56]	@ 0x38
1000358e:	f853 2f34 	ldr.w	r2, [r3, #52]!
10003592:	f002 0238 	and.w	r2, r2, #56	@ 0x38
10003596:	f503 5380 	add.w	r3, r3, #4096	@ 0x1000
1000359a:	601a      	str	r2, [r3, #0]
1000359c:	4660      	mov	r0, ip
1000359e:	f85d 4b04 	ldr.w	r4, [sp], #4
100035a2:	4770      	bx	lr
100035a4:	b14c      	cbz	r4, 100035ba <stdio_uart_in_chars+0x62>
100035a6:	2150      	movs	r1, #80	@ 0x50
100035a8:	4613      	mov	r3, r2
100035aa:	6391      	str	r1, [r2, #56]	@ 0x38
100035ac:	f853 2f34 	ldr.w	r2, [r3, #52]!
100035b0:	f002 0238 	and.w	r2, r2, #56	@ 0x38
100035b4:	f503 5380 	add.w	r3, r3, #4096	@ 0x1000
100035b8:	601a      	str	r2, [r3, #0]
100035ba:	b178      	cbz	r0, 100035dc <stdio_uart_in_chars+0x84>
100035bc:	f85d 4b04 	ldr.w	r4, [sp], #4
100035c0:	4770      	bx	lr
100035c2:	b15c      	cbz	r4, 100035dc <stdio_uart_in_chars+0x84>
100035c4:	4b08      	ldr	r3, [pc, #32]	@ (100035e8 <stdio_uart_in_chars+0x90>)
100035c6:	2150      	movs	r1, #80	@ 0x50
100035c8:	681a      	ldr	r2, [r3, #0]
100035ca:	4613      	mov	r3, r2
100035cc:	6391      	str	r1, [r2, #56]	@ 0x38
100035ce:	f853 2f34 	ldr.w	r2, [r3, #52]!
100035d2:	f002 0238 	and.w	r2, r2, #56	@ 0x38
100035d6:	f503 5380 	add.w	r3, r3, #4096	@ 0x1000
100035da:	601a      	str	r2, [r3, #0]
100035dc:	f06f 0002 	mvn.w	r0, #2
100035e0:	e7dd      	b.n	1000359e <stdio_uart_in_chars+0x46>
100035e2:	bf00      	nop
100035e4:	20000b48 	.word	0x20000b48
100035e8:	20000bcc 	.word	0x20000bcc

100035ec <on_uart_rx>:
100035ec:	4b05      	ldr	r3, [pc, #20]	@ (10003604 <on_uart_rx+0x18>)
100035ee:	681b      	ldr	r3, [r3, #0]
100035f0:	b133      	cbz	r3, 10003600 <on_uart_rx+0x14>
100035f2:	2100      	movs	r1, #0
100035f4:	4a04      	ldr	r2, [pc, #16]	@ (10003608 <on_uart_rx+0x1c>)
100035f6:	4805      	ldr	r0, [pc, #20]	@ (1000360c <on_uart_rx+0x20>)
100035f8:	6812      	ldr	r2, [r2, #0]
100035fa:	6800      	ldr	r0, [r0, #0]
100035fc:	6391      	str	r1, [r2, #56]	@ 0x38
100035fe:	4718      	bx	r3
10003600:	4770      	bx	lr
10003602:	bf00      	nop
10003604:	20000b48 	.word	0x20000b48
10003608:	20000bcc 	.word	0x20000bcc
1000360c:	20000b4c 	.word	0x20000b4c

10003610 <stdio_uart_out_flush>:
10003610:	4b02      	ldr	r3, [pc, #8]	@ (1000361c <stdio_uart_out_flush+0xc>)
10003612:	681a      	ldr	r2, [r3, #0]
10003614:	6993      	ldr	r3, [r2, #24]
10003616:	071b      	lsls	r3, r3, #28
10003618:	d4fc      	bmi.n	10003614 <stdio_uart_out_flush+0x4>
1000361a:	4770      	bx	lr
1000361c:	20000bcc 	.word	0x20000bcc

10003620 <stdio_uart_set_chars_available_callback>:
10003620:	b5f8      	push	{r3, r4, r5, r6, r7, lr}
10003622:	4f1c      	ldr	r7, [pc, #112]	@ (10003694 <stdio_uart_set_chars_available_callback+0x74>)
10003624:	4d1c      	ldr	r5, [pc, #112]	@ (10003698 <stdio_uart_set_chars_available_callback+0x78>)
10003626:	683a      	ldr	r2, [r7, #0]
10003628:	4e1c      	ldr	r6, [pc, #112]	@ (1000369c <stdio_uart_set_chars_available_callback+0x7c>)
1000362a:	42aa      	cmp	r2, r5
1000362c:	bf14      	ite	ne
1000362e:	2521      	movne	r5, #33	@ 0x21
10003630:	2522      	moveq	r5, #34	@ 0x22
10003632:	4604      	mov	r4, r0
10003634:	f8d6 c000 	ldr.w	ip, [r6]
10003638:	b118      	cbz	r0, 10003642 <stdio_uart_set_chars_available_callback+0x22>
1000363a:	f1bc 0f00 	cmp.w	ip, #0
1000363e:	d010      	beq.n	10003662 <stdio_uart_set_chars_available_callback+0x42>
10003640:	bdf8      	pop	{r3, r4, r5, r6, r7, pc}
10003642:	f1bc 0f00 	cmp.w	ip, #0
10003646:	d0fb      	beq.n	10003640 <stdio_uart_set_chars_available_callback+0x20>
10003648:	4601      	mov	r1, r0
1000364a:	6390      	str	r0, [r2, #56]	@ 0x38
1000364c:	4628      	mov	r0, r5
1000364e:	f7fc ffb5 	bl	100005bc <irq_set_enabled>
10003652:	4628      	mov	r0, r5
10003654:	4912      	ldr	r1, [pc, #72]	@ (100036a0 <stdio_uart_set_chars_available_callback+0x80>)
10003656:	f7fc fff7 	bl	10000648 <irq_remove_handler>
1000365a:	4b12      	ldr	r3, [pc, #72]	@ (100036a4 <stdio_uart_set_chars_available_callback+0x84>)
1000365c:	6034      	str	r4, [r6, #0]
1000365e:	601c      	str	r4, [r3, #0]
10003660:	bdf8      	pop	{r3, r4, r5, r6, r7, pc}
10003662:	460b      	mov	r3, r1
10003664:	4a0f      	ldr	r2, [pc, #60]	@ (100036a4 <stdio_uart_set_chars_available_callback+0x84>)
10003666:	490e      	ldr	r1, [pc, #56]	@ (100036a0 <stdio_uart_set_chars_available_callback+0x80>)
10003668:	6030      	str	r0, [r6, #0]
1000366a:	4628      	mov	r0, r5
1000366c:	6013      	str	r3, [r2, #0]
1000366e:	f7fc ffbb 	bl	100005e8 <irq_set_exclusive_handler>
10003672:	2101      	movs	r1, #1
10003674:	4628      	mov	r0, r5
10003676:	f7fc ffa1 	bl	100005bc <irq_set_enabled>
1000367a:	683a      	ldr	r2, [r7, #0]
1000367c:	2150      	movs	r1, #80	@ 0x50
1000367e:	4613      	mov	r3, r2
10003680:	6391      	str	r1, [r2, #56]	@ 0x38
10003682:	f853 2f34 	ldr.w	r2, [r3, #52]!
10003686:	f002 0238 	and.w	r2, r2, #56	@ 0x38
1000368a:	f503 5380 	add.w	r3, r3, #4096	@ 0x1000
1000368e:	601a      	str	r2, [r3, #0]
10003690:	bdf8      	pop	{r3, r4, r5, r6, r7, pc}
10003692:	bf00      	nop
10003694:	20000bcc 	.word	0x20000bcc
10003698:	40078000 	.word	0x40078000
1000369c:	20000b48 	.word	0x20000b48
100036a0:	100035ed 	.word	0x100035ed
100036a4:	20000b4c 	.word	0x20000b4c

100036a8 <stdio_uart_init>:
100036a8:	b510      	push	{r4, lr}
100036aa:	490e      	ldr	r1, [pc, #56]	@ (100036e4 <stdio_uart_init+0x3c>)
100036ac:	4c0e      	ldr	r4, [pc, #56]	@ (100036e8 <stdio_uart_init+0x40>)
100036ae:	480f      	ldr	r0, [pc, #60]	@ (100036ec <stdio_uart_init+0x44>)
100036b0:	4a0f      	ldr	r2, [pc, #60]	@ (100036f0 <stdio_uart_init+0x48>)
100036b2:	4b10      	ldr	r3, [pc, #64]	@ (100036f4 <stdio_uart_init+0x4c>)
100036b4:	7800      	ldrb	r0, [r0, #0]
100036b6:	6021      	str	r1, [r4, #0]
100036b8:	2000      	movs	r0, #0
100036ba:	2102      	movs	r1, #2
100036bc:	7812      	ldrb	r2, [r2, #0]
100036be:	781b      	ldrb	r3, [r3, #0]
100036c0:	f7fc fea2 	bl	10000408 <gpio_set_function>
100036c4:	2102      	movs	r1, #2
100036c6:	2001      	movs	r0, #1
100036c8:	f7fc fe9e 	bl	10000408 <gpio_set_function>
100036cc:	f44f 31e1 	mov.w	r1, #115200	@ 0x1c200
100036d0:	6820      	ldr	r0, [r4, #0]
100036d2:	f7fd fda1 	bl	10001218 <uart_init>
100036d6:	e8bd 4010 	ldmia.w	sp!, {r4, lr}
100036da:	2101      	movs	r1, #1
100036dc:	4806      	ldr	r0, [pc, #24]	@ (100036f8 <stdio_uart_init+0x50>)
100036de:	f7ff be29 	b.w	10003334 <stdio_set_driver_enabled>
100036e2:	bf00      	nop
100036e4:	40070000 	.word	0x40070000
100036e8:	20000bcc 	.word	0x20000bcc
100036ec:	10003b00 	.word	0x10003b00
100036f0:	10003afc 	.word	0x10003afc
100036f4:	10003af8 	.word	0x10003af8
100036f8:	20000984 	.word	0x20000984

100036fc <memcpy>:
100036fc:	4684      	mov	ip, r0
100036fe:	ea41 0300 	orr.w	r3, r1, r0
10003702:	f013 0303 	ands.w	r3, r3, #3
10003706:	d149      	bne.n	1000379c <memcpy+0xa0>
10003708:	3a40      	subs	r2, #64	@ 0x40
1000370a:	d323      	bcc.n	10003754 <memcpy+0x58>
1000370c:	680b      	ldr	r3, [r1, #0]
1000370e:	6003      	str	r3, [r0, #0]
10003710:	684b      	ldr	r3, [r1, #4]
10003712:	6043      	str	r3, [r0, #4]
10003714:	688b      	ldr	r3, [r1, #8]
10003716:	6083      	str	r3, [r0, #8]
10003718:	68cb      	ldr	r3, [r1, #12]
1000371a:	60c3      	str	r3, [r0, #12]
1000371c:	690b      	ldr	r3, [r1, #16]
1000371e:	6103      	str	r3, [r0, #16]
10003720:	694b      	ldr	r3, [r1, #20]
10003722:	6143      	str	r3, [r0, #20]
10003724:	698b      	ldr	r3, [r1, #24]
10003726:	6183      	str	r3, [r0, #24]
10003728:	69cb      	ldr	r3, [r1, #28]
1000372a:	61c3      	str	r3, [r0, #28]
1000372c:	6a0b      	ldr	r3, [r1, #32]
1000372e:	6203      	str	r3, [r0, #32]
10003730:	6a4b      	ldr	r3, [r1, #36]	@ 0x24
10003732:	6243      	str	r3, [r0, #36]	@ 0x24
10003734:	6a8b      	ldr	r3, [r1, #40]	@ 0x28
10003736:	6283      	str	r3, [r0, #40]	@ 0x28
10003738:	6acb      	ldr	r3, [r1, #44]	@ 0x2c
1000373a:	62c3      	str	r3, [r0, #44]	@ 0x2c
1000373c:	6b0b      	ldr	r3, [r1, #48]	@ 0x30
1000373e:	6303      	str	r3, [r0, #48]	@ 0x30
10003740:	6b4b      	ldr	r3, [r1, #52]	@ 0x34
10003742:	6343      	str	r3, [r0, #52]	@ 0x34
10003744:	6b8b      	ldr	r3, [r1, #56]	@ 0x38
10003746:	6383      	str	r3, [r0, #56]	@ 0x38
10003748:	6bcb      	ldr	r3, [r1, #60]	@ 0x3c
1000374a:	63c3      	str	r3, [r0, #60]	@ 0x3c
1000374c:	3040      	adds	r0, #64	@ 0x40
1000374e:	3140      	adds	r1, #64	@ 0x40
10003750:	3a40      	subs	r2, #64	@ 0x40
10003752:	d2db      	bcs.n	1000370c <memcpy+0x10>
10003754:	3230      	adds	r2, #48	@ 0x30
10003756:	d30b      	bcc.n	10003770 <memcpy+0x74>
10003758:	680b      	ldr	r3, [r1, #0]
1000375a:	6003      	str	r3, [r0, #0]
1000375c:	684b      	ldr	r3, [r1, #4]
1000375e:	6043      	str	r3, [r0, #4]
10003760:	688b      	ldr	r3, [r1, #8]
10003762:	6083      	str	r3, [r0, #8]
10003764:	68cb      	ldr	r3, [r1, #12]
10003766:	60c3      	str	r3, [r0, #12]
10003768:	3010      	adds	r0, #16
1000376a:	3110      	adds	r1, #16
1000376c:	3a10      	subs	r2, #16
1000376e:	d2f3      	bcs.n	10003758 <memcpy+0x5c>
10003770:	320c      	adds	r2, #12
10003772:	d305      	bcc.n	10003780 <memcpy+0x84>
10003774:	f851 3b04 	ldr.w	r3, [r1], #4
10003778:	f840 3b04 	str.w	r3, [r0], #4
1000377c:	3a04      	subs	r2, #4
1000377e:	d2f9      	bcs.n	10003774 <memcpy+0x78>
10003780:	3204      	adds	r2, #4
10003782:	d008      	beq.n	10003796 <memcpy+0x9a>
10003784:	07d2      	lsls	r2, r2, #31
10003786:	bf1c      	itt	ne
10003788:	f811 3b01 	ldrbne.w	r3, [r1], #1
1000378c:	f800 3b01 	strbne.w	r3, [r0], #1
10003790:	d301      	bcc.n	10003796 <memcpy+0x9a>
10003792:	880b      	ldrh	r3, [r1, #0]
10003794:	8003      	strh	r3, [r0, #0]
10003796:	4660      	mov	r0, ip
10003798:	4770      	bx	lr
1000379a:	bf00      	nop
1000379c:	2a08      	cmp	r2, #8
1000379e:	d313      	bcc.n	100037c8 <memcpy+0xcc>
100037a0:	078b      	lsls	r3, r1, #30
100037a2:	d0b1      	beq.n	10003708 <memcpy+0xc>
100037a4:	f010 0303 	ands.w	r3, r0, #3
100037a8:	d0ae      	beq.n	10003708 <memcpy+0xc>
100037aa:	f1c3 0304 	rsb	r3, r3, #4
100037ae:	1ad2      	subs	r2, r2, r3
100037b0:	07db      	lsls	r3, r3, #31
100037b2:	bf1c      	itt	ne
100037b4:	f811 3b01 	ldrbne.w	r3, [r1], #1
100037b8:	f800 3b01 	strbne.w	r3, [r0], #1
100037bc:	d3a4      	bcc.n	10003708 <memcpy+0xc>
100037be:	f831 3b02 	ldrh.w	r3, [r1], #2
100037c2:	f820 3b02 	strh.w	r3, [r0], #2
100037c6:	e79f      	b.n	10003708 <memcpy+0xc>
100037c8:	3a04      	subs	r2, #4
100037ca:	d3d9      	bcc.n	10003780 <memcpy+0x84>
100037cc:	3a01      	subs	r2, #1
100037ce:	f811 3b01 	ldrb.w	r3, [r1], #1
100037d2:	f800 3b01 	strb.w	r3, [r0], #1
100037d6:	d2f9      	bcs.n	100037cc <memcpy+0xd0>
100037d8:	780b      	ldrb	r3, [r1, #0]
100037da:	7003      	strb	r3, [r0, #0]
100037dc:	784b      	ldrb	r3, [r1, #1]
100037de:	7043      	strb	r3, [r0, #1]
100037e0:	788b      	ldrb	r3, [r1, #2]
100037e2:	7083      	strb	r3, [r0, #2]
100037e4:	4660      	mov	r0, ip
100037e6:	4770      	bx	lr

100037e8 <strlen>:
100037e8:	f020 0103 	bic.w	r1, r0, #3
100037ec:	f010 0003 	ands.w	r0, r0, #3
100037f0:	f1c0 0000 	rsb	r0, r0, #0
100037f4:	f851 3b04 	ldr.w	r3, [r1], #4
100037f8:	f100 0c04 	add.w	ip, r0, #4
100037fc:	ea4f 0ccc 	mov.w	ip, ip, lsl #3
10003800:	f06f 0200 	mvn.w	r2, #0
10003804:	bf1c      	itt	ne
10003806:	fa22 f20c 	lsrne.w	r2, r2, ip
1000380a:	4313      	orrne	r3, r2
1000380c:	f04f 0c01 	mov.w	ip, #1
10003810:	ea4c 2c0c 	orr.w	ip, ip, ip, lsl #8
10003814:	ea4c 4c0c 	orr.w	ip, ip, ip, lsl #16
10003818:	eba3 020c 	sub.w	r2, r3, ip
1000381c:	ea22 0203 	bic.w	r2, r2, r3
10003820:	ea12 12cc 	ands.w	r2, r2, ip, lsl #7
10003824:	bf04      	itt	eq
10003826:	f851 3b04 	ldreq.w	r3, [r1], #4
1000382a:	3004      	addeq	r0, #4
1000382c:	d0f4      	beq.n	10003818 <strlen+0x30>
1000382e:	f1c2 0100 	rsb	r1, r2, #0
10003832:	ea02 0201 	and.w	r2, r2, r1
10003836:	fab2 f282 	clz	r2, r2
1000383a:	f1c2 021f 	rsb	r2, r2, #31
1000383e:	eb00 00d2 	add.w	r0, r0, r2, lsr #3
10003842:	4770      	bx	lr

10003844 <_fini>:
10003844:	b5f8      	push	{r3, r4, r5, r6, r7, lr}
10003846:	bf00      	nop

10003848 <____aeabi_f2d_veneer>:
10003848:	f85f f000 	ldr.w	pc, [pc]	@ 1000384c <____aeabi_f2d_veneer+0x4>
1000384c:	200004e9 	.word	0x200004e9

10003850 <____aeabi_uldivmod_veneer>:
10003850:	f85f f000 	ldr.w	pc, [pc]	@ 10003854 <____aeabi_uldivmod_veneer+0x4>
10003854:	20000599 	.word	0x20000599

10003858 <__mutex_exit_veneer>:
10003858:	f85f f000 	ldr.w	pc, [pc]	@ 1000385c <__mutex_exit_veneer+0x4>
1000385c:	200001e5 	.word	0x200001e5

10003860 <__mutex_try_enter_block_until_veneer>:
10003860:	f85f f000 	ldr.w	pc, [pc]	@ 10003864 <__mutex_try_enter_block_until_veneer+0x4>
10003864:	2000017d 	.word	0x2000017d

10003868 <__pre_init_runtime_init_bootrom_reset>:
10003868:	100015d1                                ....

1000386c <__pre_init_runtime_init_early_resets>:
1000386c:	10001545                                E...

10003870 <__pre_init_runtime_init_usb_power_down>:
10003870:	10001579                                y...

10003874 <__pre_init_runtime_init_clocks>:
10003874:	10001665                                e...

10003878 <__pre_init_runtime_init_post_clock_resets>:
10003878:	100015b1                                ....

1000387c <__pre_init_runtime_init_boot_locks_reset>:
1000387c:	100014c9                                ....

10003880 <__pre_init_runtime_init_spin_locks_reset>:
10003880:	100015f9                                ....

10003884 <__pre_init_runtime_init_bootrom_locking_enable>:
10003884:	100014b5                                ....

10003888 <__pre_init_runtime_init_mutex>:
10003888:	10000905                                ....

1000388c <__pre_init_runtime_init_install_ram_vector_table>:
1000388c:	100015fd                                ....

10003890 <__pre_init_runtime_init_default_alarm_pool>:
10003890:	10000c81                                ....

10003894 <__pre_init_first_per_core_initializer>:
10003894:	10001515                                ....

10003898 <__pre_init_runtime_init_per_core_bootrom_reset>:
10003898:	100015e5                                ....

1000389c <__pre_init_runtime_init_per_core_enable_coprocessors>:
1000389c:	10001595                                ....

100038a0 <__pre_init_spinlock_set_extexclall>:
100038a0:	10000555                                U...

100038a4 <__pre_init_runtime_init_per_core_irq_priorities>:
100038a4:	1000057d                                }...

100038a8 <__frame_dummy_init_array_entry>:
100038a8:	10000211                                ....

Disassembly of section .data:

20000110 <mutex_enter_block_until>:
20000110:	f04f 4150 	mov.w	r1, #3489660928	@ 0xd0000000
20000114:	e92d 41f0 	stmdb	sp!, {r4, r5, r6, r7, r8, lr}
20000118:	2700      	movs	r7, #0
2000011a:	4604      	mov	r4, r0
2000011c:	4616      	mov	r6, r2
2000011e:	461d      	mov	r5, r3
20000120:	f8d1 8000 	ldr.w	r8, [r1]
20000124:	e008      	b.n	20000138 <mutex_enter_block_until+0x28>
20000126:	e8c1 7f8f 	stlb	r7, [r1]
2000012a:	f38c 8810 	msr	PRIMASK, ip
2000012e:	4630      	mov	r0, r6
20000130:	4629      	mov	r1, r5
20000132:	f000 fbf1 	bl	20000918 <__best_effort_wfe_or_timeout_veneer>
20000136:	b9e8      	cbnz	r0, 20000174 <mutex_enter_block_until+0x64>
20000138:	6821      	ldr	r1, [r4, #0]
2000013a:	f3ef 8c10 	mrs	ip, PRIMASK
2000013e:	b672      	cpsid	i
20000140:	e8d1 2fcf 	ldaexb	r2, [r1]
20000144:	2301      	movs	r3, #1
20000146:	2a00      	cmp	r2, #0
20000148:	d1fa      	bne.n	20000140 <mutex_enter_block_until+0x30>
2000014a:	e8c1 3f42 	strexb	r2, r3, [r1]
2000014e:	2a00      	cmp	r2, #0
20000150:	d1f6      	bne.n	20000140 <mutex_enter_block_until+0x30>
20000152:	f3bf 8f5f 	dmb	sy
20000156:	f994 3004 	ldrsb.w	r3, [r4, #4]
2000015a:	6821      	ldr	r1, [r4, #0]
2000015c:	2b00      	cmp	r3, #0
2000015e:	dae2      	bge.n	20000126 <mutex_enter_block_until+0x16>
20000160:	2300      	movs	r3, #0
20000162:	f884 8004 	strb.w	r8, [r4, #4]
20000166:	e8c1 3f8f 	stlb	r3, [r1]
2000016a:	f38c 8810 	msr	PRIMASK, ip
2000016e:	2001      	movs	r0, #1
20000170:	e8bd 81f0 	ldmia.w	sp!, {r4, r5, r6, r7, r8, pc}
20000174:	2000      	movs	r0, #0
20000176:	e8bd 81f0 	ldmia.w	sp!, {r4, r5, r6, r7, r8, pc}
2000017a:	bf00      	nop

2000017c <mutex_try_enter_block_until>:
2000017c:	b530      	push	{r4, r5, lr}
2000017e:	6804      	ldr	r4, [r0, #0]
20000180:	f3ef 8c10 	mrs	ip, PRIMASK
20000184:	b672      	cpsid	i
20000186:	e8d4 efcf 	ldaexb	lr, [r4]
2000018a:	2501      	movs	r5, #1
2000018c:	f1be 0f00 	cmp.w	lr, #0
20000190:	d1f9      	bne.n	20000186 <mutex_try_enter_block_until+0xa>
20000192:	e8c4 5f4e 	strexb	lr, r5, [r4]
20000196:	f1be 0f00 	cmp.w	lr, #0
2000019a:	d1f4      	bne.n	20000186 <mutex_try_enter_block_until+0xa>
2000019c:	f3bf 8f5f 	dmb	sy
200001a0:	f990 4004 	ldrsb.w	r4, [r0, #4]
200001a4:	6805      	ldr	r5, [r0, #0]
200001a6:	2c00      	cmp	r4, #0
200001a8:	db10      	blt.n	200001cc <mutex_try_enter_block_until+0x50>
200001aa:	2100      	movs	r1, #0
200001ac:	e8c5 1f8f 	stlb	r1, [r5]
200001b0:	f38c 8810 	msr	PRIMASK, ip
200001b4:	f04f 4550 	mov.w	r5, #3489660928	@ 0xd0000000
200001b8:	f995 5000 	ldrsb.w	r5, [r5]
200001bc:	42a5      	cmp	r5, r4
200001be:	d101      	bne.n	200001c4 <mutex_try_enter_block_until+0x48>
200001c0:	4608      	mov	r0, r1
200001c2:	bd30      	pop	{r4, r5, pc}
200001c4:	e8bd 4030 	ldmia.w	sp!, {r4, r5, lr}
200001c8:	f7ff bfa2 	b.w	20000110 <mutex_enter_block_until>
200001cc:	f04f 4250 	mov.w	r2, #3489660928	@ 0xd0000000
200001d0:	6812      	ldr	r2, [r2, #0]
200001d2:	2300      	movs	r3, #0
200001d4:	7102      	strb	r2, [r0, #4]
200001d6:	e8c5 3f8f 	stlb	r3, [r5]
200001da:	f38c 8810 	msr	PRIMASK, ip
200001de:	2001      	movs	r0, #1
200001e0:	bd30      	pop	{r4, r5, pc}
200001e2:	bf00      	nop

200001e4 <mutex_exit>:
200001e4:	6803      	ldr	r3, [r0, #0]
200001e6:	f3ef 8210 	mrs	r2, PRIMASK
200001ea:	b672      	cpsid	i
200001ec:	e8d3 cfcf 	ldaexb	ip, [r3]
200001f0:	2101      	movs	r1, #1
200001f2:	f1bc 0f00 	cmp.w	ip, #0
200001f6:	d1f9      	bne.n	200001ec <mutex_exit+0x8>
200001f8:	e8c3 1f4c 	strexb	ip, r1, [r3]
200001fc:	f1bc 0f00 	cmp.w	ip, #0
20000200:	d1f4      	bne.n	200001ec <mutex_exit+0x8>
20000202:	f3bf 8f5f 	dmb	sy
20000206:	f04f 0cff 	mov.w	ip, #255	@ 0xff
2000020a:	2300      	movs	r3, #0
2000020c:	6801      	ldr	r1, [r0, #0]
2000020e:	f880 c004 	strb.w	ip, [r0, #4]
20000212:	e8c1 3f8f 	stlb	r3, [r1]
20000216:	f382 8810 	msr	PRIMASK, r2
2000021a:	bf40      	sev
2000021c:	4770      	bx	lr
2000021e:	bf00      	nop

20000220 <__aeabi_drsub>:
20000220:	f081 4100 	eor.w	r1, r1, #2147483648	@ 0x80000000
20000224:	e002      	b.n	2000022c <__adddf3>
20000226:	bf00      	nop

20000228 <__aeabi_dsub>:
20000228:	f083 4300 	eor.w	r3, r3, #2147483648	@ 0x80000000

2000022c <__adddf3>:
2000022c:	b530      	push	{r4, r5, lr}
2000022e:	ea4f 0441 	mov.w	r4, r1, lsl #1
20000232:	ea4f 0543 	mov.w	r5, r3, lsl #1
20000236:	ea94 0f05 	teq	r4, r5
2000023a:	bf08      	it	eq
2000023c:	ea90 0f02 	teqeq	r0, r2
20000240:	bf1f      	itttt	ne
20000242:	ea54 0c00 	orrsne.w	ip, r4, r0
20000246:	ea55 0c02 	orrsne.w	ip, r5, r2
2000024a:	ea7f 5c64 	mvnsne.w	ip, r4, asr #21
2000024e:	ea7f 5c65 	mvnsne.w	ip, r5, asr #21
20000252:	f000 80e2 	beq.w	2000041a <__adddf3+0x1ee>
20000256:	ea4f 5454 	mov.w	r4, r4, lsr #21
2000025a:	ebd4 5555 	rsbs	r5, r4, r5, lsr #21
2000025e:	bfb8      	it	lt
20000260:	426d      	neglt	r5, r5
20000262:	dd0c      	ble.n	2000027e <__adddf3+0x52>
20000264:	442c      	add	r4, r5
20000266:	ea80 0202 	eor.w	r2, r0, r2
2000026a:	ea81 0303 	eor.w	r3, r1, r3
2000026e:	ea82 0000 	eor.w	r0, r2, r0
20000272:	ea83 0101 	eor.w	r1, r3, r1
20000276:	ea80 0202 	eor.w	r2, r0, r2
2000027a:	ea81 0303 	eor.w	r3, r1, r3
2000027e:	2d36      	cmp	r5, #54	@ 0x36
20000280:	bf88      	it	hi
20000282:	bd30      	pophi	{r4, r5, pc}
20000284:	f011 4f00 	tst.w	r1, #2147483648	@ 0x80000000
20000288:	ea4f 3101 	mov.w	r1, r1, lsl #12
2000028c:	f44f 1c80 	mov.w	ip, #1048576	@ 0x100000
20000290:	ea4c 3111 	orr.w	r1, ip, r1, lsr #12
20000294:	d002      	beq.n	2000029c <__adddf3+0x70>
20000296:	4240      	negs	r0, r0
20000298:	eb61 0141 	sbc.w	r1, r1, r1, lsl #1
2000029c:	f013 4f00 	tst.w	r3, #2147483648	@ 0x80000000
200002a0:	ea4f 3303 	mov.w	r3, r3, lsl #12
200002a4:	ea4c 3313 	orr.w	r3, ip, r3, lsr #12
200002a8:	d002      	beq.n	200002b0 <__adddf3+0x84>
200002aa:	4252      	negs	r2, r2
200002ac:	eb63 0343 	sbc.w	r3, r3, r3, lsl #1
200002b0:	ea94 0f05 	teq	r4, r5
200002b4:	f000 80a7 	beq.w	20000406 <__adddf3+0x1da>
200002b8:	f1a4 0401 	sub.w	r4, r4, #1
200002bc:	f1d5 0e20 	rsbs	lr, r5, #32
200002c0:	db0d      	blt.n	200002de <__adddf3+0xb2>
200002c2:	fa02 fc0e 	lsl.w	ip, r2, lr
200002c6:	fa22 f205 	lsr.w	r2, r2, r5
200002ca:	1880      	adds	r0, r0, r2
200002cc:	f141 0100 	adc.w	r1, r1, #0
200002d0:	fa03 f20e 	lsl.w	r2, r3, lr
200002d4:	1880      	adds	r0, r0, r2
200002d6:	fa43 f305 	asr.w	r3, r3, r5
200002da:	4159      	adcs	r1, r3
200002dc:	e00e      	b.n	200002fc <__adddf3+0xd0>
200002de:	f1a5 0520 	sub.w	r5, r5, #32
200002e2:	f10e 0e20 	add.w	lr, lr, #32
200002e6:	2a01      	cmp	r2, #1
200002e8:	fa03 fc0e 	lsl.w	ip, r3, lr
200002ec:	bf28      	it	cs
200002ee:	f04c 0c02 	orrcs.w	ip, ip, #2
200002f2:	fa43 f305 	asr.w	r3, r3, r5
200002f6:	18c0      	adds	r0, r0, r3
200002f8:	eb51 71e3 	adcs.w	r1, r1, r3, asr #31
200002fc:	f001 4500 	and.w	r5, r1, #2147483648	@ 0x80000000
20000300:	d507      	bpl.n	20000312 <__adddf3+0xe6>
20000302:	f04f 0e00 	mov.w	lr, #0
20000306:	f1dc 0c00 	rsbs	ip, ip, #0
2000030a:	eb7e 0000 	sbcs.w	r0, lr, r0
2000030e:	eb6e 0101 	sbc.w	r1, lr, r1
20000312:	f5b1 1f80 	cmp.w	r1, #1048576	@ 0x100000
20000316:	d31b      	bcc.n	20000350 <__adddf3+0x124>
20000318:	f5b1 1f00 	cmp.w	r1, #2097152	@ 0x200000
2000031c:	d30c      	bcc.n	20000338 <__adddf3+0x10c>
2000031e:	0849      	lsrs	r1, r1, #1
20000320:	ea5f 0030 	movs.w	r0, r0, rrx
20000324:	ea4f 0c3c 	mov.w	ip, ip, rrx
20000328:	f104 0401 	add.w	r4, r4, #1
2000032c:	ea4f 5244 	mov.w	r2, r4, lsl #21
20000330:	f512 0f80 	cmn.w	r2, #4194304	@ 0x400000
20000334:	f080 809a 	bcs.w	2000046c <__adddf3+0x240>
20000338:	f1bc 4f00 	cmp.w	ip, #2147483648	@ 0x80000000
2000033c:	bf08      	it	eq
2000033e:	ea5f 0c50 	movseq.w	ip, r0, lsr #1
20000342:	f150 0000 	adcs.w	r0, r0, #0
20000346:	eb41 5104 	adc.w	r1, r1, r4, lsl #20
2000034a:	ea41 0105 	orr.w	r1, r1, r5
2000034e:	bd30      	pop	{r4, r5, pc}
20000350:	ea5f 0c4c 	movs.w	ip, ip, lsl #1
20000354:	4140      	adcs	r0, r0
20000356:	eb41 0101 	adc.w	r1, r1, r1
2000035a:	3c01      	subs	r4, #1
2000035c:	bf28      	it	cs
2000035e:	f5b1 1f80 	cmpcs.w	r1, #1048576	@ 0x100000
20000362:	d2e9      	bcs.n	20000338 <__adddf3+0x10c>
20000364:	f091 0f00 	teq	r1, #0
20000368:	bf04      	itt	eq
2000036a:	4601      	moveq	r1, r0
2000036c:	2000      	moveq	r0, #0
2000036e:	fab1 f381 	clz	r3, r1
20000372:	bf08      	it	eq
20000374:	3320      	addeq	r3, #32
20000376:	f1a3 030b 	sub.w	r3, r3, #11
2000037a:	f1b3 0220 	subs.w	r2, r3, #32
2000037e:	da0c      	bge.n	2000039a <__adddf3+0x16e>
20000380:	320c      	adds	r2, #12
20000382:	dd08      	ble.n	20000396 <__adddf3+0x16a>
20000384:	f102 0c14 	add.w	ip, r2, #20
20000388:	f1c2 020c 	rsb	r2, r2, #12
2000038c:	fa01 f00c 	lsl.w	r0, r1, ip
20000390:	fa21 f102 	lsr.w	r1, r1, r2
20000394:	e00c      	b.n	200003b0 <__adddf3+0x184>
20000396:	f102 0214 	add.w	r2, r2, #20
2000039a:	bfd8      	it	le
2000039c:	f1c2 0c20 	rsble	ip, r2, #32
200003a0:	fa01 f102 	lsl.w	r1, r1, r2
200003a4:	fa20 fc0c 	lsr.w	ip, r0, ip
200003a8:	bfdc      	itt	le
200003aa:	ea41 010c 	orrle.w	r1, r1, ip
200003ae:	4090      	lslle	r0, r2
200003b0:	1ae4      	subs	r4, r4, r3
200003b2:	bfa2      	ittt	ge
200003b4:	eb01 5104 	addge.w	r1, r1, r4, lsl #20
200003b8:	4329      	orrge	r1, r5
200003ba:	bd30      	popge	{r4, r5, pc}
200003bc:	ea6f 0404 	mvn.w	r4, r4
200003c0:	3c1f      	subs	r4, #31
200003c2:	da1c      	bge.n	200003fe <__adddf3+0x1d2>
200003c4:	340c      	adds	r4, #12
200003c6:	dc0e      	bgt.n	200003e6 <__adddf3+0x1ba>
200003c8:	f104 0414 	add.w	r4, r4, #20
200003cc:	f1c4 0220 	rsb	r2, r4, #32
200003d0:	fa20 f004 	lsr.w	r0, r0, r4
200003d4:	fa01 f302 	lsl.w	r3, r1, r2
200003d8:	ea40 0003 	orr.w	r0, r0, r3
200003dc:	fa21 f304 	lsr.w	r3, r1, r4
200003e0:	ea45 0103 	orr.w	r1, r5, r3
200003e4:	bd30      	pop	{r4, r5, pc}
200003e6:	f1c4 040c 	rsb	r4, r4, #12
200003ea:	f1c4 0220 	rsb	r2, r4, #32
200003ee:	fa20 f002 	lsr.w	r0, r0, r2
200003f2:	fa01 f304 	lsl.w	r3, r1, r4
200003f6:	ea40 0003 	orr.w	r0, r0, r3
200003fa:	4629      	mov	r1, r5
200003fc:	bd30      	pop	{r4, r5, pc}
200003fe:	fa21 f004 	lsr.w	r0, r1, r4
20000402:	4629      	mov	r1, r5
20000404:	bd30      	pop	{r4, r5, pc}
20000406:	f094 0f00 	teq	r4, #0
2000040a:	f483 1380 	eor.w	r3, r3, #1048576	@ 0x100000
2000040e:	bf06      	itte	eq
20000410:	f481 1180 	eoreq.w	r1, r1, #1048576	@ 0x100000
20000414:	3401      	addeq	r4, #1
20000416:	3d01      	subne	r5, #1
20000418:	e74e      	b.n	200002b8 <__adddf3+0x8c>
2000041a:	ea7f 5c64 	mvns.w	ip, r4, asr #21
2000041e:	bf18      	it	ne
20000420:	ea7f 5c65 	mvnsne.w	ip, r5, asr #21
20000424:	d029      	beq.n	2000047a <__adddf3+0x24e>
20000426:	ea94 0f05 	teq	r4, r5
2000042a:	bf08      	it	eq
2000042c:	ea90 0f02 	teqeq	r0, r2
20000430:	d005      	beq.n	2000043e <__adddf3+0x212>
20000432:	ea54 0c00 	orrs.w	ip, r4, r0
20000436:	bf04      	itt	eq
20000438:	4619      	moveq	r1, r3
2000043a:	4610      	moveq	r0, r2
2000043c:	bd30      	pop	{r4, r5, pc}
2000043e:	ea91 0f03 	teq	r1, r3
20000442:	bf1e      	ittt	ne
20000444:	2100      	movne	r1, #0
20000446:	2000      	movne	r0, #0
20000448:	bd30      	popne	{r4, r5, pc}
2000044a:	ea5f 5c54 	movs.w	ip, r4, lsr #21
2000044e:	d105      	bne.n	2000045c <__adddf3+0x230>
20000450:	0040      	lsls	r0, r0, #1
20000452:	4149      	adcs	r1, r1
20000454:	bf28      	it	cs
20000456:	f041 4100 	orrcs.w	r1, r1, #2147483648	@ 0x80000000
2000045a:	bd30      	pop	{r4, r5, pc}
2000045c:	f514 0480 	adds.w	r4, r4, #4194304	@ 0x400000
20000460:	bf3c      	itt	cc
20000462:	f501 1180 	addcc.w	r1, r1, #1048576	@ 0x100000
20000466:	bd30      	popcc	{r4, r5, pc}
20000468:	f001 4500 	and.w	r5, r1, #2147483648	@ 0x80000000
2000046c:	f045 41fe 	orr.w	r1, r5, #2130706432	@ 0x7f000000
20000470:	f441 0170 	orr.w	r1, r1, #15728640	@ 0xf00000
20000474:	f04f 0000 	mov.w	r0, #0
20000478:	bd30      	pop	{r4, r5, pc}
2000047a:	ea7f 5c64 	mvns.w	ip, r4, asr #21
2000047e:	bf1a      	itte	ne
20000480:	4619      	movne	r1, r3
20000482:	4610      	movne	r0, r2
20000484:	ea7f 5c65 	mvnseq.w	ip, r5, asr #21
20000488:	bf1c      	itt	ne
2000048a:	460b      	movne	r3, r1
2000048c:	4602      	movne	r2, r0
2000048e:	ea50 3401 	orrs.w	r4, r0, r1, lsl #12
20000492:	bf06      	itte	eq
20000494:	ea52 3503 	orrseq.w	r5, r2, r3, lsl #12
20000498:	ea91 0f03 	teqeq	r1, r3
2000049c:	f441 2100 	orrne.w	r1, r1, #524288	@ 0x80000
200004a0:	bd30      	pop	{r4, r5, pc}
200004a2:	bf00      	nop

200004a4 <__aeabi_ui2d>:
200004a4:	f090 0f00 	teq	r0, #0
200004a8:	bf04      	itt	eq
200004aa:	2100      	moveq	r1, #0
200004ac:	4770      	bxeq	lr
200004ae:	b530      	push	{r4, r5, lr}
200004b0:	f44f 6480 	mov.w	r4, #1024	@ 0x400
200004b4:	f104 0432 	add.w	r4, r4, #50	@ 0x32
200004b8:	f04f 0500 	mov.w	r5, #0
200004bc:	f04f 0100 	mov.w	r1, #0
200004c0:	e750      	b.n	20000364 <__adddf3+0x138>
200004c2:	bf00      	nop

200004c4 <__aeabi_i2d>:
200004c4:	f090 0f00 	teq	r0, #0
200004c8:	bf04      	itt	eq
200004ca:	2100      	moveq	r1, #0
200004cc:	4770      	bxeq	lr
200004ce:	b530      	push	{r4, r5, lr}
200004d0:	f44f 6480 	mov.w	r4, #1024	@ 0x400
200004d4:	f104 0432 	add.w	r4, r4, #50	@ 0x32
200004d8:	f010 4500 	ands.w	r5, r0, #2147483648	@ 0x80000000
200004dc:	bf48      	it	mi
200004de:	4240      	negmi	r0, r0
200004e0:	f04f 0100 	mov.w	r1, #0
200004e4:	e73e      	b.n	20000364 <__adddf3+0x138>
200004e6:	bf00      	nop

200004e8 <__aeabi_f2d>:
200004e8:	0042      	lsls	r2, r0, #1
200004ea:	ea4f 01e2 	mov.w	r1, r2, asr #3
200004ee:	ea4f 0131 	mov.w	r1, r1, rrx
200004f2:	ea4f 7002 	mov.w	r0, r2, lsl #28
200004f6:	bf1f      	itttt	ne
200004f8:	f012 437f 	andsne.w	r3, r2, #4278190080	@ 0xff000000
200004fc:	f093 4f7f 	teqne	r3, #4278190080	@ 0xff000000
20000500:	f081 5160 	eorne.w	r1, r1, #939524096	@ 0x38000000
20000504:	4770      	bxne	lr
20000506:	f032 427f 	bics.w	r2, r2, #4278190080	@ 0xff000000
2000050a:	bf08      	it	eq
2000050c:	4770      	bxeq	lr
2000050e:	f093 4f7f 	teq	r3, #4278190080	@ 0xff000000
20000512:	bf04      	itt	eq
20000514:	f441 2100 	orreq.w	r1, r1, #524288	@ 0x80000
20000518:	4770      	bxeq	lr
2000051a:	b530      	push	{r4, r5, lr}
2000051c:	f44f 7460 	mov.w	r4, #896	@ 0x380
20000520:	f001 4500 	and.w	r5, r1, #2147483648	@ 0x80000000
20000524:	f021 4100 	bic.w	r1, r1, #2147483648	@ 0x80000000
20000528:	e71c      	b.n	20000364 <__adddf3+0x138>
2000052a:	bf00      	nop

2000052c <__aeabi_ul2d>:
2000052c:	ea50 0201 	orrs.w	r2, r0, r1
20000530:	bf08      	it	eq
20000532:	4770      	bxeq	lr
20000534:	b530      	push	{r4, r5, lr}
20000536:	f04f 0500 	mov.w	r5, #0
2000053a:	e00a      	b.n	20000552 <__aeabi_l2d+0x16>

2000053c <__aeabi_l2d>:
2000053c:	ea50 0201 	orrs.w	r2, r0, r1
20000540:	bf08      	it	eq
20000542:	4770      	bxeq	lr
20000544:	b530      	push	{r4, r5, lr}
20000546:	f011 4500 	ands.w	r5, r1, #2147483648	@ 0x80000000
2000054a:	d502      	bpl.n	20000552 <__aeabi_l2d+0x16>
2000054c:	4240      	negs	r0, r0
2000054e:	eb61 0141 	sbc.w	r1, r1, r1, lsl #1
20000552:	f44f 6480 	mov.w	r4, #1024	@ 0x400
20000556:	f104 0432 	add.w	r4, r4, #50	@ 0x32
2000055a:	ea5f 5c91 	movs.w	ip, r1, lsr #22
2000055e:	f43f aed8 	beq.w	20000312 <__adddf3+0xe6>
20000562:	f04f 0203 	mov.w	r2, #3
20000566:	ea5f 0cdc 	movs.w	ip, ip, lsr #3
2000056a:	bf18      	it	ne
2000056c:	3203      	addne	r2, #3
2000056e:	ea5f 0cdc 	movs.w	ip, ip, lsr #3
20000572:	bf18      	it	ne
20000574:	3203      	addne	r2, #3
20000576:	eb02 02dc 	add.w	r2, r2, ip, lsr #3
2000057a:	f1c2 0320 	rsb	r3, r2, #32
2000057e:	fa00 fc03 	lsl.w	ip, r0, r3
20000582:	fa20 f002 	lsr.w	r0, r0, r2
20000586:	fa01 fe03 	lsl.w	lr, r1, r3
2000058a:	ea40 000e 	orr.w	r0, r0, lr
2000058e:	fa21 f102 	lsr.w	r1, r1, r2
20000592:	4414      	add	r4, r2
20000594:	e6bd      	b.n	20000312 <__adddf3+0xe6>
20000596:	bf00      	nop

20000598 <__aeabi_uldivmod>:
20000598:	b953      	cbnz	r3, 200005b0 <__aeabi_uldivmod+0x18>
2000059a:	b94a      	cbnz	r2, 200005b0 <__aeabi_uldivmod+0x18>
2000059c:	2900      	cmp	r1, #0
2000059e:	bf08      	it	eq
200005a0:	2800      	cmpeq	r0, #0
200005a2:	bf1c      	itt	ne
200005a4:	f04f 31ff 	movne.w	r1, #4294967295
200005a8:	f04f 30ff 	movne.w	r0, #4294967295
200005ac:	f000 b9b2 	b.w	20000914 <__aeabi_idiv0>
200005b0:	f1ad 0c08 	sub.w	ip, sp, #8
200005b4:	e96d ce04 	strd	ip, lr, [sp, #-16]!
200005b8:	f000 f806 	bl	200005c8 <__udivmoddi4>
200005bc:	f8dd e004 	ldr.w	lr, [sp, #4]
200005c0:	e9dd 2302 	ldrd	r2, r3, [sp, #8]
200005c4:	b004      	add	sp, #16
200005c6:	4770      	bx	lr

200005c8 <__udivmoddi4>:
200005c8:	e92d 4ff0 	stmdb	sp!, {r4, r5, r6, r7, r8, r9, sl, fp, lr}
200005cc:	468c      	mov	ip, r1
200005ce:	9e09      	ldr	r6, [sp, #36]	@ 0x24
200005d0:	4604      	mov	r4, r0
200005d2:	460f      	mov	r7, r1
200005d4:	2b00      	cmp	r3, #0
200005d6:	d148      	bne.n	2000066a <__udivmoddi4+0xa2>
200005d8:	428a      	cmp	r2, r1
200005da:	4615      	mov	r5, r2
200005dc:	d95e      	bls.n	2000069c <__udivmoddi4+0xd4>
200005de:	fab2 f382 	clz	r3, r2
200005e2:	b13b      	cbz	r3, 200005f4 <__udivmoddi4+0x2c>
200005e4:	f1c3 0220 	rsb	r2, r3, #32
200005e8:	409f      	lsls	r7, r3
200005ea:	409d      	lsls	r5, r3
200005ec:	409c      	lsls	r4, r3
200005ee:	fa20 f202 	lsr.w	r2, r0, r2
200005f2:	4317      	orrs	r7, r2
200005f4:	ea4f 4e15 	mov.w	lr, r5, lsr #16
200005f8:	fa1f fc85 	uxth.w	ip, r5
200005fc:	0c22      	lsrs	r2, r4, #16
200005fe:	fbb7 f1fe 	udiv	r1, r7, lr
20000602:	fb0e 7711 	mls	r7, lr, r1, r7
20000606:	fb01 f00c 	mul.w	r0, r1, ip
2000060a:	ea42 4207 	orr.w	r2, r2, r7, lsl #16
2000060e:	4290      	cmp	r0, r2
20000610:	d907      	bls.n	20000622 <__udivmoddi4+0x5a>
20000612:	18aa      	adds	r2, r5, r2
20000614:	f101 37ff 	add.w	r7, r1, #4294967295
20000618:	d202      	bcs.n	20000620 <__udivmoddi4+0x58>
2000061a:	4290      	cmp	r0, r2
2000061c:	f200 8158 	bhi.w	200008d0 <__udivmoddi4+0x308>
20000620:	4639      	mov	r1, r7
20000622:	1a12      	subs	r2, r2, r0
20000624:	b2a4      	uxth	r4, r4
20000626:	fbb2 f0fe 	udiv	r0, r2, lr
2000062a:	fb0e 2210 	mls	r2, lr, r0, r2
2000062e:	fb00 fc0c 	mul.w	ip, r0, ip
20000632:	ea44 4402 	orr.w	r4, r4, r2, lsl #16
20000636:	45a4      	cmp	ip, r4
20000638:	d90b      	bls.n	20000652 <__udivmoddi4+0x8a>
2000063a:	192c      	adds	r4, r5, r4
2000063c:	f100 32ff 	add.w	r2, r0, #4294967295
20000640:	bf2c      	ite	cs
20000642:	2701      	movcs	r7, #1
20000644:	2700      	movcc	r7, #0
20000646:	45a4      	cmp	ip, r4
20000648:	d902      	bls.n	20000650 <__udivmoddi4+0x88>
2000064a:	2f00      	cmp	r7, #0
2000064c:	f000 8143 	beq.w	200008d6 <__udivmoddi4+0x30e>
20000650:	4610      	mov	r0, r2
20000652:	ea40 4001 	orr.w	r0, r0, r1, lsl #16
20000656:	eba4 040c 	sub.w	r4, r4, ip
2000065a:	2100      	movs	r1, #0
2000065c:	b11e      	cbz	r6, 20000666 <__udivmoddi4+0x9e>
2000065e:	40dc      	lsrs	r4, r3
20000660:	2300      	movs	r3, #0
20000662:	e9c6 4300 	strd	r4, r3, [r6]
20000666:	e8bd 8ff0 	ldmia.w	sp!, {r4, r5, r6, r7, r8, r9, sl, fp, pc}
2000066a:	428b      	cmp	r3, r1
2000066c:	d906      	bls.n	2000067c <__udivmoddi4+0xb4>
2000066e:	b10e      	cbz	r6, 20000674 <__udivmoddi4+0xac>
20000670:	e9c6 0100 	strd	r0, r1, [r6]
20000674:	2100      	movs	r1, #0
20000676:	4608      	mov	r0, r1
20000678:	e8bd 8ff0 	ldmia.w	sp!, {r4, r5, r6, r7, r8, r9, sl, fp, pc}
2000067c:	fab3 f183 	clz	r1, r3
20000680:	2900      	cmp	r1, #0
20000682:	d151      	bne.n	20000728 <__udivmoddi4+0x160>
20000684:	4563      	cmp	r3, ip
20000686:	f0c0 8116 	bcc.w	200008b6 <__udivmoddi4+0x2ee>
2000068a:	4282      	cmp	r2, r0
2000068c:	f240 8113 	bls.w	200008b6 <__udivmoddi4+0x2ee>
20000690:	4608      	mov	r0, r1
20000692:	2e00      	cmp	r6, #0
20000694:	d0e7      	beq.n	20000666 <__udivmoddi4+0x9e>
20000696:	e9c6 4700 	strd	r4, r7, [r6]
2000069a:	e7e4      	b.n	20000666 <__udivmoddi4+0x9e>
2000069c:	2a00      	cmp	r2, #0
2000069e:	f000 80af 	beq.w	20000800 <__udivmoddi4+0x238>
200006a2:	fab2 f382 	clz	r3, r2
200006a6:	2b00      	cmp	r3, #0
200006a8:	f040 80c2 	bne.w	20000830 <__udivmoddi4+0x268>
200006ac:	1a8a      	subs	r2, r1, r2
200006ae:	ea4f 4e15 	mov.w	lr, r5, lsr #16
200006b2:	b2af      	uxth	r7, r5
200006b4:	2101      	movs	r1, #1
200006b6:	0c20      	lsrs	r0, r4, #16
200006b8:	fbb2 fcfe 	udiv	ip, r2, lr
200006bc:	fb0e 221c 	mls	r2, lr, ip, r2
200006c0:	ea40 4202 	orr.w	r2, r0, r2, lsl #16
200006c4:	fb07 f00c 	mul.w	r0, r7, ip
200006c8:	4290      	cmp	r0, r2
200006ca:	d90e      	bls.n	200006ea <__udivmoddi4+0x122>
200006cc:	18aa      	adds	r2, r5, r2
200006ce:	f10c 38ff 	add.w	r8, ip, #4294967295
200006d2:	bf2c      	ite	cs
200006d4:	f04f 0901 	movcs.w	r9, #1
200006d8:	f04f 0900 	movcc.w	r9, #0
200006dc:	4290      	cmp	r0, r2
200006de:	d903      	bls.n	200006e8 <__udivmoddi4+0x120>
200006e0:	f1b9 0f00 	cmp.w	r9, #0
200006e4:	f000 80f0 	beq.w	200008c8 <__udivmoddi4+0x300>
200006e8:	46c4      	mov	ip, r8
200006ea:	1a12      	subs	r2, r2, r0
200006ec:	b2a4      	uxth	r4, r4
200006ee:	fbb2 f0fe 	udiv	r0, r2, lr
200006f2:	fb0e 2210 	mls	r2, lr, r0, r2
200006f6:	fb00 f707 	mul.w	r7, r0, r7
200006fa:	ea44 4402 	orr.w	r4, r4, r2, lsl #16
200006fe:	42a7      	cmp	r7, r4
20000700:	d90e      	bls.n	20000720 <__udivmoddi4+0x158>
20000702:	192c      	adds	r4, r5, r4
20000704:	f100 32ff 	add.w	r2, r0, #4294967295
20000708:	bf2c      	ite	cs
2000070a:	f04f 0e01 	movcs.w	lr, #1
2000070e:	f04f 0e00 	movcc.w	lr, #0
20000712:	42a7      	cmp	r7, r4
20000714:	d903      	bls.n	2000071e <__udivmoddi4+0x156>
20000716:	f1be 0f00 	cmp.w	lr, #0
2000071a:	f000 80d2 	beq.w	200008c2 <__udivmoddi4+0x2fa>
2000071e:	4610      	mov	r0, r2
20000720:	1be4      	subs	r4, r4, r7
20000722:	ea40 400c 	orr.w	r0, r0, ip, lsl #16
20000726:	e799      	b.n	2000065c <__udivmoddi4+0x94>
20000728:	f1c1 0520 	rsb	r5, r1, #32
2000072c:	408b      	lsls	r3, r1
2000072e:	fa0c f401 	lsl.w	r4, ip, r1
20000732:	fa00 f901 	lsl.w	r9, r0, r1
20000736:	fa22 f705 	lsr.w	r7, r2, r5
2000073a:	fa2c fc05 	lsr.w	ip, ip, r5
2000073e:	408a      	lsls	r2, r1
20000740:	431f      	orrs	r7, r3
20000742:	fa20 f305 	lsr.w	r3, r0, r5
20000746:	0c38      	lsrs	r0, r7, #16
20000748:	4323      	orrs	r3, r4
2000074a:	fa1f fe87 	uxth.w	lr, r7
2000074e:	0c1c      	lsrs	r4, r3, #16
20000750:	fbbc f8f0 	udiv	r8, ip, r0
20000754:	fb00 cc18 	mls	ip, r0, r8, ip
20000758:	ea44 440c 	orr.w	r4, r4, ip, lsl #16
2000075c:	fb08 fc0e 	mul.w	ip, r8, lr
20000760:	45a4      	cmp	ip, r4
20000762:	d90e      	bls.n	20000782 <__udivmoddi4+0x1ba>
20000764:	193c      	adds	r4, r7, r4
20000766:	f108 3aff 	add.w	sl, r8, #4294967295
2000076a:	bf2c      	ite	cs
2000076c:	f04f 0b01 	movcs.w	fp, #1
20000770:	f04f 0b00 	movcc.w	fp, #0
20000774:	45a4      	cmp	ip, r4
20000776:	d903      	bls.n	20000780 <__udivmoddi4+0x1b8>
20000778:	f1bb 0f00 	cmp.w	fp, #0
2000077c:	f000 80b8 	beq.w	200008f0 <__udivmoddi4+0x328>
20000780:	46d0      	mov	r8, sl
20000782:	eba4 040c 	sub.w	r4, r4, ip
20000786:	fa1f fc83 	uxth.w	ip, r3
2000078a:	fbb4 f3f0 	udiv	r3, r4, r0
2000078e:	fb00 4413 	mls	r4, r0, r3, r4
20000792:	fb03 fe0e 	mul.w	lr, r3, lr
20000796:	ea4c 4404 	orr.w	r4, ip, r4, lsl #16
2000079a:	45a6      	cmp	lr, r4
2000079c:	d90e      	bls.n	200007bc <__udivmoddi4+0x1f4>
2000079e:	193c      	adds	r4, r7, r4
200007a0:	f103 30ff 	add.w	r0, r3, #4294967295
200007a4:	bf2c      	ite	cs
200007a6:	f04f 0c01 	movcs.w	ip, #1
200007aa:	f04f 0c00 	movcc.w	ip, #0
200007ae:	45a6      	cmp	lr, r4
200007b0:	d903      	bls.n	200007ba <__udivmoddi4+0x1f2>
200007b2:	f1bc 0f00 	cmp.w	ip, #0
200007b6:	f000 809f 	beq.w	200008f8 <__udivmoddi4+0x330>
200007ba:	4603      	mov	r3, r0
200007bc:	ea43 4008 	orr.w	r0, r3, r8, lsl #16
200007c0:	eba4 040e 	sub.w	r4, r4, lr
200007c4:	fba0 ec02 	umull	lr, ip, r0, r2
200007c8:	4564      	cmp	r4, ip
200007ca:	4673      	mov	r3, lr
200007cc:	46e0      	mov	r8, ip
200007ce:	d302      	bcc.n	200007d6 <__udivmoddi4+0x20e>
200007d0:	d107      	bne.n	200007e2 <__udivmoddi4+0x21a>
200007d2:	45f1      	cmp	r9, lr
200007d4:	d205      	bcs.n	200007e2 <__udivmoddi4+0x21a>
200007d6:	ebbe 0302 	subs.w	r3, lr, r2
200007da:	eb6c 0c07 	sbc.w	ip, ip, r7
200007de:	3801      	subs	r0, #1
200007e0:	46e0      	mov	r8, ip
200007e2:	b15e      	cbz	r6, 200007fc <__udivmoddi4+0x234>
200007e4:	ebb9 0203 	subs.w	r2, r9, r3
200007e8:	eb64 0408 	sbc.w	r4, r4, r8
200007ec:	fa04 f505 	lsl.w	r5, r4, r5
200007f0:	fa22 f301 	lsr.w	r3, r2, r1
200007f4:	40cc      	lsrs	r4, r1
200007f6:	431d      	orrs	r5, r3
200007f8:	e9c6 5400 	strd	r5, r4, [r6]
200007fc:	2100      	movs	r1, #0
200007fe:	e732      	b.n	20000666 <__udivmoddi4+0x9e>
20000800:	0842      	lsrs	r2, r0, #1
20000802:	462f      	mov	r7, r5
20000804:	084b      	lsrs	r3, r1, #1
20000806:	46ac      	mov	ip, r5
20000808:	ea42 72c1 	orr.w	r2, r2, r1, lsl #31
2000080c:	46ae      	mov	lr, r5
2000080e:	07c4      	lsls	r4, r0, #31
20000810:	0c11      	lsrs	r1, r2, #16
20000812:	b292      	uxth	r2, r2
20000814:	ea41 4103 	orr.w	r1, r1, r3, lsl #16
20000818:	ea42 4201 	orr.w	r2, r2, r1, lsl #16
2000081c:	fbb1 f1f5 	udiv	r1, r1, r5
20000820:	fbb3 f0f5 	udiv	r0, r3, r5
20000824:	231f      	movs	r3, #31
20000826:	eba2 020c 	sub.w	r2, r2, ip
2000082a:	ea41 4100 	orr.w	r1, r1, r0, lsl #16
2000082e:	e742      	b.n	200006b6 <__udivmoddi4+0xee>
20000830:	409d      	lsls	r5, r3
20000832:	f1c3 0220 	rsb	r2, r3, #32
20000836:	4099      	lsls	r1, r3
20000838:	409c      	lsls	r4, r3
2000083a:	fa2c fc02 	lsr.w	ip, ip, r2
2000083e:	ea4f 4e15 	mov.w	lr, r5, lsr #16
20000842:	fa20 f202 	lsr.w	r2, r0, r2
20000846:	b2af      	uxth	r7, r5
20000848:	fbbc f8fe 	udiv	r8, ip, lr
2000084c:	430a      	orrs	r2, r1
2000084e:	fb0e cc18 	mls	ip, lr, r8, ip
20000852:	0c11      	lsrs	r1, r2, #16
20000854:	ea41 410c 	orr.w	r1, r1, ip, lsl #16
20000858:	fb08 fc07 	mul.w	ip, r8, r7
2000085c:	458c      	cmp	ip, r1
2000085e:	d950      	bls.n	20000902 <__udivmoddi4+0x33a>
20000860:	1869      	adds	r1, r5, r1
20000862:	f108 30ff 	add.w	r0, r8, #4294967295
20000866:	bf2c      	ite	cs
20000868:	f04f 0901 	movcs.w	r9, #1
2000086c:	f04f 0900 	movcc.w	r9, #0
20000870:	458c      	cmp	ip, r1
20000872:	d902      	bls.n	2000087a <__udivmoddi4+0x2b2>
20000874:	f1b9 0f00 	cmp.w	r9, #0
20000878:	d030      	beq.n	200008dc <__udivmoddi4+0x314>
2000087a:	eba1 010c 	sub.w	r1, r1, ip
2000087e:	fbb1 f8fe 	udiv	r8, r1, lr
20000882:	fb08 fc07 	mul.w	ip, r8, r7
20000886:	fb0e 1118 	mls	r1, lr, r8, r1
2000088a:	b292      	uxth	r2, r2
2000088c:	ea42 4201 	orr.w	r2, r2, r1, lsl #16
20000890:	4562      	cmp	r2, ip
20000892:	d234      	bcs.n	200008fe <__udivmoddi4+0x336>
20000894:	18aa      	adds	r2, r5, r2
20000896:	f108 31ff 	add.w	r1, r8, #4294967295
2000089a:	bf2c      	ite	cs
2000089c:	f04f 0901 	movcs.w	r9, #1
200008a0:	f04f 0900 	movcc.w	r9, #0
200008a4:	4562      	cmp	r2, ip
200008a6:	d2be      	bcs.n	20000826 <__udivmoddi4+0x25e>
200008a8:	f1b9 0f00 	cmp.w	r9, #0
200008ac:	d1bb      	bne.n	20000826 <__udivmoddi4+0x25e>
200008ae:	f1a8 0102 	sub.w	r1, r8, #2
200008b2:	442a      	add	r2, r5
200008b4:	e7b7      	b.n	20000826 <__udivmoddi4+0x25e>
200008b6:	1a84      	subs	r4, r0, r2
200008b8:	eb6c 0203 	sbc.w	r2, ip, r3
200008bc:	2001      	movs	r0, #1
200008be:	4617      	mov	r7, r2
200008c0:	e6e7      	b.n	20000692 <__udivmoddi4+0xca>
200008c2:	442c      	add	r4, r5
200008c4:	3802      	subs	r0, #2
200008c6:	e72b      	b.n	20000720 <__udivmoddi4+0x158>
200008c8:	f1ac 0c02 	sub.w	ip, ip, #2
200008cc:	442a      	add	r2, r5
200008ce:	e70c      	b.n	200006ea <__udivmoddi4+0x122>
200008d0:	3902      	subs	r1, #2
200008d2:	442a      	add	r2, r5
200008d4:	e6a5      	b.n	20000622 <__udivmoddi4+0x5a>
200008d6:	442c      	add	r4, r5
200008d8:	3802      	subs	r0, #2
200008da:	e6ba      	b.n	20000652 <__udivmoddi4+0x8a>
200008dc:	eba5 0c0c 	sub.w	ip, r5, ip
200008e0:	f1a8 0002 	sub.w	r0, r8, #2
200008e4:	4461      	add	r1, ip
200008e6:	fbb1 f8fe 	udiv	r8, r1, lr
200008ea:	fb08 fc07 	mul.w	ip, r8, r7
200008ee:	e7ca      	b.n	20000886 <__udivmoddi4+0x2be>
200008f0:	f1a8 0802 	sub.w	r8, r8, #2
200008f4:	443c      	add	r4, r7
200008f6:	e744      	b.n	20000782 <__udivmoddi4+0x1ba>
200008f8:	3b02      	subs	r3, #2
200008fa:	443c      	add	r4, r7
200008fc:	e75e      	b.n	200007bc <__udivmoddi4+0x1f4>
200008fe:	4641      	mov	r1, r8
20000900:	e791      	b.n	20000826 <__udivmoddi4+0x25e>
20000902:	eba1 010c 	sub.w	r1, r1, ip
20000906:	4640      	mov	r0, r8
20000908:	fbb1 f8fe 	udiv	r8, r1, lr
2000090c:	fb08 fc07 	mul.w	ip, r8, r7
20000910:	e7b9      	b.n	20000886 <__udivmoddi4+0x2be>
20000912:	bf00      	nop

20000914 <__aeabi_idiv0>:
20000914:	4770      	bx	lr
20000916:	bf00      	nop

20000918 <__best_effort_wfe_or_timeout_veneer>:
20000918:	f85f f000 	ldr.w	pc, [pc]	@ 2000091c <__best_effort_wfe_or_timeout_veneer+0x4>
2000091c:	1000107d 	.word	0x1000107d

20000920 <striped_spin_lock_num>:
20000920:	00000010                                ....

20000924 <irq_handler_chain_slots>:
20000924:	00000000 	.word	0x00000000
20000928:	00010000 	.word	0x00010000
	...
20000934:	00020000 	.word	0x00020000
	...
20000940:	00030000 	.word	0x00030000
	...
2000094c:	00ff0000 	.word	0x00ff0000
20000950:	00000000 	.word	0x00000000

20000954 <irq_handler_chain_first_slot>:
20000954:	b501      	push	{r0, lr}
20000956:	6848      	ldr	r0, [r1, #4]
20000958:	3101      	adds	r1, #1
2000095a:	468e      	mov	lr, r1
2000095c:	4700      	bx	r0

2000095e <irq_handler_chain_remove_tail>:
2000095e:	4670      	mov	r0, lr
20000960:	3809      	subs	r0, #9
20000962:	4901      	ldr	r1, [pc, #4]	@ (20000968 <irq_handler_chain_remove_tail+0xa>)
20000964:	4788      	blx	r1
20000966:	bd01      	pop	{r0, pc}
20000968:	1000083d 	.word	0x1000083d

2000096c <default_alarm_pool>:
	...
20000980:	200009a8                                ... 

20000984 <stdio_uart>:
20000984:	10003509 10003611 10003559 10003621     .5...6..Y5..!6..
20000994:	00000000 00000100                       ........

2000099c <print_mutex>:
	...
