
C:/Users/assem.KEVINTHOMAS/OneDrive/Documents/Embedded-Hacking/drivers/0x06_adc/build/0x06_adc.elf:     file format elf32-littlearm

Sections:
Idx Name          Size      VMA       LMA       File off  Algn
  0 .text         00003764  10000000  10000000  00001000  2**3
                  CONTENTS, ALLOC, LOAD, READONLY, CODE
  1 .rodata       000001f0  10003768  10003768  00004768  2**3
                  CONTENTS, ALLOC, LOAD, READONLY, DATA
  2 .ARM.exidx    00000008  10003958  10003958  00004958  2**2
                  CONTENTS, ALLOC, LOAD, READONLY, DATA
  3 .binary_info  0000002c  10003960  10003960  00004960  2**2
                  CONTENTS, ALLOC, LOAD, READONLY, DATA
  4 .ram_vector_table 00000110  20000000  20000000  00007000  2**2
                  ALLOC
  5 .uninitialized_data 00000000  20000110  20000110  00006234  2**0
                  CONTENTS
  6 .data         00000894  20000110  1000398c  00005110  2**3
                  CONTENTS, ALLOC, LOAD, READONLY, CODE
  7 .tdata        00000000  200009a4  200009a4  00006234  2**0
                  CONTENTS, ALLOC, LOAD, DATA, THREAD_LOCAL
  8 .tbss         00000000  200009a4  200009a4  00000000  2**0
                  ALLOC, THREAD_LOCAL
  9 .bss          00000228  200009a8  10004220  000069a8  2**3
                  ALLOC
 10 .heap         00000800  20000bd0  10004220  00006bd0  2**2
                  ALLOC, READONLY
 11 .scratch_x    00000000  20080000  20080000  00006234  2**0
                  CONTENTS
 12 .scratch_y    00000000  20081000  20081000  00006234  2**0
                  CONTENTS
 13 .stack_dummy  00000800  20081000  20081000  00007000  2**5
                  ALLOC, READONLY
 14 .flash_end    00000014  10004220  10004220  00006220  2**2
                  CONTENTS, ALLOC, LOAD, READONLY, DATA
 15 .ARM.attributes 00000034  00000000  00000000  00006234  2**0
                  CONTENTS, READONLY
 16 .comment      00000045  00000000  00000000  00006268  2**0
                  CONTENTS, READONLY
 17 .debug_info   0002168f  00000000  00000000  000062ad  2**0
                  CONTENTS, READONLY, DEBUGGING, OCTETS
 18 .debug_abbrev 0000597f  00000000  00000000  0002793c  2**0
                  CONTENTS, READONLY, DEBUGGING, OCTETS
 19 .debug_loclists 00010323  00000000  00000000  0002d2bb  2**0
                  CONTENTS, READONLY, DEBUGGING, OCTETS
 20 .debug_aranges 00000c38  00000000  00000000  0003d5e0  2**3
                  CONTENTS, READONLY, DEBUGGING, OCTETS
 21 .debug_rnglists 00003163  00000000  00000000  0003e218  2**0
                  CONTENTS, READONLY, DEBUGGING, OCTETS
 22 .debug_line   00016dda  00000000  00000000  0004137b  2**0
                  CONTENTS, READONLY, DEBUGGING, OCTETS
 23 .debug_str    000059a7  00000000  00000000  00058155  2**0
                  CONTENTS, READONLY, DEBUGGING, OCTETS
 24 .debug_frame  0000205c  00000000  00000000  0005dafc  2**2
                  CONTENTS, READONLY, DEBUGGING, OCTETS
 25 .debug_line_str 000002d3  00000000  00000000  0005fb58  2**0
                  CONTENTS, READONLY, DEBUGGING, OCTETS

C:/Users/assem.KEVINTHOMAS/OneDrive/Documents/Embedded-Hacking/drivers/0x06_adc/build/0x06_adc.elf:     file format elf32-littlearm


Disassembly of section .text:

10000000 <__VECTOR_TABLE>:
10000000:	20082000 	.word	0x20082000
10000004:	1000015d 	.word	0x1000015d
10000008:	1000011b 	.word	0x1000011b
1000000c:	1000011d 	.word	0x1000011d
10000010:	10000111 	.word	0x10000111
10000014:	10000111 	.word	0x10000111
10000018:	10000111 	.word	0x10000111
1000001c:	10000111 	.word	0x10000111
10000020:	10000119 	.word	0x10000119
10000024:	10000119 	.word	0x10000119
10000028:	10000119 	.word	0x10000119
1000002c:	1000011f 	.word	0x1000011f
10000030:	10000111 	.word	0x10000111
10000034:	10000119 	.word	0x10000119
10000038:	10000121 	.word	0x10000121
1000003c:	10000123 	.word	0x10000123
10000040:	10000111 	.word	0x10000111
10000044:	10000111 	.word	0x10000111
10000048:	10000111 	.word	0x10000111
1000004c:	10000111 	.word	0x10000111
10000050:	10000111 	.word	0x10000111
10000054:	10000111 	.word	0x10000111
10000058:	10000111 	.word	0x10000111
1000005c:	10000111 	.word	0x10000111
10000060:	10000111 	.word	0x10000111
10000064:	10000111 	.word	0x10000111
10000068:	10000111 	.word	0x10000111
1000006c:	10000111 	.word	0x10000111
10000070:	10000111 	.word	0x10000111
10000074:	10000111 	.word	0x10000111
10000078:	10000111 	.word	0x10000111
1000007c:	10000111 	.word	0x10000111
10000080:	10000111 	.word	0x10000111
10000084:	10000111 	.word	0x10000111
10000088:	10000111 	.word	0x10000111
1000008c:	10000111 	.word	0x10000111
10000090:	10000111 	.word	0x10000111
10000094:	10000111 	.word	0x10000111
10000098:	10000111 	.word	0x10000111
1000009c:	10000111 	.word	0x10000111
100000a0:	10000111 	.word	0x10000111
100000a4:	10000111 	.word	0x10000111
100000a8:	10000111 	.word	0x10000111
100000ac:	10000111 	.word	0x10000111
100000b0:	10000111 	.word	0x10000111
100000b4:	10000111 	.word	0x10000111
100000b8:	10000111 	.word	0x10000111
100000bc:	10000111 	.word	0x10000111
100000c0:	10000111 	.word	0x10000111
100000c4:	10000111 	.word	0x10000111
100000c8:	10000111 	.word	0x10000111
100000cc:	10000111 	.word	0x10000111
100000d0:	10000111 	.word	0x10000111
100000d4:	10000111 	.word	0x10000111
100000d8:	10000111 	.word	0x10000111
100000dc:	10000111 	.word	0x10000111
100000e0:	10000111 	.word	0x10000111
100000e4:	10000111 	.word	0x10000111
100000e8:	10000111 	.word	0x10000111
100000ec:	10000111 	.word	0x10000111
100000f0:	10000111 	.word	0x10000111
100000f4:	10000111 	.word	0x10000111
100000f8:	10000111 	.word	0x10000111
100000fc:	10000111 	.word	0x10000111
10000100:	10000111 	.word	0x10000111
10000104:	10000111 	.word	0x10000111
10000108:	10000111 	.word	0x10000111
1000010c:	10000111 	.word	0x10000111

10000110 <__unhandled_user_irq>:
10000110:	f3ef 8005 	mrs	r0, IPSR
10000114:	3810      	subs	r0, #16

10000116 <unhandled_user_irq_num_in_r0>:
10000116:	be00      	bkpt	0x0000

10000118 <isr_invalid>:
10000118:	be00      	bkpt	0x0000

1000011a <isr_nmi>:
1000011a:	be00      	bkpt	0x0000

1000011c <isr_hardfault>:
1000011c:	be00      	bkpt	0x0000

1000011e <isr_svcall>:
1000011e:	be00      	bkpt	0x0000

10000120 <isr_pendsv>:
10000120:	be00      	bkpt	0x0000

10000122 <isr_systick>:
10000122:	be00      	bkpt	0x0000

10000124 <__default_isrs_end>:
10000124:	7188ebf2 	.word	0x7188ebf2
10000128:	10003960 	.word	0x10003960
1000012c:	1000398c 	.word	0x1000398c
10000130:	100001a0 	.word	0x100001a0
10000134:	e71aa390 	.word	0xe71aa390

10000138 <__binary_info_header_end>:
10000138:	ffffded3 	.word	0xffffded3
1000013c:	10210142 	.word	0x10210142
10000140:	000001ff 	.word	0x000001ff
10000144:	000040e8 	.word	0x000040e8
10000148:	ab123579 	.word	0xab123579

1000014c <_entry_point>:
1000014c:	f04f 0000 	mov.w	r0, #0

10000150 <_enter_vtable_in_r0>:
10000150:	491e      	ldr	r1, [pc, #120]	@ (100001cc <data_cpy_table+0x2c>)
10000152:	6008      	str	r0, [r1, #0]
10000154:	c806      	ldmia	r0!, {r1, r2}
10000156:	f381 8808 	msr	MSP, r1
1000015a:	4710      	bx	r2

1000015c <_reset_handler>:
1000015c:	f04f 4050 	mov.w	r0, #3489660928	@ 0xd0000000
10000160:	6800      	ldr	r0, [r0, #0]
10000162:	b110      	cbz	r0, 1000016a <hold_non_core0_in_bootrom+0x6>

10000164 <hold_non_core0_in_bootrom>:
10000164:	f04f 0000 	mov.w	r0, #0
10000168:	e7f2      	b.n	10000150 <_enter_vtable_in_r0>
1000016a:	a40d      	add	r4, pc, #52	@ (adr r4, 100001a0 <data_cpy_table>)
1000016c:	cc0e      	ldmia	r4!, {r1, r2, r3}
1000016e:	2900      	cmp	r1, #0
10000170:	d002      	beq.n	10000178 <hold_non_core0_in_bootrom+0x14>
10000172:	f000 f812 	bl	1000019a <data_cpy>
10000176:	e7f9      	b.n	1000016c <hold_non_core0_in_bootrom+0x8>
10000178:	4915      	ldr	r1, [pc, #84]	@ (100001d0 <data_cpy_table+0x30>)
1000017a:	4a16      	ldr	r2, [pc, #88]	@ (100001d4 <data_cpy_table+0x34>)
1000017c:	2000      	movs	r0, #0
1000017e:	e000      	b.n	10000182 <bss_fill_test>

10000180 <bss_fill_loop>:
10000180:	c101      	stmia	r1!, {r0}

10000182 <bss_fill_test>:
10000182:	4291      	cmp	r1, r2
10000184:	d1fc      	bne.n	10000180 <bss_fill_loop>

10000186 <platform_entry>:
10000186:	4914      	ldr	r1, [pc, #80]	@ (100001d8 <data_cpy_table+0x38>)
10000188:	4788      	blx	r1
1000018a:	4914      	ldr	r1, [pc, #80]	@ (100001dc <data_cpy_table+0x3c>)
1000018c:	4788      	blx	r1
1000018e:	4914      	ldr	r1, [pc, #80]	@ (100001e0 <data_cpy_table+0x40>)
10000190:	4788      	blx	r1
10000192:	be00      	bkpt	0x0000
10000194:	e7fd      	b.n	10000192 <platform_entry+0xc>

10000196 <data_cpy_loop>:
10000196:	c901      	ldmia	r1!, {r0}
10000198:	c201      	stmia	r2!, {r0}

1000019a <data_cpy>:
1000019a:	429a      	cmp	r2, r3
1000019c:	d3fb      	bcc.n	10000196 <data_cpy_loop>
1000019e:	4770      	bx	lr

100001a0 <data_cpy_table>:
100001a0:	1000398c 	.word	0x1000398c
100001a4:	20000110 	.word	0x20000110
100001a8:	200009a4 	.word	0x200009a4
100001ac:	10004220 	.word	0x10004220
100001b0:	20080000 	.word	0x20080000
100001b4:	20080000 	.word	0x20080000
100001b8:	10004220 	.word	0x10004220
100001bc:	20081000 	.word	0x20081000
100001c0:	20081000 	.word	0x20081000
100001c4:	00000000 	.word	0x00000000
100001c8:	4770      	bx	lr
100001ca:	0000      	.short	0x0000
100001cc:	e000ed08 	.word	0xe000ed08
100001d0:	200009a4 	.word	0x200009a4
100001d4:	20000bd0 	.word	0x20000bd0
100001d8:	10002f95 	.word	0x10002f95
100001dc:	10000235 	.word	0x10000235
100001e0:	10002f8d 	.word	0x10002f8d

100001e4 <_init>:
100001e4:	b5f8      	push	{r3, r4, r5, r6, r7, lr}
100001e6:	bf00      	nop

100001e8 <register_tm_clones>:
100001e8:	4b06      	ldr	r3, [pc, #24]	@ (10000204 <register_tm_clones+0x1c>)
100001ea:	4907      	ldr	r1, [pc, #28]	@ (10000208 <register_tm_clones+0x20>)
100001ec:	1ac9      	subs	r1, r1, r3
100001ee:	1089      	asrs	r1, r1, #2
100001f0:	bf48      	it	mi
100001f2:	3101      	addmi	r1, #1
100001f4:	1049      	asrs	r1, r1, #1
100001f6:	d003      	beq.n	10000200 <register_tm_clones+0x18>
100001f8:	4b04      	ldr	r3, [pc, #16]	@ (1000020c <register_tm_clones+0x24>)
100001fa:	b10b      	cbz	r3, 10000200 <register_tm_clones+0x18>
100001fc:	4801      	ldr	r0, [pc, #4]	@ (10000204 <register_tm_clones+0x1c>)
100001fe:	4718      	bx	r3
10000200:	4770      	bx	lr
10000202:	bf00      	nop
10000204:	200009a4 	.word	0x200009a4
10000208:	200009a4 	.word	0x200009a4
1000020c:	00000000 	.word	0x00000000

10000210 <frame_dummy>:
10000210:	b508      	push	{r3, lr}
10000212:	4b05      	ldr	r3, [pc, #20]	@ (10000228 <frame_dummy+0x18>)
10000214:	b11b      	cbz	r3, 1000021e <frame_dummy+0xe>
10000216:	4905      	ldr	r1, [pc, #20]	@ (1000022c <frame_dummy+0x1c>)
10000218:	4805      	ldr	r0, [pc, #20]	@ (10000230 <frame_dummy+0x20>)
1000021a:	f3af 8000 	nop.w
1000021e:	e8bd 4008 	ldmia.w	sp!, {r3, lr}
10000222:	f7ff bfe1 	b.w	100001e8 <register_tm_clones>
10000226:	bf00      	nop
10000228:	00000000 	.word	0x00000000
1000022c:	20000b88 	.word	0x20000b88
10000230:	10003764 	.word	0x10003764

10000234 <main>:
10000234:	b508      	push	{r3, lr}
10000236:	f002 ffd5 	bl	100031e4 <stdio_init_all>
1000023a:	2100      	movs	r1, #0
1000023c:	201a      	movs	r0, #26
1000023e:	f000 f81b 	bl	10000278 <adc_driver_init>
10000242:	2200      	movs	r2, #0
10000244:	211a      	movs	r1, #26
10000246:	480a      	ldr	r0, [pc, #40]	@ (10000270 <main+0x3c>)
10000248:	f003 f894 	bl	10003374 <__wrap_printf>
1000024c:	f000 f83c 	bl	100002c8 <adc_driver_read_mv>
10000250:	4604      	mov	r4, r0
10000252:	f000 f855 	bl	10000300 <adc_driver_read_temp_celsius>
10000256:	f003 fa53 	bl	10003700 <____aeabi_f2d_veneer>
1000025a:	4602      	mov	r2, r0
1000025c:	460b      	mov	r3, r1
1000025e:	4805      	ldr	r0, [pc, #20]	@ (10000274 <main+0x40>)
10000260:	4621      	mov	r1, r4
10000262:	f003 f887 	bl	10003374 <__wrap_printf>
10000266:	f44f 70fa 	mov.w	r0, #500	@ 0x1f4
1000026a:	f000 fddd 	bl	10000e28 <sleep_ms>
1000026e:	e7ed      	b.n	1000024c <main+0x18>
10000270:	10003768 	.word	0x10003768
10000274:	10003798 	.word	0x10003798

10000278 <adc_driver_init>:
10000278:	b538      	push	{r3, r4, r5, lr}
1000027a:	4604      	mov	r4, r0
1000027c:	4b0e      	ldr	r3, [pc, #56]	@ (100002b8 <adc_driver_init+0x40>)
1000027e:	460d      	mov	r5, r1
10000280:	7019      	strb	r1, [r3, #0]
10000282:	f003 f97f 	bl	10003584 <adc_init>
10000286:	211f      	movs	r1, #31
10000288:	4620      	mov	r0, r4
1000028a:	f000 f881 	bl	10000390 <gpio_set_function>
1000028e:	2200      	movs	r2, #0
10000290:	4620      	mov	r0, r4
10000292:	4611      	mov	r1, r2
10000294:	f000 f89a 	bl	100003cc <gpio_set_pulls>
10000298:	2100      	movs	r1, #0
1000029a:	4620      	mov	r0, r4
1000029c:	f000 f8aa 	bl	100003f4 <gpio_set_input_enabled>
100002a0:	2002      	movs	r0, #2
100002a2:	4906      	ldr	r1, [pc, #24]	@ (100002bc <adc_driver_init+0x44>)
100002a4:	4a06      	ldr	r2, [pc, #24]	@ (100002c0 <adc_driver_init+0x48>)
100002a6:	6008      	str	r0, [r1, #0]
100002a8:	6811      	ldr	r1, [r2, #0]
100002aa:	4b06      	ldr	r3, [pc, #24]	@ (100002c4 <adc_driver_init+0x4c>)
100002ac:	ea81 3105 	eor.w	r1, r1, r5, lsl #12
100002b0:	f401 4170 	and.w	r1, r1, #61440	@ 0xf000
100002b4:	6019      	str	r1, [r3, #0]
100002b6:	bd38      	pop	{r3, r4, r5, pc}
100002b8:	20000bcc 	.word	0x20000bcc
100002bc:	400a2000 	.word	0x400a2000
100002c0:	400a0000 	.word	0x400a0000
100002c4:	400a1000 	.word	0x400a1000

100002c8 <adc_driver_read_mv>:
100002c8:	2104      	movs	r1, #4
100002ca:	4b0a      	ldr	r3, [pc, #40]	@ (100002f4 <adc_driver_read_mv+0x2c>)
100002cc:	4a0a      	ldr	r2, [pc, #40]	@ (100002f8 <adc_driver_read_mv+0x30>)
100002ce:	6019      	str	r1, [r3, #0]
100002d0:	6813      	ldr	r3, [r2, #0]
100002d2:	05db      	lsls	r3, r3, #23
100002d4:	d5fc      	bpl.n	100002d0 <adc_driver_read_mv+0x8>
100002d6:	f640 41e4 	movw	r1, #3300	@ 0xce4
100002da:	6853      	ldr	r3, [r2, #4]
100002dc:	4807      	ldr	r0, [pc, #28]	@ (100002fc <adc_driver_read_mv+0x34>)
100002de:	b29b      	uxth	r3, r3
100002e0:	fb01 f303 	mul.w	r3, r1, r3
100002e4:	fba0 2003 	umull	r2, r0, r0, r3
100002e8:	1a1b      	subs	r3, r3, r0
100002ea:	eb00 0053 	add.w	r0, r0, r3, lsr #1
100002ee:	0ac0      	lsrs	r0, r0, #11
100002f0:	4770      	bx	lr
100002f2:	bf00      	nop
100002f4:	400a2000 	.word	0x400a2000
100002f8:	400a0000 	.word	0x400a0000
100002fc:	00100101 	.word	0x00100101

10000300 <adc_driver_read_temp_celsius>:
10000300:	2004      	movs	r0, #4
10000302:	4a1b      	ldr	r2, [pc, #108]	@ (10000370 <adc_driver_read_temp_celsius+0x70>)
10000304:	b410      	push	{r4}
10000306:	6813      	ldr	r3, [r2, #0]
10000308:	4c1a      	ldr	r4, [pc, #104]	@ (10000374 <adc_driver_read_temp_celsius+0x74>)
1000030a:	491b      	ldr	r1, [pc, #108]	@ (10000378 <adc_driver_read_temp_celsius+0x78>)
1000030c:	f483 4380 	eor.w	r3, r3, #16384	@ 0x4000
10000310:	f403 4370 	and.w	r3, r3, #61440	@ 0xf000
10000314:	6023      	str	r3, [r4, #0]
10000316:	6008      	str	r0, [r1, #0]
10000318:	6813      	ldr	r3, [r2, #0]
1000031a:	05db      	lsls	r3, r3, #23
1000031c:	d5fc      	bpl.n	10000318 <adc_driver_read_temp_celsius+0x18>
1000031e:	6853      	ldr	r3, [r2, #4]
10000320:	ed9f 7a16 	vldr	s14, [pc, #88]	@ 1000037c <adc_driver_read_temp_celsius+0x7c>
10000324:	b29b      	uxth	r3, r3
10000326:	ee07 3a90 	vmov	s15, r3
1000032a:	eef8 7a67 	vcvt.f32.u32	s15, s15
1000032e:	ed9f 5a14 	vldr	s10, [pc, #80]	@ 10000380 <adc_driver_read_temp_celsius+0x80>
10000332:	ee67 7a87 	vmul.f32	s15, s15, s14
10000336:	eddf 5a13 	vldr	s11, [pc, #76]	@ 10000384 <adc_driver_read_temp_celsius+0x84>
1000033a:	ee87 7a85 	vdiv.f32	s14, s15, s10
1000033e:	ed9f 6a12 	vldr	s12, [pc, #72]	@ 10000388 <adc_driver_read_temp_celsius+0x88>
10000342:	ee77 7a65 	vsub.f32	s15, s14, s11
10000346:	eef3 6a0b 	vmov.f32	s13, #59	@ 0x41d80000  27.0
1000034a:	ee87 7a86 	vdiv.f32	s14, s15, s12
1000034e:	ee76 7ac7 	vsub.f32	s15, s13, s14
10000352:	490e      	ldr	r1, [pc, #56]	@ (1000038c <adc_driver_read_temp_celsius+0x8c>)
10000354:	6813      	ldr	r3, [r2, #0]
10000356:	7809      	ldrb	r1, [r1, #0]
10000358:	4a06      	ldr	r2, [pc, #24]	@ (10000374 <adc_driver_read_temp_celsius+0x74>)
1000035a:	ea83 3301 	eor.w	r3, r3, r1, lsl #12
1000035e:	f403 4370 	and.w	r3, r3, #61440	@ 0xf000
10000362:	ee17 0a90 	vmov	r0, s15
10000366:	f85d 4b04 	ldr.w	r4, [sp], #4
1000036a:	6013      	str	r3, [r2, #0]
1000036c:	4770      	bx	lr
1000036e:	bf00      	nop
10000370:	400a0000 	.word	0x400a0000
10000374:	400a1000 	.word	0x400a1000
10000378:	400a2000 	.word	0x400a2000
1000037c:	40533333 	.word	0x40533333
10000380:	457ff000 	.word	0x457ff000
10000384:	3f34bc6a 	.word	0x3f34bc6a
10000388:	3ae1932d 	.word	0x3ae1932d
1000038c:	20000bcc 	.word	0x20000bcc

10000390 <gpio_set_function>:
10000390:	b410      	push	{r4}
10000392:	f44f 7480 	mov.w	r4, #256	@ 0x100
10000396:	4b0c      	ldr	r3, [pc, #48]	@ (100003c8 <gpio_set_function+0x38>)
10000398:	f853 2020 	ldr.w	r2, [r3, r0, lsl #2]
1000039c:	eb03 0380 	add.w	r3, r3, r0, lsl #2
100003a0:	00c0      	lsls	r0, r0, #3
100003a2:	f082 0240 	eor.w	r2, r2, #64	@ 0x40
100003a6:	f100 4080 	add.w	r0, r0, #1073741824	@ 0x40000000
100003aa:	f503 5c80 	add.w	ip, r3, #4096	@ 0x1000
100003ae:	f002 02c0 	and.w	r2, r2, #192	@ 0xc0
100003b2:	f500 3020 	add.w	r0, r0, #163840	@ 0x28000
100003b6:	f503 5340 	add.w	r3, r3, #12288	@ 0x3000
100003ba:	f8cc 2000 	str.w	r2, [ip]
100003be:	6041      	str	r1, [r0, #4]
100003c0:	601c      	str	r4, [r3, #0]
100003c2:	f85d 4b04 	ldr.w	r4, [sp], #4
100003c6:	4770      	bx	lr
100003c8:	40038004 	.word	0x40038004

100003cc <gpio_set_pulls>:
100003cc:	b410      	push	{r4}
100003ce:	4c08      	ldr	r4, [pc, #32]	@ (100003f0 <gpio_set_pulls+0x24>)
100003d0:	00c9      	lsls	r1, r1, #3
100003d2:	ea41 0182 	orr.w	r1, r1, r2, lsl #2
100003d6:	f854 2020 	ldr.w	r2, [r4, r0, lsl #2]
100003da:	eb04 0380 	add.w	r3, r4, r0, lsl #2
100003de:	4051      	eors	r1, r2
100003e0:	f503 5380 	add.w	r3, r3, #4096	@ 0x1000
100003e4:	f001 010c 	and.w	r1, r1, #12
100003e8:	f85d 4b04 	ldr.w	r4, [sp], #4
100003ec:	6019      	str	r1, [r3, #0]
100003ee:	4770      	bx	lr
100003f0:	40038004 	.word	0x40038004

100003f4 <gpio_set_input_enabled>:
100003f4:	4b06      	ldr	r3, [pc, #24]	@ (10000410 <gpio_set_input_enabled+0x1c>)
100003f6:	2240      	movs	r2, #64	@ 0x40
100003f8:	eb03 0380 	add.w	r3, r3, r0, lsl #2
100003fc:	b119      	cbz	r1, 10000406 <gpio_set_input_enabled+0x12>
100003fe:	f503 5300 	add.w	r3, r3, #8192	@ 0x2000
10000402:	601a      	str	r2, [r3, #0]
10000404:	4770      	bx	lr
10000406:	f503 5340 	add.w	r3, r3, #12288	@ 0x3000
1000040a:	601a      	str	r2, [r3, #0]
1000040c:	4770      	bx	lr
1000040e:	bf00      	nop
10000410:	40038004 	.word	0x40038004

10000414 <panic>:
10000414:	b40f      	push	{r0, r1, r2, r3}
10000416:	b500      	push	{lr}
10000418:	b083      	sub	sp, #12
1000041a:	9c04      	ldr	r4, [sp, #16]
1000041c:	4807      	ldr	r0, [pc, #28]	@ (1000043c <panic+0x28>)
1000041e:	f002 ff29 	bl	10003274 <__wrap_puts>
10000422:	b13c      	cbz	r4, 10000434 <panic+0x20>
10000424:	a905      	add	r1, sp, #20
10000426:	4620      	mov	r0, r4
10000428:	9101      	str	r1, [sp, #4]
1000042a:	f002 fd95 	bl	10002f58 <weak_raw_vprintf>
1000042e:	4804      	ldr	r0, [pc, #16]	@ (10000440 <panic+0x2c>)
10000430:	f002 ff20 	bl	10003274 <__wrap_puts>
10000434:	2001      	movs	r0, #1
10000436:	f002 fda7 	bl	10002f88 <_exit>
1000043a:	bf00      	nop
1000043c:	100037c0 	.word	0x100037c0
10000440:	10003794 	.word	0x10003794

10000444 <hw_claim_or_assert>:
10000444:	b570      	push	{r4, r5, r6, lr}
10000446:	4686      	mov	lr, r0
10000448:	f3ef 8510 	mrs	r5, PRIMASK
1000044c:	b672      	cpsid	i
1000044e:	4c12      	ldr	r4, [pc, #72]	@ (10000498 <hw_claim_or_assert+0x54>)
10000450:	e8d4 6fcf 	ldaexb	r6, [r4]
10000454:	2001      	movs	r0, #1
10000456:	2e00      	cmp	r6, #0
10000458:	d1fa      	bne.n	10000450 <hw_claim_or_assert+0xc>
1000045a:	e8c4 0f46 	strexb	r6, r0, [r4]
1000045e:	2e00      	cmp	r6, #0
10000460:	d1f6      	bne.n	10000450 <hw_claim_or_assert+0xc>
10000462:	f3bf 8f5f 	dmb	sy
10000466:	f04f 0c01 	mov.w	ip, #1
1000046a:	08c8      	lsrs	r0, r1, #3
1000046c:	f001 0307 	and.w	r3, r1, #7
10000470:	fa0c f303 	lsl.w	r3, ip, r3
10000474:	f81e c000 	ldrb.w	ip, [lr, r0]
10000478:	ea1c 0603 	ands.w	r6, ip, r3
1000047c:	d108      	bne.n	10000490 <hw_claim_or_assert+0x4c>
1000047e:	ea4c 0c03 	orr.w	ip, ip, r3
10000482:	f80e c000 	strb.w	ip, [lr, r0]
10000486:	e8c4 6f8f 	stlb	r6, [r4]
1000048a:	f385 8810 	msr	PRIMASK, r5
1000048e:	bd70      	pop	{r4, r5, r6, pc}
10000490:	4610      	mov	r0, r2
10000492:	f7ff ffbf 	bl	10000414 <panic>
10000496:	bf00      	nop
10000498:	20000b33 	.word	0x20000b33

1000049c <next_striped_spin_lock_num>:
1000049c:	4a04      	ldr	r2, [pc, #16]	@ (100004b0 <next_striped_spin_lock_num+0x14>)
1000049e:	7810      	ldrb	r0, [r2, #0]
100004a0:	1c43      	adds	r3, r0, #1
100004a2:	b2db      	uxtb	r3, r3
100004a4:	2b18      	cmp	r3, #24
100004a6:	bf28      	it	cs
100004a8:	2310      	movcs	r3, #16
100004aa:	7013      	strb	r3, [r2, #0]
100004ac:	4770      	bx	lr
100004ae:	bf00      	nop
100004b0:	20000920 	.word	0x20000920

100004b4 <spinlock_set_extexclall>:
100004b4:	f04f 22e0 	mov.w	r2, #3758153728	@ 0xe000e000
100004b8:	6893      	ldr	r3, [r2, #8]
100004ba:	f043 5300 	orr.w	r3, r3, #536870912	@ 0x20000000
100004be:	6093      	str	r3, [r2, #8]
100004c0:	4770      	bx	lr
100004c2:	bf00      	nop

100004c4 <spin_locks_reset>:
100004c4:	2100      	movs	r1, #0
100004c6:	4b04      	ldr	r3, [pc, #16]	@ (100004d8 <spin_locks_reset+0x14>)
100004c8:	f103 0220 	add.w	r2, r3, #32
100004cc:	e8c3 1f8f 	stlb	r1, [r3]
100004d0:	3301      	adds	r3, #1
100004d2:	4293      	cmp	r3, r2
100004d4:	d1fa      	bne.n	100004cc <spin_locks_reset+0x8>
100004d6:	4770      	bx	lr
100004d8:	20000b28 	.word	0x20000b28

100004dc <runtime_init_per_core_irq_priorities>:
100004dc:	f04f 23e0 	mov.w	r3, #3758153728	@ 0xe000e000
100004e0:	f04f 3280 	mov.w	r2, #2155905152	@ 0x80808080
100004e4:	f8c3 2400 	str.w	r2, [r3, #1024]	@ 0x400
100004e8:	f8c3 2404 	str.w	r2, [r3, #1028]	@ 0x404
100004ec:	f8c3 2408 	str.w	r2, [r3, #1032]	@ 0x408
100004f0:	f8c3 240c 	str.w	r2, [r3, #1036]	@ 0x40c
100004f4:	f8c3 2410 	str.w	r2, [r3, #1040]	@ 0x410
100004f8:	f8c3 2414 	str.w	r2, [r3, #1044]	@ 0x414
100004fc:	f8c3 2418 	str.w	r2, [r3, #1048]	@ 0x418
10000500:	f8c3 241c 	str.w	r2, [r3, #1052]	@ 0x41c
10000504:	f8c3 2420 	str.w	r2, [r3, #1056]	@ 0x420
10000508:	f8c3 2424 	str.w	r2, [r3, #1060]	@ 0x424
1000050c:	f8c3 2428 	str.w	r2, [r3, #1064]	@ 0x428
10000510:	f8c3 242c 	str.w	r2, [r3, #1068]	@ 0x42c
10000514:	f8c3 2430 	str.w	r2, [r3, #1072]	@ 0x430
10000518:	b662      	cpsie	i
1000051a:	4770      	bx	lr

1000051c <irq_set_enabled>:
1000051c:	2301      	movs	r3, #1
1000051e:	f000 021f 	and.w	r2, r0, #31
10000522:	4093      	lsls	r3, r2
10000524:	0940      	lsrs	r0, r0, #5
10000526:	b141      	cbz	r1, 1000053a <irq_set_enabled+0x1e>
10000528:	0080      	lsls	r0, r0, #2
1000052a:	f100 4060 	add.w	r0, r0, #3758096384	@ 0xe0000000
1000052e:	f500 4061 	add.w	r0, r0, #57600	@ 0xe100
10000532:	f8c0 3180 	str.w	r3, [r0, #384]	@ 0x180
10000536:	6003      	str	r3, [r0, #0]
10000538:	4770      	bx	lr
1000053a:	4a02      	ldr	r2, [pc, #8]	@ (10000544 <irq_set_enabled+0x28>)
1000053c:	3020      	adds	r0, #32
1000053e:	f842 3020 	str.w	r3, [r2, r0, lsl #2]
10000542:	4770      	bx	lr
10000544:	e000e100 	.word	0xe000e100

10000548 <irq_set_exclusive_handler>:
10000548:	b5f8      	push	{r3, r4, r5, r6, r7, lr}
1000054a:	460d      	mov	r5, r1
1000054c:	f3ef 8710 	mrs	r7, PRIMASK
10000550:	b672      	cpsid	i
10000552:	4e12      	ldr	r6, [pc, #72]	@ (1000059c <irq_set_exclusive_handler+0x54>)
10000554:	e8d6 2fcf 	ldaexb	r2, [r6]
10000558:	2301      	movs	r3, #1
1000055a:	2a00      	cmp	r2, #0
1000055c:	d1fa      	bne.n	10000554 <irq_set_exclusive_handler+0xc>
1000055e:	e8c6 3f42 	strexb	r2, r3, [r6]
10000562:	2a00      	cmp	r2, #0
10000564:	d1f6      	bne.n	10000554 <irq_set_exclusive_handler+0xc>
10000566:	f3bf 8f5f 	dmb	sy
1000056a:	4b0d      	ldr	r3, [pc, #52]	@ (100005a0 <irq_set_exclusive_handler+0x58>)
1000056c:	f100 0410 	add.w	r4, r0, #16
10000570:	689b      	ldr	r3, [r3, #8]
10000572:	4a0c      	ldr	r2, [pc, #48]	@ (100005a4 <irq_set_exclusive_handler+0x5c>)
10000574:	f853 3024 	ldr.w	r3, [r3, r4, lsl #2]
10000578:	4293      	cmp	r3, r2
1000057a:	d003      	beq.n	10000584 <irq_set_exclusive_handler+0x3c>
1000057c:	4299      	cmp	r1, r3
1000057e:	d001      	beq.n	10000584 <irq_set_exclusive_handler+0x3c>
10000580:	f000 ff0e 	bl	100013a0 <hard_assertion_failure>
10000584:	4b06      	ldr	r3, [pc, #24]	@ (100005a0 <irq_set_exclusive_handler+0x58>)
10000586:	689b      	ldr	r3, [r3, #8]
10000588:	f843 5024 	str.w	r5, [r3, r4, lsl #2]
1000058c:	f3bf 8f5f 	dmb	sy
10000590:	2300      	movs	r3, #0
10000592:	e8c6 3f8f 	stlb	r3, [r6]
10000596:	f387 8810 	msr	PRIMASK, r7
1000059a:	bdf8      	pop	{r3, r4, r5, r6, r7, pc}
1000059c:	20000b31 	.word	0x20000b31
100005a0:	e000ed00 	.word	0xe000ed00
100005a4:	10000111 	.word	0x10000111

100005a8 <irq_remove_handler>:
100005a8:	e92d 4ff0 	stmdb	sp!, {r4, r5, r6, r7, r8, r9, sl, fp, lr}
100005ac:	b083      	sub	sp, #12
100005ae:	f3ef 8a10 	mrs	sl, PRIMASK
100005b2:	b672      	cpsid	i
100005b4:	4e71      	ldr	r6, [pc, #452]	@ (1000077c <irq_remove_handler+0x1d4>)
100005b6:	e8d6 2fcf 	ldaexb	r2, [r6]
100005ba:	2301      	movs	r3, #1
100005bc:	2a00      	cmp	r2, #0
100005be:	d1fa      	bne.n	100005b6 <irq_remove_handler+0xe>
100005c0:	e8c6 3f42 	strexb	r2, r3, [r6]
100005c4:	2a00      	cmp	r2, #0
100005c6:	d1f6      	bne.n	100005b6 <irq_remove_handler+0xe>
100005c8:	f3bf 8f5f 	dmb	sy
100005cc:	4b6c      	ldr	r3, [pc, #432]	@ (10000780 <irq_remove_handler+0x1d8>)
100005ce:	f100 0810 	add.w	r8, r0, #16
100005d2:	689b      	ldr	r3, [r3, #8]
100005d4:	4a6b      	ldr	r2, [pc, #428]	@ (10000784 <irq_remove_handler+0x1dc>)
100005d6:	f853 5028 	ldr.w	r5, [r3, r8, lsl #2]
100005da:	4295      	cmp	r5, r2
100005dc:	d045      	beq.n	1000066a <irq_remove_handler+0xc2>
100005de:	428d      	cmp	r5, r1
100005e0:	460c      	mov	r4, r1
100005e2:	d050      	beq.n	10000686 <irq_remove_handler+0xde>
100005e4:	4f68      	ldr	r7, [pc, #416]	@ (10000788 <irq_remove_handler+0x1e0>)
100005e6:	1beb      	subs	r3, r5, r7
100005e8:	2b2f      	cmp	r3, #47	@ 0x2f
100005ea:	d83e      	bhi.n	1000066a <irq_remove_handler+0xc2>
100005ec:	2101      	movs	r1, #1
100005ee:	ea4f 1950 	mov.w	r9, r0, lsr #5
100005f2:	ea4f 0989 	mov.w	r9, r9, lsl #2
100005f6:	f109 4960 	add.w	r9, r9, #3758096384	@ 0xe0000000
100005fa:	f509 4961 	add.w	r9, r9, #57600	@ 0xe100
100005fe:	f000 031f 	and.w	r3, r0, #31
10000602:	fa01 f003 	lsl.w	r0, r1, r3
10000606:	f8d9 3000 	ldr.w	r3, [r9]
1000060a:	f8c9 0080 	str.w	r0, [r9, #128]	@ 0x80
1000060e:	ea00 0b03 	and.w	fp, r0, r3
10000612:	f3bf 8f5f 	dmb	sy
10000616:	f3ef 8105 	mrs	r1, IPSR
1000061a:	b2c9      	uxtb	r1, r1
1000061c:	2900      	cmp	r1, #0
1000061e:	d034      	beq.n	1000068a <irq_remove_handler+0xe2>
10000620:	4588      	cmp	r8, r1
10000622:	d005      	beq.n	10000630 <irq_remove_handler+0x88>
10000624:	e9cd 1000 	strd	r1, r0, [sp]
10000628:	f000 feba 	bl	100013a0 <hard_assertion_failure>
1000062c:	e9dd 1000 	ldrd	r1, r0, [sp]
10000630:	f025 0e01 	bic.w	lr, r5, #1
10000634:	f8de c008 	ldr.w	ip, [lr, #8]
10000638:	4564      	cmp	r4, ip
1000063a:	d105      	bne.n	10000648 <irq_remove_handler+0xa0>
1000063c:	e089      	b.n	10000752 <irq_remove_handler+0x1aa>
1000063e:	f8d3 c008 	ldr.w	ip, [r3, #8]
10000642:	4564      	cmp	r4, ip
10000644:	d031      	beq.n	100006aa <irq_remove_handler+0x102>
10000646:	469e      	mov	lr, r3
10000648:	f99e 2006 	ldrsb.w	r2, [lr, #6]
1000064c:	eb02 0342 	add.w	r3, r2, r2, lsl #1
10000650:	2a00      	cmp	r2, #0
10000652:	eb07 0383 	add.w	r3, r7, r3, lsl #2
10000656:	daf2      	bge.n	1000063e <irq_remove_handler+0x96>
10000658:	4564      	cmp	r4, ip
1000065a:	d061      	beq.n	10000720 <irq_remove_handler+0x178>
1000065c:	f1bb 0f00 	cmp.w	fp, #0
10000660:	d020      	beq.n	100006a4 <irq_remove_handler+0xfc>
10000662:	f8c9 0180 	str.w	r0, [r9, #384]	@ 0x180
10000666:	f8c9 0000 	str.w	r0, [r9]
1000066a:	4b45      	ldr	r3, [pc, #276]	@ (10000780 <irq_remove_handler+0x1d8>)
1000066c:	689b      	ldr	r3, [r3, #8]
1000066e:	f843 5028 	str.w	r5, [r3, r8, lsl #2]
10000672:	f3bf 8f5f 	dmb	sy
10000676:	2300      	movs	r3, #0
10000678:	e8c6 3f8f 	stlb	r3, [r6]
1000067c:	f38a 8810 	msr	PRIMASK, sl
10000680:	b003      	add	sp, #12
10000682:	e8bd 8ff0 	ldmia.w	sp!, {r4, r5, r6, r7, r8, r9, sl, fp, pc}
10000686:	4615      	mov	r5, r2
10000688:	e7ef      	b.n	1000066a <irq_remove_handler+0xc2>
1000068a:	f025 0e01 	bic.w	lr, r5, #1
1000068e:	f8de c008 	ldr.w	ip, [lr, #8]
10000692:	4564      	cmp	r4, ip
10000694:	d1d8      	bne.n	10000648 <irq_remove_handler+0xa0>
10000696:	f99e 4006 	ldrsb.w	r4, [lr, #6]
1000069a:	4673      	mov	r3, lr
1000069c:	2c00      	cmp	r4, #0
1000069e:	da08      	bge.n	100006b2 <irq_remove_handler+0x10a>
100006a0:	4615      	mov	r5, r2
100006a2:	e046      	b.n	10000732 <irq_remove_handler+0x18a>
100006a4:	f8c9 0080 	str.w	r0, [r9, #128]	@ 0x80
100006a8:	e7df      	b.n	1000066a <irq_remove_handler+0xc2>
100006aa:	f993 4006 	ldrsb.w	r4, [r3, #6]
100006ae:	2c00      	cmp	r4, #0
100006b0:	db37      	blt.n	10000722 <irq_remove_handler+0x17a>
100006b2:	eb04 0c44 	add.w	ip, r4, r4, lsl #1
100006b6:	eb07 0c8c 	add.w	ip, r7, ip, lsl #2
100006ba:	f89c 1007 	ldrb.w	r1, [ip, #7]
100006be:	f8dc 2008 	ldr.w	r2, [ip, #8]
100006c2:	71d9      	strb	r1, [r3, #7]
100006c4:	609a      	str	r2, [r3, #8]
100006c6:	f99c 2006 	ldrsb.w	r2, [ip, #6]
100006ca:	0061      	lsls	r1, r4, #1
100006cc:	2a00      	cmp	r2, #0
100006ce:	719a      	strb	r2, [r3, #6]
100006d0:	db3d      	blt.n	1000074e <irq_remove_handler+0x1a6>
100006d2:	f8bc e004 	ldrh.w	lr, [ip, #4]
100006d6:	ea5f 5e4e 	movs.w	lr, lr, lsl #21
100006da:	d505      	bpl.n	100006e8 <irq_remove_handler+0x140>
100006dc:	f50e 1eff 	add.w	lr, lr, #2088960	@ 0x1fe000
100006e0:	f50e 5eff 	add.w	lr, lr, #8160	@ 0x1fe0
100006e4:	f10e 0e1f 	add.w	lr, lr, #31
100006e8:	f06f 0c07 	mvn.w	ip, #7
100006ec:	190a      	adds	r2, r1, r4
100006ee:	ea4f 5e6e 	mov.w	lr, lr, asr #21
100006f2:	0092      	lsls	r2, r2, #2
100006f4:	eb02 024e 	add.w	r2, r2, lr, lsl #1
100006f8:	3208      	adds	r2, #8
100006fa:	443a      	add	r2, r7
100006fc:	ebac 0c03 	sub.w	ip, ip, r3
10000700:	4462      	add	r2, ip
10000702:	f3c2 024a 	ubfx	r2, r2, #1, #11
10000706:	ea6f 42c2 	mvn.w	r2, r2, lsl #19
1000070a:	ea6f 42d2 	mvn.w	r2, r2, lsr #19
1000070e:	809a      	strh	r2, [r3, #4]
10000710:	4b1e      	ldr	r3, [pc, #120]	@ (1000078c <irq_remove_handler+0x1e4>)
10000712:	4421      	add	r1, r4
10000714:	781a      	ldrb	r2, [r3, #0]
10000716:	eb07 0181 	add.w	r1, r7, r1, lsl #2
1000071a:	701c      	strb	r4, [r3, #0]
1000071c:	718a      	strb	r2, [r1, #6]
1000071e:	e79d      	b.n	1000065c <irq_remove_handler+0xb4>
10000720:	4673      	mov	r3, lr
10000722:	b9d9      	cbnz	r1, 1000075c <irq_remove_handler+0x1b4>
10000724:	22ff      	movs	r2, #255	@ 0xff
10000726:	f88e 2006 	strb.w	r2, [lr, #6]
1000072a:	f64b 5201 	movw	r2, #48385	@ 0xbd01
1000072e:	f8ae 2004 	strh.w	r2, [lr, #4]
10000732:	4c16      	ldr	r4, [pc, #88]	@ (1000078c <irq_remove_handler+0x1e4>)
10000734:	f64a 22aa 	movw	r2, #43690	@ 0xaaaa
10000738:	f894 c000 	ldrb.w	ip, [r4]
1000073c:	4619      	mov	r1, r3
1000073e:	1bc9      	subs	r1, r1, r7
10000740:	4149      	adcs	r1, r1
10000742:	434a      	muls	r2, r1
10000744:	0d12      	lsrs	r2, r2, #20
10000746:	f883 c006 	strb.w	ip, [r3, #6]
1000074a:	7022      	strb	r2, [r4, #0]
1000074c:	e786      	b.n	1000065c <irq_remove_handler+0xb4>
1000074e:	4a10      	ldr	r2, [pc, #64]	@ (10000790 <irq_remove_handler+0x1e8>)
10000750:	e7dd      	b.n	1000070e <irq_remove_handler+0x166>
10000752:	f99e 4006 	ldrsb.w	r4, [lr, #6]
10000756:	4673      	mov	r3, lr
10000758:	2c00      	cmp	r4, #0
1000075a:	daaa      	bge.n	100006b2 <irq_remove_handler+0x10a>
1000075c:	4a0d      	ldr	r2, [pc, #52]	@ (10000794 <irq_remove_handler+0x1ec>)
1000075e:	4c0e      	ldr	r4, [pc, #56]	@ (10000798 <irq_remove_handler+0x1f0>)
10000760:	1ad2      	subs	r2, r2, r3
10000762:	3a08      	subs	r2, #8
10000764:	f3c2 310a 	ubfx	r1, r2, #12, #11
10000768:	ea6f 5101 	mvn.w	r1, r1, lsl #20
1000076c:	ea6f 5111 	mvn.w	r1, r1, lsr #20
10000770:	ea44 0252 	orr.w	r2, r4, r2, lsr #1
10000774:	80da      	strh	r2, [r3, #6]
10000776:	8099      	strh	r1, [r3, #4]
10000778:	e770      	b.n	1000065c <irq_remove_handler+0xb4>
1000077a:	bf00      	nop
1000077c:	20000b31 	.word	0x20000b31
10000780:	e000ed00 	.word	0xe000ed00
10000784:	10000111 	.word	0x10000111
10000788:	20000924 	.word	0x20000924
1000078c:	20000bcd 	.word	0x20000bcd
10000790:	ffffbd01 	.word	0xffffbd01
10000794:	2000095e 	.word	0x2000095e
10000798:	fffff800 	.word	0xfffff800

1000079c <irq_add_tail_to_free_list>:
1000079c:	b5f0      	push	{r4, r5, r6, r7, lr}
1000079e:	f3ef 8505 	mrs	r5, IPSR
100007a2:	b2ed      	uxtb	r5, r5
100007a4:	f3ef 8c10 	mrs	ip, PRIMASK
100007a8:	b672      	cpsid	i
100007aa:	4926      	ldr	r1, [pc, #152]	@ (10000844 <irq_add_tail_to_free_list+0xa8>)
100007ac:	e8d1 2fcf 	ldaexb	r2, [r1]
100007b0:	2301      	movs	r3, #1
100007b2:	2a00      	cmp	r2, #0
100007b4:	d1fa      	bne.n	100007ac <irq_add_tail_to_free_list+0x10>
100007b6:	e8c1 3f42 	strexb	r2, r3, [r1]
100007ba:	2a00      	cmp	r2, #0
100007bc:	d1f6      	bne.n	100007ac <irq_add_tail_to_free_list+0x10>
100007be:	f3bf 8f5f 	dmb	sy
100007c2:	4e21      	ldr	r6, [pc, #132]	@ (10000848 <irq_add_tail_to_free_list+0xac>)
100007c4:	f040 0e01 	orr.w	lr, r0, #1
100007c8:	68b4      	ldr	r4, [r6, #8]
100007ca:	f64a 23aa 	movw	r3, #43690	@ 0xaaaa
100007ce:	f854 7025 	ldr.w	r7, [r4, r5, lsl #2]
100007d2:	4a1e      	ldr	r2, [pc, #120]	@ (1000084c <irq_add_tail_to_free_list+0xb0>)
100007d4:	4604      	mov	r4, r0
100007d6:	1aa4      	subs	r4, r4, r2
100007d8:	4164      	adcs	r4, r4
100007da:	4363      	muls	r3, r4
100007dc:	0d1b      	lsrs	r3, r3, #20
100007de:	4577      	cmp	r7, lr
100007e0:	b25b      	sxtb	r3, r3
100007e2:	d01b      	beq.n	1000081c <irq_add_tail_to_free_list+0x80>
100007e4:	f992 4006 	ldrsb.w	r4, [r2, #6]
100007e8:	429c      	cmp	r4, r3
100007ea:	d01c      	beq.n	10000826 <irq_add_tail_to_free_list+0x8a>
100007ec:	f992 4012 	ldrsb.w	r4, [r2, #18]
100007f0:	429c      	cmp	r4, r3
100007f2:	d023      	beq.n	1000083c <irq_add_tail_to_free_list+0xa0>
100007f4:	f992 401e 	ldrsb.w	r4, [r2, #30]
100007f8:	429c      	cmp	r4, r3
100007fa:	d021      	beq.n	10000840 <irq_add_tail_to_free_list+0xa4>
100007fc:	f992 402a 	ldrsb.w	r4, [r2, #42]	@ 0x2a
10000800:	429c      	cmp	r4, r3
10000802:	bf08      	it	eq
10000804:	2403      	moveq	r4, #3
10000806:	d00f      	beq.n	10000828 <irq_add_tail_to_free_list+0x8c>
10000808:	4a11      	ldr	r2, [pc, #68]	@ (10000850 <irq_add_tail_to_free_list+0xb4>)
1000080a:	2400      	movs	r4, #0
1000080c:	7815      	ldrb	r5, [r2, #0]
1000080e:	7013      	strb	r3, [r2, #0]
10000810:	7185      	strb	r5, [r0, #6]
10000812:	e8c1 4f8f 	stlb	r4, [r1]
10000816:	f38c 8810 	msr	PRIMASK, ip
1000081a:	bdf0      	pop	{r4, r5, r6, r7, pc}
1000081c:	68b2      	ldr	r2, [r6, #8]
1000081e:	4c0d      	ldr	r4, [pc, #52]	@ (10000854 <irq_add_tail_to_free_list+0xb8>)
10000820:	f842 4025 	str.w	r4, [r2, r5, lsl #2]
10000824:	e7f0      	b.n	10000808 <irq_add_tail_to_free_list+0x6c>
10000826:	2400      	movs	r4, #0
10000828:	eb04 0444 	add.w	r4, r4, r4, lsl #1
1000082c:	eb02 0284 	add.w	r2, r2, r4, lsl #2
10000830:	24ff      	movs	r4, #255	@ 0xff
10000832:	7194      	strb	r4, [r2, #6]
10000834:	f64b 5401 	movw	r4, #48385	@ 0xbd01
10000838:	8094      	strh	r4, [r2, #4]
1000083a:	e7e5      	b.n	10000808 <irq_add_tail_to_free_list+0x6c>
1000083c:	2401      	movs	r4, #1
1000083e:	e7f3      	b.n	10000828 <irq_add_tail_to_free_list+0x8c>
10000840:	2402      	movs	r4, #2
10000842:	e7f1      	b.n	10000828 <irq_add_tail_to_free_list+0x8c>
10000844:	20000b31 	.word	0x20000b31
10000848:	e000ed00 	.word	0xe000ed00
1000084c:	20000924 	.word	0x20000924
10000850:	20000bcd 	.word	0x20000bcd
10000854:	10000111 	.word	0x10000111

10000858 <lock_init>:
10000858:	4b01      	ldr	r3, [pc, #4]	@ (10000860 <lock_init+0x8>)
1000085a:	440b      	add	r3, r1
1000085c:	6003      	str	r3, [r0, #0]
1000085e:	4770      	bx	lr
10000860:	20000b28 	.word	0x20000b28

10000864 <runtime_init_mutex>:
10000864:	b570      	push	{r4, r5, r6, lr}
10000866:	4c10      	ldr	r4, [pc, #64]	@ (100008a8 <runtime_init_mutex+0x44>)
10000868:	4d10      	ldr	r5, [pc, #64]	@ (100008ac <runtime_init_mutex+0x48>)
1000086a:	42ac      	cmp	r4, r5
1000086c:	d20e      	bcs.n	1000088c <runtime_init_mutex+0x28>
1000086e:	26ff      	movs	r6, #255	@ 0xff
10000870:	6823      	ldr	r3, [r4, #0]
10000872:	b163      	cbz	r3, 1000088e <runtime_init_mutex+0x2a>
10000874:	f7ff fe12 	bl	1000049c <next_striped_spin_lock_num>
10000878:	4601      	mov	r1, r0
1000087a:	4620      	mov	r0, r4
1000087c:	f7ff ffec 	bl	10000858 <lock_init>
10000880:	80a6      	strh	r6, [r4, #4]
10000882:	f3bf 8f5f 	dmb	sy
10000886:	3408      	adds	r4, #8
10000888:	42ac      	cmp	r4, r5
1000088a:	d3f1      	bcc.n	10000870 <runtime_init_mutex+0xc>
1000088c:	bd70      	pop	{r4, r5, r6, pc}
1000088e:	f7ff fe05 	bl	1000049c <next_striped_spin_lock_num>
10000892:	4601      	mov	r1, r0
10000894:	4620      	mov	r0, r4
10000896:	f7ff ffdf 	bl	10000858 <lock_init>
1000089a:	7126      	strb	r6, [r4, #4]
1000089c:	f3bf 8f5f 	dmb	sy
100008a0:	3408      	adds	r4, #8
100008a2:	42ac      	cmp	r4, r5
100008a4:	d3e4      	bcc.n	10000870 <runtime_init_mutex+0xc>
100008a6:	bd70      	pop	{r4, r5, r6, pc}
100008a8:	2000099c 	.word	0x2000099c
100008ac:	200009a4 	.word	0x200009a4

100008b0 <sleep_until_callback>:
100008b0:	4b0d      	ldr	r3, [pc, #52]	@ (100008e8 <sleep_until_callback+0x38>)
100008b2:	681a      	ldr	r2, [r3, #0]
100008b4:	f3ef 8110 	mrs	r1, PRIMASK
100008b8:	b672      	cpsid	i
100008ba:	e8d2 cfcf 	ldaexb	ip, [r2]
100008be:	2001      	movs	r0, #1
100008c0:	f1bc 0f00 	cmp.w	ip, #0
100008c4:	d1f9      	bne.n	100008ba <sleep_until_callback+0xa>
100008c6:	e8c2 0f4c 	strexb	ip, r0, [r2]
100008ca:	f1bc 0f00 	cmp.w	ip, #0
100008ce:	d1f4      	bne.n	100008ba <sleep_until_callback+0xa>
100008d0:	f3bf 8f5f 	dmb	sy
100008d4:	2200      	movs	r2, #0
100008d6:	681b      	ldr	r3, [r3, #0]
100008d8:	e8c3 2f8f 	stlb	r2, [r3]
100008dc:	f381 8810 	msr	PRIMASK, r1
100008e0:	bf40      	sev
100008e2:	2000      	movs	r0, #0
100008e4:	2100      	movs	r1, #0
100008e6:	4770      	bx	lr
100008e8:	20000bc0 	.word	0x20000bc0
100008ec:	00000000 	.word	0x00000000

100008f0 <alarm_pool_irq_handler>:
100008f0:	e92d 4ff0 	stmdb	sp!, {r4, r5, r6, r7, r8, r9, sl, fp, lr}
100008f4:	ed2d 8b02 	vpush	{d8}
100008f8:	b085      	sub	sp, #20
100008fa:	f3ef 8305 	mrs	r3, IPSR
100008fe:	b2db      	uxtb	r3, r3
10000900:	3b10      	subs	r3, #16
10000902:	089a      	lsrs	r2, r3, #2
10000904:	bf18      	it	ne
10000906:	2201      	movne	r2, #1
10000908:	f04f 0101 	mov.w	r1, #1
1000090c:	f003 0b03 	and.w	fp, r3, #3
10000910:	bf18      	it	ne
10000912:	4daf      	ldrne	r5, [pc, #700]	@ (10000bd0 <alarm_pool_irq_handler+0x2e0>)
10000914:	4baf      	ldr	r3, [pc, #700]	@ (10000bd4 <alarm_pool_irq_handler+0x2e4>)
10000916:	bf08      	it	eq
10000918:	4daf      	ldreq	r5, [pc, #700]	@ (10000bd8 <alarm_pool_irq_handler+0x2e8>)
1000091a:	eb0b 0282 	add.w	r2, fp, r2, lsl #2
1000091e:	f853 6022 	ldr.w	r6, [r3, r2, lsl #2]
10000922:	fa01 f20b 	lsl.w	r2, r1, fp
10000926:	f505 5341 	add.w	r3, r5, #12352	@ 0x3040
1000092a:	ed9f 8ba7 	vldr	d8, [pc, #668]	@ 10000bc8 <alarm_pool_irq_handler+0x2d8>
1000092e:	9201      	str	r2, [sp, #4]
10000930:	605a      	str	r2, [r3, #4]
10000932:	e02f      	b.n	10000994 <alarm_pool_irq_handler+0xa4>
10000934:	88b3      	ldrh	r3, [r6, #4]
10000936:	041c      	lsls	r4, r3, #16
10000938:	f140 8093 	bpl.w	10000a62 <alarm_pool_irq_handler+0x172>
1000093c:	79b3      	ldrb	r3, [r6, #6]
1000093e:	2b00      	cmp	r3, #0
10000940:	f040 80dd 	bne.w	10000afe <alarm_pool_irq_handler+0x20e>
10000944:	f9b6 2008 	ldrsh.w	r2, [r6, #8]
10000948:	2a00      	cmp	r2, #0
1000094a:	f2c0 811e 	blt.w	10000b8a <alarm_pool_irq_handler+0x29a>
1000094e:	6973      	ldr	r3, [r6, #20]
10000950:	eb02 0242 	add.w	r2, r2, r2, lsl #1
10000954:	eb03 03c2 	add.w	r3, r3, r2, lsl #3
10000958:	e9d3 4702 	ldrd	r4, r7, [r3, #8]
1000095c:	f1b7 3fff 	cmp.w	r7, #4294967295
10000960:	bf08      	it	eq
10000962:	f1b4 3fff 	cmpeq.w	r4, #4294967295
10000966:	d00e      	beq.n	10000986 <alarm_pool_irq_handler+0x96>
10000968:	eb05 018b 	add.w	r1, r5, fp, lsl #2
1000096c:	6aab      	ldr	r3, [r5, #40]	@ 0x28
1000096e:	690a      	ldr	r2, [r1, #16]
10000970:	1ad2      	subs	r2, r2, r3
10000972:	1ae3      	subs	r3, r4, r3
10000974:	4293      	cmp	r3, r2
10000976:	d305      	bcc.n	10000984 <alarm_pool_irq_handler+0x94>
10000978:	2301      	movs	r3, #1
1000097a:	6a2a      	ldr	r2, [r5, #32]
1000097c:	fa03 f30b 	lsl.w	r3, r3, fp
10000980:	4213      	tst	r3, r2
10000982:	d100      	bne.n	10000986 <alarm_pool_irq_handler+0x96>
10000984:	610c      	str	r4, [r1, #16]
10000986:	4628      	mov	r0, r5
10000988:	f000 fb38 	bl	10000ffc <timer_time_us_64>
1000098c:	42a0      	cmp	r0, r4
1000098e:	41b9      	sbcs	r1, r7
10000990:	f2c0 80fb 	blt.w	10000b8a <alarm_pool_irq_handler+0x29a>
10000994:	f9b6 3008 	ldrsh.w	r3, [r6, #8]
10000998:	9a01      	ldr	r2, [sp, #4]
1000099a:	2b00      	cmp	r3, #0
1000099c:	9300      	str	r3, [sp, #0]
1000099e:	63ea      	str	r2, [r5, #60]	@ 0x3c
100009a0:	dbc8      	blt.n	10000934 <alarm_pool_irq_handler+0x44>
100009a2:	f8d6 8014 	ldr.w	r8, [r6, #20]
100009a6:	eb03 0943 	add.w	r9, r3, r3, lsl #1
100009aa:	4628      	mov	r0, r5
100009ac:	eb08 07c9 	add.w	r7, r8, r9, lsl #3
100009b0:	e9d7 4a02 	ldrd	r4, sl, [r7, #8]
100009b4:	f000 fb22 	bl	10000ffc <timer_time_us_64>
100009b8:	42a0      	cmp	r0, r4
100009ba:	eb71 010a 	sbcs.w	r1, r1, sl
100009be:	dbb9      	blt.n	10000934 <alarm_pool_irq_handler+0x44>
100009c0:	f1ba 0f00 	cmp.w	sl, #0
100009c4:	f2c0 80c3 	blt.w	10000b4e <alarm_pool_irq_handler+0x25e>
100009c8:	e9d7 3104 	ldrd	r3, r1, [r7, #16]
100009cc:	4a83      	ldr	r2, [pc, #524]	@ (10000bdc <alarm_pool_irq_handler+0x2ec>)
100009ce:	4293      	cmp	r3, r2
100009d0:	f000 80ed 	beq.w	10000bae <alarm_pool_irq_handler+0x2be>
100009d4:	887a      	ldrh	r2, [r7, #2]
100009d6:	f9b6 0008 	ldrsh.w	r0, [r6, #8]
100009da:	b292      	uxth	r2, r2
100009dc:	ea42 4000 	orr.w	r0, r2, r0, lsl #16
100009e0:	4798      	blx	r3
100009e2:	4602      	mov	r2, r0
100009e4:	460b      	mov	r3, r1
100009e6:	ea52 0103 	orrs.w	r1, r2, r3
100009ea:	f000 80b0 	beq.w	10000b4e <alarm_pool_irq_handler+0x25e>
100009ee:	2b00      	cmp	r3, #0
100009f0:	f280 80d1 	bge.w	10000b96 <alarm_pool_irq_handler+0x2a6>
100009f4:	ebb4 0e02 	subs.w	lr, r4, r2
100009f8:	eb6a 0a03 	sbc.w	sl, sl, r3
100009fc:	f938 3039 	ldrsh.w	r3, [r8, r9, lsl #3]
10000a00:	e9c7 ea02 	strd	lr, sl, [r7, #8]
10000a04:	2b00      	cmp	r3, #0
10000a06:	db95      	blt.n	10000934 <alarm_pool_irq_handler+0x44>
10000a08:	6971      	ldr	r1, [r6, #20]
10000a0a:	eb03 0243 	add.w	r2, r3, r3, lsl #1
10000a0e:	eb01 02c2 	add.w	r2, r1, r2, lsl #3
10000a12:	e9d2 7002 	ldrd	r7, r0, [r2, #8]
10000a16:	45be      	cmp	lr, r7
10000a18:	eb7a 0c00 	sbcs.w	ip, sl, r0
10000a1c:	ea4f 0243 	mov.w	r2, r3, lsl #1
10000a20:	db88      	blt.n	10000934 <alarm_pool_irq_handler+0x44>
10000a22:	46b4      	mov	ip, r6
10000a24:	f82c 3f08 	strh.w	r3, [ip, #8]!
10000a28:	e006      	b.n	10000a38 <alarm_pool_irq_handler+0x148>
10000a2a:	eb03 0043 	add.w	r0, r3, r3, lsl #1
10000a2e:	eb01 00c0 	add.w	r0, r1, r0, lsl #3
10000a32:	005a      	lsls	r2, r3, #1
10000a34:	e9d0 7002 	ldrd	r7, r0, [r0, #8]
10000a38:	45be      	cmp	lr, r7
10000a3a:	441a      	add	r2, r3
10000a3c:	eb7a 0000 	sbcs.w	r0, sl, r0
10000a40:	eb01 04c2 	add.w	r4, r1, r2, lsl #3
10000a44:	db04      	blt.n	10000a50 <alarm_pool_irq_handler+0x160>
10000a46:	f931 3032 	ldrsh.w	r3, [r1, r2, lsl #3]
10000a4a:	46a4      	mov	ip, r4
10000a4c:	2b00      	cmp	r3, #0
10000a4e:	daec      	bge.n	10000a2a <alarm_pool_irq_handler+0x13a>
10000a50:	f828 3039 	strh.w	r3, [r8, r9, lsl #3]
10000a54:	9b00      	ldr	r3, [sp, #0]
10000a56:	f8ac 3000 	strh.w	r3, [ip]
10000a5a:	88b3      	ldrh	r3, [r6, #4]
10000a5c:	041c      	lsls	r4, r3, #16
10000a5e:	f53f af6d 	bmi.w	1000093c <alarm_pool_irq_handler+0x4c>
10000a62:	6933      	ldr	r3, [r6, #16]
10000a64:	f3ef 8210 	mrs	r2, PRIMASK
10000a68:	b672      	cpsid	i
10000a6a:	e8d3 0fcf 	ldaexb	r0, [r3]
10000a6e:	2101      	movs	r1, #1
10000a70:	2800      	cmp	r0, #0
10000a72:	d1fa      	bne.n	10000a6a <alarm_pool_irq_handler+0x17a>
10000a74:	e8c3 1f40 	strexb	r0, r1, [r3]
10000a78:	2800      	cmp	r0, #0
10000a7a:	d1f6      	bne.n	10000a6a <alarm_pool_irq_handler+0x17a>
10000a7c:	f3bf 8f5f 	dmb	sy
10000a80:	f64f 74ff 	movw	r4, #65535	@ 0xffff
10000a84:	88b0      	ldrh	r0, [r6, #4]
10000a86:	2300      	movs	r3, #0
10000a88:	6931      	ldr	r1, [r6, #16]
10000a8a:	b200      	sxth	r0, r0
10000a8c:	80b4      	strh	r4, [r6, #4]
10000a8e:	e8c1 3f8f 	stlb	r3, [r1]
10000a92:	f382 8810 	msr	PRIMASK, r2
10000a96:	4298      	cmp	r0, r3
10000a98:	f6ff af50 	blt.w	1000093c <alarm_pool_irq_handler+0x4c>
10000a9c:	4607      	mov	r7, r0
10000a9e:	46a9      	mov	r9, r5
10000aa0:	6974      	ldr	r4, [r6, #20]
10000aa2:	f106 0808 	add.w	r8, r6, #8
10000aa6:	eb07 0e47 	add.w	lr, r7, r7, lsl #1
10000aaa:	eb04 03ce 	add.w	r3, r4, lr, lsl #3
10000aae:	e9d3 5002 	ldrd	r5, r0, [r3, #8]
10000ab2:	f9b6 3008 	ldrsh.w	r3, [r6, #8]
10000ab6:	46c4      	mov	ip, r8
10000ab8:	2b00      	cmp	r3, #0
10000aba:	db13      	blt.n	10000ae4 <alarm_pool_irq_handler+0x1f4>
10000abc:	46b2      	mov	sl, r6
10000abe:	9700      	str	r7, [sp, #0]
10000ac0:	e004      	b.n	10000acc <alarm_pool_irq_handler+0x1dc>
10000ac2:	f934 3036 	ldrsh.w	r3, [r4, r6, lsl #3]
10000ac6:	4694      	mov	ip, r2
10000ac8:	2b00      	cmp	r3, #0
10000aca:	db09      	blt.n	10000ae0 <alarm_pool_irq_handler+0x1f0>
10000acc:	eb03 0643 	add.w	r6, r3, r3, lsl #1
10000ad0:	eb04 02c6 	add.w	r2, r4, r6, lsl #3
10000ad4:	e9d2 7102 	ldrd	r7, r1, [r2, #8]
10000ad8:	42bd      	cmp	r5, r7
10000ada:	eb70 0101 	sbcs.w	r1, r0, r1
10000ade:	daf0      	bge.n	10000ac2 <alarm_pool_irq_handler+0x1d2>
10000ae0:	4656      	mov	r6, sl
10000ae2:	9f00      	ldr	r7, [sp, #0]
10000ae4:	f8ac 7000 	strh.w	r7, [ip]
10000ae8:	f934 703e 	ldrsh.w	r7, [r4, lr, lsl #3]
10000aec:	f824 303e 	strh.w	r3, [r4, lr, lsl #3]
10000af0:	2f00      	cmp	r7, #0
10000af2:	dad8      	bge.n	10000aa6 <alarm_pool_irq_handler+0x1b6>
10000af4:	79b3      	ldrb	r3, [r6, #6]
10000af6:	464d      	mov	r5, r9
10000af8:	2b00      	cmp	r3, #0
10000afa:	f43f af23 	beq.w	10000944 <alarm_pool_irq_handler+0x54>
10000afe:	2300      	movs	r3, #0
10000b00:	71b3      	strb	r3, [r6, #6]
10000b02:	f9b6 3008 	ldrsh.w	r3, [r6, #8]
10000b06:	f106 0808 	add.w	r8, r6, #8
10000b0a:	1c58      	adds	r0, r3, #1
10000b0c:	d03d      	beq.n	10000b8a <alarm_pool_irq_handler+0x29a>
10000b0e:	461a      	mov	r2, r3
10000b10:	6977      	ldr	r7, [r6, #20]
10000b12:	e003      	b.n	10000b1c <alarm_pool_irq_handler+0x22c>
10000b14:	4680      	mov	r8, r0
10000b16:	1c59      	adds	r1, r3, #1
10000b18:	f43f af16 	beq.w	10000948 <alarm_pool_irq_handler+0x58>
10000b1c:	eb03 0143 	add.w	r1, r3, r3, lsl #1
10000b20:	eb07 00c1 	add.w	r0, r7, r1, lsl #3
10000b24:	f8b0 c002 	ldrh.w	ip, [r0, #2]
10000b28:	461c      	mov	r4, r3
10000b2a:	f41c 4f00 	tst.w	ip, #32768	@ 0x8000
10000b2e:	469e      	mov	lr, r3
10000b30:	f937 3031 	ldrsh.w	r3, [r7, r1, lsl #3]
10000b34:	d0ee      	beq.n	10000b14 <alarm_pool_irq_handler+0x224>
10000b36:	4294      	cmp	r4, r2
10000b38:	ed80 8b02 	vstr	d8, [r0, #8]
10000b3c:	d005      	beq.n	10000b4a <alarm_pool_irq_handler+0x25a>
10000b3e:	f8a8 3000 	strh.w	r3, [r8]
10000b42:	8932      	ldrh	r2, [r6, #8]
10000b44:	f827 2031 	strh.w	r2, [r7, r1, lsl #3]
10000b48:	8134      	strh	r4, [r6, #8]
10000b4a:	4672      	mov	r2, lr
10000b4c:	e7e3      	b.n	10000b16 <alarm_pool_irq_handler+0x226>
10000b4e:	f838 3039 	ldrh.w	r3, [r8, r9, lsl #3]
10000b52:	8133      	strh	r3, [r6, #8]
10000b54:	6933      	ldr	r3, [r6, #16]
10000b56:	f3ef 8210 	mrs	r2, PRIMASK
10000b5a:	b672      	cpsid	i
10000b5c:	e8d3 0fcf 	ldaexb	r0, [r3]
10000b60:	2101      	movs	r1, #1
10000b62:	2800      	cmp	r0, #0
10000b64:	d1fa      	bne.n	10000b5c <alarm_pool_irq_handler+0x26c>
10000b66:	e8c3 1f40 	strexb	r0, r1, [r3]
10000b6a:	2800      	cmp	r0, #0
10000b6c:	d1f6      	bne.n	10000b5c <alarm_pool_irq_handler+0x26c>
10000b6e:	f3bf 8f5f 	dmb	sy
10000b72:	8873      	ldrh	r3, [r6, #2]
10000b74:	6931      	ldr	r1, [r6, #16]
10000b76:	f828 3039 	strh.w	r3, [r8, r9, lsl #3]
10000b7a:	9b00      	ldr	r3, [sp, #0]
10000b7c:	8073      	strh	r3, [r6, #2]
10000b7e:	2300      	movs	r3, #0
10000b80:	e8c1 3f8f 	stlb	r3, [r1]
10000b84:	f382 8810 	msr	PRIMASK, r2
10000b88:	e6d4      	b.n	10000934 <alarm_pool_irq_handler+0x44>
10000b8a:	bf40      	sev
10000b8c:	b005      	add	sp, #20
10000b8e:	ecbd 8b02 	vpop	{d8}
10000b92:	e8bd 8ff0 	ldmia.w	sp!, {r4, r5, r6, r7, r8, r9, sl, fp, pc}
10000b96:	4628      	mov	r0, r5
10000b98:	e9cd 2302 	strd	r2, r3, [sp, #8]
10000b9c:	f000 fa2e 	bl	10000ffc <timer_time_us_64>
10000ba0:	9a02      	ldr	r2, [sp, #8]
10000ba2:	9b03      	ldr	r3, [sp, #12]
10000ba4:	eb10 0e02 	adds.w	lr, r0, r2
10000ba8:	eb43 0a01 	adc.w	sl, r3, r1
10000bac:	e726      	b.n	100009fc <alarm_pool_irq_handler+0x10c>
10000bae:	4608      	mov	r0, r1
10000bb0:	690b      	ldr	r3, [r1, #16]
10000bb2:	9102      	str	r1, [sp, #8]
10000bb4:	4798      	blx	r3
10000bb6:	2800      	cmp	r0, #0
10000bb8:	d0c9      	beq.n	10000b4e <alarm_pool_irq_handler+0x25e>
10000bba:	9902      	ldr	r1, [sp, #8]
10000bbc:	e9d1 2300 	ldrd	r2, r3, [r1]
10000bc0:	e711      	b.n	100009e6 <alarm_pool_irq_handler+0xf6>
10000bc2:	bf00      	nop
10000bc4:	f3af 8000 	nop.w
10000bc8:	ffffffff 	.word	0xffffffff
10000bcc:	ffffffff 	.word	0xffffffff
10000bd0:	400b8000 	.word	0x400b8000
10000bd4:	20000ba0 	.word	0x20000ba0
10000bd8:	400b0000 	.word	0x400b0000
10000bdc:	100008f1 	.word	0x100008f1

10000be0 <runtime_init_default_alarm_pool>:
10000be0:	e92d 4ff8 	stmdb	sp!, {r3, r4, r5, r6, r7, r8, r9, sl, fp, lr}
10000be4:	4c36      	ldr	r4, [pc, #216]	@ (10000cc0 <runtime_init_default_alarm_pool+0xe0>)
10000be6:	6925      	ldr	r5, [r4, #16]
10000be8:	b12d      	cbz	r5, 10000bf6 <runtime_init_default_alarm_pool+0x16>
10000bea:	e8bd 4ff8 	ldmia.w	sp!, {r3, r4, r5, r6, r7, r8, r9, sl, fp, lr}
10000bee:	210a      	movs	r1, #10
10000bf0:	4834      	ldr	r0, [pc, #208]	@ (10000cc4 <runtime_init_default_alarm_pool+0xe4>)
10000bf2:	f7ff be31 	b.w	10000858 <lock_init>
10000bf6:	f8df 80e4 	ldr.w	r8, [pc, #228]	@ 10000cdc <runtime_init_default_alarm_pool+0xfc>
10000bfa:	2103      	movs	r1, #3
10000bfc:	4640      	mov	r0, r8
10000bfe:	f000 f9eb 	bl	10000fd8 <timer_hardware_alarm_claim>
10000c02:	2603      	movs	r6, #3
10000c04:	f8c4 800c 	str.w	r8, [r4, #12]
10000c08:	f7ff fc48 	bl	1000049c <next_striped_spin_lock_num>
10000c0c:	f04f 4c50 	mov.w	ip, #3489660928	@ 0xd0000000
10000c10:	4b2d      	ldr	r3, [pc, #180]	@ (10000cc8 <runtime_init_default_alarm_pool+0xe8>)
10000c12:	7026      	strb	r6, [r4, #0]
10000c14:	4403      	add	r3, r0
10000c16:	6123      	str	r3, [r4, #16]
10000c18:	f8dc 3000 	ldr.w	r3, [ip]
10000c1c:	210f      	movs	r1, #15
10000c1e:	7063      	strb	r3, [r4, #1]
10000c20:	6963      	ldr	r3, [r4, #20]
10000c22:	8061      	strh	r1, [r4, #2]
10000c24:	831d      	strh	r5, [r3, #24]
10000c26:	f04f 0504 	mov.w	r5, #4
10000c2a:	f8a3 5078 	strh.w	r5, [r3, #120]	@ 0x78
10000c2e:	f04f 0505 	mov.w	r5, #5
10000c32:	f8a3 5090 	strh.w	r5, [r3, #144]	@ 0x90
10000c36:	f04f 0506 	mov.w	r5, #6
10000c3a:	f8a3 50a8 	strh.w	r5, [r3, #168]	@ 0xa8
10000c3e:	f04f 0507 	mov.w	r5, #7
10000c42:	210e      	movs	r1, #14
10000c44:	f64f 72ff 	movw	r2, #65535	@ 0xffff
10000c48:	2708      	movs	r7, #8
10000c4a:	f04f 0e0a 	mov.w	lr, #10
10000c4e:	f8a3 50c0 	strh.w	r5, [r3, #192]	@ 0xc0
10000c52:	f04f 0901 	mov.w	r9, #1
10000c56:	f04f 0c0c 	mov.w	ip, #12
10000c5a:	f04f 0b02 	mov.w	fp, #2
10000c5e:	f04f 0a09 	mov.w	sl, #9
10000c62:	200d      	movs	r0, #13
10000c64:	f04f 050b 	mov.w	r5, #11
10000c68:	f8a3 1168 	strh.w	r1, [r3, #360]	@ 0x168
10000c6c:	4917      	ldr	r1, [pc, #92]	@ (10000ccc <runtime_init_default_alarm_pool+0xec>)
10000c6e:	80a2      	strh	r2, [r4, #4]
10000c70:	f8a3 e108 	strh.w	lr, [r3, #264]	@ 0x108
10000c74:	60a1      	str	r1, [r4, #8]
10000c76:	f8a3 b048 	strh.w	fp, [r3, #72]	@ 0x48
10000c7a:	f8a3 a0f0 	strh.w	sl, [r3, #240]	@ 0xf0
10000c7e:	f8a3 5120 	strh.w	r5, [r3, #288]	@ 0x120
10000c82:	f8a3 c138 	strh.w	ip, [r3, #312]	@ 0x138
10000c86:	f8a3 0150 	strh.w	r0, [r3, #336]	@ 0x150
10000c8a:	f8a3 9030 	strh.w	r9, [r3, #48]	@ 0x30
10000c8e:	f8a3 6060 	strh.w	r6, [r3, #96]	@ 0x60
10000c92:	f8a3 70d8 	strh.w	r7, [r3, #216]	@ 0xd8
10000c96:	801a      	strh	r2, [r3, #0]
10000c98:	4b0d      	ldr	r3, [pc, #52]	@ (10000cd0 <runtime_init_default_alarm_pool+0xf0>)
10000c9a:	4630      	mov	r0, r6
10000c9c:	f8c8 7020 	str.w	r7, [r8, #32]
10000ca0:	490c      	ldr	r1, [pc, #48]	@ (10000cd4 <runtime_init_default_alarm_pool+0xf4>)
10000ca2:	60dc      	str	r4, [r3, #12]
10000ca4:	f7ff fc50 	bl	10000548 <irq_set_exclusive_handler>
10000ca8:	4649      	mov	r1, r9
10000caa:	4630      	mov	r0, r6
10000cac:	f7ff fc36 	bl	1000051c <irq_set_enabled>
10000cb0:	4b09      	ldr	r3, [pc, #36]	@ (10000cd8 <runtime_init_default_alarm_pool+0xf8>)
10000cb2:	210a      	movs	r1, #10
10000cb4:	641f      	str	r7, [r3, #64]	@ 0x40
10000cb6:	4803      	ldr	r0, [pc, #12]	@ (10000cc4 <runtime_init_default_alarm_pool+0xe4>)
10000cb8:	e8bd 4ff8 	ldmia.w	sp!, {r3, r4, r5, r6, r7, r8, r9, sl, fp, lr}
10000cbc:	f7ff bdcc 	b.w	10000858 <lock_init>
10000cc0:	2000096c 	.word	0x2000096c
10000cc4:	20000bc0 	.word	0x20000bc0
10000cc8:	20000b28 	.word	0x20000b28
10000ccc:	0010ffff 	.word	0x0010ffff
10000cd0:	20000ba0 	.word	0x20000ba0
10000cd4:	100008f1 	.word	0x100008f1
10000cd8:	400b2000 	.word	0x400b2000
10000cdc:	400b0000 	.word	0x400b0000

10000ce0 <alarm_pool_add_alarm_at_force_in_context>:
10000ce0:	4601      	mov	r1, r0
10000ce2:	b5f0      	push	{r4, r5, r6, r7, lr}
10000ce4:	6900      	ldr	r0, [r0, #16]
10000ce6:	f3ef 8710 	mrs	r7, PRIMASK
10000cea:	b672      	cpsid	i
10000cec:	e8d0 5fcf 	ldaexb	r5, [r0]
10000cf0:	2401      	movs	r4, #1
10000cf2:	2d00      	cmp	r5, #0
10000cf4:	d1fa      	bne.n	10000cec <alarm_pool_add_alarm_at_force_in_context+0xc>
10000cf6:	e8c0 4f45 	strexb	r5, r4, [r0]
10000cfa:	2d00      	cmp	r5, #0
10000cfc:	d1f6      	bne.n	10000cec <alarm_pool_add_alarm_at_force_in_context+0xc>
10000cfe:	f3bf 8f5f 	dmb	sy
10000d02:	f9b1 e002 	ldrsh.w	lr, [r1, #2]
10000d06:	694c      	ldr	r4, [r1, #20]
10000d08:	eb0e 0c4e 	add.w	ip, lr, lr, lsl #1
10000d0c:	f1be 0f00 	cmp.w	lr, #0
10000d10:	ea4f 05cc 	mov.w	r5, ip, lsl #3
10000d14:	6908      	ldr	r0, [r1, #16]
10000d16:	eb04 0ccc 	add.w	ip, r4, ip, lsl #3
10000d1a:	db3c      	blt.n	10000d96 <alarm_pool_add_alarm_at_force_in_context+0xb6>
10000d1c:	5b66      	ldrh	r6, [r4, r5]
10000d1e:	804e      	strh	r6, [r1, #2]
10000d20:	2600      	movs	r6, #0
10000d22:	e8c0 6f8f 	stlb	r6, [r0]
10000d26:	f387 8810 	msr	PRIMASK, r7
10000d2a:	f8bc 0002 	ldrh.w	r0, [ip, #2]
10000d2e:	e9cc 2302 	strd	r2, r3, [ip, #8]
10000d32:	3001      	adds	r0, #1
10000d34:	f3c0 000e 	ubfx	r0, r0, #0, #15
10000d38:	2801      	cmp	r0, #1
10000d3a:	bf38      	it	cc
10000d3c:	2001      	movcc	r0, #1
10000d3e:	9b05      	ldr	r3, [sp, #20]
10000d40:	f8ac 0002 	strh.w	r0, [ip, #2]
10000d44:	f8cc 3010 	str.w	r3, [ip, #16]
10000d48:	9b06      	ldr	r3, [sp, #24]
10000d4a:	ea40 400e 	orr.w	r0, r0, lr, lsl #16
10000d4e:	f8cc 3014 	str.w	r3, [ip, #20]
10000d52:	690b      	ldr	r3, [r1, #16]
10000d54:	f3ef 8210 	mrs	r2, PRIMASK
10000d58:	b672      	cpsid	i
10000d5a:	e8d3 cfcf 	ldaexb	ip, [r3]
10000d5e:	2701      	movs	r7, #1
10000d60:	f1bc 0f00 	cmp.w	ip, #0
10000d64:	d1f9      	bne.n	10000d5a <alarm_pool_add_alarm_at_force_in_context+0x7a>
10000d66:	e8c3 7f4c 	strexb	ip, r7, [r3]
10000d6a:	f1bc 0f00 	cmp.w	ip, #0
10000d6e:	d1f4      	bne.n	10000d5a <alarm_pool_add_alarm_at_force_in_context+0x7a>
10000d70:	f3bf 8f5f 	dmb	sy
10000d74:	888b      	ldrh	r3, [r1, #4]
10000d76:	5363      	strh	r3, [r4, r5]
10000d78:	f8a1 e004 	strh.w	lr, [r1, #4]
10000d7c:	690b      	ldr	r3, [r1, #16]
10000d7e:	e8c3 6f8f 	stlb	r6, [r3]
10000d82:	f382 8810 	msr	PRIMASK, r2
10000d86:	2201      	movs	r2, #1
10000d88:	68cb      	ldr	r3, [r1, #12]
10000d8a:	7809      	ldrb	r1, [r1, #0]
10000d8c:	f503 5301 	add.w	r3, r3, #8256	@ 0x2040
10000d90:	408a      	lsls	r2, r1
10000d92:	605a      	str	r2, [r3, #4]
10000d94:	bdf0      	pop	{r4, r5, r6, r7, pc}
10000d96:	2300      	movs	r3, #0
10000d98:	e8c0 3f8f 	stlb	r3, [r0]
10000d9c:	f387 8810 	msr	PRIMASK, r7
10000da0:	f04f 30ff 	mov.w	r0, #4294967295
10000da4:	bdf0      	pop	{r4, r5, r6, r7, pc}
10000da6:	bf00      	nop

10000da8 <alarm_pool_cancel_alarm>:
10000da8:	4603      	mov	r3, r0
10000daa:	8940      	ldrh	r0, [r0, #10]
10000dac:	ebb0 4f21 	cmp.w	r0, r1, asr #16
10000db0:	dd37      	ble.n	10000e22 <alarm_pool_cancel_alarm+0x7a>
10000db2:	6958      	ldr	r0, [r3, #20]
10000db4:	140a      	asrs	r2, r1, #16
10000db6:	eb02 0242 	add.w	r2, r2, r2, lsl #1
10000dba:	b510      	push	{r4, lr}
10000dbc:	eb00 00c2 	add.w	r0, r0, r2, lsl #3
10000dc0:	691c      	ldr	r4, [r3, #16]
10000dc2:	f3ef 8c10 	mrs	ip, PRIMASK
10000dc6:	b672      	cpsid	i
10000dc8:	e8d4 efcf 	ldaexb	lr, [r4]
10000dcc:	2201      	movs	r2, #1
10000dce:	f1be 0f00 	cmp.w	lr, #0
10000dd2:	d1f9      	bne.n	10000dc8 <alarm_pool_cancel_alarm+0x20>
10000dd4:	e8c4 2f4e 	strexb	lr, r2, [r4]
10000dd8:	f1be 0f00 	cmp.w	lr, #0
10000ddc:	d1f4      	bne.n	10000dc8 <alarm_pool_cancel_alarm+0x20>
10000dde:	f3bf 8f5f 	dmb	sy
10000de2:	8842      	ldrh	r2, [r0, #2]
10000de4:	b289      	uxth	r1, r1
10000de6:	b292      	uxth	r2, r2
10000de8:	428a      	cmp	r2, r1
10000dea:	d007      	beq.n	10000dfc <alarm_pool_cancel_alarm+0x54>
10000dec:	2200      	movs	r2, #0
10000dee:	691b      	ldr	r3, [r3, #16]
10000df0:	e8c3 2f8f 	stlb	r2, [r3]
10000df4:	f38c 8810 	msr	PRIMASK, ip
10000df8:	2000      	movs	r0, #0
10000dfa:	bd10      	pop	{r4, pc}
10000dfc:	f442 4200 	orr.w	r2, r2, #32768	@ 0x8000
10000e00:	8042      	strh	r2, [r0, #2]
10000e02:	2101      	movs	r1, #1
10000e04:	2200      	movs	r2, #0
10000e06:	6918      	ldr	r0, [r3, #16]
10000e08:	7199      	strb	r1, [r3, #6]
10000e0a:	e8c0 2f8f 	stlb	r2, [r0]
10000e0e:	f38c 8810 	msr	PRIMASK, ip
10000e12:	781c      	ldrb	r4, [r3, #0]
10000e14:	68da      	ldr	r2, [r3, #12]
10000e16:	4608      	mov	r0, r1
10000e18:	f502 5301 	add.w	r3, r2, #8256	@ 0x2040
10000e1c:	40a1      	lsls	r1, r4
10000e1e:	6059      	str	r1, [r3, #4]
10000e20:	bd10      	pop	{r4, pc}
10000e22:	2000      	movs	r0, #0
10000e24:	4770      	bx	lr
10000e26:	bf00      	nop

10000e28 <sleep_ms>:
10000e28:	e92d 41f0 	stmdb	sp!, {r4, r5, r6, r7, r8, lr}
10000e2c:	b082      	sub	sp, #8
10000e2e:	4606      	mov	r6, r0
10000e30:	f000 f8ec 	bl	1000100c <time_us_64>
10000e34:	f44f 737a 	mov.w	r3, #1000	@ 0x3e8
10000e38:	4604      	mov	r4, r0
10000e3a:	f04f 30ff 	mov.w	r0, #4294967295
10000e3e:	f06f 4200 	mvn.w	r2, #2147483648	@ 0x80000000
10000e42:	fbe6 4103 	umlal	r4, r1, r6, r3
10000e46:	42a0      	cmp	r0, r4
10000e48:	eb72 0301 	sbcs.w	r3, r2, r1
10000e4c:	bf3a      	itte	cc
10000e4e:	4604      	movcc	r4, r0
10000e50:	4615      	movcc	r5, r2
10000e52:	460d      	movcs	r5, r1
10000e54:	1fa6      	subs	r6, r4, #6
10000e56:	f145 37ff 	adc.w	r7, r5, #4294967295
10000e5a:	42b4      	cmp	r4, r6
10000e5c:	eb75 0307 	sbcs.w	r3, r5, r7
10000e60:	bf3c      	itt	cc
10000e62:	2600      	movcc	r6, #0
10000e64:	4637      	movcc	r7, r6
10000e66:	f000 f8d1 	bl	1000100c <time_us_64>
10000e6a:	1a30      	subs	r0, r6, r0
10000e6c:	eb67 0101 	sbc.w	r1, r7, r1
10000e70:	2801      	cmp	r0, #1
10000e72:	f171 0100 	sbcs.w	r1, r1, #0
10000e76:	da06      	bge.n	10000e86 <sleep_ms+0x5e>
10000e78:	4620      	mov	r0, r4
10000e7a:	4629      	mov	r1, r5
10000e7c:	b002      	add	sp, #8
10000e7e:	e8bd 41f0 	ldmia.w	sp!, {r4, r5, r6, r7, r8, lr}
10000e82:	f000 b8fb 	b.w	1000107c <busy_wait_until>
10000e86:	f000 f8c1 	bl	1000100c <time_us_64>
10000e8a:	4286      	cmp	r6, r0
10000e8c:	eb67 0101 	sbc.w	r1, r7, r1
10000e90:	2900      	cmp	r1, #0
10000e92:	db0a      	blt.n	10000eaa <sleep_ms+0x82>
10000e94:	2100      	movs	r1, #0
10000e96:	4b17      	ldr	r3, [pc, #92]	@ (10000ef4 <sleep_ms+0xcc>)
10000e98:	4632      	mov	r2, r6
10000e9a:	9300      	str	r3, [sp, #0]
10000e9c:	4816      	ldr	r0, [pc, #88]	@ (10000ef8 <sleep_ms+0xd0>)
10000e9e:	463b      	mov	r3, r7
10000ea0:	9101      	str	r1, [sp, #4]
10000ea2:	f7ff ff1d 	bl	10000ce0 <alarm_pool_add_alarm_at_force_in_context>
10000ea6:	3001      	adds	r0, #1
10000ea8:	d0e6      	beq.n	10000e78 <sleep_ms+0x50>
10000eaa:	f04f 0c00 	mov.w	ip, #0
10000eae:	4a13      	ldr	r2, [pc, #76]	@ (10000efc <sleep_ms+0xd4>)
10000eb0:	4913      	ldr	r1, [pc, #76]	@ (10000f00 <sleep_ms+0xd8>)
10000eb2:	6a53      	ldr	r3, [r2, #36]	@ 0x24
10000eb4:	429f      	cmp	r7, r3
10000eb6:	d804      	bhi.n	10000ec2 <sleep_ms+0x9a>
10000eb8:	6a90      	ldr	r0, [r2, #40]	@ 0x28
10000eba:	42b0      	cmp	r0, r6
10000ebc:	d2dc      	bcs.n	10000e78 <sleep_ms+0x50>
10000ebe:	429f      	cmp	r7, r3
10000ec0:	d1da      	bne.n	10000e78 <sleep_ms+0x50>
10000ec2:	680b      	ldr	r3, [r1, #0]
10000ec4:	f3ef 8010 	mrs	r0, PRIMASK
10000ec8:	b672      	cpsid	i
10000eca:	e8d3 8fcf 	ldaexb	r8, [r3]
10000ece:	f05f 0e01 	movs.w	lr, #1
10000ed2:	f1b8 0f00 	cmp.w	r8, #0
10000ed6:	d1f8      	bne.n	10000eca <sleep_ms+0xa2>
10000ed8:	e8c3 ef48 	strexb	r8, lr, [r3]
10000edc:	f1b8 0f00 	cmp.w	r8, #0
10000ee0:	d1f3      	bne.n	10000eca <sleep_ms+0xa2>
10000ee2:	f3bf 8f5f 	dmb	sy
10000ee6:	680b      	ldr	r3, [r1, #0]
10000ee8:	e8c3 cf8f 	stlb	ip, [r3]
10000eec:	f380 8810 	msr	PRIMASK, r0
10000ef0:	bf20      	wfe
10000ef2:	e7de      	b.n	10000eb2 <sleep_ms+0x8a>
10000ef4:	100008b1 	.word	0x100008b1
10000ef8:	2000096c 	.word	0x2000096c
10000efc:	400b0000 	.word	0x400b0000
10000f00:	20000bc0 	.word	0x20000bc0

10000f04 <best_effort_wfe_or_timeout>:
10000f04:	e92d 43f0 	stmdb	sp!, {r4, r5, r6, r7, r8, r9, lr}
10000f08:	4606      	mov	r6, r0
10000f0a:	460d      	mov	r5, r1
10000f0c:	b083      	sub	sp, #12
10000f0e:	f3ef 8405 	mrs	r4, IPSR
10000f12:	b2e4      	uxtb	r4, r4
10000f14:	b13c      	cbz	r4, 10000f26 <best_effort_wfe_or_timeout+0x22>
10000f16:	4b2d      	ldr	r3, [pc, #180]	@ (10000fcc <best_effort_wfe_or_timeout+0xc8>)
10000f18:	6a5a      	ldr	r2, [r3, #36]	@ 0x24
10000f1a:	42aa      	cmp	r2, r5
10000f1c:	d21c      	bcs.n	10000f58 <best_effort_wfe_or_timeout+0x54>
10000f1e:	2000      	movs	r0, #0
10000f20:	b003      	add	sp, #12
10000f22:	e8bd 83f0 	ldmia.w	sp!, {r4, r5, r6, r7, r8, r9, pc}
10000f26:	4f2a      	ldr	r7, [pc, #168]	@ (10000fd0 <best_effort_wfe_or_timeout+0xcc>)
10000f28:	f8d7 900c 	ldr.w	r9, [r7, #12]
10000f2c:	f897 8000 	ldrb.w	r8, [r7]
10000f30:	4648      	mov	r0, r9
10000f32:	f000 f863 	bl	10000ffc <timer_time_us_64>
10000f36:	f108 0804 	add.w	r8, r8, #4
10000f3a:	f859 3028 	ldr.w	r3, [r9, r8, lsl #2]
10000f3e:	1a1b      	subs	r3, r3, r0
10000f40:	1a30      	subs	r0, r6, r0
10000f42:	eb65 0101 	sbc.w	r1, r5, r1
10000f46:	4298      	cmp	r0, r3
10000f48:	f171 0100 	sbcs.w	r1, r1, #0
10000f4c:	db10      	blt.n	10000f70 <best_effort_wfe_or_timeout+0x6c>
10000f4e:	bf20      	wfe
10000f50:	4b1e      	ldr	r3, [pc, #120]	@ (10000fcc <best_effort_wfe_or_timeout+0xc8>)
10000f52:	6a5a      	ldr	r2, [r3, #36]	@ 0x24
10000f54:	42aa      	cmp	r2, r5
10000f56:	d3e2      	bcc.n	10000f1e <best_effort_wfe_or_timeout+0x1a>
10000f58:	bf14      	ite	ne
10000f5a:	2401      	movne	r4, #1
10000f5c:	2400      	moveq	r4, #0
10000f5e:	6a9b      	ldr	r3, [r3, #40]	@ 0x28
10000f60:	42b3      	cmp	r3, r6
10000f62:	bf34      	ite	cc
10000f64:	4620      	movcc	r0, r4
10000f66:	f044 0001 	orrcs.w	r0, r4, #1
10000f6a:	b003      	add	sp, #12
10000f6c:	e8bd 83f0 	ldmia.w	sp!, {r4, r5, r6, r7, r8, r9, pc}
10000f70:	f000 f84c 	bl	1000100c <time_us_64>
10000f74:	4286      	cmp	r6, r0
10000f76:	eb65 0101 	sbc.w	r1, r5, r1
10000f7a:	2900      	cmp	r1, #0
10000f7c:	db14      	blt.n	10000fa8 <best_effort_wfe_or_timeout+0xa4>
10000f7e:	4b15      	ldr	r3, [pc, #84]	@ (10000fd4 <best_effort_wfe_or_timeout+0xd0>)
10000f80:	4638      	mov	r0, r7
10000f82:	e9cd 3400 	strd	r3, r4, [sp]
10000f86:	4632      	mov	r2, r6
10000f88:	462b      	mov	r3, r5
10000f8a:	f7ff fea9 	bl	10000ce0 <alarm_pool_add_alarm_at_force_in_context>
10000f8e:	1e01      	subs	r1, r0, #0
10000f90:	dd0a      	ble.n	10000fa8 <best_effort_wfe_or_timeout+0xa4>
10000f92:	4b0e      	ldr	r3, [pc, #56]	@ (10000fcc <best_effort_wfe_or_timeout+0xc8>)
10000f94:	6a5a      	ldr	r2, [r3, #36]	@ 0x24
10000f96:	42aa      	cmp	r2, r5
10000f98:	d316      	bcc.n	10000fc8 <best_effort_wfe_or_timeout+0xc4>
10000f9a:	6a9b      	ldr	r3, [r3, #40]	@ 0x28
10000f9c:	42b3      	cmp	r3, r6
10000f9e:	d311      	bcc.n	10000fc4 <best_effort_wfe_or_timeout+0xc0>
10000fa0:	480b      	ldr	r0, [pc, #44]	@ (10000fd0 <best_effort_wfe_or_timeout+0xcc>)
10000fa2:	f7ff ff01 	bl	10000da8 <alarm_pool_cancel_alarm>
10000fa6:	e7b6      	b.n	10000f16 <best_effort_wfe_or_timeout+0x12>
10000fa8:	4b08      	ldr	r3, [pc, #32]	@ (10000fcc <best_effort_wfe_or_timeout+0xc8>)
10000faa:	6a5c      	ldr	r4, [r3, #36]	@ 0x24
10000fac:	42ac      	cmp	r4, r5
10000fae:	d3b6      	bcc.n	10000f1e <best_effort_wfe_or_timeout+0x1a>
10000fb0:	1b64      	subs	r4, r4, r5
10000fb2:	bf18      	it	ne
10000fb4:	2401      	movne	r4, #1
10000fb6:	6a9b      	ldr	r3, [r3, #40]	@ 0x28
10000fb8:	42b3      	cmp	r3, r6
10000fba:	bf34      	ite	cc
10000fbc:	4620      	movcc	r0, r4
10000fbe:	f044 0001 	orrcs.w	r0, r4, #1
10000fc2:	e7ad      	b.n	10000f20 <best_effort_wfe_or_timeout+0x1c>
10000fc4:	42aa      	cmp	r2, r5
10000fc6:	d1eb      	bne.n	10000fa0 <best_effort_wfe_or_timeout+0x9c>
10000fc8:	bf20      	wfe
10000fca:	e7e9      	b.n	10000fa0 <best_effort_wfe_or_timeout+0x9c>
10000fcc:	400b0000 	.word	0x400b0000
10000fd0:	2000096c 	.word	0x2000096c
10000fd4:	100008b1 	.word	0x100008b1

10000fd8 <timer_hardware_alarm_claim>:
10000fd8:	b410      	push	{r4}
10000fda:	4b05      	ldr	r3, [pc, #20]	@ (10000ff0 <timer_hardware_alarm_claim+0x18>)
10000fdc:	4c05      	ldr	r4, [pc, #20]	@ (10000ff4 <timer_hardware_alarm_claim+0x1c>)
10000fde:	4a06      	ldr	r2, [pc, #24]	@ (10000ff8 <timer_hardware_alarm_claim+0x20>)
10000fe0:	42a0      	cmp	r0, r4
10000fe2:	bf14      	ite	ne
10000fe4:	4618      	movne	r0, r3
10000fe6:	1c58      	addeq	r0, r3, #1
10000fe8:	f85d 4b04 	ldr.w	r4, [sp], #4
10000fec:	f7ff ba2a 	b.w	10000444 <hw_claim_or_assert>
10000ff0:	20000b50 	.word	0x20000b50
10000ff4:	400b8000 	.word	0x400b8000
10000ff8:	100037d0 	.word	0x100037d0

10000ffc <timer_time_us_64>:
10000ffc:	4603      	mov	r3, r0
10000ffe:	6a41      	ldr	r1, [r0, #36]	@ 0x24
10001000:	460a      	mov	r2, r1
10001002:	6a98      	ldr	r0, [r3, #40]	@ 0x28
10001004:	6a59      	ldr	r1, [r3, #36]	@ 0x24
10001006:	428a      	cmp	r2, r1
10001008:	d1fa      	bne.n	10001000 <timer_time_us_64+0x4>
1000100a:	4770      	bx	lr

1000100c <time_us_64>:
1000100c:	4b03      	ldr	r3, [pc, #12]	@ (1000101c <time_us_64+0x10>)
1000100e:	6a59      	ldr	r1, [r3, #36]	@ 0x24
10001010:	460a      	mov	r2, r1
10001012:	6a98      	ldr	r0, [r3, #40]	@ 0x28
10001014:	6a59      	ldr	r1, [r3, #36]	@ 0x24
10001016:	4291      	cmp	r1, r2
10001018:	d1fa      	bne.n	10001010 <time_us_64+0x4>
1000101a:	4770      	bx	lr
1000101c:	400b0000 	.word	0x400b0000

10001020 <busy_wait_us>:
10001020:	b430      	push	{r4, r5}
10001022:	4a15      	ldr	r2, [pc, #84]	@ (10001078 <busy_wait_us+0x58>)
10001024:	6a53      	ldr	r3, [r2, #36]	@ 0x24
10001026:	469c      	mov	ip, r3
10001028:	6a94      	ldr	r4, [r2, #40]	@ 0x28
1000102a:	6a53      	ldr	r3, [r2, #36]	@ 0x24
1000102c:	4563      	cmp	r3, ip
1000102e:	d1fa      	bne.n	10001026 <busy_wait_us+0x6>
10001030:	1902      	adds	r2, r0, r4
10001032:	4159      	adcs	r1, r3
10001034:	f04f 0500 	mov.w	r5, #0
10001038:	bf28      	it	cs
1000103a:	2501      	movcs	r5, #1
1000103c:	4b0e      	ldr	r3, [pc, #56]	@ (10001078 <busy_wait_us+0x58>)
1000103e:	6a5b      	ldr	r3, [r3, #36]	@ 0x24
10001040:	b1b5      	cbz	r5, 10001070 <busy_wait_us+0x50>
10001042:	1c5a      	adds	r2, r3, #1
10001044:	bf08      	it	eq
10001046:	461a      	moveq	r2, r3
10001048:	d008      	beq.n	1000105c <busy_wait_us+0x3c>
1000104a:	f04f 31ff 	mov.w	r1, #4294967295
1000104e:	460a      	mov	r2, r1
10001050:	4809      	ldr	r0, [pc, #36]	@ (10001078 <busy_wait_us+0x58>)
10001052:	6a43      	ldr	r3, [r0, #36]	@ 0x24
10001054:	428b      	cmp	r3, r1
10001056:	d3fc      	bcc.n	10001052 <busy_wait_us+0x32>
10001058:	428b      	cmp	r3, r1
1000105a:	d107      	bne.n	1000106c <busy_wait_us+0x4c>
1000105c:	4906      	ldr	r1, [pc, #24]	@ (10001078 <busy_wait_us+0x58>)
1000105e:	e002      	b.n	10001066 <busy_wait_us+0x46>
10001060:	6a48      	ldr	r0, [r1, #36]	@ 0x24
10001062:	4298      	cmp	r0, r3
10001064:	d102      	bne.n	1000106c <busy_wait_us+0x4c>
10001066:	6a88      	ldr	r0, [r1, #40]	@ 0x28
10001068:	4290      	cmp	r0, r2
1000106a:	d3f9      	bcc.n	10001060 <busy_wait_us+0x40>
1000106c:	bc30      	pop	{r4, r5}
1000106e:	4770      	bx	lr
10001070:	4299      	cmp	r1, r3
10001072:	d8ed      	bhi.n	10001050 <busy_wait_us+0x30>
10001074:	e7f0      	b.n	10001058 <busy_wait_us+0x38>
10001076:	bf00      	nop
10001078:	400b0000 	.word	0x400b0000

1000107c <busy_wait_until>:
1000107c:	4a07      	ldr	r2, [pc, #28]	@ (1000109c <busy_wait_until+0x20>)
1000107e:	6a53      	ldr	r3, [r2, #36]	@ 0x24
10001080:	4299      	cmp	r1, r3
10001082:	d8fc      	bhi.n	1000107e <busy_wait_until+0x2>
10001084:	4299      	cmp	r1, r3
10001086:	d107      	bne.n	10001098 <busy_wait_until+0x1c>
10001088:	4b04      	ldr	r3, [pc, #16]	@ (1000109c <busy_wait_until+0x20>)
1000108a:	e002      	b.n	10001092 <busy_wait_until+0x16>
1000108c:	6a5a      	ldr	r2, [r3, #36]	@ 0x24
1000108e:	4291      	cmp	r1, r2
10001090:	d102      	bne.n	10001098 <busy_wait_until+0x1c>
10001092:	6a9a      	ldr	r2, [r3, #40]	@ 0x28
10001094:	4290      	cmp	r0, r2
10001096:	d8f9      	bhi.n	1000108c <busy_wait_until+0x10>
10001098:	4770      	bx	lr
1000109a:	bf00      	nop
1000109c:	400b0000 	.word	0x400b0000

100010a0 <uart_init>:
100010a0:	b5f8      	push	{r3, r4, r5, r6, r7, lr}
100010a2:	4605      	mov	r5, r0
100010a4:	2006      	movs	r0, #6
100010a6:	460e      	mov	r6, r1
100010a8:	f000 f8e4 	bl	10001274 <clock_get_hz>
100010ac:	2800      	cmp	r0, #0
100010ae:	d042      	beq.n	10001136 <uart_init+0x96>
100010b0:	4a35      	ldr	r2, [pc, #212]	@ (10001188 <uart_init+0xe8>)
100010b2:	4836      	ldr	r0, [pc, #216]	@ (1000118c <uart_init+0xec>)
100010b4:	4295      	cmp	r5, r2
100010b6:	bf14      	ite	ne
100010b8:	f04f 6280 	movne.w	r2, #67108864	@ 0x4000000
100010bc:	f04f 6200 	moveq.w	r2, #134217728	@ 0x8000000
100010c0:	4b33      	ldr	r3, [pc, #204]	@ (10001190 <uart_init+0xf0>)
100010c2:	4934      	ldr	r1, [pc, #208]	@ (10001194 <uart_init+0xf4>)
100010c4:	6002      	str	r2, [r0, #0]
100010c6:	601a      	str	r2, [r3, #0]
100010c8:	688c      	ldr	r4, [r1, #8]
100010ca:	ea32 0404 	bics.w	r4, r2, r4
100010ce:	d1fb      	bne.n	100010c8 <uart_init+0x28>
100010d0:	4b2d      	ldr	r3, [pc, #180]	@ (10001188 <uart_init+0xe8>)
100010d2:	f44f 7180 	mov.w	r1, #256	@ 0x100
100010d6:	1aeb      	subs	r3, r5, r3
100010d8:	fab3 f383 	clz	r3, r3
100010dc:	4a2e      	ldr	r2, [pc, #184]	@ (10001198 <uart_init+0xf8>)
100010de:	095b      	lsrs	r3, r3, #5
100010e0:	2006      	movs	r0, #6
100010e2:	f822 1013 	strh.w	r1, [r2, r3, lsl #1]
100010e6:	f000 f8c5 	bl	10001274 <clock_get_hz>
100010ea:	00c3      	lsls	r3, r0, #3
100010ec:	fbb3 f3f6 	udiv	r3, r3, r6
100010f0:	3301      	adds	r3, #1
100010f2:	09da      	lsrs	r2, r3, #7
100010f4:	d120      	bne.n	10001138 <uart_init+0x98>
100010f6:	2640      	movs	r6, #64	@ 0x40
100010f8:	2101      	movs	r1, #1
100010fa:	6269      	str	r1, [r5, #36]	@ 0x24
100010fc:	62aa      	str	r2, [r5, #40]	@ 0x28
100010fe:	6b2f      	ldr	r7, [r5, #48]	@ 0x30
10001100:	07fb      	lsls	r3, r7, #31
10001102:	d422      	bmi.n	1000114a <uart_init+0xaa>
10001104:	462b      	mov	r3, r5
10001106:	2200      	movs	r2, #0
10001108:	f853 1f2c 	ldr.w	r1, [r3, #44]!
1000110c:	2006      	movs	r0, #6
1000110e:	f503 5480 	add.w	r4, r3, #4096	@ 0x1000
10001112:	6022      	str	r2, [r4, #0]
10001114:	632f      	str	r7, [r5, #48]	@ 0x30
10001116:	f000 f8ad 	bl	10001274 <clock_get_hz>
1000111a:	f240 3101 	movw	r1, #769	@ 0x301
1000111e:	2203      	movs	r2, #3
10001120:	0080      	lsls	r0, r0, #2
10001122:	fbb0 f0f6 	udiv	r0, r0, r6
10001126:	6aeb      	ldr	r3, [r5, #44]	@ 0x2c
10001128:	f083 0370 	eor.w	r3, r3, #112	@ 0x70
1000112c:	f003 037e 	and.w	r3, r3, #126	@ 0x7e
10001130:	6023      	str	r3, [r4, #0]
10001132:	6329      	str	r1, [r5, #48]	@ 0x30
10001134:	64aa      	str	r2, [r5, #72]	@ 0x48
10001136:	bdf8      	pop	{r3, r4, r5, r6, r7, pc}
10001138:	f64f 71fe 	movw	r1, #65534	@ 0xfffe
1000113c:	428a      	cmp	r2, r1
1000113e:	d91b      	bls.n	10001178 <uart_init+0xd8>
10001140:	4622      	mov	r2, r4
10001142:	f64f 71ff 	movw	r1, #65535	@ 0xffff
10001146:	4e15      	ldr	r6, [pc, #84]	@ (1000119c <uart_init+0xfc>)
10001148:	e7d7      	b.n	100010fa <uart_init+0x5a>
1000114a:	f240 3201 	movw	r2, #769	@ 0x301
1000114e:	f505 5340 	add.w	r3, r5, #12288	@ 0x3000
10001152:	631a      	str	r2, [r3, #48]	@ 0x30
10001154:	6a6b      	ldr	r3, [r5, #36]	@ 0x24
10001156:	6aac      	ldr	r4, [r5, #40]	@ 0x28
10001158:	2006      	movs	r0, #6
1000115a:	eb04 1483 	add.w	r4, r4, r3, lsl #6
1000115e:	f000 f889 	bl	10001274 <clock_get_hz>
10001162:	4b0f      	ldr	r3, [pc, #60]	@ (100011a0 <uart_init+0x100>)
10001164:	02a4      	lsls	r4, r4, #10
10001166:	fba3 2300 	umull	r2, r3, r3, r0
1000116a:	0adb      	lsrs	r3, r3, #11
1000116c:	2100      	movs	r1, #0
1000116e:	fbb4 f0f3 	udiv	r0, r4, r3
10001172:	f7ff ff55 	bl	10001020 <busy_wait_us>
10001176:	e7c5      	b.n	10001104 <uart_init+0x64>
10001178:	f3c3 0345 	ubfx	r3, r3, #1, #6
1000117c:	4611      	mov	r1, r2
1000117e:	eb03 1682 	add.w	r6, r3, r2, lsl #6
10001182:	461a      	mov	r2, r3
10001184:	e7b9      	b.n	100010fa <uart_init+0x5a>
10001186:	bf00      	nop
10001188:	40078000 	.word	0x40078000
1000118c:	40022000 	.word	0x40022000
10001190:	40023000 	.word	0x40023000
10001194:	40020000 	.word	0x40020000
10001198:	20000bc4 	.word	0x20000bc4
1000119c:	003fffc0 	.word	0x003fffc0
100011a0:	8f2b7b75 	.word	0x8f2b7b75

100011a4 <clock_configure_undivided>:
100011a4:	eb00 0c40 	add.w	ip, r0, r0, lsl #1
100011a8:	ea4f 0c8c 	mov.w	ip, ip, lsl #2
100011ac:	f10c 4c80 	add.w	ip, ip, #1073741824	@ 0x40000000
100011b0:	f50c 3c80 	add.w	ip, ip, #65536	@ 0x10000
100011b4:	b5f0      	push	{r4, r5, r6, r7, lr}
100011b6:	4616      	mov	r6, r2
100011b8:	f8dc 2004 	ldr.w	r2, [ip, #4]
100011bc:	1f05      	subs	r5, r0, #4
100011be:	f5b2 3f80 	cmp.w	r2, #65536	@ 0x10000
100011c2:	bf38      	it	cc
100011c4:	f44f 3280 	movcc.w	r2, #65536	@ 0x10000
100011c8:	b2ed      	uxtb	r5, r5
100011ca:	bf38      	it	cc
100011cc:	f8cc 2004 	strcc.w	r2, [ip, #4]
100011d0:	2d01      	cmp	r5, #1
100011d2:	d92a      	bls.n	1000122a <clock_configure_undivided+0x86>
100011d4:	f44f 6700 	mov.w	r7, #2048	@ 0x800
100011d8:	4c25      	ldr	r4, [pc, #148]	@ (10001270 <clock_configure_undivided+0xcc>)
100011da:	f50c 5240 	add.w	r2, ip, #12288	@ 0x3000
100011de:	6017      	str	r7, [r2, #0]
100011e0:	f854 2020 	ldr.w	r2, [r4, r0, lsl #2]
100011e4:	b9b2      	cbnz	r2, 10001214 <clock_configure_undivided+0x70>
100011e6:	f8dc 2000 	ldr.w	r2, [ip]
100011ea:	2d01      	cmp	r5, #1
100011ec:	ea82 1246 	eor.w	r2, r2, r6, lsl #5
100011f0:	f002 02e0 	and.w	r2, r2, #224	@ 0xe0
100011f4:	f50c 5680 	add.w	r6, ip, #4096	@ 0x1000
100011f8:	6032      	str	r2, [r6, #0]
100011fa:	d92a      	bls.n	10001252 <clock_configure_undivided+0xae>
100011fc:	f44f 6100 	mov.w	r1, #2048	@ 0x800
10001200:	f844 3020 	str.w	r3, [r4, r0, lsl #2]
10001204:	f44f 3380 	mov.w	r3, #65536	@ 0x10000
10001208:	f50c 5200 	add.w	r2, ip, #8192	@ 0x2000
1000120c:	6011      	str	r1, [r2, #0]
1000120e:	f8cc 3004 	str.w	r3, [ip, #4]
10001212:	bdf0      	pop	{r4, r5, r6, r7, pc}
10001214:	6967      	ldr	r7, [r4, #20]
10001216:	fbb7 fef2 	udiv	lr, r7, r2
1000121a:	f10e 0e01 	add.w	lr, lr, #1
1000121e:	eb0e 0e4e 	add.w	lr, lr, lr, lsl #1
10001222:	f1be 0e03 	subs.w	lr, lr, #3
10001226:	d2fc      	bcs.n	10001222 <clock_configure_undivided+0x7e>
10001228:	e7dd      	b.n	100011e6 <clock_configure_undivided+0x42>
1000122a:	2901      	cmp	r1, #1
1000122c:	d1d2      	bne.n	100011d4 <clock_configure_undivided+0x30>
1000122e:	2403      	movs	r4, #3
10001230:	f50c 5240 	add.w	r2, ip, #12288	@ 0x3000
10001234:	6014      	str	r4, [r2, #0]
10001236:	f8dc 2008 	ldr.w	r2, [ip, #8]
1000123a:	07d2      	lsls	r2, r2, #31
1000123c:	d5fb      	bpl.n	10001236 <clock_configure_undivided+0x92>
1000123e:	f8dc 2000 	ldr.w	r2, [ip]
10001242:	4c0b      	ldr	r4, [pc, #44]	@ (10001270 <clock_configure_undivided+0xcc>)
10001244:	ea82 1246 	eor.w	r2, r2, r6, lsl #5
10001248:	f002 02e0 	and.w	r2, r2, #224	@ 0xe0
1000124c:	f50c 5680 	add.w	r6, ip, #4096	@ 0x1000
10001250:	6032      	str	r2, [r6, #0]
10001252:	2201      	movs	r2, #1
10001254:	f8dc 5000 	ldr.w	r5, [ip]
10001258:	404d      	eors	r5, r1
1000125a:	f005 0503 	and.w	r5, r5, #3
1000125e:	6035      	str	r5, [r6, #0]
10001260:	fa02 f101 	lsl.w	r1, r2, r1
10001264:	f8dc 2008 	ldr.w	r2, [ip, #8]
10001268:	420a      	tst	r2, r1
1000126a:	d0fb      	beq.n	10001264 <clock_configure_undivided+0xc0>
1000126c:	e7c6      	b.n	100011fc <clock_configure_undivided+0x58>
1000126e:	bf00      	nop
10001270:	20000b54 	.word	0x20000b54

10001274 <clock_get_hz>:
10001274:	4b01      	ldr	r3, [pc, #4]	@ (1000127c <clock_get_hz+0x8>)
10001276:	f853 0020 	ldr.w	r0, [r3, r0, lsl #2]
1000127a:	4770      	bx	lr
1000127c:	20000b54 	.word	0x20000b54

10001280 <pll_init>:
10001280:	b470      	push	{r4, r5, r6}
10001282:	9d03      	ldr	r5, [sp, #12]
10001284:	6804      	ldr	r4, [r0, #0]
10001286:	032d      	lsls	r5, r5, #12
10001288:	ea45 4503 	orr.w	r5, r5, r3, lsl #16
1000128c:	4b1b      	ldr	r3, [pc, #108]	@ (100012fc <pll_init+0x7c>)
1000128e:	2c00      	cmp	r4, #0
10001290:	fbb3 f3f1 	udiv	r3, r3, r1
10001294:	fbb2 f6f3 	udiv	r6, r2, r3
10001298:	db1f      	blt.n	100012da <pll_init+0x5a>
1000129a:	4a19      	ldr	r2, [pc, #100]	@ (10001300 <pll_init+0x80>)
1000129c:	4b19      	ldr	r3, [pc, #100]	@ (10001304 <pll_init+0x84>)
1000129e:	4290      	cmp	r0, r2
100012a0:	bf14      	ite	ne
100012a2:	f44f 4280 	movne.w	r2, #16384	@ 0x4000
100012a6:	f44f 4200 	moveq.w	r2, #32768	@ 0x8000
100012aa:	4c17      	ldr	r4, [pc, #92]	@ (10001308 <pll_init+0x88>)
100012ac:	601a      	str	r2, [r3, #0]
100012ae:	f503 5380 	add.w	r3, r3, #4096	@ 0x1000
100012b2:	601a      	str	r2, [r3, #0]
100012b4:	68a3      	ldr	r3, [r4, #8]
100012b6:	ea32 0303 	bics.w	r3, r2, r3
100012ba:	d1fb      	bne.n	100012b4 <pll_init+0x34>
100012bc:	2221      	movs	r2, #33	@ 0x21
100012be:	f500 5340 	add.w	r3, r0, #12288	@ 0x3000
100012c2:	3304      	adds	r3, #4
100012c4:	6001      	str	r1, [r0, #0]
100012c6:	6086      	str	r6, [r0, #8]
100012c8:	601a      	str	r2, [r3, #0]
100012ca:	6802      	ldr	r2, [r0, #0]
100012cc:	2a00      	cmp	r2, #0
100012ce:	dafc      	bge.n	100012ca <pll_init+0x4a>
100012d0:	2208      	movs	r2, #8
100012d2:	60c5      	str	r5, [r0, #12]
100012d4:	601a      	str	r2, [r3, #0]
100012d6:	bc70      	pop	{r4, r5, r6}
100012d8:	4770      	bx	lr
100012da:	6803      	ldr	r3, [r0, #0]
100012dc:	f003 033f 	and.w	r3, r3, #63	@ 0x3f
100012e0:	428b      	cmp	r3, r1
100012e2:	d1da      	bne.n	1000129a <pll_init+0x1a>
100012e4:	6883      	ldr	r3, [r0, #8]
100012e6:	f3c3 030b 	ubfx	r3, r3, #0, #12
100012ea:	42b3      	cmp	r3, r6
100012ec:	d1d5      	bne.n	1000129a <pll_init+0x1a>
100012ee:	68c3      	ldr	r3, [r0, #12]
100012f0:	f403 23ee 	and.w	r3, r3, #487424	@ 0x77000
100012f4:	42ab      	cmp	r3, r5
100012f6:	d1d0      	bne.n	1000129a <pll_init+0x1a>
100012f8:	e7ed      	b.n	100012d6 <pll_init+0x56>
100012fa:	bf00      	nop
100012fc:	00b71b00 	.word	0x00b71b00
10001300:	40058000 	.word	0x40058000
10001304:	40022000 	.word	0x40022000
10001308:	40020000 	.word	0x40020000

1000130c <tick_start>:
1000130c:	2301      	movs	r3, #1
1000130e:	eb00 0040 	add.w	r0, r0, r0, lsl #1
10001312:	0080      	lsls	r0, r0, #2
10001314:	f100 4080 	add.w	r0, r0, #1073741824	@ 0x40000000
10001318:	f500 1084 	add.w	r0, r0, #1081344	@ 0x108000
1000131c:	6041      	str	r1, [r0, #4]
1000131e:	6003      	str	r3, [r0, #0]
10001320:	4770      	bx	lr
10001322:	bf00      	nop

10001324 <rom_func_lookup>:
10001324:	2300      	movs	r3, #0
10001326:	8adb      	ldrh	r3, [r3, #22]
10001328:	2200      	movs	r2, #0
1000132a:	e842 f200 	tt	r2, r2
1000132e:	0252      	lsls	r2, r2, #9
10001330:	d401      	bmi.n	10001336 <rom_func_lookup+0x12>
10001332:	2110      	movs	r1, #16
10001334:	4718      	bx	r3
10001336:	2104      	movs	r1, #4
10001338:	4718      	bx	r3
1000133a:	bf00      	nop

1000133c <runtime_init_bootrom_locking_enable>:
1000133c:	4a03      	ldr	r2, [pc, #12]	@ (1000134c <runtime_init_bootrom_locking_enable+0x10>)
1000133e:	f8d2 3828 	ldr.w	r3, [r2, #2088]	@ 0x828
10001342:	2b00      	cmp	r3, #0
10001344:	d0fb      	beq.n	1000133e <runtime_init_bootrom_locking_enable+0x2>
10001346:	f3bf 8f5f 	dmb	sy
1000134a:	4770      	bx	lr
1000134c:	400e0000 	.word	0x400e0000

10001350 <runtime_init_boot_locks_reset>:
10001350:	2100      	movs	r1, #0
10001352:	4b04      	ldr	r3, [pc, #16]	@ (10001364 <runtime_init_boot_locks_reset+0x14>)
10001354:	4a04      	ldr	r2, [pc, #16]	@ (10001368 <runtime_init_boot_locks_reset+0x18>)
10001356:	f3bf 8f5f 	dmb	sy
1000135a:	f843 1b04 	str.w	r1, [r3], #4
1000135e:	4293      	cmp	r3, r2
10001360:	d1f9      	bne.n	10001356 <runtime_init_boot_locks_reset+0x6>
10001362:	4770      	bx	lr
10001364:	400e080c 	.word	0x400e080c
10001368:	400e082c 	.word	0x400e082c

1000136c <xosc_init>:
1000136c:	b410      	push	{r4}
1000136e:	f44f 708d 	mov.w	r0, #282	@ 0x11a
10001372:	f44f 642a 	mov.w	r4, #2720	@ 0xaa0
10001376:	4a06      	ldr	r2, [pc, #24]	@ (10001390 <xosc_init+0x24>)
10001378:	4b06      	ldr	r3, [pc, #24]	@ (10001394 <xosc_init+0x28>)
1000137a:	4907      	ldr	r1, [pc, #28]	@ (10001398 <xosc_init+0x2c>)
1000137c:	6014      	str	r4, [r2, #0]
1000137e:	60d0      	str	r0, [r2, #12]
10001380:	6019      	str	r1, [r3, #0]
10001382:	6853      	ldr	r3, [r2, #4]
10001384:	2b00      	cmp	r3, #0
10001386:	dafc      	bge.n	10001382 <xosc_init+0x16>
10001388:	f85d 4b04 	ldr.w	r4, [sp], #4
1000138c:	4770      	bx	lr
1000138e:	bf00      	nop
10001390:	40048000 	.word	0x40048000
10001394:	4004a000 	.word	0x4004a000
10001398:	00fab000 	.word	0x00fab000

1000139c <first_per_core_initializer>:
1000139c:	4770      	bx	lr
1000139e:	bf00      	nop

100013a0 <hard_assertion_failure>:
100013a0:	b508      	push	{r3, lr}
100013a2:	4801      	ldr	r0, [pc, #4]	@ (100013a8 <hard_assertion_failure+0x8>)
100013a4:	f7ff f836 	bl	10000414 <panic>
100013a8:	100037f4 	.word	0x100037f4

100013ac <runtime_run_initializers>:
100013ac:	b538      	push	{r3, r4, r5, lr}
100013ae:	4c05      	ldr	r4, [pc, #20]	@ (100013c4 <runtime_run_initializers+0x18>)
100013b0:	4d05      	ldr	r5, [pc, #20]	@ (100013c8 <runtime_run_initializers+0x1c>)
100013b2:	42ac      	cmp	r4, r5
100013b4:	d204      	bcs.n	100013c0 <runtime_run_initializers+0x14>
100013b6:	f854 3b04 	ldr.w	r3, [r4], #4
100013ba:	4798      	blx	r3
100013bc:	42ac      	cmp	r4, r5
100013be:	d3fa      	bcc.n	100013b6 <runtime_run_initializers+0xa>
100013c0:	bd38      	pop	{r3, r4, r5, pc}
100013c2:	bf00      	nop
100013c4:	10003720 	.word	0x10003720
100013c8:	10003760 	.word	0x10003760

100013cc <runtime_init_early_resets>:
100013cc:	b410      	push	{r4}
100013ce:	4807      	ldr	r0, [pc, #28]	@ (100013ec <runtime_init_early_resets+0x20>)
100013d0:	4c07      	ldr	r4, [pc, #28]	@ (100013f0 <runtime_init_early_resets+0x24>)
100013d2:	4b08      	ldr	r3, [pc, #32]	@ (100013f4 <runtime_init_early_resets+0x28>)
100013d4:	4a08      	ldr	r2, [pc, #32]	@ (100013f8 <runtime_init_early_resets+0x2c>)
100013d6:	4909      	ldr	r1, [pc, #36]	@ (100013fc <runtime_init_early_resets+0x30>)
100013d8:	6004      	str	r4, [r0, #0]
100013da:	601a      	str	r2, [r3, #0]
100013dc:	688b      	ldr	r3, [r1, #8]
100013de:	ea32 0303 	bics.w	r3, r2, r3
100013e2:	d1fb      	bne.n	100013dc <runtime_init_early_resets+0x10>
100013e4:	f85d 4b04 	ldr.w	r4, [sp], #4
100013e8:	4770      	bx	lr
100013ea:	bf00      	nop
100013ec:	40022000 	.word	0x40022000
100013f0:	efef3b7f 	.word	0xefef3b7f
100013f4:	40023000 	.word	0x40023000
100013f8:	03f3fff6 	.word	0x03f3fff6
100013fc:	40020000 	.word	0x40020000

10001400 <runtime_init_usb_power_down>:
10001400:	4b04      	ldr	r3, [pc, #16]	@ (10001414 <runtime_init_usb_power_down+0x14>)
10001402:	6cdb      	ldr	r3, [r3, #76]	@ 0x4c
10001404:	f5b3 4f00 	cmp.w	r3, #32768	@ 0x8000
10001408:	d103      	bne.n	10001412 <runtime_init_usb_power_down+0x12>
1000140a:	f44f 2280 	mov.w	r2, #262144	@ 0x40000
1000140e:	4b02      	ldr	r3, [pc, #8]	@ (10001418 <runtime_init_usb_power_down+0x18>)
10001410:	64da      	str	r2, [r3, #76]	@ 0x4c
10001412:	4770      	bx	lr
10001414:	50110000 	.word	0x50110000
10001418:	50112000 	.word	0x50112000

1000141c <runtime_init_per_core_enable_coprocessors>:
1000141c:	f04f 22e0 	mov.w	r2, #3758153728	@ 0xe000e000
10001420:	4b04      	ldr	r3, [pc, #16]	@ (10001434 <runtime_init_per_core_enable_coprocessors+0x18>)
10001422:	f8d2 1d88 	ldr.w	r1, [r2, #3464]	@ 0xd88
10001426:	430b      	orrs	r3, r1
10001428:	f8c2 3d88 	str.w	r3, [r2, #3464]	@ 0xd88
1000142c:	ee10 0430 			dcp_rcmp r0
10001430:	4770      	bx	lr
10001432:	bf00      	nop
10001434:	00300303 	.word	0x00300303

10001438 <runtime_init_post_clock_resets>:
10001438:	f06f 4160 	mvn.w	r1, #3758096384	@ 0xe0000000
1000143c:	4b04      	ldr	r3, [pc, #16]	@ (10001450 <runtime_init_post_clock_resets+0x18>)
1000143e:	4a05      	ldr	r2, [pc, #20]	@ (10001454 <runtime_init_post_clock_resets+0x1c>)
10001440:	6019      	str	r1, [r3, #0]
10001442:	6893      	ldr	r3, [r2, #8]
10001444:	43db      	mvns	r3, r3
10001446:	f033 4360 	bics.w	r3, r3, #3758096384	@ 0xe0000000
1000144a:	d1fa      	bne.n	10001442 <runtime_init_post_clock_resets+0xa>
1000144c:	4770      	bx	lr
1000144e:	bf00      	nop
10001450:	40023000 	.word	0x40023000
10001454:	40020000 	.word	0x40020000

10001458 <runtime_init_bootrom_reset>:
10001458:	b510      	push	{r4, lr}
1000145a:	f245 2053 	movw	r0, #21075	@ 0x5253
1000145e:	f7ff ff61 	bl	10001324 <rom_func_lookup>
10001462:	e8bd 4010 	ldmia.w	sp!, {r4, lr}
10001466:	4603      	mov	r3, r0
10001468:	2004      	movs	r0, #4
1000146a:	4718      	bx	r3

1000146c <runtime_init_per_core_bootrom_reset>:
1000146c:	b510      	push	{r4, lr}
1000146e:	f245 2053 	movw	r0, #21075	@ 0x5253
10001472:	f7ff ff57 	bl	10001324 <rom_func_lookup>
10001476:	e8bd 4010 	ldmia.w	sp!, {r4, lr}
1000147a:	4603      	mov	r3, r0
1000147c:	2001      	movs	r0, #1
1000147e:	4718      	bx	r3

10001480 <runtime_init_spin_locks_reset>:
10001480:	f7ff b820 	b.w	100004c4 <spin_locks_reset>

10001484 <runtime_init_install_ram_vector_table>:
10001484:	4914      	ldr	r1, [pc, #80]	@ (100014d8 <runtime_init_install_ram_vector_table+0x54>)
10001486:	4b15      	ldr	r3, [pc, #84]	@ (100014dc <runtime_init_install_ram_vector_table+0x58>)
10001488:	b570      	push	{r4, r5, r6, lr}
1000148a:	1a5c      	subs	r4, r3, r1
1000148c:	10a6      	asrs	r6, r4, #2
1000148e:	2e44      	cmp	r6, #68	@ 0x44
10001490:	4632      	mov	r2, r6
10001492:	bf28      	it	cs
10001494:	2244      	movcs	r2, #68	@ 0x44
10001496:	4d12      	ldr	r5, [pc, #72]	@ (100014e0 <runtime_init_install_ram_vector_table+0x5c>)
10001498:	0092      	lsls	r2, r2, #2
1000149a:	4628      	mov	r0, r5
1000149c:	f002 f88a 	bl	100035b4 <memcpy>
100014a0:	f5b4 7f86 	cmp.w	r4, #268	@ 0x10c
100014a4:	d813      	bhi.n	100014ce <runtime_init_install_ram_vector_table+0x4a>
100014a6:	4a0f      	ldr	r2, [pc, #60]	@ (100014e4 <runtime_init_install_ram_vector_table+0x60>)
100014a8:	f1c6 0044 	rsb	r0, r6, #68	@ 0x44
100014ac:	d012      	beq.n	100014d4 <runtime_init_install_ram_vector_table+0x50>
100014ae:	192b      	adds	r3, r5, r4
100014b0:	0841      	lsrs	r1, r0, #1
100014b2:	eb03 01c1 	add.w	r1, r3, r1, lsl #3
100014b6:	e9c3 2200 	strd	r2, r2, [r3]
100014ba:	3308      	adds	r3, #8
100014bc:	428b      	cmp	r3, r1
100014be:	d1fa      	bne.n	100014b6 <runtime_init_install_ram_vector_table+0x32>
100014c0:	07c3      	lsls	r3, r0, #31
100014c2:	d504      	bpl.n	100014ce <runtime_init_install_ram_vector_table+0x4a>
100014c4:	f020 0001 	bic.w	r0, r0, #1
100014c8:	4430      	add	r0, r6
100014ca:	f845 2020 	str.w	r2, [r5, r0, lsl #2]
100014ce:	4b06      	ldr	r3, [pc, #24]	@ (100014e8 <runtime_init_install_ram_vector_table+0x64>)
100014d0:	609d      	str	r5, [r3, #8]
100014d2:	bd70      	pop	{r4, r5, r6, pc}
100014d4:	2043      	movs	r0, #67	@ 0x43
100014d6:	e7f8      	b.n	100014ca <runtime_init_install_ram_vector_table+0x46>
100014d8:	10000000 	.word	0x10000000
100014dc:	10000110 	.word	0x10000110
100014e0:	20000000 	.word	0x20000000
100014e4:	10000111 	.word	0x10000111
100014e8:	e000ed00 	.word	0xe000ed00

100014ec <runtime_init_clocks>:
100014ec:	2300      	movs	r3, #0
100014ee:	b570      	push	{r4, r5, r6, lr}
100014f0:	4c2b      	ldr	r4, [pc, #172]	@ (100015a0 <runtime_init_clocks+0xb4>)
100014f2:	b082      	sub	sp, #8
100014f4:	f8c4 3084 	str.w	r3, [r4, #132]	@ 0x84
100014f8:	f7ff ff38 	bl	1000136c <xosc_init>
100014fc:	2201      	movs	r2, #1
100014fe:	4b29      	ldr	r3, [pc, #164]	@ (100015a4 <runtime_init_clocks+0xb8>)
10001500:	63da      	str	r2, [r3, #60]	@ 0x3c
10001502:	6c63      	ldr	r3, [r4, #68]	@ 0x44
10001504:	2b01      	cmp	r3, #1
10001506:	d1fc      	bne.n	10001502 <runtime_init_clocks+0x16>
10001508:	2103      	movs	r1, #3
1000150a:	4a26      	ldr	r2, [pc, #152]	@ (100015a4 <runtime_init_clocks+0xb8>)
1000150c:	4b24      	ldr	r3, [pc, #144]	@ (100015a0 <runtime_init_clocks+0xb4>)
1000150e:	6311      	str	r1, [r2, #48]	@ 0x30
10001510:	6b9c      	ldr	r4, [r3, #56]	@ 0x38
10001512:	2c01      	cmp	r4, #1
10001514:	d1fc      	bne.n	10001510 <runtime_init_clocks+0x24>
10001516:	2602      	movs	r6, #2
10001518:	2505      	movs	r5, #5
1000151a:	4621      	mov	r1, r4
1000151c:	2305      	movs	r3, #5
1000151e:	4a22      	ldr	r2, [pc, #136]	@ (100015a8 <runtime_init_clocks+0xbc>)
10001520:	4822      	ldr	r0, [pc, #136]	@ (100015ac <runtime_init_clocks+0xc0>)
10001522:	9600      	str	r6, [sp, #0]
10001524:	f7ff feac 	bl	10001280 <pll_init>
10001528:	4621      	mov	r1, r4
1000152a:	462b      	mov	r3, r5
1000152c:	4a20      	ldr	r2, [pc, #128]	@ (100015b0 <runtime_init_clocks+0xc4>)
1000152e:	4821      	ldr	r0, [pc, #132]	@ (100015b4 <runtime_init_clocks+0xc8>)
10001530:	9500      	str	r5, [sp, #0]
10001532:	f7ff fea5 	bl	10001280 <pll_init>
10001536:	2200      	movs	r2, #0
10001538:	2004      	movs	r0, #4
1000153a:	4631      	mov	r1, r6
1000153c:	4b1e      	ldr	r3, [pc, #120]	@ (100015b8 <runtime_init_clocks+0xcc>)
1000153e:	f7ff fe31 	bl	100011a4 <clock_configure_undivided>
10001542:	4621      	mov	r1, r4
10001544:	4628      	mov	r0, r5
10001546:	2200      	movs	r2, #0
10001548:	4b1c      	ldr	r3, [pc, #112]	@ (100015bc <runtime_init_clocks+0xd0>)
1000154a:	f7ff fe2b 	bl	100011a4 <clock_configure_undivided>
1000154e:	2200      	movs	r2, #0
10001550:	2008      	movs	r0, #8
10001552:	4611      	mov	r1, r2
10001554:	4b1a      	ldr	r3, [pc, #104]	@ (100015c0 <runtime_init_clocks+0xd4>)
10001556:	f7ff fe25 	bl	100011a4 <clock_configure_undivided>
1000155a:	2200      	movs	r2, #0
1000155c:	2009      	movs	r0, #9
1000155e:	4611      	mov	r1, r2
10001560:	4b17      	ldr	r3, [pc, #92]	@ (100015c0 <runtime_init_clocks+0xd4>)
10001562:	f7ff fe1f 	bl	100011a4 <clock_configure_undivided>
10001566:	2200      	movs	r2, #0
10001568:	2006      	movs	r0, #6
1000156a:	4611      	mov	r1, r2
1000156c:	4b13      	ldr	r3, [pc, #76]	@ (100015bc <runtime_init_clocks+0xd0>)
1000156e:	f7ff fe19 	bl	100011a4 <clock_configure_undivided>
10001572:	2200      	movs	r2, #0
10001574:	4b11      	ldr	r3, [pc, #68]	@ (100015bc <runtime_init_clocks+0xd0>)
10001576:	2007      	movs	r0, #7
10001578:	4611      	mov	r1, r2
1000157a:	f7ff fe13 	bl	100011a4 <clock_configure_undivided>
1000157e:	2004      	movs	r0, #4
10001580:	f7ff fe78 	bl	10001274 <clock_get_hz>
10001584:	2400      	movs	r4, #0
10001586:	4b0f      	ldr	r3, [pc, #60]	@ (100015c4 <runtime_init_clocks+0xd8>)
10001588:	fba3 3500 	umull	r3, r5, r3, r0
1000158c:	0cad      	lsrs	r5, r5, #18
1000158e:	b2e0      	uxtb	r0, r4
10001590:	4629      	mov	r1, r5
10001592:	3401      	adds	r4, #1
10001594:	f7ff feba 	bl	1000130c <tick_start>
10001598:	2c06      	cmp	r4, #6
1000159a:	d1f8      	bne.n	1000158e <runtime_init_clocks+0xa2>
1000159c:	b002      	add	sp, #8
1000159e:	bd70      	pop	{r4, r5, r6, pc}
100015a0:	40010000 	.word	0x40010000
100015a4:	40013000 	.word	0x40013000
100015a8:	59682f00 	.word	0x59682f00
100015ac:	40050000 	.word	0x40050000
100015b0:	47868c00 	.word	0x47868c00
100015b4:	40058000 	.word	0x40058000
100015b8:	00b71b00 	.word	0x00b71b00
100015bc:	08f0d180 	.word	0x08f0d180
100015c0:	02dc6c00 	.word	0x02dc6c00
100015c4:	431bde83 	.word	0x431bde83

100015c8 <generic_save_state>:
100015c8:	b086      	sub	sp, #24
100015ca:	b403      	push	{r0, r1}
100015cc:	fc51 0408 	dcp_pxmd r0, r1
100015d0:	e9cd 0102 	strd	r0, r1, [sp, #8]
100015d4:	fc51 0409 	dcp_pymd r0, r1
100015d8:	e9cd 0104 	strd	r0, r1, [sp, #16]
100015dc:	ec51 040a 	dcp_refd r0, r1
100015e0:	e9cd 0106 	strd	r0, r1, [sp, #24]
100015e4:	bc03      	pop	{r0, r1}
100015e6:	47f0      	blx	lr

100015e8 <generic_restore_state>:
100015e8:	e8bd 5000 	ldmia.w	sp!, {ip, lr}
100015ec:	ec4e c400 	dcp_wxmd ip, lr
100015f0:	e8bd 5000 	ldmia.w	sp!, {ip, lr}
100015f4:	ec4e c401 	dcp_wymd ip, lr
100015f8:	e8bd 5000 	ldmia.w	sp!, {ip, lr}
100015fc:	ec4e c402 	dcp_wefd ip, lr
10001600:	bd00      	pop	{pc}
10001602:	0000      	movs	r0, r0
10001604:	b500      	push	{lr}
10001606:	f7ff ffdf 	bl	100015c8 <generic_save_state>
1000160a:	e002      	b.n	10001612 <__wrap___aeabi_dadd+0x6>

1000160c <__wrap___aeabi_dadd>:
1000160c:	fe10 f430 	dcp_pcmp APSR_nzcv
10001610:	d4f8      	bmi.n	10001604 <generic_restore_state+0x1c>
10001612:	ec41 0410 	dcp_wxup r0, r1
10001616:	ec43 2411 	dcp_wyup r2, r3
1000161a:	ee00 0401 			dcp_add0
1000161e:	ee10 0401 			dcp_add1
10001622:	ee80 0420 			dcp_nrdd
10001626:	ec51 0410 	dcp_rdda r0, r1
1000162a:	4770      	bx	lr
1000162c:	b500      	push	{lr}
1000162e:	f7ff ffcb 	bl	100015c8 <generic_save_state>
10001632:	e002      	b.n	1000163a <__wrap___aeabi_dsub+0x6>

10001634 <__wrap___aeabi_dsub>:
10001634:	fe10 f430 	dcp_pcmp APSR_nzcv
10001638:	d4f8      	bmi.n	1000162c <__wrap___aeabi_dadd+0x20>
1000163a:	ec41 0410 	dcp_wxup r0, r1
1000163e:	ec43 2411 	dcp_wyup r2, r3
10001642:	ee00 0401 			dcp_add0
10001646:	ee10 0421 			dcp_sub1
1000164a:	ee80 0420 			dcp_nrdd
1000164e:	ec51 0430 	dcp_rdds r0, r1
10001652:	4770      	bx	lr
10001654:	b500      	push	{lr}
10001656:	f7ff ffb7 	bl	100015c8 <generic_save_state>
1000165a:	e002      	b.n	10001662 <__wrap___aeabi_dmul+0x6>

1000165c <__wrap___aeabi_dmul>:
1000165c:	fe10 f430 	dcp_pcmp APSR_nzcv
10001660:	d4f8      	bmi.n	10001654 <__wrap___aeabi_dsub+0x20>
10001662:	b510      	push	{r4, lr}
10001664:	ec41 0410 	dcp_wxup r0, r1
10001668:	ec43 2411 	dcp_wyup r2, r3
1000166c:	ec51 0404 	dcp_rxms r0, r1, #0x0
10001670:	ec53 2405 	dcp_ryms r2, r3, #0x0
10001674:	fba0 4c02 	umull	r4, ip, r0, r2
10001678:	f05f 0e00 	movs.w	lr, #0
1000167c:	fbe0 ce03 	umlal	ip, lr, r0, r3
10001680:	fbe1 ce02 	umlal	ip, lr, r1, r2
10001684:	ec4c 4420 	dcp_wxms r4, ip
10001688:	2400      	movs	r4, #0
1000168a:	fbe1 e403 	umlal	lr, r4, r1, r3
1000168e:	ec44 e430 	dcp_wxmo lr, r4
10001692:	ee80 0420 			dcp_nrdd
10001696:	ec51 0450 	dcp_rddm r0, r1
1000169a:	e8bd 4010 	ldmia.w	sp!, {r4, lr}
1000169e:	4770      	bx	lr
100016a0:	b500      	push	{lr}
100016a2:	f7ff ff91 	bl	100015c8 <generic_save_state>
100016a6:	e002      	b.n	100016ae <__wrap___aeabi_ddiv+0x6>

100016a8 <__wrap___aeabi_ddiv>:
100016a8:	fe10 f430 	dcp_pcmp APSR_nzcv
100016ac:	d4f8      	bmi.n	100016a0 <__wrap___aeabi_dmul+0x44>
100016ae:	ec41 0410 	dcp_wxup r0, r1
100016b2:	ec43 2411 	dcp_wyup r2, r3
100016b6:	ec51 0421 	dcp_rymr r0, r1
100016ba:	fba0 1201 	umull	r1, r2, r0, r1
100016be:	ea6f 0282 	mvn.w	r2, r2, lsl #2
100016c2:	fb52 0010 	smmlar	r0, r2, r0, r0
100016c6:	fb52 f212 	smmulr	r2, r2, r2
100016ca:	fb52 0010 	smmlar	r0, r2, r0, r0
100016ce:	eba0 7cd0 	sub.w	ip, r0, r0, lsr #31
100016d2:	ec53 2404 	dcp_rxms r2, r3, #0x0
100016d6:	fb5c f113 	smmulr	r1, ip, r3
100016da:	ec53 2415 	dcp_ryms r2, r3, #0x1
100016de:	fba1 2002 	umull	r2, r0, r1, r2
100016e2:	fb01 0003 	mla	r0, r1, r3, r0
100016e6:	ec53 2444 	dcp_rxms r2, r3, #0x4
100016ea:	eba2 0000 	sub.w	r0, r2, r0
100016ee:	fb50 f21c 	smmulr	r2, r0, ip
100016f2:	ea4f 1311 	mov.w	r3, r1, lsr #4
100016f6:	eb12 7001 	adds.w	r0, r2, r1, lsl #28
100016fa:	eb43 71e2 	adc.w	r1, r3, r2, asr #31
100016fe:	ea40 5051 	orr.w	r0, r0, r1, lsr #21
10001702:	ea20 5091 	bic.w	r0, r0, r1, lsr #22
10001706:	f020 0007 	bic.w	r0, r0, #7
1000170a:	ec53 2475 	dcp_ryms r2, r3, #0x7
1000170e:	fba0 3c02 	umull	r3, ip, r0, r2
10001712:	ec53 2475 	dcp_ryms r2, r3, #0x7
10001716:	fb00 cc03 	mla	ip, r0, r3, ip
1000171a:	fb01 cc02 	mla	ip, r1, r2, ip
1000171e:	ec53 2404 	dcp_rxms r2, r3, #0x0
10001722:	ebac 4c82 	sub.w	ip, ip, r2, lsl #18
10001726:	ea40 705c 	orr.w	r0, r0, ip, lsr #29
1000172a:	f1a0 0001 	sub.w	r0, r0, #1
1000172e:	ec41 0440 	dcp_wxdd r0, r1
10001732:	ee80 0420 			dcp_nrdd
10001736:	ec51 0470 	dcp_rddd r0, r1
1000173a:	4770      	bx	lr
1000173c:	b500      	push	{lr}
1000173e:	f7ff ff43 	bl	100015c8 <generic_save_state>
10001742:	e002      	b.n	1000174a <__wrap___aeabi_i2d+0x6>

10001744 <__wrap___aeabi_i2d>:
10001744:	fe10 f430 	dcp_pcmp APSR_nzcv
10001748:	d4f8      	bmi.n	1000173c <__wrap___aeabi_ddiv+0x94>
1000174a:	ec40 0470 	dcp_wxic r0, r0
1000174e:	ee00 0401 			dcp_add0
10001752:	ee10 0421 			dcp_sub1
10001756:	ee80 0420 			dcp_nrdd
1000175a:	ec51 0430 	dcp_rdds r0, r1
1000175e:	4770      	bx	lr
10001760:	b500      	push	{lr}
10001762:	f7ff ff31 	bl	100015c8 <generic_save_state>
10001766:	e002      	b.n	1000176e <__wrap___aeabi_ui2d+0x6>

10001768 <__wrap___aeabi_ui2d>:
10001768:	fe10 f430 	dcp_pcmp APSR_nzcv
1000176c:	d4f8      	bmi.n	10001760 <__wrap___aeabi_i2d+0x1c>
1000176e:	ec40 0460 	dcp_wxuc r0, r0
10001772:	ee00 0401 			dcp_add0
10001776:	ee10 0421 			dcp_sub1
1000177a:	ee80 0420 			dcp_nrdd
1000177e:	ec51 0430 	dcp_rdds r0, r1
10001782:	4770      	bx	lr
10001784:	b500      	push	{lr}
10001786:	f7ff ff1f 	bl	100015c8 <generic_save_state>
1000178a:	e002      	b.n	10001792 <double2int_z_entry>

1000178c <__wrap___aeabi_d2iz>:
1000178c:	fe10 f430 	dcp_pcmp APSR_nzcv
10001790:	d4f8      	bmi.n	10001784 <__wrap___aeabi_ui2d+0x1c>

10001792 <double2int_z_entry>:
10001792:	ec41 0480 	dcp_wxdc r0, r1
10001796:	ee00 0401 			dcp_add0
1000179a:	ee10 0401 			dcp_add1
1000179e:	ee80 0440 			dcp_ntdc
100017a2:	ee10 0413 			dcp_rdic r0
100017a6:	4770      	bx	lr
100017a8:	b500      	push	{lr}
100017aa:	f7ff ff0d 	bl	100015c8 <generic_save_state>
100017ae:	e002      	b.n	100017b6 <double2uint_z_entry>

100017b0 <__wrap___aeabi_d2uiz>:
100017b0:	fe10 f430 	dcp_pcmp APSR_nzcv
100017b4:	d4f8      	bmi.n	100017a8 <double2int_z_entry+0x16>

100017b6 <double2uint_z_entry>:
100017b6:	ec41 0480 	dcp_wxdc r0, r1
100017ba:	ee00 0401 			dcp_add0
100017be:	ee10 0401 			dcp_add1
100017c2:	ee80 0440 			dcp_ntdc
100017c6:	ee10 0433 			dcp_rduc r0
100017ca:	4770      	bx	lr
100017cc:	b500      	push	{lr}
100017ce:	f7ff fefb 	bl	100015c8 <generic_save_state>
100017d2:	e002      	b.n	100017da <__wrap___aeabi_dcmpun+0x6>

100017d4 <__wrap___aeabi_dcmpun>:
100017d4:	fe10 f430 	dcp_pcmp APSR_nzcv
100017d8:	d4f8      	bmi.n	100017cc <double2uint_z_entry+0x16>
100017da:	ec41 0410 	dcp_wxup r0, r1
100017de:	ec43 2411 	dcp_wyup r2, r3
100017e2:	ee00 0401 			dcp_add0
100017e6:	ee10 0430 			dcp_rcmp r0
100017ea:	f3c0 7000 	ubfx	r0, r0, #28, #1
100017ee:	4770      	bx	lr
100017f0:	b500      	push	{lr}
100017f2:	f7ff fee9 	bl	100015c8 <generic_save_state>
100017f6:	e002      	b.n	100017fe <__wrap___aeabi_dcmplt+0x6>

100017f8 <__wrap___aeabi_dcmplt>:
100017f8:	fe10 f430 	dcp_pcmp APSR_nzcv
100017fc:	d4f8      	bmi.n	100017f0 <__wrap___aeabi_dcmpun+0x1c>
100017fe:	ec43 2410 	dcp_wxup r2, r3
10001802:	ec41 0411 	dcp_wyup r0, r1
10001806:	ee00 0401 			dcp_add0
1000180a:	ee10 f430 			dcp_rcmp APSR_nzcv
1000180e:	bf8c      	ite	hi
10001810:	2001      	movhi	r0, #1
10001812:	2000      	movls	r0, #0
10001814:	4770      	bx	lr
10001816:	bf00      	nop
10001818:	b500      	push	{lr}
1000181a:	f7ff fed5 	bl	100015c8 <generic_save_state>
1000181e:	e002      	b.n	10001826 <__wrap___aeabi_dcmple+0x6>

10001820 <__wrap___aeabi_dcmple>:
10001820:	fe10 f430 	dcp_pcmp APSR_nzcv
10001824:	d4f8      	bmi.n	10001818 <__wrap___aeabi_dcmplt+0x20>
10001826:	ec43 2410 	dcp_wxup r2, r3
1000182a:	ec41 0411 	dcp_wyup r0, r1
1000182e:	ee00 0401 			dcp_add0
10001832:	ee10 f430 			dcp_rcmp APSR_nzcv
10001836:	bf2c      	ite	cs
10001838:	2001      	movcs	r0, #1
1000183a:	2000      	movcc	r0, #0
1000183c:	4770      	bx	lr
1000183e:	bf00      	nop
10001840:	b500      	push	{lr}
10001842:	f7ff fec1 	bl	100015c8 <generic_save_state>
10001846:	e002      	b.n	1000184e <__wrap___aeabi_dcmpge+0x6>

10001848 <__wrap___aeabi_dcmpge>:
10001848:	fe10 f430 	dcp_pcmp APSR_nzcv
1000184c:	d4f8      	bmi.n	10001840 <__wrap___aeabi_dcmple+0x20>
1000184e:	ec41 0410 	dcp_wxup r0, r1
10001852:	ec43 2411 	dcp_wyup r2, r3
10001856:	ee00 0401 			dcp_add0
1000185a:	ee10 f430 			dcp_rcmp APSR_nzcv
1000185e:	bf2c      	ite	cs
10001860:	2001      	movcs	r0, #1
10001862:	2000      	movcc	r0, #0
10001864:	4770      	bx	lr
10001866:	bf00      	nop
10001868:	b500      	push	{lr}
1000186a:	f7ff fead 	bl	100015c8 <generic_save_state>
1000186e:	e002      	b.n	10001876 <__wrap___aeabi_dcmpgt+0x6>

10001870 <__wrap___aeabi_dcmpgt>:
10001870:	fe10 f430 	dcp_pcmp APSR_nzcv
10001874:	d4f8      	bmi.n	10001868 <__wrap___aeabi_dcmpge+0x20>
10001876:	ec41 0410 	dcp_wxup r0, r1
1000187a:	ec43 2411 	dcp_wyup r2, r3
1000187e:	ee00 0401 			dcp_add0
10001882:	ee10 f430 			dcp_rcmp APSR_nzcv
10001886:	bf8c      	ite	hi
10001888:	2001      	movhi	r0, #1
1000188a:	2000      	movls	r0, #0
1000188c:	4770      	bx	lr
1000188e:	bf00      	nop

10001890 <_out_null>:
10001890:	4770      	bx	lr
10001892:	bf00      	nop

10001894 <_out_rev>:
10001894:	e92d 4ff0 	stmdb	sp!, {r4, r5, r6, r7, r8, r9, sl, fp, lr}
10001898:	b083      	sub	sp, #12
1000189a:	4699      	mov	r9, r3
1000189c:	e9dd ab0d 	ldrd	sl, fp, [sp, #52]	@ 0x34
100018a0:	9b0f      	ldr	r3, [sp, #60]	@ 0x3c
100018a2:	4688      	mov	r8, r1
100018a4:	4611      	mov	r1, r2
100018a6:	079a      	lsls	r2, r3, #30
100018a8:	4607      	mov	r7, r0
100018aa:	d116      	bne.n	100018da <_out_rev+0x46>
100018ac:	45da      	cmp	sl, fp
100018ae:	d23a      	bcs.n	10001926 <_out_rev+0x92>
100018b0:	460c      	mov	r4, r1
100018b2:	460d      	mov	r5, r1
100018b4:	ebab 060a 	sub.w	r6, fp, sl
100018b8:	440e      	add	r6, r1
100018ba:	4622      	mov	r2, r4
100018bc:	464b      	mov	r3, r9
100018be:	4641      	mov	r1, r8
100018c0:	2020      	movs	r0, #32
100018c2:	3401      	adds	r4, #1
100018c4:	47b8      	blx	r7
100018c6:	42b4      	cmp	r4, r6
100018c8:	d1f7      	bne.n	100018ba <_out_rev+0x26>
100018ca:	4629      	mov	r1, r5
100018cc:	f1ba 0f00 	cmp.w	sl, #0
100018d0:	d108      	bne.n	100018e4 <_out_rev+0x50>
100018d2:	4620      	mov	r0, r4
100018d4:	b003      	add	sp, #12
100018d6:	e8bd 8ff0 	ldmia.w	sp!, {r4, r5, r6, r7, r8, r9, sl, fp, pc}
100018da:	460c      	mov	r4, r1
100018dc:	f1ba 0f00 	cmp.w	sl, #0
100018e0:	d010      	beq.n	10001904 <_out_rev+0x70>
100018e2:	460e      	mov	r6, r1
100018e4:	4655      	mov	r5, sl
100018e6:	9b0c      	ldr	r3, [sp, #48]	@ 0x30
100018e8:	442e      	add	r6, r5
100018ea:	449a      	add	sl, r3
100018ec:	9101      	str	r1, [sp, #4]
100018ee:	1b72      	subs	r2, r6, r5
100018f0:	464b      	mov	r3, r9
100018f2:	3d01      	subs	r5, #1
100018f4:	4641      	mov	r1, r8
100018f6:	f81a 0d01 	ldrb.w	r0, [sl, #-1]!
100018fa:	4634      	mov	r4, r6
100018fc:	47b8      	blx	r7
100018fe:	2d00      	cmp	r5, #0
10001900:	d1f5      	bne.n	100018ee <_out_rev+0x5a>
10001902:	9901      	ldr	r1, [sp, #4]
10001904:	9b0f      	ldr	r3, [sp, #60]	@ 0x3c
10001906:	079b      	lsls	r3, r3, #30
10001908:	d5e3      	bpl.n	100018d2 <_out_rev+0x3e>
1000190a:	1a65      	subs	r5, r4, r1
1000190c:	45ab      	cmp	fp, r5
1000190e:	d9e0      	bls.n	100018d2 <_out_rev+0x3e>
10001910:	4622      	mov	r2, r4
10001912:	464b      	mov	r3, r9
10001914:	4641      	mov	r1, r8
10001916:	2020      	movs	r0, #32
10001918:	3501      	adds	r5, #1
1000191a:	47b8      	blx	r7
1000191c:	455d      	cmp	r5, fp
1000191e:	f104 0401 	add.w	r4, r4, #1
10001922:	d3f5      	bcc.n	10001910 <_out_rev+0x7c>
10001924:	e7d5      	b.n	100018d2 <_out_rev+0x3e>
10001926:	460c      	mov	r4, r1
10001928:	f1ba 0f00 	cmp.w	sl, #0
1000192c:	d1d9      	bne.n	100018e2 <_out_rev+0x4e>
1000192e:	e7d0      	b.n	100018d2 <_out_rev+0x3e>

10001930 <_ntoa_format>:
10001930:	e92d 4ff0 	stmdb	sp!, {r4, r5, r6, r7, r8, r9, sl, fp, lr}
10001934:	9f0f      	ldr	r7, [sp, #60]	@ 0x3c
10001936:	f8dd 8024 	ldr.w	r8, [sp, #36]	@ 0x24
1000193a:	f017 0f02 	tst.w	r7, #2
1000193e:	9c0a      	ldr	r4, [sp, #40]	@ 0x28
10001940:	f89d a02c 	ldrb.w	sl, [sp, #44]	@ 0x2c
10001944:	9d0e      	ldr	r5, [sp, #56]	@ 0x38
10001946:	e9dd 960c 	ldrd	r9, r6, [sp, #48]	@ 0x30
1000194a:	d144      	bne.n	100019d6 <_ntoa_format+0xa6>
1000194c:	bbf5      	cbnz	r5, 100019cc <_ntoa_format+0x9c>
1000194e:	42b4      	cmp	r4, r6
10001950:	d241      	bcs.n	100019d6 <_ntoa_format+0xa6>
10001952:	f007 0b01 	and.w	fp, r7, #1
10001956:	f104 3cff 	add.w	ip, r4, #4294967295
1000195a:	f04f 0e30 	mov.w	lr, #48	@ 0x30
1000195e:	44c4      	add	ip, r8
10001960:	e004      	b.n	1000196c <_ntoa_format+0x3c>
10001962:	3401      	adds	r4, #1
10001964:	42a6      	cmp	r6, r4
10001966:	f80c ef01 	strb.w	lr, [ip, #1]!
1000196a:	d901      	bls.n	10001970 <_ntoa_format+0x40>
1000196c:	2c20      	cmp	r4, #32
1000196e:	d1f8      	bne.n	10001962 <_ntoa_format+0x32>
10001970:	f1bb 0f00 	cmp.w	fp, #0
10001974:	f000 8088 	beq.w	10001a88 <_ntoa_format+0x158>
10001978:	42a5      	cmp	r5, r4
1000197a:	d92c      	bls.n	100019d6 <_ntoa_format+0xa6>
1000197c:	f104 3cff 	add.w	ip, r4, #4294967295
10001980:	f04f 0e30 	mov.w	lr, #48	@ 0x30
10001984:	44c4      	add	ip, r8
10001986:	e004      	b.n	10001992 <_ntoa_format+0x62>
10001988:	3401      	adds	r4, #1
1000198a:	42ac      	cmp	r4, r5
1000198c:	f80c ef01 	strb.w	lr, [ip, #1]!
10001990:	d021      	beq.n	100019d6 <_ntoa_format+0xa6>
10001992:	2c20      	cmp	r4, #32
10001994:	d1f8      	bne.n	10001988 <_ntoa_format+0x58>
10001996:	f017 0f10 	tst.w	r7, #16
1000199a:	d00e      	beq.n	100019ba <_ntoa_format+0x8a>
1000199c:	f417 6f80 	tst.w	r7, #1024	@ 0x400
100019a0:	d154      	bne.n	10001a4c <_ntoa_format+0x11c>
100019a2:	42a6      	cmp	r6, r4
100019a4:	d063      	beq.n	10001a6e <_ntoa_format+0x13e>
100019a6:	42a5      	cmp	r5, r4
100019a8:	d061      	beq.n	10001a6e <_ntoa_format+0x13e>
100019aa:	f1b9 0f10 	cmp.w	r9, #16
100019ae:	d050      	beq.n	10001a52 <_ntoa_format+0x122>
100019b0:	f1b9 0f02 	cmp.w	r9, #2
100019b4:	d056      	beq.n	10001a64 <_ntoa_format+0x134>
100019b6:	2c20      	cmp	r4, #32
100019b8:	d129      	bne.n	10001a0e <_ntoa_format+0xde>
100019ba:	2420      	movs	r4, #32
100019bc:	e9cd 570b 	strd	r5, r7, [sp, #44]	@ 0x2c
100019c0:	e9cd 8409 	strd	r8, r4, [sp, #36]	@ 0x24
100019c4:	e8bd 4ff0 	ldmia.w	sp!, {r4, r5, r6, r7, r8, r9, sl, fp, lr}
100019c8:	f7ff bf64 	b.w	10001894 <_out_rev>
100019cc:	f017 0b01 	ands.w	fp, r7, #1
100019d0:	d134      	bne.n	10001a3c <_ntoa_format+0x10c>
100019d2:	42b4      	cmp	r4, r6
100019d4:	d3bf      	bcc.n	10001956 <_ntoa_format+0x26>
100019d6:	f017 0f10 	tst.w	r7, #16
100019da:	d01e      	beq.n	10001a1a <_ntoa_format+0xea>
100019dc:	f417 6f80 	tst.w	r7, #1024	@ 0x400
100019e0:	d1e3      	bne.n	100019aa <_ntoa_format+0x7a>
100019e2:	2c00      	cmp	r4, #0
100019e4:	d1dd      	bne.n	100019a2 <_ntoa_format+0x72>
100019e6:	f1b9 0f10 	cmp.w	r9, #16
100019ea:	d063      	beq.n	10001ab4 <_ntoa_format+0x184>
100019ec:	f1b9 0f02 	cmp.w	r9, #2
100019f0:	d077      	beq.n	10001ae2 <_ntoa_format+0x1b2>
100019f2:	2430      	movs	r4, #48	@ 0x30
100019f4:	f888 4000 	strb.w	r4, [r8]
100019f8:	2401      	movs	r4, #1
100019fa:	f1ba 0f00 	cmp.w	sl, #0
100019fe:	d111      	bne.n	10001a24 <_ntoa_format+0xf4>
10001a00:	077e      	lsls	r6, r7, #29
10001a02:	d548      	bpl.n	10001a96 <_ntoa_format+0x166>
10001a04:	262b      	movs	r6, #43	@ 0x2b
10001a06:	f808 6004 	strb.w	r6, [r8, r4]
10001a0a:	3401      	adds	r4, #1
10001a0c:	e7d6      	b.n	100019bc <_ntoa_format+0x8c>
10001a0e:	4626      	mov	r6, r4
10001a10:	3401      	adds	r4, #1
10001a12:	f04f 0c30 	mov.w	ip, #48	@ 0x30
10001a16:	f808 c006 	strb.w	ip, [r8, r6]
10001a1a:	2c20      	cmp	r4, #32
10001a1c:	d0cd      	beq.n	100019ba <_ntoa_format+0x8a>
10001a1e:	f1ba 0f00 	cmp.w	sl, #0
10001a22:	d0ed      	beq.n	10001a00 <_ntoa_format+0xd0>
10001a24:	262d      	movs	r6, #45	@ 0x2d
10001a26:	f808 6004 	strb.w	r6, [r8, r4]
10001a2a:	3401      	adds	r4, #1
10001a2c:	e9cd 570b 	strd	r5, r7, [sp, #44]	@ 0x2c
10001a30:	e9cd 8409 	strd	r8, r4, [sp, #36]	@ 0x24
10001a34:	e8bd 4ff0 	ldmia.w	sp!, {r4, r5, r6, r7, r8, r9, sl, fp, lr}
10001a38:	f7ff bf2c 	b.w	10001894 <_out_rev>
10001a3c:	f1ba 0f00 	cmp.w	sl, #0
10001a40:	d030      	beq.n	10001aa4 <_ntoa_format+0x174>
10001a42:	42b4      	cmp	r4, r6
10001a44:	f105 35ff 	add.w	r5, r5, #4294967295
10001a48:	d385      	bcc.n	10001956 <_ntoa_format+0x26>
10001a4a:	e795      	b.n	10001978 <_ntoa_format+0x48>
10001a4c:	f1b9 0f10 	cmp.w	r9, #16
10001a50:	d1b3      	bne.n	100019ba <_ntoa_format+0x8a>
10001a52:	06be      	lsls	r6, r7, #26
10001a54:	d53b      	bpl.n	10001ace <_ntoa_format+0x19e>
10001a56:	2c20      	cmp	r4, #32
10001a58:	d0af      	beq.n	100019ba <_ntoa_format+0x8a>
10001a5a:	2658      	movs	r6, #88	@ 0x58
10001a5c:	f808 6004 	strb.w	r6, [r8, r4]
10001a60:	3401      	adds	r4, #1
10001a62:	e7a8      	b.n	100019b6 <_ntoa_format+0x86>
10001a64:	2c20      	cmp	r4, #32
10001a66:	d0a8      	beq.n	100019ba <_ntoa_format+0x8a>
10001a68:	4626      	mov	r6, r4
10001a6a:	3401      	adds	r4, #1
10001a6c:	e007      	b.n	10001a7e <_ntoa_format+0x14e>
10001a6e:	1e66      	subs	r6, r4, #1
10001a70:	d0b9      	beq.n	100019e6 <_ntoa_format+0xb6>
10001a72:	f1b9 0f10 	cmp.w	r9, #16
10001a76:	d036      	beq.n	10001ae6 <_ntoa_format+0x1b6>
10001a78:	f1b9 0f02 	cmp.w	r9, #2
10001a7c:	d1c9      	bne.n	10001a12 <_ntoa_format+0xe2>
10001a7e:	f04f 0c62 	mov.w	ip, #98	@ 0x62
10001a82:	f808 c006 	strb.w	ip, [r8, r6]
10001a86:	e796      	b.n	100019b6 <_ntoa_format+0x86>
10001a88:	f017 0f10 	tst.w	r7, #16
10001a8c:	d0c5      	beq.n	10001a1a <_ntoa_format+0xea>
10001a8e:	f417 6f80 	tst.w	r7, #1024	@ 0x400
10001a92:	d086      	beq.n	100019a2 <_ntoa_format+0x72>
10001a94:	e789      	b.n	100019aa <_ntoa_format+0x7a>
10001a96:	073e      	lsls	r6, r7, #28
10001a98:	d590      	bpl.n	100019bc <_ntoa_format+0x8c>
10001a9a:	2620      	movs	r6, #32
10001a9c:	f808 6004 	strb.w	r6, [r8, r4]
10001aa0:	3401      	adds	r4, #1
10001aa2:	e78b      	b.n	100019bc <_ntoa_format+0x8c>
10001aa4:	f017 0f0c 	tst.w	r7, #12
10001aa8:	d000      	beq.n	10001aac <_ntoa_format+0x17c>
10001aaa:	3d01      	subs	r5, #1
10001aac:	42b4      	cmp	r4, r6
10001aae:	f4ff af52 	bcc.w	10001956 <_ntoa_format+0x26>
10001ab2:	e761      	b.n	10001978 <_ntoa_format+0x48>
10001ab4:	06bc      	lsls	r4, r7, #26
10001ab6:	d412      	bmi.n	10001ade <_ntoa_format+0x1ae>
10001ab8:	2478      	movs	r4, #120	@ 0x78
10001aba:	f888 4000 	strb.w	r4, [r8]
10001abe:	2430      	movs	r4, #48	@ 0x30
10001ac0:	f888 4001 	strb.w	r4, [r8, #1]
10001ac4:	2402      	movs	r4, #2
10001ac6:	f1ba 0f00 	cmp.w	sl, #0
10001aca:	d099      	beq.n	10001a00 <_ntoa_format+0xd0>
10001acc:	e7aa      	b.n	10001a24 <_ntoa_format+0xf4>
10001ace:	2c20      	cmp	r4, #32
10001ad0:	f43f af73 	beq.w	100019ba <_ntoa_format+0x8a>
10001ad4:	2678      	movs	r6, #120	@ 0x78
10001ad6:	f808 6004 	strb.w	r6, [r8, r4]
10001ada:	3401      	adds	r4, #1
10001adc:	e76b      	b.n	100019b6 <_ntoa_format+0x86>
10001ade:	2458      	movs	r4, #88	@ 0x58
10001ae0:	e7eb      	b.n	10001aba <_ntoa_format+0x18a>
10001ae2:	2462      	movs	r4, #98	@ 0x62
10001ae4:	e7e9      	b.n	10001aba <_ntoa_format+0x18a>
10001ae6:	f017 0f20 	tst.w	r7, #32
10001aea:	f1a4 0c02 	sub.w	ip, r4, #2
10001aee:	d004      	beq.n	10001afa <_ntoa_format+0x1ca>
10001af0:	f04f 0e58 	mov.w	lr, #88	@ 0x58
10001af4:	f808 e00c 	strb.w	lr, [r8, ip]
10001af8:	e78b      	b.n	10001a12 <_ntoa_format+0xe2>
10001afa:	f04f 0e78 	mov.w	lr, #120	@ 0x78
10001afe:	f808 e00c 	strb.w	lr, [r8, ip]
10001b02:	e786      	b.n	10001a12 <_ntoa_format+0xe2>

10001b04 <_out_char>:
10001b04:	b900      	cbnz	r0, 10001b08 <_out_char+0x4>
10001b06:	4770      	bx	lr
10001b08:	f001 bb72 	b.w	100031f0 <__wrap_putchar>

10001b0c <_out_fct>:
10001b0c:	b110      	cbz	r0, 10001b14 <_out_fct+0x8>
10001b0e:	e9d1 3100 	ldrd	r3, r1, [r1]
10001b12:	4718      	bx	r3
10001b14:	4770      	bx	lr
10001b16:	bf00      	nop

10001b18 <_ftoa>:
10001b18:	e92d 4ff0 	stmdb	sp!, {r4, r5, r6, r7, r8, r9, sl, fp, lr}
10001b1c:	b097      	sub	sp, #92	@ 0x5c
10001b1e:	ed9d 7b20 	vldr	d7, [sp, #128]	@ 0x80
10001b22:	e9dd 5b22 	ldrd	r5, fp, [sp, #136]	@ 0x88
10001b26:	4607      	mov	r7, r0
10001b28:	4688      	mov	r8, r1
10001b2a:	ec51 0b17 	vmov	r0, r1, d7
10001b2e:	9c24      	ldr	r4, [sp, #144]	@ 0x90
10001b30:	4699      	mov	r9, r3
10001b32:	920c      	str	r2, [sp, #48]	@ 0x30
10001b34:	460b      	mov	r3, r1
10001b36:	4602      	mov	r2, r0
10001b38:	ed8d 7b04 	vstr	d7, [sp, #16]
10001b3c:	9407      	str	r4, [sp, #28]
10001b3e:	f7ff fe49 	bl	100017d4 <__wrap___aeabi_dcmpun>
10001b42:	2800      	cmp	r0, #0
10001b44:	f040 81f4 	bne.w	10001f30 <_ftoa+0x418>
10001b48:	e9dd 0104 	ldrd	r0, r1, [sp, #16]
10001b4c:	f04f 32ff 	mov.w	r2, #4294967295
10001b50:	f46f 1380 	mvn.w	r3, #1048576	@ 0x100000
10001b54:	f7ff fe50 	bl	100017f8 <__wrap___aeabi_dcmplt>
10001b58:	2800      	cmp	r0, #0
10001b5a:	f040 811b 	bne.w	10001d94 <_ftoa+0x27c>
10001b5e:	e9dd 0104 	ldrd	r0, r1, [sp, #16]
10001b62:	f04f 32ff 	mov.w	r2, #4294967295
10001b66:	4bac      	ldr	r3, [pc, #688]	@ (10001e18 <_ftoa+0x300>)
10001b68:	f7ff fe82 	bl	10001870 <__wrap___aeabi_dcmpgt>
10001b6c:	2800      	cmp	r0, #0
10001b6e:	f040 80ee 	bne.w	10001d4e <_ftoa+0x236>
10001b72:	e9dd 0104 	ldrd	r0, r1, [sp, #16]
10001b76:	a3a4      	add	r3, pc, #656	@ (adr r3, 10001e08 <_ftoa+0x2f0>)
10001b78:	e9d3 2300 	ldrd	r2, r3, [r3]
10001b7c:	f7ff fe78 	bl	10001870 <__wrap___aeabi_dcmpgt>
10001b80:	2800      	cmp	r0, #0
10001b82:	f040 80d3 	bne.w	10001d2c <_ftoa+0x214>
10001b86:	e9dd 0104 	ldrd	r0, r1, [sp, #16]
10001b8a:	a3a1      	add	r3, pc, #644	@ (adr r3, 10001e10 <_ftoa+0x2f8>)
10001b8c:	e9d3 2300 	ldrd	r2, r3, [r3]
10001b90:	f7ff fe32 	bl	100017f8 <__wrap___aeabi_dcmplt>
10001b94:	2800      	cmp	r0, #0
10001b96:	f040 80c9 	bne.w	10001d2c <_ftoa+0x214>
10001b9a:	e9dd 0104 	ldrd	r0, r1, [sp, #16]
10001b9e:	2200      	movs	r2, #0
10001ba0:	2300      	movs	r3, #0
10001ba2:	f7ff fe29 	bl	100017f8 <__wrap___aeabi_dcmplt>
10001ba6:	2800      	cmp	r0, #0
10001ba8:	f040 80e8 	bne.w	10001d7c <_ftoa+0x264>
10001bac:	4623      	mov	r3, r4
10001bae:	900d      	str	r0, [sp, #52]	@ 0x34
10001bb0:	f413 6f80 	tst.w	r3, #1024	@ 0x400
10001bb4:	bf08      	it	eq
10001bb6:	2506      	moveq	r5, #6
10001bb8:	2130      	movs	r1, #48	@ 0x30
10001bba:	462b      	mov	r3, r5
10001bbc:	aa0e      	add	r2, sp, #56	@ 0x38
10001bbe:	f1a5 0620 	sub.w	r6, r5, #32
10001bc2:	e005      	b.n	10001bd0 <_ftoa+0xb8>
10001bc4:	3b01      	subs	r3, #1
10001bc6:	42b3      	cmp	r3, r6
10001bc8:	f802 1b01 	strb.w	r1, [r2], #1
10001bcc:	f000 8193 	beq.w	10001ef6 <_ftoa+0x3de>
10001bd0:	2b09      	cmp	r3, #9
10001bd2:	d8f7      	bhi.n	10001bc4 <_ftoa+0xac>
10001bd4:	461e      	mov	r6, r3
10001bd6:	1aed      	subs	r5, r5, r3
10001bd8:	e9dd 0104 	ldrd	r0, r1, [sp, #16]
10001bdc:	f7ff fdd6 	bl	1000178c <__wrap___aeabi_d2iz>
10001be0:	4b8e      	ldr	r3, [pc, #568]	@ (10001e1c <_ftoa+0x304>)
10001be2:	4604      	mov	r4, r0
10001be4:	eb03 03c6 	add.w	r3, r3, r6, lsl #3
10001be8:	ed93 7b00 	vldr	d7, [r3]
10001bec:	ed8d 7b08 	vstr	d7, [sp, #32]
10001bf0:	f7ff fda8 	bl	10001744 <__wrap___aeabi_i2d>
10001bf4:	4602      	mov	r2, r0
10001bf6:	460b      	mov	r3, r1
10001bf8:	e9dd 0104 	ldrd	r0, r1, [sp, #16]
10001bfc:	f7ff fd1a 	bl	10001634 <__wrap___aeabi_dsub>
10001c00:	e9dd 2308 	ldrd	r2, r3, [sp, #32]
10001c04:	f7ff fd2a 	bl	1000165c <__wrap___aeabi_dmul>
10001c08:	4602      	mov	r2, r0
10001c0a:	460b      	mov	r3, r1
10001c0c:	e9cd 230a 	strd	r2, r3, [sp, #40]	@ 0x28
10001c10:	f7ff fdce 	bl	100017b0 <__wrap___aeabi_d2uiz>
10001c14:	4682      	mov	sl, r0
10001c16:	f7ff fda7 	bl	10001768 <__wrap___aeabi_ui2d>
10001c1a:	4602      	mov	r2, r0
10001c1c:	460b      	mov	r3, r1
10001c1e:	e9dd 010a 	ldrd	r0, r1, [sp, #40]	@ 0x28
10001c22:	f7ff fd07 	bl	10001634 <__wrap___aeabi_dsub>
10001c26:	4602      	mov	r2, r0
10001c28:	460b      	mov	r3, r1
10001c2a:	e9cd 230a 	strd	r2, r3, [sp, #40]	@ 0x28
10001c2e:	2200      	movs	r2, #0
10001c30:	4b7b      	ldr	r3, [pc, #492]	@ (10001e20 <_ftoa+0x308>)
10001c32:	f7ff fe1d 	bl	10001870 <__wrap___aeabi_dcmpgt>
10001c36:	2800      	cmp	r0, #0
10001c38:	f000 80fe 	beq.w	10001e38 <_ftoa+0x320>
10001c3c:	f10a 0a01 	add.w	sl, sl, #1
10001c40:	4650      	mov	r0, sl
10001c42:	f7ff fd91 	bl	10001768 <__wrap___aeabi_ui2d>
10001c46:	4602      	mov	r2, r0
10001c48:	460b      	mov	r3, r1
10001c4a:	e9dd 0108 	ldrd	r0, r1, [sp, #32]
10001c4e:	f7ff fde7 	bl	10001820 <__wrap___aeabi_dcmple>
10001c52:	b110      	cbz	r0, 10001c5a <_ftoa+0x142>
10001c54:	f04f 0a00 	mov.w	sl, #0
10001c58:	3401      	adds	r4, #1
10001c5a:	2e00      	cmp	r6, #0
10001c5c:	f000 80fd 	beq.w	10001e5a <_ftoa+0x342>
10001c60:	1e68      	subs	r0, r5, #1
10001c62:	ab0e      	add	r3, sp, #56	@ 0x38
10001c64:	f8df c1cc 	ldr.w	ip, [pc, #460]	@ 10001e34 <_ftoa+0x31c>
10001c68:	4418      	add	r0, r3
10001c6a:	e00f      	b.n	10001c8c <_ftoa+0x174>
10001c6c:	fbac 210a 	umull	r2, r1, ip, sl
10001c70:	08c9      	lsrs	r1, r1, #3
10001c72:	eb01 0281 	add.w	r2, r1, r1, lsl #2
10001c76:	ebaa 0242 	sub.w	r2, sl, r2, lsl #1
10001c7a:	3230      	adds	r2, #48	@ 0x30
10001c7c:	f1ba 0f09 	cmp.w	sl, #9
10001c80:	f800 2f01 	strb.w	r2, [r0, #1]!
10001c84:	f240 811c 	bls.w	10001ec0 <_ftoa+0x3a8>
10001c88:	468a      	mov	sl, r1
10001c8a:	461d      	mov	r5, r3
10001c8c:	2d20      	cmp	r5, #32
10001c8e:	f105 0301 	add.w	r3, r5, #1
10001c92:	f106 36ff 	add.w	r6, r6, #4294967295
10001c96:	d1e9      	bne.n	10001c6c <_ftoa+0x154>
10001c98:	2520      	movs	r5, #32
10001c9a:	1e69      	subs	r1, r5, #1
10001c9c:	ab0e      	add	r3, sp, #56	@ 0x38
10001c9e:	4861      	ldr	r0, [pc, #388]	@ (10001e24 <_ftoa+0x30c>)
10001ca0:	4419      	add	r1, r3
10001ca2:	e010      	b.n	10001cc6 <_ftoa+0x1ae>
10001ca4:	fb80 6204 	smull	r6, r2, r0, r4
10001ca8:	ebc3 03a2 	rsb	r3, r3, r2, asr #2
10001cac:	eb03 0283 	add.w	r2, r3, r3, lsl #2
10001cb0:	eba4 0442 	sub.w	r4, r4, r2, lsl #1
10001cb4:	f104 0230 	add.w	r2, r4, #48	@ 0x30
10001cb8:	3501      	adds	r5, #1
10001cba:	461c      	mov	r4, r3
10001cbc:	f801 2f01 	strb.w	r2, [r1, #1]!
10001cc0:	2b00      	cmp	r3, #0
10001cc2:	f000 80eb 	beq.w	10001e9c <_ftoa+0x384>
10001cc6:	2d20      	cmp	r5, #32
10001cc8:	ea4f 73e4 	mov.w	r3, r4, asr #31
10001ccc:	d1ea      	bne.n	10001ca4 <_ftoa+0x18c>
10001cce:	9b07      	ldr	r3, [sp, #28]
10001cd0:	f003 0303 	and.w	r3, r3, #3
10001cd4:	2b01      	cmp	r3, #1
10001cd6:	d118      	bne.n	10001d0a <_ftoa+0x1f2>
10001cd8:	f1bb 0f00 	cmp.w	fp, #0
10001cdc:	d015      	beq.n	10001d0a <_ftoa+0x1f2>
10001cde:	9b0d      	ldr	r3, [sp, #52]	@ 0x34
10001ce0:	2b00      	cmp	r3, #0
10001ce2:	f000 810a 	beq.w	10001efa <_ftoa+0x3e2>
10001ce6:	f10b 3bff 	add.w	fp, fp, #4294967295
10001cea:	f1bb 0f20 	cmp.w	fp, #32
10001cee:	d90c      	bls.n	10001d0a <_ftoa+0x1f2>
10001cf0:	1e6b      	subs	r3, r5, #1
10001cf2:	a90e      	add	r1, sp, #56	@ 0x38
10001cf4:	2230      	movs	r2, #48	@ 0x30
10001cf6:	440b      	add	r3, r1
10001cf8:	e005      	b.n	10001d06 <_ftoa+0x1ee>
10001cfa:	3501      	adds	r5, #1
10001cfc:	455d      	cmp	r5, fp
10001cfe:	f803 2f01 	strb.w	r2, [r3, #1]!
10001d02:	f080 80d1 	bcs.w	10001ea8 <_ftoa+0x390>
10001d06:	2d20      	cmp	r5, #32
10001d08:	d1f7      	bne.n	10001cfa <_ftoa+0x1e2>
10001d0a:	9b07      	ldr	r3, [sp, #28]
10001d0c:	ac0e      	add	r4, sp, #56	@ 0x38
10001d0e:	e9cd b302 	strd	fp, r3, [sp, #8]
10001d12:	4641      	mov	r1, r8
10001d14:	464b      	mov	r3, r9
10001d16:	4638      	mov	r0, r7
10001d18:	9a0c      	ldr	r2, [sp, #48]	@ 0x30
10001d1a:	9501      	str	r5, [sp, #4]
10001d1c:	9400      	str	r4, [sp, #0]
10001d1e:	f7ff fdb9 	bl	10001894 <_out_rev>
10001d22:	4682      	mov	sl, r0
10001d24:	4650      	mov	r0, sl
10001d26:	b017      	add	sp, #92	@ 0x5c
10001d28:	e8bd 8ff0 	ldmia.w	sp!, {r4, r5, r6, r7, r8, r9, sl, fp, pc}
10001d2c:	9b07      	ldr	r3, [sp, #28]
10001d2e:	ed9d 7b04 	vldr	d7, [sp, #16]
10001d32:	e9cd b323 	strd	fp, r3, [sp, #140]	@ 0x8c
10001d36:	4641      	mov	r1, r8
10001d38:	464b      	mov	r3, r9
10001d3a:	4638      	mov	r0, r7
10001d3c:	9a0c      	ldr	r2, [sp, #48]	@ 0x30
10001d3e:	ed8d 7b20 	vstr	d7, [sp, #128]	@ 0x80
10001d42:	9522      	str	r5, [sp, #136]	@ 0x88
10001d44:	b017      	add	sp, #92	@ 0x5c
10001d46:	e8bd 4ff0 	ldmia.w	sp!, {r4, r5, r6, r7, r8, r9, sl, fp, lr}
10001d4a:	f000 b945 	b.w	10001fd8 <_etoa>
10001d4e:	0761      	lsls	r1, r4, #29
10001d50:	4623      	mov	r3, r4
10001d52:	bf4c      	ite	mi
10001d54:	2304      	movmi	r3, #4
10001d56:	2303      	movpl	r3, #3
10001d58:	4641      	mov	r1, r8
10001d5a:	9321      	str	r3, [sp, #132]	@ 0x84
10001d5c:	4638      	mov	r0, r7
10001d5e:	464b      	mov	r3, r9
10001d60:	9a07      	ldr	r2, [sp, #28]
10001d62:	bf48      	it	mi
10001d64:	4c30      	ldrmi	r4, [pc, #192]	@ (10001e28 <_ftoa+0x310>)
10001d66:	e9cd b222 	strd	fp, r2, [sp, #136]	@ 0x88
10001d6a:	bf58      	it	pl
10001d6c:	4c2f      	ldrpl	r4, [pc, #188]	@ (10001e2c <_ftoa+0x314>)
10001d6e:	9a0c      	ldr	r2, [sp, #48]	@ 0x30
10001d70:	9420      	str	r4, [sp, #128]	@ 0x80
10001d72:	b017      	add	sp, #92	@ 0x5c
10001d74:	e8bd 4ff0 	ldmia.w	sp!, {r4, r5, r6, r7, r8, r9, sl, fp, lr}
10001d78:	f7ff bd8c 	b.w	10001894 <_out_rev>
10001d7c:	e9dd 2304 	ldrd	r2, r3, [sp, #16]
10001d80:	2000      	movs	r0, #0
10001d82:	2100      	movs	r1, #0
10001d84:	f7ff fc56 	bl	10001634 <__wrap___aeabi_dsub>
10001d88:	2301      	movs	r3, #1
10001d8a:	e9cd 0104 	strd	r0, r1, [sp, #16]
10001d8e:	930d      	str	r3, [sp, #52]	@ 0x34
10001d90:	4623      	mov	r3, r4
10001d92:	e70d      	b.n	10001bb0 <_ftoa+0x98>
10001d94:	4623      	mov	r3, r4
10001d96:	079c      	lsls	r4, r3, #30
10001d98:	f040 80aa 	bne.w	10001ef0 <_ftoa+0x3d8>
10001d9c:	f1bb 0f04 	cmp.w	fp, #4
10001da0:	f240 80a6 	bls.w	10001ef0 <_ftoa+0x3d8>
10001da4:	9b0c      	ldr	r3, [sp, #48]	@ 0x30
10001da6:	461d      	mov	r5, r3
10001da8:	1f1c      	subs	r4, r3, #4
10001daa:	eb04 0a0b 	add.w	sl, r4, fp
10001dae:	462a      	mov	r2, r5
10001db0:	464b      	mov	r3, r9
10001db2:	4641      	mov	r1, r8
10001db4:	2020      	movs	r0, #32
10001db6:	3501      	adds	r5, #1
10001db8:	47b8      	blx	r7
10001dba:	45aa      	cmp	sl, r5
10001dbc:	d1f7      	bne.n	10001dae <_ftoa+0x296>
10001dbe:	4655      	mov	r5, sl
10001dc0:	4c1b      	ldr	r4, [pc, #108]	@ (10001e30 <_ftoa+0x318>)
10001dc2:	1f26      	subs	r6, r4, #4
10001dc4:	f814 0d01 	ldrb.w	r0, [r4, #-1]!
10001dc8:	462a      	mov	r2, r5
10001dca:	464b      	mov	r3, r9
10001dcc:	4641      	mov	r1, r8
10001dce:	47b8      	blx	r7
10001dd0:	42b4      	cmp	r4, r6
10001dd2:	f105 0501 	add.w	r5, r5, #1
10001dd6:	d1f5      	bne.n	10001dc4 <_ftoa+0x2ac>
10001dd8:	9b07      	ldr	r3, [sp, #28]
10001dda:	f10a 0a04 	add.w	sl, sl, #4
10001dde:	0798      	lsls	r0, r3, #30
10001de0:	d5a0      	bpl.n	10001d24 <_ftoa+0x20c>
10001de2:	9c0c      	ldr	r4, [sp, #48]	@ 0x30
10001de4:	ebaa 0304 	sub.w	r3, sl, r4
10001de8:	459b      	cmp	fp, r3
10001dea:	d99b      	bls.n	10001d24 <_ftoa+0x20c>
10001dec:	4652      	mov	r2, sl
10001dee:	464b      	mov	r3, r9
10001df0:	4641      	mov	r1, r8
10001df2:	2020      	movs	r0, #32
10001df4:	f10a 0a01 	add.w	sl, sl, #1
10001df8:	47b8      	blx	r7
10001dfa:	ebaa 0304 	sub.w	r3, sl, r4
10001dfe:	455b      	cmp	r3, fp
10001e00:	d3f4      	bcc.n	10001dec <_ftoa+0x2d4>
10001e02:	e78f      	b.n	10001d24 <_ftoa+0x20c>
10001e04:	f3af 8000 	nop.w
10001e08:	00000000 	.word	0x00000000
10001e0c:	41cdcd65 	.word	0x41cdcd65
10001e10:	00000000 	.word	0x00000000
10001e14:	c1cdcd65 	.word	0xc1cdcd65
10001e18:	7fefffff 	.word	0x7fefffff
10001e1c:	100038e8 	.word	0x100038e8
10001e20:	3fe00000 	.word	0x3fe00000
10001e24:	66666667 	.word	0x66666667
10001e28:	10003844 	.word	0x10003844
10001e2c:	1000384c 	.word	0x1000384c
10001e30:	10003858 	.word	0x10003858
10001e34:	cccccccd 	.word	0xcccccccd
10001e38:	2200      	movs	r2, #0
10001e3a:	e9dd 010a 	ldrd	r0, r1, [sp, #40]	@ 0x28
10001e3e:	4b63      	ldr	r3, [pc, #396]	@ (10001fcc <_ftoa+0x4b4>)
10001e40:	f7ff fcda 	bl	100017f8 <__wrap___aeabi_dcmplt>
10001e44:	2800      	cmp	r0, #0
10001e46:	f47f af08 	bne.w	10001c5a <_ftoa+0x142>
10001e4a:	f1ba 0f00 	cmp.w	sl, #0
10001e4e:	d16a      	bne.n	10001f26 <_ftoa+0x40e>
10001e50:	f10a 0a01 	add.w	sl, sl, #1
10001e54:	2e00      	cmp	r6, #0
10001e56:	f47f af03 	bne.w	10001c60 <_ftoa+0x148>
10001e5a:	4620      	mov	r0, r4
10001e5c:	f7ff fc72 	bl	10001744 <__wrap___aeabi_i2d>
10001e60:	4602      	mov	r2, r0
10001e62:	460b      	mov	r3, r1
10001e64:	e9dd 0104 	ldrd	r0, r1, [sp, #16]
10001e68:	f7ff fbe4 	bl	10001634 <__wrap___aeabi_dsub>
10001e6c:	4602      	mov	r2, r0
10001e6e:	460b      	mov	r3, r1
10001e70:	e9cd 2304 	strd	r2, r3, [sp, #16]
10001e74:	2200      	movs	r2, #0
10001e76:	4b55      	ldr	r3, [pc, #340]	@ (10001fcc <_ftoa+0x4b4>)
10001e78:	f7ff fcbe 	bl	100017f8 <__wrap___aeabi_dcmplt>
10001e7c:	2800      	cmp	r0, #0
10001e7e:	f47f af0c 	bne.w	10001c9a <_ftoa+0x182>
10001e82:	e9dd 0104 	ldrd	r0, r1, [sp, #16]
10001e86:	2200      	movs	r2, #0
10001e88:	4b50      	ldr	r3, [pc, #320]	@ (10001fcc <_ftoa+0x4b4>)
10001e8a:	f7ff fcf1 	bl	10001870 <__wrap___aeabi_dcmpgt>
10001e8e:	2800      	cmp	r0, #0
10001e90:	f47f af03 	bne.w	10001c9a <_ftoa+0x182>
10001e94:	3401      	adds	r4, #1
10001e96:	f024 0401 	bic.w	r4, r4, #1
10001e9a:	e6fe      	b.n	10001c9a <_ftoa+0x182>
10001e9c:	9b07      	ldr	r3, [sp, #28]
10001e9e:	f003 0303 	and.w	r3, r3, #3
10001ea2:	2b01      	cmp	r3, #1
10001ea4:	f000 8082 	beq.w	10001fac <_ftoa+0x494>
10001ea8:	2d20      	cmp	r5, #32
10001eaa:	f43f af2e 	beq.w	10001d0a <_ftoa+0x1f2>
10001eae:	9b0d      	ldr	r3, [sp, #52]	@ 0x34
10001eb0:	b37b      	cbz	r3, 10001f12 <_ftoa+0x3fa>
10001eb2:	222d      	movs	r2, #45	@ 0x2d
10001eb4:	eb0d 0305 	add.w	r3, sp, r5
10001eb8:	f883 2038 	strb.w	r2, [r3, #56]	@ 0x38
10001ebc:	3501      	adds	r5, #1
10001ebe:	e724      	b.n	10001d0a <_ftoa+0x1f2>
10001ec0:	2b20      	cmp	r3, #32
10001ec2:	f43f aee9 	beq.w	10001c98 <_ftoa+0x180>
10001ec6:	aa0e      	add	r2, sp, #56	@ 0x38
10001ec8:	4415      	add	r5, r2
10001eca:	441e      	add	r6, r3
10001ecc:	2230      	movs	r2, #48	@ 0x30
10001ece:	e004      	b.n	10001eda <_ftoa+0x3c2>
10001ed0:	2b20      	cmp	r3, #32
10001ed2:	f805 2f01 	strb.w	r2, [r5, #1]!
10001ed6:	f43f aedf 	beq.w	10001c98 <_ftoa+0x180>
10001eda:	429e      	cmp	r6, r3
10001edc:	f103 0301 	add.w	r3, r3, #1
10001ee0:	d1f6      	bne.n	10001ed0 <_ftoa+0x3b8>
10001ee2:	222e      	movs	r2, #46	@ 0x2e
10001ee4:	eb0d 0306 	add.w	r3, sp, r6
10001ee8:	f883 2038 	strb.w	r2, [r3, #56]	@ 0x38
10001eec:	1c75      	adds	r5, r6, #1
10001eee:	e6d4      	b.n	10001c9a <_ftoa+0x182>
10001ef0:	f8dd a030 	ldr.w	sl, [sp, #48]	@ 0x30
10001ef4:	e763      	b.n	10001dbe <_ftoa+0x2a6>
10001ef6:	2520      	movs	r5, #32
10001ef8:	e66e      	b.n	10001bd8 <_ftoa+0xc0>
10001efa:	9b07      	ldr	r3, [sp, #28]
10001efc:	f013 0f0c 	tst.w	r3, #12
10001f00:	d050      	beq.n	10001fa4 <_ftoa+0x48c>
10001f02:	f10b 3bff 	add.w	fp, fp, #4294967295
10001f06:	45ab      	cmp	fp, r5
10001f08:	f63f aef2 	bhi.w	10001cf0 <_ftoa+0x1d8>
10001f0c:	2d20      	cmp	r5, #32
10001f0e:	f43f aefc 	beq.w	10001d0a <_ftoa+0x1f2>
10001f12:	9b07      	ldr	r3, [sp, #28]
10001f14:	075a      	lsls	r2, r3, #29
10001f16:	d501      	bpl.n	10001f1c <_ftoa+0x404>
10001f18:	222b      	movs	r2, #43	@ 0x2b
10001f1a:	e7cb      	b.n	10001eb4 <_ftoa+0x39c>
10001f1c:	071b      	lsls	r3, r3, #28
10001f1e:	f57f aef4 	bpl.w	10001d0a <_ftoa+0x1f2>
10001f22:	2220      	movs	r2, #32
10001f24:	e7c6      	b.n	10001eb4 <_ftoa+0x39c>
10001f26:	f01a 0f01 	tst.w	sl, #1
10001f2a:	f43f ae96 	beq.w	10001c5a <_ftoa+0x142>
10001f2e:	e78f      	b.n	10001e50 <_ftoa+0x338>
10001f30:	07a6      	lsls	r6, r4, #30
10001f32:	d134      	bne.n	10001f9e <_ftoa+0x486>
10001f34:	f1bb 0f03 	cmp.w	fp, #3
10001f38:	d931      	bls.n	10001f9e <_ftoa+0x486>
10001f3a:	9b0c      	ldr	r3, [sp, #48]	@ 0x30
10001f3c:	461d      	mov	r5, r3
10001f3e:	1edc      	subs	r4, r3, #3
10001f40:	eb04 0a0b 	add.w	sl, r4, fp
10001f44:	462a      	mov	r2, r5
10001f46:	464b      	mov	r3, r9
10001f48:	4641      	mov	r1, r8
10001f4a:	2020      	movs	r0, #32
10001f4c:	3501      	adds	r5, #1
10001f4e:	47b8      	blx	r7
10001f50:	4555      	cmp	r5, sl
10001f52:	d1f7      	bne.n	10001f44 <_ftoa+0x42c>
10001f54:	4655      	mov	r5, sl
10001f56:	4c1e      	ldr	r4, [pc, #120]	@ (10001fd0 <_ftoa+0x4b8>)
10001f58:	1ee6      	subs	r6, r4, #3
10001f5a:	f814 0d01 	ldrb.w	r0, [r4, #-1]!
10001f5e:	462a      	mov	r2, r5
10001f60:	464b      	mov	r3, r9
10001f62:	4641      	mov	r1, r8
10001f64:	47b8      	blx	r7
10001f66:	42a6      	cmp	r6, r4
10001f68:	f105 0501 	add.w	r5, r5, #1
10001f6c:	d1f5      	bne.n	10001f5a <_ftoa+0x442>
10001f6e:	9b07      	ldr	r3, [sp, #28]
10001f70:	f10a 0a03 	add.w	sl, sl, #3
10001f74:	079d      	lsls	r5, r3, #30
10001f76:	f57f aed5 	bpl.w	10001d24 <_ftoa+0x20c>
10001f7a:	9c0c      	ldr	r4, [sp, #48]	@ 0x30
10001f7c:	ebaa 0304 	sub.w	r3, sl, r4
10001f80:	459b      	cmp	fp, r3
10001f82:	f67f aecf 	bls.w	10001d24 <_ftoa+0x20c>
10001f86:	4652      	mov	r2, sl
10001f88:	464b      	mov	r3, r9
10001f8a:	4641      	mov	r1, r8
10001f8c:	2020      	movs	r0, #32
10001f8e:	f10a 0a01 	add.w	sl, sl, #1
10001f92:	47b8      	blx	r7
10001f94:	ebaa 0304 	sub.w	r3, sl, r4
10001f98:	459b      	cmp	fp, r3
10001f9a:	d8f4      	bhi.n	10001f86 <_ftoa+0x46e>
10001f9c:	e6c2      	b.n	10001d24 <_ftoa+0x20c>
10001f9e:	f8dd a030 	ldr.w	sl, [sp, #48]	@ 0x30
10001fa2:	e7d7      	b.n	10001f54 <_ftoa+0x43c>
10001fa4:	45ab      	cmp	fp, r5
10001fa6:	f63f aea3 	bhi.w	10001cf0 <_ftoa+0x1d8>
10001faa:	e6ae      	b.n	10001d0a <_ftoa+0x1f2>
10001fac:	f1bb 0f00 	cmp.w	fp, #0
10001fb0:	f43f af7a 	beq.w	10001ea8 <_ftoa+0x390>
10001fb4:	9b0d      	ldr	r3, [sp, #52]	@ 0x34
10001fb6:	2b00      	cmp	r3, #0
10001fb8:	d09f      	beq.n	10001efa <_ftoa+0x3e2>
10001fba:	f10b 3bff 	add.w	fp, fp, #4294967295
10001fbe:	455d      	cmp	r5, fp
10001fc0:	f4ff ae96 	bcc.w	10001cf0 <_ftoa+0x1d8>
10001fc4:	2d20      	cmp	r5, #32
10001fc6:	f47f af74 	bne.w	10001eb2 <_ftoa+0x39a>
10001fca:	e69e      	b.n	10001d0a <_ftoa+0x1f2>
10001fcc:	3fe00000 	.word	0x3fe00000
10001fd0:	10003853 	.word	0x10003853
10001fd4:	00000000 	.word	0x00000000

10001fd8 <_etoa>:
10001fd8:	e92d 4ff0 	stmdb	sp!, {r4, r5, r6, r7, r8, r9, sl, fp, lr}
10001fdc:	b09f      	sub	sp, #124	@ 0x7c
10001fde:	9e2a      	ldr	r6, [sp, #168]	@ 0xa8
10001fe0:	e9dd 4528 	ldrd	r4, r5, [sp, #160]	@ 0xa0
10001fe4:	4607      	mov	r7, r0
10001fe6:	4693      	mov	fp, r2
10001fe8:	9108      	str	r1, [sp, #32]
10001fea:	9309      	str	r3, [sp, #36]	@ 0x24
10001fec:	4622      	mov	r2, r4
10001fee:	462b      	mov	r3, r5
10001ff0:	4620      	mov	r0, r4
10001ff2:	4629      	mov	r1, r5
10001ff4:	960e      	str	r6, [sp, #56]	@ 0x38
10001ff6:	e9dd a62b 	ldrd	sl, r6, [sp, #172]	@ 0xac
10001ffa:	f7ff fbeb 	bl	100017d4 <__wrap___aeabi_dcmpun>
10001ffe:	2800      	cmp	r0, #0
10002000:	f040 80be 	bne.w	10002180 <_etoa+0x1a8>
10002004:	4620      	mov	r0, r4
10002006:	4629      	mov	r1, r5
10002008:	f04f 32ff 	mov.w	r2, #4294967295
1000200c:	4b78      	ldr	r3, [pc, #480]	@ (100021f0 <_etoa+0x218>)
1000200e:	f7ff fc2f 	bl	10001870 <__wrap___aeabi_dcmpgt>
10002012:	2800      	cmp	r0, #0
10002014:	f040 80b4 	bne.w	10002180 <_etoa+0x1a8>
10002018:	4620      	mov	r0, r4
1000201a:	4629      	mov	r1, r5
1000201c:	f04f 32ff 	mov.w	r2, #4294967295
10002020:	f46f 1380 	mvn.w	r3, #1048576	@ 0x100000
10002024:	f7ff fbe8 	bl	100017f8 <__wrap___aeabi_dcmplt>
10002028:	2800      	cmp	r0, #0
1000202a:	f040 80a9 	bne.w	10002180 <_etoa+0x1a8>
1000202e:	4620      	mov	r0, r4
10002030:	4629      	mov	r1, r5
10002032:	2200      	movs	r2, #0
10002034:	2300      	movs	r3, #0
10002036:	f7ff fbdf 	bl	100017f8 <__wrap___aeabi_dcmplt>
1000203a:	2800      	cmp	r0, #0
1000203c:	f040 81d5 	bne.w	100023ea <_etoa+0x412>
10002040:	e9cd 450a 	strd	r4, r5, [sp, #40]	@ 0x28
10002044:	e9dd 230a 	ldrd	r2, r3, [sp, #40]	@ 0x28
10002048:	4690      	mov	r8, r2
1000204a:	4699      	mov	r9, r3
1000204c:	f406 6200 	and.w	r2, r6, #2048	@ 0x800
10002050:	f416 6380 	ands.w	r3, r6, #1024	@ 0x400
10002054:	920f      	str	r2, [sp, #60]	@ 0x3c
10002056:	9313      	str	r3, [sp, #76]	@ 0x4c
10002058:	f040 80a1 	bne.w	1000219e <_etoa+0x1c6>
1000205c:	ea58 0309 	orrs.w	r3, r8, r9
10002060:	f040 80ca 	bne.w	100021f8 <_etoa+0x220>
10002064:	2a00      	cmp	r2, #0
10002066:	f040 81e3 	bne.w	10002430 <_etoa+0x458>
1000206a:	2306      	movs	r3, #6
1000206c:	930e      	str	r3, [sp, #56]	@ 0x38
1000206e:	f016 0202 	ands.w	r2, r6, #2
10002072:	9210      	str	r2, [sp, #64]	@ 0x40
10002074:	f040 81d4 	bne.w	10002420 <_etoa+0x448>
10002078:	4653      	mov	r3, sl
1000207a:	2b04      	cmp	r3, #4
1000207c:	bf38      	it	cc
1000207e:	2304      	movcc	r3, #4
10002080:	920c      	str	r2, [sp, #48]	@ 0x30
10002082:	2204      	movs	r2, #4
10002084:	3b04      	subs	r3, #4
10002086:	9212      	str	r2, [sp, #72]	@ 0x48
10002088:	930f      	str	r3, [sp, #60]	@ 0x3c
1000208a:	4620      	mov	r0, r4
1000208c:	4629      	mov	r1, r5
1000208e:	2200      	movs	r2, #0
10002090:	2300      	movs	r3, #0
10002092:	f7ff fbb1 	bl	100017f8 <__wrap___aeabi_dcmplt>
10002096:	2800      	cmp	r0, #0
10002098:	f040 81f3 	bne.w	10002482 <_etoa+0x4aa>
1000209c:	ed9d 7b0a 	vldr	d7, [sp, #40]	@ 0x28
100020a0:	9b0f      	ldr	r3, [sp, #60]	@ 0x3c
100020a2:	465a      	mov	r2, fp
100020a4:	9303      	str	r3, [sp, #12]
100020a6:	9b0e      	ldr	r3, [sp, #56]	@ 0x38
100020a8:	ed8d 7b00 	vstr	d7, [sp]
100020ac:	9302      	str	r3, [sp, #8]
100020ae:	f426 6300 	bic.w	r3, r6, #2048	@ 0x800
100020b2:	9304      	str	r3, [sp, #16]
100020b4:	4638      	mov	r0, r7
100020b6:	9b09      	ldr	r3, [sp, #36]	@ 0x24
100020b8:	9908      	ldr	r1, [sp, #32]
100020ba:	f7ff fd2d 	bl	10001b18 <_ftoa>
100020be:	4602      	mov	r2, r0
100020c0:	f016 0f20 	tst.w	r6, #32
100020c4:	9b09      	ldr	r3, [sp, #36]	@ 0x24
100020c6:	9908      	ldr	r1, [sp, #32]
100020c8:	bf0c      	ite	eq
100020ca:	2065      	moveq	r0, #101	@ 0x65
100020cc:	2045      	movne	r0, #69	@ 0x45
100020ce:	f102 0801 	add.w	r8, r2, #1
100020d2:	47b8      	blx	r7
100020d4:	9a0c      	ldr	r2, [sp, #48]	@ 0x30
100020d6:	9b12      	ldr	r3, [sp, #72]	@ 0x48
100020d8:	ac16      	add	r4, sp, #88	@ 0x58
100020da:	1e5d      	subs	r5, r3, #1
100020dc:	ea82 73e2 	eor.w	r3, r2, r2, asr #31
100020e0:	eba3 73e2 	sub.w	r3, r3, r2, asr #31
100020e4:	0fd1      	lsrs	r1, r2, #31
100020e6:	2600      	movs	r6, #0
100020e8:	4622      	mov	r2, r4
100020ea:	4699      	mov	r9, r3
100020ec:	f8df c104 	ldr.w	ip, [pc, #260]	@ 100021f4 <_etoa+0x21c>
100020f0:	e001      	b.n	100020f6 <_etoa+0x11e>
100020f2:	2e20      	cmp	r6, #32
100020f4:	d010      	beq.n	10002118 <_etoa+0x140>
100020f6:	46ce      	mov	lr, r9
100020f8:	fbac 3009 	umull	r3, r0, ip, r9
100020fc:	08c0      	lsrs	r0, r0, #3
100020fe:	eb00 0380 	add.w	r3, r0, r0, lsl #2
10002102:	eba9 0343 	sub.w	r3, r9, r3, lsl #1
10002106:	3330      	adds	r3, #48	@ 0x30
10002108:	f1be 0f09 	cmp.w	lr, #9
1000210c:	4681      	mov	r9, r0
1000210e:	f106 0601 	add.w	r6, r6, #1
10002112:	f802 3b01 	strb.w	r3, [r2], #1
10002116:	d8ec      	bhi.n	100020f2 <_etoa+0x11a>
10002118:	2305      	movs	r3, #5
1000211a:	2000      	movs	r0, #0
1000211c:	9306      	str	r3, [sp, #24]
1000211e:	230a      	movs	r3, #10
10002120:	9505      	str	r5, [sp, #20]
10002122:	9400      	str	r4, [sp, #0]
10002124:	9d09      	ldr	r5, [sp, #36]	@ 0x24
10002126:	9c08      	ldr	r4, [sp, #32]
10002128:	4642      	mov	r2, r8
1000212a:	e9cd 3003 	strd	r3, r0, [sp, #12]
1000212e:	e9cd 6101 	strd	r6, r1, [sp, #4]
10002132:	462b      	mov	r3, r5
10002134:	4621      	mov	r1, r4
10002136:	4638      	mov	r0, r7
10002138:	f7ff fbfa 	bl	10001930 <_ntoa_format>
1000213c:	9a10      	ldr	r2, [sp, #64]	@ 0x40
1000213e:	4680      	mov	r8, r0
10002140:	b1d2      	cbz	r2, 10002178 <_etoa+0x1a0>
10002142:	eba0 060b 	sub.w	r6, r0, fp
10002146:	45b2      	cmp	sl, r6
10002148:	d916      	bls.n	10002178 <_etoa+0x1a0>
1000214a:	eb0b 0206 	add.w	r2, fp, r6
1000214e:	462b      	mov	r3, r5
10002150:	4621      	mov	r1, r4
10002152:	2020      	movs	r0, #32
10002154:	3601      	adds	r6, #1
10002156:	47b8      	blx	r7
10002158:	45b2      	cmp	sl, r6
1000215a:	d8f6      	bhi.n	1000214a <_etoa+0x172>
1000215c:	f10b 33ff 	add.w	r3, fp, #4294967295
10002160:	4453      	add	r3, sl
10002162:	f1cb 0201 	rsb	r2, fp, #1
10002166:	eba3 0308 	sub.w	r3, r3, r8
1000216a:	4442      	add	r2, r8
1000216c:	4592      	cmp	sl, r2
1000216e:	bf38      	it	cc
10002170:	2300      	movcc	r3, #0
10002172:	f108 0801 	add.w	r8, r8, #1
10002176:	4498      	add	r8, r3
10002178:	4640      	mov	r0, r8
1000217a:	b01f      	add	sp, #124	@ 0x7c
1000217c:	e8bd 8ff0 	ldmia.w	sp!, {r4, r5, r6, r7, r8, r9, sl, fp, pc}
10002180:	465a      	mov	r2, fp
10002182:	4638      	mov	r0, r7
10002184:	e9cd 4528 	strd	r4, r5, [sp, #160]	@ 0xa0
10002188:	e9cd a62b 	strd	sl, r6, [sp, #172]	@ 0xac
1000218c:	9c0e      	ldr	r4, [sp, #56]	@ 0x38
1000218e:	9b09      	ldr	r3, [sp, #36]	@ 0x24
10002190:	9908      	ldr	r1, [sp, #32]
10002192:	942a      	str	r4, [sp, #168]	@ 0xa8
10002194:	b01f      	add	sp, #124	@ 0x7c
10002196:	e8bd 4ff0 	ldmia.w	sp!, {r4, r5, r6, r7, r8, r9, sl, fp, lr}
1000219a:	f7ff bcbd 	b.w	10001b18 <_ftoa>
1000219e:	ea58 0309 	orrs.w	r3, r8, r9
100021a2:	d12b      	bne.n	100021fc <_etoa+0x224>
100021a4:	2a00      	cmp	r2, #0
100021a6:	f43f af62 	beq.w	1000206e <_etoa+0x96>
100021aa:	2300      	movs	r3, #0
100021ac:	930c      	str	r3, [sp, #48]	@ 0x30
100021ae:	9b0e      	ldr	r3, [sp, #56]	@ 0x38
100021b0:	9a0c      	ldr	r2, [sp, #48]	@ 0x30
100021b2:	4293      	cmp	r3, r2
100021b4:	f300 81b9 	bgt.w	1000252a <_etoa+0x552>
100021b8:	f04f 0800 	mov.w	r8, #0
100021bc:	4620      	mov	r0, r4
100021be:	4629      	mov	r1, r5
100021c0:	2200      	movs	r2, #0
100021c2:	2300      	movs	r3, #0
100021c4:	f7ff fb18 	bl	100017f8 <__wrap___aeabi_dcmplt>
100021c8:	2800      	cmp	r0, #0
100021ca:	f040 8113 	bne.w	100023f4 <_etoa+0x41c>
100021ce:	ed9d 7b0a 	vldr	d7, [sp, #40]	@ 0x28
100021d2:	f426 6600 	bic.w	r6, r6, #2048	@ 0x800
100021d6:	f446 6680 	orr.w	r6, r6, #1024	@ 0x400
100021da:	ed8d 7b28 	vstr	d7, [sp, #160]	@ 0xa0
100021de:	465a      	mov	r2, fp
100021e0:	4638      	mov	r0, r7
100021e2:	e9cd 8a2a 	strd	r8, sl, [sp, #168]	@ 0xa8
100021e6:	9b09      	ldr	r3, [sp, #36]	@ 0x24
100021e8:	9908      	ldr	r1, [sp, #32]
100021ea:	962c      	str	r6, [sp, #176]	@ 0xb0
100021ec:	e7d2      	b.n	10002194 <_etoa+0x1bc>
100021ee:	bf00      	nop
100021f0:	7fefffff 	.word	0x7fefffff
100021f4:	cccccccd 	.word	0xcccccccd
100021f8:	2306      	movs	r3, #6
100021fa:	930e      	str	r3, [sp, #56]	@ 0x38
100021fc:	f3c9 500a 	ubfx	r0, r9, #20, #11
10002200:	f2a0 30ff 	subw	r0, r0, #1023	@ 0x3ff
10002204:	f7ff fa9e 	bl	10001744 <__wrap___aeabi_i2d>
10002208:	a3c1      	add	r3, pc, #772	@ (adr r3, 10002510 <_etoa+0x538>)
1000220a:	e9d3 2300 	ldrd	r2, r3, [r3]
1000220e:	f7ff fa25 	bl	1000165c <__wrap___aeabi_dmul>
10002212:	a3c1      	add	r3, pc, #772	@ (adr r3, 10002518 <_etoa+0x540>)
10002214:	e9d3 2300 	ldrd	r2, r3, [r3]
10002218:	f7ff f9f8 	bl	1000160c <__wrap___aeabi_dadd>
1000221c:	f3c9 0913 	ubfx	r9, r9, #0, #20
10002220:	e9cd 010c 	strd	r0, r1, [sp, #48]	@ 0x30
10002224:	f049 517f 	orr.w	r1, r9, #1069547520	@ 0x3fc00000
10002228:	4640      	mov	r0, r8
1000222a:	2200      	movs	r2, #0
1000222c:	4bb2      	ldr	r3, [pc, #712]	@ (100024f8 <_etoa+0x520>)
1000222e:	f441 1140 	orr.w	r1, r1, #3145728	@ 0x300000
10002232:	f7ff f9ff 	bl	10001634 <__wrap___aeabi_dsub>
10002236:	a3a4      	add	r3, pc, #656	@ (adr r3, 100024c8 <_etoa+0x4f0>)
10002238:	e9d3 2300 	ldrd	r2, r3, [r3]
1000223c:	f7ff fa0e 	bl	1000165c <__wrap___aeabi_dmul>
10002240:	4602      	mov	r2, r0
10002242:	460b      	mov	r3, r1
10002244:	e9dd 010c 	ldrd	r0, r1, [sp, #48]	@ 0x30
10002248:	f7ff f9e0 	bl	1000160c <__wrap___aeabi_dadd>
1000224c:	f7ff fa9e 	bl	1000178c <__wrap___aeabi_d2iz>
10002250:	900c      	str	r0, [sp, #48]	@ 0x30
10002252:	f7ff fa77 	bl	10001744 <__wrap___aeabi_i2d>
10002256:	a39e      	add	r3, pc, #632	@ (adr r3, 100024d0 <_etoa+0x4f8>)
10002258:	e9d3 2300 	ldrd	r2, r3, [r3]
1000225c:	4680      	mov	r8, r0
1000225e:	4689      	mov	r9, r1
10002260:	f7ff f9fc 	bl	1000165c <__wrap___aeabi_dmul>
10002264:	2200      	movs	r2, #0
10002266:	4ba5      	ldr	r3, [pc, #660]	@ (100024fc <_etoa+0x524>)
10002268:	f7ff f9d0 	bl	1000160c <__wrap___aeabi_dadd>
1000226c:	f7ff fa8e 	bl	1000178c <__wrap___aeabi_d2iz>
10002270:	4603      	mov	r3, r0
10002272:	4649      	mov	r1, r9
10002274:	4640      	mov	r0, r8
10002276:	9312      	str	r3, [sp, #72]	@ 0x48
10002278:	a397      	add	r3, pc, #604	@ (adr r3, 100024d8 <_etoa+0x500>)
1000227a:	e9d3 2300 	ldrd	r2, r3, [r3]
1000227e:	f7ff f9ed 	bl	1000165c <__wrap___aeabi_dmul>
10002282:	4680      	mov	r8, r0
10002284:	9812      	ldr	r0, [sp, #72]	@ 0x48
10002286:	4689      	mov	r9, r1
10002288:	f7ff fa5c 	bl	10001744 <__wrap___aeabi_i2d>
1000228c:	a394      	add	r3, pc, #592	@ (adr r3, 100024e0 <_etoa+0x508>)
1000228e:	e9d3 2300 	ldrd	r2, r3, [r3]
10002292:	f7ff f9e3 	bl	1000165c <__wrap___aeabi_dmul>
10002296:	4602      	mov	r2, r0
10002298:	460b      	mov	r3, r1
1000229a:	4640      	mov	r0, r8
1000229c:	4649      	mov	r1, r9
1000229e:	f7ff f9c9 	bl	10001634 <__wrap___aeabi_dsub>
100022a2:	4602      	mov	r2, r0
100022a4:	460b      	mov	r3, r1
100022a6:	4680      	mov	r8, r0
100022a8:	4689      	mov	r9, r1
100022aa:	f7ff f9d7 	bl	1000165c <__wrap___aeabi_dmul>
100022ae:	4642      	mov	r2, r8
100022b0:	464b      	mov	r3, r9
100022b2:	e9cd 0110 	strd	r0, r1, [sp, #64]	@ 0x40
100022b6:	4640      	mov	r0, r8
100022b8:	4649      	mov	r1, r9
100022ba:	f7ff f9a7 	bl	1000160c <__wrap___aeabi_dadd>
100022be:	2200      	movs	r2, #0
100022c0:	e9cd 0114 	strd	r0, r1, [sp, #80]	@ 0x50
100022c4:	e9dd 0110 	ldrd	r0, r1, [sp, #64]	@ 0x40
100022c8:	4b8d      	ldr	r3, [pc, #564]	@ (10002500 <_etoa+0x528>)
100022ca:	f7ff f9ed 	bl	100016a8 <__wrap___aeabi_ddiv>
100022ce:	2200      	movs	r2, #0
100022d0:	4b8c      	ldr	r3, [pc, #560]	@ (10002504 <_etoa+0x52c>)
100022d2:	f7ff f99b 	bl	1000160c <__wrap___aeabi_dadd>
100022d6:	4602      	mov	r2, r0
100022d8:	460b      	mov	r3, r1
100022da:	e9dd 0110 	ldrd	r0, r1, [sp, #64]	@ 0x40
100022de:	f7ff f9e3 	bl	100016a8 <__wrap___aeabi_ddiv>
100022e2:	2200      	movs	r2, #0
100022e4:	4b88      	ldr	r3, [pc, #544]	@ (10002508 <_etoa+0x530>)
100022e6:	f7ff f991 	bl	1000160c <__wrap___aeabi_dadd>
100022ea:	4602      	mov	r2, r0
100022ec:	460b      	mov	r3, r1
100022ee:	e9dd 0110 	ldrd	r0, r1, [sp, #64]	@ 0x40
100022f2:	f7ff f9d9 	bl	100016a8 <__wrap___aeabi_ddiv>
100022f6:	4642      	mov	r2, r8
100022f8:	464b      	mov	r3, r9
100022fa:	4680      	mov	r8, r0
100022fc:	4689      	mov	r9, r1
100022fe:	2000      	movs	r0, #0
10002300:	f04f 4180 	mov.w	r1, #1073741824	@ 0x40000000
10002304:	f7ff f996 	bl	10001634 <__wrap___aeabi_dsub>
10002308:	4602      	mov	r2, r0
1000230a:	460b      	mov	r3, r1
1000230c:	4640      	mov	r0, r8
1000230e:	4649      	mov	r1, r9
10002310:	f7ff f97c 	bl	1000160c <__wrap___aeabi_dadd>
10002314:	4602      	mov	r2, r0
10002316:	460b      	mov	r3, r1
10002318:	e9dd 0114 	ldrd	r0, r1, [sp, #80]	@ 0x50
1000231c:	f7ff f9c4 	bl	100016a8 <__wrap___aeabi_ddiv>
10002320:	2200      	movs	r2, #0
10002322:	4b7a      	ldr	r3, [pc, #488]	@ (1000250c <_etoa+0x534>)
10002324:	f7ff f972 	bl	1000160c <__wrap___aeabi_dadd>
10002328:	9b12      	ldr	r3, [sp, #72]	@ 0x48
1000232a:	2200      	movs	r2, #0
1000232c:	f203 3cff 	addw	ip, r3, #1023	@ 0x3ff
10002330:	ea4f 530c 	mov.w	r3, ip, lsl #20
10002334:	f7ff f992 	bl	1000165c <__wrap___aeabi_dmul>
10002338:	4680      	mov	r8, r0
1000233a:	4689      	mov	r9, r1
1000233c:	e9dd 010a 	ldrd	r0, r1, [sp, #40]	@ 0x28
10002340:	4642      	mov	r2, r8
10002342:	464b      	mov	r3, r9
10002344:	f7ff fa58 	bl	100017f8 <__wrap___aeabi_dcmplt>
10002348:	b150      	cbz	r0, 10002360 <_etoa+0x388>
1000234a:	9b0c      	ldr	r3, [sp, #48]	@ 0x30
1000234c:	4640      	mov	r0, r8
1000234e:	3b01      	subs	r3, #1
10002350:	4649      	mov	r1, r9
10002352:	930c      	str	r3, [sp, #48]	@ 0x30
10002354:	2200      	movs	r2, #0
10002356:	4b6b      	ldr	r3, [pc, #428]	@ (10002504 <_etoa+0x52c>)
10002358:	f7ff f9a6 	bl	100016a8 <__wrap___aeabi_ddiv>
1000235c:	4680      	mov	r8, r0
1000235e:	4689      	mov	r9, r1
10002360:	9a0c      	ldr	r2, [sp, #48]	@ 0x30
10002362:	4643      	mov	r3, r8
10002364:	3263      	adds	r2, #99	@ 0x63
10002366:	2ac6      	cmp	r2, #198	@ 0xc6
10002368:	f006 0202 	and.w	r2, r6, #2
1000236c:	9210      	str	r2, [sp, #64]	@ 0x40
1000236e:	4649      	mov	r1, r9
10002370:	9a0f      	ldr	r2, [sp, #60]	@ 0x3c
10002372:	d82c      	bhi.n	100023ce <_etoa+0x3f6>
10002374:	2a00      	cmp	r2, #0
10002376:	d05e      	beq.n	10002436 <_etoa+0x45e>
10002378:	2204      	movs	r2, #4
1000237a:	9212      	str	r2, [sp, #72]	@ 0x48
1000237c:	430b      	orrs	r3, r1
1000237e:	f43f af16 	beq.w	100021ae <_etoa+0x1d6>
10002382:	e9dd 010a 	ldrd	r0, r1, [sp, #40]	@ 0x28
10002386:	a358      	add	r3, pc, #352	@ (adr r3, 100024e8 <_etoa+0x510>)
10002388:	e9d3 2300 	ldrd	r2, r3, [r3]
1000238c:	f7ff fa5c 	bl	10001848 <__wrap___aeabi_dcmpge>
10002390:	b148      	cbz	r0, 100023a6 <_etoa+0x3ce>
10002392:	e9dd 010a 	ldrd	r0, r1, [sp, #40]	@ 0x28
10002396:	a356      	add	r3, pc, #344	@ (adr r3, 100024f0 <_etoa+0x518>)
10002398:	e9d3 2300 	ldrd	r2, r3, [r3]
1000239c:	f7ff fa2c 	bl	100017f8 <__wrap___aeabi_dcmplt>
100023a0:	2800      	cmp	r0, #0
100023a2:	f47f af04 	bne.w	100021ae <_etoa+0x1d6>
100023a6:	9b0e      	ldr	r3, [sp, #56]	@ 0x38
100023a8:	2b00      	cmp	r3, #0
100023aa:	d050      	beq.n	1000244e <_etoa+0x476>
100023ac:	9a13      	ldr	r2, [sp, #76]	@ 0x4c
100023ae:	2a00      	cmp	r2, #0
100023b0:	d07d      	beq.n	100024ae <_etoa+0x4d6>
100023b2:	3b01      	subs	r3, #1
100023b4:	930e      	str	r3, [sp, #56]	@ 0x38
100023b6:	9b12      	ldr	r3, [sp, #72]	@ 0x48
100023b8:	459a      	cmp	sl, r3
100023ba:	d905      	bls.n	100023c8 <_etoa+0x3f0>
100023bc:	9b10      	ldr	r3, [sp, #64]	@ 0x40
100023be:	2b00      	cmp	r3, #0
100023c0:	f000 80ae 	beq.w	10002520 <_etoa+0x548>
100023c4:	2302      	movs	r3, #2
100023c6:	9310      	str	r3, [sp, #64]	@ 0x40
100023c8:	2300      	movs	r3, #0
100023ca:	930f      	str	r3, [sp, #60]	@ 0x3c
100023cc:	e044      	b.n	10002458 <_etoa+0x480>
100023ce:	bb22      	cbnz	r2, 1000241a <_etoa+0x442>
100023d0:	f1ba 0f05 	cmp.w	sl, #5
100023d4:	d94f      	bls.n	10002476 <_etoa+0x49e>
100023d6:	f006 0302 	and.w	r3, r6, #2
100023da:	2b00      	cmp	r3, #0
100023dc:	d149      	bne.n	10002472 <_etoa+0x49a>
100023de:	2305      	movs	r3, #5
100023e0:	9312      	str	r3, [sp, #72]	@ 0x48
100023e2:	f1aa 0305 	sub.w	r3, sl, #5
100023e6:	930f      	str	r3, [sp, #60]	@ 0x3c
100023e8:	e03a      	b.n	10002460 <_etoa+0x488>
100023ea:	f105 4300 	add.w	r3, r5, #2147483648	@ 0x80000000
100023ee:	940a      	str	r4, [sp, #40]	@ 0x28
100023f0:	930b      	str	r3, [sp, #44]	@ 0x2c
100023f2:	e627      	b.n	10002044 <_etoa+0x6c>
100023f4:	f426 6600 	bic.w	r6, r6, #2048	@ 0x800
100023f8:	f446 6680 	orr.w	r6, r6, #1024	@ 0x400
100023fc:	4638      	mov	r0, r7
100023fe:	962c      	str	r6, [sp, #176]	@ 0xb0
10002400:	e9dd 670a 	ldrd	r6, r7, [sp, #40]	@ 0x28
10002404:	4634      	mov	r4, r6
10002406:	f107 4500 	add.w	r5, r7, #2147483648	@ 0x80000000
1000240a:	465a      	mov	r2, fp
1000240c:	e9cd 8a2a 	strd	r8, sl, [sp, #168]	@ 0xa8
10002410:	e9cd 4528 	strd	r4, r5, [sp, #160]	@ 0xa0
10002414:	9b09      	ldr	r3, [sp, #36]	@ 0x24
10002416:	9908      	ldr	r1, [sp, #32]
10002418:	e6bc      	b.n	10002194 <_etoa+0x1bc>
1000241a:	2205      	movs	r2, #5
1000241c:	9212      	str	r2, [sp, #72]	@ 0x48
1000241e:	e7ad      	b.n	1000237c <_etoa+0x3a4>
10002420:	2300      	movs	r3, #0
10002422:	2202      	movs	r2, #2
10002424:	e9cd 320f 	strd	r3, r2, [sp, #60]	@ 0x3c
10002428:	2204      	movs	r2, #4
1000242a:	930c      	str	r3, [sp, #48]	@ 0x30
1000242c:	9212      	str	r2, [sp, #72]	@ 0x48
1000242e:	e62c      	b.n	1000208a <_etoa+0xb2>
10002430:	f04f 0805 	mov.w	r8, #5
10002434:	e6c2      	b.n	100021bc <_etoa+0x1e4>
10002436:	f1ba 0f04 	cmp.w	sl, #4
1000243a:	d91f      	bls.n	1000247c <_etoa+0x4a4>
1000243c:	9b10      	ldr	r3, [sp, #64]	@ 0x40
1000243e:	2b00      	cmp	r3, #0
10002440:	d178      	bne.n	10002534 <_etoa+0x55c>
10002442:	2304      	movs	r3, #4
10002444:	9312      	str	r3, [sp, #72]	@ 0x48
10002446:	f1aa 0304 	sub.w	r3, sl, #4
1000244a:	930f      	str	r3, [sp, #60]	@ 0x3c
1000244c:	e004      	b.n	10002458 <_etoa+0x480>
1000244e:	9b12      	ldr	r3, [sp, #72]	@ 0x48
10002450:	459a      	cmp	sl, r3
10002452:	d831      	bhi.n	100024b8 <_etoa+0x4e0>
10002454:	9b0e      	ldr	r3, [sp, #56]	@ 0x38
10002456:	930f      	str	r3, [sp, #60]	@ 0x3c
10002458:	9b0c      	ldr	r3, [sp, #48]	@ 0x30
1000245a:	2b00      	cmp	r3, #0
1000245c:	f43f ae15 	beq.w	1000208a <_etoa+0xb2>
10002460:	e9dd 010a 	ldrd	r0, r1, [sp, #40]	@ 0x28
10002464:	4642      	mov	r2, r8
10002466:	464b      	mov	r3, r9
10002468:	f7ff f91e 	bl	100016a8 <__wrap___aeabi_ddiv>
1000246c:	e9cd 010a 	strd	r0, r1, [sp, #40]	@ 0x28
10002470:	e60b      	b.n	1000208a <_etoa+0xb2>
10002472:	2302      	movs	r3, #2
10002474:	9310      	str	r3, [sp, #64]	@ 0x40
10002476:	2305      	movs	r3, #5
10002478:	9312      	str	r3, [sp, #72]	@ 0x48
1000247a:	e7f1      	b.n	10002460 <_etoa+0x488>
1000247c:	2304      	movs	r3, #4
1000247e:	9312      	str	r3, [sp, #72]	@ 0x48
10002480:	e7ea      	b.n	10002458 <_etoa+0x480>
10002482:	e9dd 450a 	ldrd	r4, r5, [sp, #40]	@ 0x28
10002486:	46a0      	mov	r8, r4
10002488:	9b0f      	ldr	r3, [sp, #60]	@ 0x3c
1000248a:	f105 4900 	add.w	r9, r5, #2147483648	@ 0x80000000
1000248e:	9303      	str	r3, [sp, #12]
10002490:	9b0e      	ldr	r3, [sp, #56]	@ 0x38
10002492:	465a      	mov	r2, fp
10002494:	9302      	str	r3, [sp, #8]
10002496:	f426 6300 	bic.w	r3, r6, #2048	@ 0x800
1000249a:	9304      	str	r3, [sp, #16]
1000249c:	4638      	mov	r0, r7
1000249e:	e9cd 8900 	strd	r8, r9, [sp]
100024a2:	9b09      	ldr	r3, [sp, #36]	@ 0x24
100024a4:	9908      	ldr	r1, [sp, #32]
100024a6:	f7ff fb37 	bl	10001b18 <_ftoa>
100024aa:	4602      	mov	r2, r0
100024ac:	e608      	b.n	100020c0 <_etoa+0xe8>
100024ae:	9b12      	ldr	r3, [sp, #72]	@ 0x48
100024b0:	459a      	cmp	sl, r3
100024b2:	d844      	bhi.n	1000253e <_etoa+0x566>
100024b4:	920f      	str	r2, [sp, #60]	@ 0x3c
100024b6:	e7cf      	b.n	10002458 <_etoa+0x480>
100024b8:	9b10      	ldr	r3, [sp, #64]	@ 0x40
100024ba:	b38b      	cbz	r3, 10002520 <_etoa+0x548>
100024bc:	9b0e      	ldr	r3, [sp, #56]	@ 0x38
100024be:	930f      	str	r3, [sp, #60]	@ 0x3c
100024c0:	2302      	movs	r3, #2
100024c2:	9310      	str	r3, [sp, #64]	@ 0x40
100024c4:	e7c8      	b.n	10002458 <_etoa+0x480>
100024c6:	bf00      	nop
100024c8:	636f4361 	.word	0x636f4361
100024cc:	3fd287a7 	.word	0x3fd287a7
100024d0:	0979a371 	.word	0x0979a371
100024d4:	400a934f 	.word	0x400a934f
100024d8:	bbb55516 	.word	0xbbb55516
100024dc:	40026bb1 	.word	0x40026bb1
100024e0:	fefa39ef 	.word	0xfefa39ef
100024e4:	3fe62e42 	.word	0x3fe62e42
100024e8:	eb1c432d 	.word	0xeb1c432d
100024ec:	3f1a36e2 	.word	0x3f1a36e2
100024f0:	00000000 	.word	0x00000000
100024f4:	412e8480 	.word	0x412e8480
100024f8:	3ff80000 	.word	0x3ff80000
100024fc:	3fe00000 	.word	0x3fe00000
10002500:	402c0000 	.word	0x402c0000
10002504:	40240000 	.word	0x40240000
10002508:	40180000 	.word	0x40180000
1000250c:	3ff00000 	.word	0x3ff00000
10002510:	509f79fb 	.word	0x509f79fb
10002514:	3fd34413 	.word	0x3fd34413
10002518:	8b60c8b3 	.word	0x8b60c8b3
1000251c:	3fc68a28 	.word	0x3fc68a28
10002520:	9b12      	ldr	r3, [sp, #72]	@ 0x48
10002522:	ebaa 0303 	sub.w	r3, sl, r3
10002526:	930f      	str	r3, [sp, #60]	@ 0x3c
10002528:	e796      	b.n	10002458 <_etoa+0x480>
1000252a:	eba3 0802 	sub.w	r8, r3, r2
1000252e:	f108 38ff 	add.w	r8, r8, #4294967295
10002532:	e643      	b.n	100021bc <_etoa+0x1e4>
10002534:	2304      	movs	r3, #4
10002536:	9312      	str	r3, [sp, #72]	@ 0x48
10002538:	2302      	movs	r3, #2
1000253a:	9310      	str	r3, [sp, #64]	@ 0x40
1000253c:	e78c      	b.n	10002458 <_etoa+0x480>
1000253e:	9b10      	ldr	r3, [sp, #64]	@ 0x40
10002540:	2b00      	cmp	r3, #0
10002542:	d0ed      	beq.n	10002520 <_etoa+0x548>
10002544:	2302      	movs	r3, #2
10002546:	920f      	str	r2, [sp, #60]	@ 0x3c
10002548:	9310      	str	r3, [sp, #64]	@ 0x40
1000254a:	e785      	b.n	10002458 <_etoa+0x480>

1000254c <_vsnprintf>:
1000254c:	e92d 4ff0 	stmdb	sp!, {r4, r5, r6, r7, r8, r9, sl, fp, lr}
10002550:	b09b      	sub	sp, #108	@ 0x6c
10002552:	9c24      	ldr	r4, [sp, #144]	@ 0x90
10002554:	4d95      	ldr	r5, [pc, #596]	@ (100027ac <_vsnprintf+0x260>)
10002556:	940a      	str	r4, [sp, #40]	@ 0x28
10002558:	4c95      	ldr	r4, [pc, #596]	@ (100027b0 <_vsnprintf+0x264>)
1000255a:	f1b1 0a00 	subs.w	sl, r1, #0
1000255e:	bf18      	it	ne
10002560:	4683      	movne	fp, r0
10002562:	6025      	str	r5, [r4, #0]
10002564:	7818      	ldrb	r0, [r3, #0]
10002566:	4c93      	ldr	r4, [pc, #588]	@ (100027b4 <_vsnprintf+0x268>)
10002568:	4691      	mov	r9, r2
1000256a:	bf08      	it	eq
1000256c:	46a3      	moveq	fp, r4
1000256e:	9309      	str	r3, [sp, #36]	@ 0x24
10002570:	2800      	cmp	r0, #0
10002572:	f000 8293 	beq.w	10002a9c <_vsnprintf+0x550>
10002576:	f04f 0800 	mov.w	r8, #0
1000257a:	e00a      	b.n	10002592 <_vsnprintf+0x46>
1000257c:	4642      	mov	r2, r8
1000257e:	464b      	mov	r3, r9
10002580:	4651      	mov	r1, sl
10002582:	f108 0801 	add.w	r8, r8, #1
10002586:	47d8      	blx	fp
10002588:	9b09      	ldr	r3, [sp, #36]	@ 0x24
1000258a:	7818      	ldrb	r0, [r3, #0]
1000258c:	2800      	cmp	r0, #0
1000258e:	f000 80ce 	beq.w	1000272e <_vsnprintf+0x1e2>
10002592:	9b09      	ldr	r3, [sp, #36]	@ 0x24
10002594:	2825      	cmp	r0, #37	@ 0x25
10002596:	f103 0301 	add.w	r3, r3, #1
1000259a:	9309      	str	r3, [sp, #36]	@ 0x24
1000259c:	d1ee      	bne.n	1000257c <_vsnprintf+0x30>
1000259e:	461c      	mov	r4, r3
100025a0:	2300      	movs	r3, #0
100025a2:	4622      	mov	r2, r4
100025a4:	f812 0b01 	ldrb.w	r0, [r2], #1
100025a8:	f1a0 0120 	sub.w	r1, r0, #32
100025ac:	2910      	cmp	r1, #16
100025ae:	d80a      	bhi.n	100025c6 <_vsnprintf+0x7a>
100025b0:	e8df f001 	tbb	[pc, r1]
100025b4:	3c090940 	.word	0x3c090940
100025b8:	09090909 	.word	0x09090909
100025bc:	38090909 	.word	0x38090909
100025c0:	09093409 	.word	0x09093409
100025c4:	30          	.byte	0x30
100025c5:	00          	.byte	0x00
100025c6:	f1a0 0130 	sub.w	r1, r0, #48	@ 0x30
100025ca:	2909      	cmp	r1, #9
100025cc:	9409      	str	r4, [sp, #36]	@ 0x24
100025ce:	f240 808a 	bls.w	100026e6 <_vsnprintf+0x19a>
100025d2:	282a      	cmp	r0, #42	@ 0x2a
100025d4:	f000 80f0 	beq.w	100027b8 <_vsnprintf+0x26c>
100025d8:	2500      	movs	r5, #0
100025da:	282e      	cmp	r0, #46	@ 0x2e
100025dc:	f000 8096 	beq.w	1000270c <_vsnprintf+0x1c0>
100025e0:	2600      	movs	r6, #0
100025e2:	f1a0 0168 	sub.w	r1, r0, #104	@ 0x68
100025e6:	2912      	cmp	r1, #18
100025e8:	d82d      	bhi.n	10002646 <_vsnprintf+0xfa>
100025ea:	e8df f011 	tbh	[pc, r1, lsl #1]
100025ee:	0149      	.short	0x0149
100025f0:	0143002c 	.word	0x0143002c
100025f4:	0138002c 	.word	0x0138002c
100025f8:	002c002c 	.word	0x002c002c
100025fc:	002c002c 	.word	0x002c002c
10002600:	002c002c 	.word	0x002c002c
10002604:	0027002c 	.word	0x0027002c
10002608:	002c002c 	.word	0x002c002c
1000260c:	002c002c 	.word	0x002c002c
10002610:	0027002c 	.word	0x0027002c
10002614:	4614      	mov	r4, r2
10002616:	f043 0301 	orr.w	r3, r3, #1
1000261a:	e7c2      	b.n	100025a2 <_vsnprintf+0x56>
1000261c:	4614      	mov	r4, r2
1000261e:	f043 0302 	orr.w	r3, r3, #2
10002622:	e7be      	b.n	100025a2 <_vsnprintf+0x56>
10002624:	4614      	mov	r4, r2
10002626:	f043 0304 	orr.w	r3, r3, #4
1000262a:	e7ba      	b.n	100025a2 <_vsnprintf+0x56>
1000262c:	4614      	mov	r4, r2
1000262e:	f043 0310 	orr.w	r3, r3, #16
10002632:	e7b6      	b.n	100025a2 <_vsnprintf+0x56>
10002634:	4614      	mov	r4, r2
10002636:	f043 0308 	orr.w	r3, r3, #8
1000263a:	e7b2      	b.n	100025a2 <_vsnprintf+0x56>
1000263c:	9909      	ldr	r1, [sp, #36]	@ 0x24
1000263e:	7848      	ldrb	r0, [r1, #1]
10002640:	f443 7380 	orr.w	r3, r3, #256	@ 0x100
10002644:	3201      	adds	r2, #1
10002646:	2867      	cmp	r0, #103	@ 0x67
10002648:	9209      	str	r2, [sp, #36]	@ 0x24
1000264a:	d87e      	bhi.n	1000274a <_vsnprintf+0x1fe>
1000264c:	2824      	cmp	r0, #36	@ 0x24
1000264e:	f240 80c1 	bls.w	100027d4 <_vsnprintf+0x288>
10002652:	f1a0 0225 	sub.w	r2, r0, #37	@ 0x25
10002656:	2a42      	cmp	r2, #66	@ 0x42
10002658:	f200 80bc 	bhi.w	100027d4 <_vsnprintf+0x288>
1000265c:	e8df f012 	tbh	[pc, r2, lsl #1]
10002660:	00ba0150 	.word	0x00ba0150
10002664:	00ba00ba 	.word	0x00ba00ba
10002668:	00ba00ba 	.word	0x00ba00ba
1000266c:	00ba00ba 	.word	0x00ba00ba
10002670:	00ba00ba 	.word	0x00ba00ba
10002674:	00ba00ba 	.word	0x00ba00ba
10002678:	00ba00ba 	.word	0x00ba00ba
1000267c:	00ba00ba 	.word	0x00ba00ba
10002680:	00ba00ba 	.word	0x00ba00ba
10002684:	00ba00ba 	.word	0x00ba00ba
10002688:	00ba00ba 	.word	0x00ba00ba
1000268c:	00ba00ba 	.word	0x00ba00ba
10002690:	00ba00ba 	.word	0x00ba00ba
10002694:	00ba00ba 	.word	0x00ba00ba
10002698:	00ba00ba 	.word	0x00ba00ba
1000269c:	00ba00ba 	.word	0x00ba00ba
100026a0:	01370119 	.word	0x01370119
100026a4:	00ba0119 	.word	0x00ba0119
100026a8:	00ba00ba 	.word	0x00ba00ba
100026ac:	00ba00ba 	.word	0x00ba00ba
100026b0:	00ba00ba 	.word	0x00ba00ba
100026b4:	00ba00ba 	.word	0x00ba00ba
100026b8:	00ba00ba 	.word	0x00ba00ba
100026bc:	00ba00ba 	.word	0x00ba00ba
100026c0:	00ba00ba 	.word	0x00ba00ba
100026c4:	01bc00ba 	.word	0x01bc00ba
100026c8:	00ba00ba 	.word	0x00ba00ba
100026cc:	00ba00ba 	.word	0x00ba00ba
100026d0:	00ba00ba 	.word	0x00ba00ba
100026d4:	00ba00ba 	.word	0x00ba00ba
100026d8:	01bc00ba 	.word	0x01bc00ba
100026dc:	01bc0158 	.word	0x01bc0158
100026e0:	01370119 	.word	0x01370119
100026e4:	0119      	.short	0x0119
100026e6:	2500      	movs	r5, #0
100026e8:	e000      	b.n	100026ec <_vsnprintf+0x1a0>
100026ea:	3201      	adds	r2, #1
100026ec:	eb05 0585 	add.w	r5, r5, r5, lsl #2
100026f0:	eb00 0545 	add.w	r5, r0, r5, lsl #1
100026f4:	7810      	ldrb	r0, [r2, #0]
100026f6:	3d30      	subs	r5, #48	@ 0x30
100026f8:	f1a0 0130 	sub.w	r1, r0, #48	@ 0x30
100026fc:	2909      	cmp	r1, #9
100026fe:	d9f4      	bls.n	100026ea <_vsnprintf+0x19e>
10002700:	282e      	cmp	r0, #46	@ 0x2e
10002702:	9209      	str	r2, [sp, #36]	@ 0x24
10002704:	f102 0201 	add.w	r2, r2, #1
10002708:	f47f af6a 	bne.w	100025e0 <_vsnprintf+0x94>
1000270c:	9909      	ldr	r1, [sp, #36]	@ 0x24
1000270e:	f443 6380 	orr.w	r3, r3, #1024	@ 0x400
10002712:	7848      	ldrb	r0, [r1, #1]
10002714:	4611      	mov	r1, r2
10002716:	f1a0 0630 	sub.w	r6, r0, #48	@ 0x30
1000271a:	2e09      	cmp	r6, #9
1000271c:	f240 8121 	bls.w	10002962 <_vsnprintf+0x416>
10002720:	282a      	cmp	r0, #42	@ 0x2a
10002722:	f000 812f 	beq.w	10002984 <_vsnprintf+0x438>
10002726:	9209      	str	r2, [sp, #36]	@ 0x24
10002728:	2600      	movs	r6, #0
1000272a:	3201      	adds	r2, #1
1000272c:	e759      	b.n	100025e2 <_vsnprintf+0x96>
1000272e:	4644      	mov	r4, r8
10002730:	45c1      	cmp	r9, r8
10002732:	d801      	bhi.n	10002738 <_vsnprintf+0x1ec>
10002734:	f109 38ff 	add.w	r8, r9, #4294967295
10002738:	464b      	mov	r3, r9
1000273a:	4642      	mov	r2, r8
1000273c:	4651      	mov	r1, sl
1000273e:	2000      	movs	r0, #0
10002740:	47d8      	blx	fp
10002742:	4620      	mov	r0, r4
10002744:	b01b      	add	sp, #108	@ 0x6c
10002746:	e8bd 8ff0 	ldmia.w	sp!, {r4, r5, r6, r7, r8, r9, sl, fp, pc}
1000274a:	f1a0 0269 	sub.w	r2, r0, #105	@ 0x69
1000274e:	b2d2      	uxtb	r2, r2
10002750:	2a0f      	cmp	r2, #15
10002752:	d83f      	bhi.n	100027d4 <_vsnprintf+0x288>
10002754:	2101      	movs	r1, #1
10002756:	f249 0741 	movw	r7, #36929	@ 0x9041
1000275a:	4091      	lsls	r1, r2
1000275c:	4039      	ands	r1, r7
1000275e:	f040 80f3 	bne.w	10002948 <_vsnprintf+0x3fc>
10002762:	2a0a      	cmp	r2, #10
10002764:	d03d      	beq.n	100027e2 <_vsnprintf+0x296>
10002766:	2a07      	cmp	r2, #7
10002768:	d134      	bne.n	100027d4 <_vsnprintf+0x288>
1000276a:	9d0a      	ldr	r5, [sp, #40]	@ 0x28
1000276c:	f855 2b04 	ldr.w	r2, [r5], #4
10002770:	2a00      	cmp	r2, #0
10002772:	f000 8113 	beq.w	1000299c <_vsnprintf+0x450>
10002776:	f043 0021 	orr.w	r0, r3, #33	@ 0x21
1000277a:	ab12      	add	r3, sp, #72	@ 0x48
1000277c:	461f      	mov	r7, r3
1000277e:	930b      	str	r3, [sp, #44]	@ 0x2c
10002780:	e003      	b.n	1000278a <_vsnprintf+0x23e>
10002782:	2920      	cmp	r1, #32
10002784:	f000 8114 	beq.w	100029b0 <_vsnprintf+0x464>
10002788:	461a      	mov	r2, r3
1000278a:	f002 040f 	and.w	r4, r2, #15
1000278e:	4623      	mov	r3, r4
10002790:	2c09      	cmp	r4, #9
10002792:	bf94      	ite	ls
10002794:	3330      	addls	r3, #48	@ 0x30
10002796:	3337      	addhi	r3, #55	@ 0x37
10002798:	2a0f      	cmp	r2, #15
1000279a:	f807 3b01 	strb.w	r3, [r7], #1
1000279e:	f101 0101 	add.w	r1, r1, #1
100027a2:	ea4f 1312 	mov.w	r3, r2, lsr #4
100027a6:	d8ec      	bhi.n	10002782 <_vsnprintf+0x236>
100027a8:	e102      	b.n	100029b0 <_vsnprintf+0x464>
100027aa:	bf00      	nop
100027ac:	1000254d 	.word	0x1000254d
100027b0:	20000b84 	.word	0x20000b84
100027b4:	10001891 	.word	0x10001891
100027b8:	990a      	ldr	r1, [sp, #40]	@ 0x28
100027ba:	9809      	ldr	r0, [sp, #36]	@ 0x24
100027bc:	f851 5b04 	ldr.w	r5, [r1], #4
100027c0:	7840      	ldrb	r0, [r0, #1]
100027c2:	2d00      	cmp	r5, #0
100027c4:	e9cd 2109 	strd	r2, r1, [sp, #36]	@ 0x24
100027c8:	bfbc      	itt	lt
100027ca:	f043 0302 	orrlt.w	r3, r3, #2
100027ce:	426d      	neglt	r5, r5
100027d0:	3201      	adds	r2, #1
100027d2:	e702      	b.n	100025da <_vsnprintf+0x8e>
100027d4:	4642      	mov	r2, r8
100027d6:	464b      	mov	r3, r9
100027d8:	4651      	mov	r1, sl
100027da:	f108 0801 	add.w	r8, r8, #1
100027de:	47d8      	blx	fp
100027e0:	e6d2      	b.n	10002588 <_vsnprintf+0x3c>
100027e2:	990a      	ldr	r1, [sp, #40]	@ 0x28
100027e4:	2e00      	cmp	r6, #0
100027e6:	f851 7b04 	ldr.w	r7, [r1], #4
100027ea:	bf18      	it	ne
100027ec:	4632      	movne	r2, r6
100027ee:	7838      	ldrb	r0, [r7, #0]
100027f0:	bf08      	it	eq
100027f2:	f04f 32ff 	moveq.w	r2, #4294967295
100027f6:	2800      	cmp	r0, #0
100027f8:	f000 837b 	beq.w	10002ef2 <_vsnprintf+0x9a6>
100027fc:	18bc      	adds	r4, r7, r2
100027fe:	46a4      	mov	ip, r4
10002800:	463a      	mov	r2, r7
10002802:	e004      	b.n	1000280e <_vsnprintf+0x2c2>
10002804:	f812 4f01 	ldrb.w	r4, [r2, #1]!
10002808:	2c00      	cmp	r4, #0
1000280a:	f000 813f 	beq.w	10002a8c <_vsnprintf+0x540>
1000280e:	4594      	cmp	ip, r2
10002810:	d1f8      	bne.n	10002804 <_vsnprintf+0x2b8>
10002812:	4664      	mov	r4, ip
10002814:	1be4      	subs	r4, r4, r7
10002816:	055a      	lsls	r2, r3, #21
10002818:	f140 8122 	bpl.w	10002a60 <_vsnprintf+0x514>
1000281c:	42b4      	cmp	r4, r6
1000281e:	bf28      	it	cs
10002820:	4634      	movcs	r4, r6
10002822:	f013 0302 	ands.w	r3, r3, #2
10002826:	f000 8288 	beq.w	10002d3a <_vsnprintf+0x7ee>
1000282a:	2302      	movs	r3, #2
1000282c:	e9cd 510a 	strd	r5, r1, [sp, #40]	@ 0x28
10002830:	4642      	mov	r2, r8
10002832:	461d      	mov	r5, r3
10002834:	4446      	add	r6, r8
10002836:	e008      	b.n	1000284a <_vsnprintf+0x2fe>
10002838:	464b      	mov	r3, r9
1000283a:	4651      	mov	r1, sl
1000283c:	47d8      	blx	fp
1000283e:	f817 0f01 	ldrb.w	r0, [r7, #1]!
10002842:	f108 0801 	add.w	r8, r8, #1
10002846:	b110      	cbz	r0, 1000284e <_vsnprintf+0x302>
10002848:	4642      	mov	r2, r8
1000284a:	4546      	cmp	r6, r8
1000284c:	d1f4      	bne.n	10002838 <_vsnprintf+0x2ec>
1000284e:	462b      	mov	r3, r5
10002850:	990b      	ldr	r1, [sp, #44]	@ 0x2c
10002852:	9d0a      	ldr	r5, [sp, #40]	@ 0x28
10002854:	2b00      	cmp	r3, #0
10002856:	f040 8141 	bne.w	10002adc <_vsnprintf+0x590>
1000285a:	910a      	str	r1, [sp, #40]	@ 0x28
1000285c:	e694      	b.n	10002588 <_vsnprintf+0x3c>
1000285e:	9909      	ldr	r1, [sp, #36]	@ 0x24
10002860:	7848      	ldrb	r0, [r1, #1]
10002862:	286c      	cmp	r0, #108	@ 0x6c
10002864:	f47f aeec 	bne.w	10002640 <_vsnprintf+0xf4>
10002868:	460a      	mov	r2, r1
1000286a:	7888      	ldrb	r0, [r1, #2]
1000286c:	f443 7340 	orr.w	r3, r3, #768	@ 0x300
10002870:	3203      	adds	r2, #3
10002872:	e6e8      	b.n	10002646 <_vsnprintf+0xfa>
10002874:	9909      	ldr	r1, [sp, #36]	@ 0x24
10002876:	f443 7300 	orr.w	r3, r3, #512	@ 0x200
1000287a:	7848      	ldrb	r0, [r1, #1]
1000287c:	3201      	adds	r2, #1
1000287e:	e6e2      	b.n	10002646 <_vsnprintf+0xfa>
10002880:	9909      	ldr	r1, [sp, #36]	@ 0x24
10002882:	7848      	ldrb	r0, [r1, #1]
10002884:	2868      	cmp	r0, #104	@ 0x68
10002886:	f000 8103 	beq.w	10002a90 <_vsnprintf+0x544>
1000288a:	f043 0380 	orr.w	r3, r3, #128	@ 0x80
1000288e:	3201      	adds	r2, #1
10002890:	e6d9      	b.n	10002646 <_vsnprintf+0xfa>
10002892:	2867      	cmp	r0, #103	@ 0x67
10002894:	f000 80d9 	beq.w	10002a4a <_vsnprintf+0x4fe>
10002898:	2847      	cmp	r0, #71	@ 0x47
1000289a:	f000 80dc 	beq.w	10002a56 <_vsnprintf+0x50a>
1000289e:	2845      	cmp	r0, #69	@ 0x45
100028a0:	f000 80db 	beq.w	10002a5a <_vsnprintf+0x50e>
100028a4:	e9cd 5303 	strd	r5, r3, [sp, #12]
100028a8:	9b0a      	ldr	r3, [sp, #40]	@ 0x28
100028aa:	9602      	str	r6, [sp, #8]
100028ac:	3307      	adds	r3, #7
100028ae:	f023 0307 	bic.w	r3, r3, #7
100028b2:	461c      	mov	r4, r3
100028b4:	4642      	mov	r2, r8
100028b6:	e8f4 6702 	ldrd	r6, r7, [r4], #8
100028ba:	464b      	mov	r3, r9
100028bc:	4651      	mov	r1, sl
100028be:	4658      	mov	r0, fp
100028c0:	e9cd 6700 	strd	r6, r7, [sp]
100028c4:	940a      	str	r4, [sp, #40]	@ 0x28
100028c6:	f7ff fb87 	bl	10001fd8 <_etoa>
100028ca:	4680      	mov	r8, r0
100028cc:	e65c      	b.n	10002588 <_vsnprintf+0x3c>
100028ce:	2846      	cmp	r0, #70	@ 0x46
100028d0:	bf08      	it	eq
100028d2:	f043 0320 	orreq.w	r3, r3, #32
100028d6:	e9cd 5303 	strd	r5, r3, [sp, #12]
100028da:	9b0a      	ldr	r3, [sp, #40]	@ 0x28
100028dc:	9602      	str	r6, [sp, #8]
100028de:	3307      	adds	r3, #7
100028e0:	f023 0307 	bic.w	r3, r3, #7
100028e4:	461c      	mov	r4, r3
100028e6:	4642      	mov	r2, r8
100028e8:	e8f4 6702 	ldrd	r6, r7, [r4], #8
100028ec:	464b      	mov	r3, r9
100028ee:	4651      	mov	r1, sl
100028f0:	4658      	mov	r0, fp
100028f2:	e9cd 6700 	strd	r6, r7, [sp]
100028f6:	940a      	str	r4, [sp, #40]	@ 0x28
100028f8:	f7ff f90e 	bl	10001b18 <_ftoa>
100028fc:	4680      	mov	r8, r0
100028fe:	e643      	b.n	10002588 <_vsnprintf+0x3c>
10002900:	4642      	mov	r2, r8
10002902:	464b      	mov	r3, r9
10002904:	4651      	mov	r1, sl
10002906:	2025      	movs	r0, #37	@ 0x25
10002908:	f108 0801 	add.w	r8, r8, #1
1000290c:	47d8      	blx	fp
1000290e:	e63b      	b.n	10002588 <_vsnprintf+0x3c>
10002910:	9a0a      	ldr	r2, [sp, #40]	@ 0x28
10002912:	0799      	lsls	r1, r3, #30
10002914:	f102 0404 	add.w	r4, r2, #4
10002918:	f108 0601 	add.w	r6, r8, #1
1000291c:	f140 80c6 	bpl.w	10002aac <_vsnprintf+0x560>
10002920:	7810      	ldrb	r0, [r2, #0]
10002922:	464b      	mov	r3, r9
10002924:	4642      	mov	r2, r8
10002926:	4651      	mov	r1, sl
10002928:	47d8      	blx	fp
1000292a:	2d01      	cmp	r5, #1
1000292c:	bf88      	it	hi
1000292e:	44a8      	addhi	r8, r5
10002930:	f240 81bd 	bls.w	10002cae <_vsnprintf+0x762>
10002934:	4632      	mov	r2, r6
10002936:	464b      	mov	r3, r9
10002938:	4651      	mov	r1, sl
1000293a:	2020      	movs	r0, #32
1000293c:	3601      	adds	r6, #1
1000293e:	47d8      	blx	fp
10002940:	4546      	cmp	r6, r8
10002942:	d1f7      	bne.n	10002934 <_vsnprintf+0x3e8>
10002944:	940a      	str	r4, [sp, #40]	@ 0x28
10002946:	e61f      	b.n	10002588 <_vsnprintf+0x3c>
10002948:	286f      	cmp	r0, #111	@ 0x6f
1000294a:	f000 8081 	beq.w	10002a50 <_vsnprintf+0x504>
1000294e:	f240 8248 	bls.w	10002de2 <_vsnprintf+0x896>
10002952:	2878      	cmp	r0, #120	@ 0x78
10002954:	f000 8190 	beq.w	10002c78 <_vsnprintf+0x72c>
10002958:	270a      	movs	r7, #10
1000295a:	f023 0310 	bic.w	r3, r3, #16
1000295e:	46bc      	mov	ip, r7
10002960:	e041      	b.n	100029e6 <_vsnprintf+0x49a>
10002962:	2600      	movs	r6, #0
10002964:	eb06 0686 	add.w	r6, r6, r6, lsl #2
10002968:	eb00 0046 	add.w	r0, r0, r6, lsl #1
1000296c:	f1a0 0630 	sub.w	r6, r0, #48	@ 0x30
10002970:	f811 0f01 	ldrb.w	r0, [r1, #1]!
10002974:	f1a0 0230 	sub.w	r2, r0, #48	@ 0x30
10002978:	2a09      	cmp	r2, #9
1000297a:	d9f3      	bls.n	10002964 <_vsnprintf+0x418>
1000297c:	460a      	mov	r2, r1
1000297e:	9109      	str	r1, [sp, #36]	@ 0x24
10002980:	3201      	adds	r2, #1
10002982:	e62e      	b.n	100025e2 <_vsnprintf+0x96>
10002984:	e9dd 2109 	ldrd	r2, r1, [sp, #36]	@ 0x24
10002988:	f851 6b04 	ldr.w	r6, [r1], #4
1000298c:	7890      	ldrb	r0, [r2, #2]
1000298e:	3202      	adds	r2, #2
10002990:	9209      	str	r2, [sp, #36]	@ 0x24
10002992:	910a      	str	r1, [sp, #40]	@ 0x28
10002994:	3201      	adds	r2, #1
10002996:	ea26 76e6 	bic.w	r6, r6, r6, asr #31
1000299a:	e622      	b.n	100025e2 <_vsnprintf+0x96>
1000299c:	f023 0010 	bic.w	r0, r3, #16
100029a0:	f413 6280 	ands.w	r2, r3, #1024	@ 0x400
100029a4:	f040 0021 	orr.w	r0, r0, #33	@ 0x21
100029a8:	f43f aee7 	beq.w	1000277a <_vsnprintf+0x22e>
100029ac:	ab12      	add	r3, sp, #72	@ 0x48
100029ae:	930b      	str	r3, [sp, #44]	@ 0x2c
100029b0:	9b0b      	ldr	r3, [sp, #44]	@ 0x2c
100029b2:	9006      	str	r0, [sp, #24]
100029b4:	9300      	str	r3, [sp, #0]
100029b6:	2308      	movs	r3, #8
100029b8:	2010      	movs	r0, #16
100029ba:	9305      	str	r3, [sp, #20]
100029bc:	2300      	movs	r3, #0
100029be:	4642      	mov	r2, r8
100029c0:	e9cd 3002 	strd	r3, r0, [sp, #8]
100029c4:	9101      	str	r1, [sp, #4]
100029c6:	464b      	mov	r3, r9
100029c8:	4651      	mov	r1, sl
100029ca:	4658      	mov	r0, fp
100029cc:	9604      	str	r6, [sp, #16]
100029ce:	f7fe ffaf 	bl	10001930 <_ntoa_format>
100029d2:	950a      	str	r5, [sp, #40]	@ 0x28
100029d4:	4680      	mov	r8, r0
100029d6:	e5d7      	b.n	10002588 <_vsnprintf+0x3c>
100029d8:	2858      	cmp	r0, #88	@ 0x58
100029da:	d062      	beq.n	10002aa2 <_vsnprintf+0x556>
100029dc:	2862      	cmp	r0, #98	@ 0x62
100029de:	f040 808f 	bne.w	10002b00 <_vsnprintf+0x5b4>
100029e2:	2702      	movs	r7, #2
100029e4:	46bc      	mov	ip, r7
100029e6:	f413 6080 	ands.w	r0, r3, #1024	@ 0x400
100029ea:	f000 80dd 	beq.w	10002ba8 <_vsnprintf+0x65c>
100029ee:	f023 030d 	bic.w	r3, r3, #13
100029f2:	f413 7200 	ands.w	r2, r3, #512	@ 0x200
100029f6:	f040 8181 	bne.w	10002cfc <_vsnprintf+0x7b0>
100029fa:	990a      	ldr	r1, [sp, #40]	@ 0x28
100029fc:	1d0f      	adds	r7, r1, #4
100029fe:	f413 7180 	ands.w	r1, r3, #256	@ 0x100
10002a02:	f040 8237 	bne.w	10002e74 <_vsnprintf+0x928>
10002a06:	065c      	lsls	r4, r3, #25
10002a08:	9a0a      	ldr	r2, [sp, #40]	@ 0x28
10002a0a:	f140 813b 	bpl.w	10002c84 <_vsnprintf+0x738>
10002a0e:	7812      	ldrb	r2, [r2, #0]
10002a10:	2a00      	cmp	r2, #0
10002a12:	f040 814e 	bne.w	10002cb2 <_vsnprintf+0x766>
10002a16:	f023 0310 	bic.w	r3, r3, #16
10002a1a:	2800      	cmp	r0, #0
10002a1c:	f000 8149 	beq.w	10002cb2 <_vsnprintf+0x766>
10002a20:	4611      	mov	r1, r2
10002a22:	aa12      	add	r2, sp, #72	@ 0x48
10002a24:	920b      	str	r2, [sp, #44]	@ 0x2c
10002a26:	e9cd 5305 	strd	r5, r3, [sp, #20]
10002a2a:	e9cd c603 	strd	ip, r6, [sp, #12]
10002a2e:	9101      	str	r1, [sp, #4]
10002a30:	9b0b      	ldr	r3, [sp, #44]	@ 0x2c
10002a32:	4642      	mov	r2, r8
10002a34:	9300      	str	r3, [sp, #0]
10002a36:	2300      	movs	r3, #0
10002a38:	4651      	mov	r1, sl
10002a3a:	9302      	str	r3, [sp, #8]
10002a3c:	4658      	mov	r0, fp
10002a3e:	464b      	mov	r3, r9
10002a40:	f7fe ff76 	bl	10001930 <_ntoa_format>
10002a44:	970a      	str	r7, [sp, #40]	@ 0x28
10002a46:	4680      	mov	r8, r0
10002a48:	e59e      	b.n	10002588 <_vsnprintf+0x3c>
10002a4a:	f443 6300 	orr.w	r3, r3, #2048	@ 0x800
10002a4e:	e729      	b.n	100028a4 <_vsnprintf+0x358>
10002a50:	2708      	movs	r7, #8
10002a52:	46bc      	mov	ip, r7
10002a54:	e7c7      	b.n	100029e6 <_vsnprintf+0x49a>
10002a56:	f443 6300 	orr.w	r3, r3, #2048	@ 0x800
10002a5a:	f043 0320 	orr.w	r3, r3, #32
10002a5e:	e721      	b.n	100028a4 <_vsnprintf+0x358>
10002a60:	f013 0302 	ands.w	r3, r3, #2
10002a64:	f000 818e 	beq.w	10002d84 <_vsnprintf+0x838>
10002a68:	2302      	movs	r3, #2
10002a6a:	950a      	str	r5, [sp, #40]	@ 0x28
10002a6c:	461e      	mov	r6, r3
10002a6e:	460d      	mov	r5, r1
10002a70:	4642      	mov	r2, r8
10002a72:	464b      	mov	r3, r9
10002a74:	4651      	mov	r1, sl
10002a76:	47d8      	blx	fp
10002a78:	f817 0f01 	ldrb.w	r0, [r7, #1]!
10002a7c:	f108 0801 	add.w	r8, r8, #1
10002a80:	2800      	cmp	r0, #0
10002a82:	d1f5      	bne.n	10002a70 <_vsnprintf+0x524>
10002a84:	4629      	mov	r1, r5
10002a86:	4633      	mov	r3, r6
10002a88:	9d0a      	ldr	r5, [sp, #40]	@ 0x28
10002a8a:	e6e3      	b.n	10002854 <_vsnprintf+0x308>
10002a8c:	1bd4      	subs	r4, r2, r7
10002a8e:	e6c2      	b.n	10002816 <_vsnprintf+0x2ca>
10002a90:	460a      	mov	r2, r1
10002a92:	7888      	ldrb	r0, [r1, #2]
10002a94:	f043 03c0 	orr.w	r3, r3, #192	@ 0xc0
10002a98:	3203      	adds	r2, #3
10002a9a:	e5d4      	b.n	10002646 <_vsnprintf+0xfa>
10002a9c:	4604      	mov	r4, r0
10002a9e:	4680      	mov	r8, r0
10002aa0:	e646      	b.n	10002730 <_vsnprintf+0x1e4>
10002aa2:	2710      	movs	r7, #16
10002aa4:	f043 0320 	orr.w	r3, r3, #32
10002aa8:	46bc      	mov	ip, r7
10002aaa:	e79c      	b.n	100029e6 <_vsnprintf+0x49a>
10002aac:	2d01      	cmp	r5, #1
10002aae:	f240 80f8 	bls.w	10002ca2 <_vsnprintf+0x756>
10002ab2:	4646      	mov	r6, r8
10002ab4:	f108 37ff 	add.w	r7, r8, #4294967295
10002ab8:	442f      	add	r7, r5
10002aba:	4632      	mov	r2, r6
10002abc:	464b      	mov	r3, r9
10002abe:	4651      	mov	r1, sl
10002ac0:	2020      	movs	r0, #32
10002ac2:	3601      	adds	r6, #1
10002ac4:	47d8      	blx	fp
10002ac6:	42be      	cmp	r6, r7
10002ac8:	d1f7      	bne.n	10002aba <_vsnprintf+0x56e>
10002aca:	9b0a      	ldr	r3, [sp, #40]	@ 0x28
10002acc:	4632      	mov	r2, r6
10002ace:	7818      	ldrb	r0, [r3, #0]
10002ad0:	4651      	mov	r1, sl
10002ad2:	464b      	mov	r3, r9
10002ad4:	47d8      	blx	fp
10002ad6:	44a8      	add	r8, r5
10002ad8:	940a      	str	r4, [sp, #40]	@ 0x28
10002ada:	e555      	b.n	10002588 <_vsnprintf+0x3c>
10002adc:	4646      	mov	r6, r8
10002ade:	42a5      	cmp	r5, r4
10002ae0:	f67f aebb 	bls.w	1000285a <_vsnprintf+0x30e>
10002ae4:	44a8      	add	r8, r5
10002ae6:	eba8 0804 	sub.w	r8, r8, r4
10002aea:	460c      	mov	r4, r1
10002aec:	4632      	mov	r2, r6
10002aee:	464b      	mov	r3, r9
10002af0:	4651      	mov	r1, sl
10002af2:	2020      	movs	r0, #32
10002af4:	3601      	adds	r6, #1
10002af6:	47d8      	blx	fp
10002af8:	4546      	cmp	r6, r8
10002afa:	d1f7      	bne.n	10002aec <_vsnprintf+0x5a0>
10002afc:	4621      	mov	r1, r4
10002afe:	e6ac      	b.n	1000285a <_vsnprintf+0x30e>
10002b00:	f413 6280 	ands.w	r2, r3, #1024	@ 0x400
10002b04:	f000 80bb 	beq.w	10002c7e <_vsnprintf+0x732>
10002b08:	f44f 6280 	mov.w	r2, #1024	@ 0x400
10002b0c:	f023 0c11 	bic.w	ip, r3, #17
10002b10:	f41c 7700 	ands.w	r7, ip, #512	@ 0x200
10002b14:	9b0a      	ldr	r3, [sp, #40]	@ 0x28
10002b16:	d14a      	bne.n	10002bae <_vsnprintf+0x662>
10002b18:	f41c 7080 	ands.w	r0, ip, #256	@ 0x100
10002b1c:	f103 0404 	add.w	r4, r3, #4
10002b20:	f040 8134 	bne.w	10002d8c <_vsnprintf+0x840>
10002b24:	f01c 0f40 	tst.w	ip, #64	@ 0x40
10002b28:	f040 80a3 	bne.w	10002c72 <_vsnprintf+0x726>
10002b2c:	f01c 0f80 	tst.w	ip, #128	@ 0x80
10002b30:	f000 81d3 	beq.w	10002eda <_vsnprintf+0x98e>
10002b34:	f9b3 1000 	ldrsh.w	r1, [r3]
10002b38:	ea81 77e1 	eor.w	r7, r1, r1, asr #31
10002b3c:	eba7 77e1 	sub.w	r7, r7, r1, asr #31
10002b40:	b2bf      	uxth	r7, r7
10002b42:	0fcb      	lsrs	r3, r1, #31
10002b44:	2900      	cmp	r1, #0
10002b46:	f000 8156 	beq.w	10002df6 <_vsnprintf+0x8aa>
10002b4a:	463a      	mov	r2, r7
10002b4c:	a912      	add	r1, sp, #72	@ 0x48
10002b4e:	460f      	mov	r7, r1
10002b50:	f8df e3d8 	ldr.w	lr, [pc, #984]	@ 10002f2c <_vsnprintf+0x9e0>
10002b54:	910b      	str	r1, [sp, #44]	@ 0x2c
10002b56:	930a      	str	r3, [sp, #40]	@ 0x28
10002b58:	950c      	str	r5, [sp, #48]	@ 0x30
10002b5a:	e001      	b.n	10002b60 <_vsnprintf+0x614>
10002b5c:	2820      	cmp	r0, #32
10002b5e:	d00f      	beq.n	10002b80 <_vsnprintf+0x634>
10002b60:	4615      	mov	r5, r2
10002b62:	fbae 1302 	umull	r1, r3, lr, r2
10002b66:	08db      	lsrs	r3, r3, #3
10002b68:	eb03 0183 	add.w	r1, r3, r3, lsl #2
10002b6c:	eba2 0141 	sub.w	r1, r2, r1, lsl #1
10002b70:	3130      	adds	r1, #48	@ 0x30
10002b72:	2d09      	cmp	r5, #9
10002b74:	461a      	mov	r2, r3
10002b76:	f100 0001 	add.w	r0, r0, #1
10002b7a:	f807 1b01 	strb.w	r1, [r7], #1
10002b7e:	d8ed      	bhi.n	10002b5c <_vsnprintf+0x610>
10002b80:	9b0a      	ldr	r3, [sp, #40]	@ 0x28
10002b82:	9d0c      	ldr	r5, [sp, #48]	@ 0x30
10002b84:	e9cd 5c05 	strd	r5, ip, [sp, #20]
10002b88:	e9cd 0301 	strd	r0, r3, [sp, #4]
10002b8c:	9604      	str	r6, [sp, #16]
10002b8e:	9b0b      	ldr	r3, [sp, #44]	@ 0x2c
10002b90:	4642      	mov	r2, r8
10002b92:	9300      	str	r3, [sp, #0]
10002b94:	230a      	movs	r3, #10
10002b96:	4651      	mov	r1, sl
10002b98:	9303      	str	r3, [sp, #12]
10002b9a:	4658      	mov	r0, fp
10002b9c:	464b      	mov	r3, r9
10002b9e:	f7fe fec7 	bl	10001930 <_ntoa_format>
10002ba2:	940a      	str	r4, [sp, #40]	@ 0x28
10002ba4:	4680      	mov	r8, r0
10002ba6:	e4ef      	b.n	10002588 <_vsnprintf+0x3c>
10002ba8:	f023 030c 	bic.w	r3, r3, #12
10002bac:	e721      	b.n	100029f2 <_vsnprintf+0x4a6>
10002bae:	3307      	adds	r3, #7
10002bb0:	f023 0307 	bic.w	r3, r3, #7
10002bb4:	4619      	mov	r1, r3
10002bb6:	4608      	mov	r0, r1
10002bb8:	685b      	ldr	r3, [r3, #4]
10002bba:	f850 1b08 	ldr.w	r1, [r0], #8
10002bbe:	0fdf      	lsrs	r7, r3, #31
10002bc0:	900a      	str	r0, [sp, #40]	@ 0x28
10002bc2:	ea51 0003 	orrs.w	r0, r1, r3
10002bc6:	d162      	bne.n	10002c8e <_vsnprintf+0x742>
10002bc8:	2a00      	cmp	r2, #0
10002bca:	f040 819f 	bne.w	10002f0c <_vsnprintf+0x9c0>
10002bce:	4613      	mov	r3, r2
10002bd0:	4611      	mov	r1, r2
10002bd2:	aa12      	add	r2, sp, #72	@ 0x48
10002bd4:	e9cd 750c 	strd	r7, r5, [sp, #48]	@ 0x30
10002bd8:	2000      	movs	r0, #0
10002bda:	4615      	mov	r5, r2
10002bdc:	e9cd 680e 	strd	r6, r8, [sp, #56]	@ 0x38
10002be0:	f8df e348 	ldr.w	lr, [pc, #840]	@ 10002f2c <_vsnprintf+0x9e0>
10002be4:	920b      	str	r2, [sp, #44]	@ 0x2c
10002be6:	e001      	b.n	10002bec <_vsnprintf+0x6a0>
10002be8:	2820      	cmp	r0, #32
10002bea:	d02d      	beq.n	10002c48 <_vsnprintf+0x6fc>
10002bec:	185a      	adds	r2, r3, r1
10002bee:	f142 0200 	adc.w	r2, r2, #0
10002bf2:	fbae 7802 	umull	r7, r8, lr, r2
10002bf6:	f028 0703 	bic.w	r7, r8, #3
10002bfa:	eb07 0798 	add.w	r7, r7, r8, lsr #2
10002bfe:	1bd2      	subs	r2, r2, r7
10002c00:	461e      	mov	r6, r3
10002c02:	1a9b      	subs	r3, r3, r2
10002c04:	f161 0700 	sbc.w	r7, r1, #0
10002c08:	460c      	mov	r4, r1
10002c0a:	f04f 31cc 	mov.w	r1, #3435973836	@ 0xcccccccc
10002c0e:	fb01 f103 	mul.w	r1, r1, r3
10002c12:	fb0e 1107 	mla	r1, lr, r7, r1
10002c16:	fba3 730e 	umull	r7, r3, r3, lr
10002c1a:	4419      	add	r1, r3
10002c1c:	2305      	movs	r3, #5
10002c1e:	f007 0801 	and.w	r8, r7, #1
10002c22:	fba8 3803 	umull	r3, r8, r8, r3
10002c26:	189b      	adds	r3, r3, r2
10002c28:	2e0a      	cmp	r6, #10
10002c2a:	f103 0330 	add.w	r3, r3, #48	@ 0x30
10002c2e:	ea4f 0757 	mov.w	r7, r7, lsr #1
10002c32:	f174 0400 	sbcs.w	r4, r4, #0
10002c36:	f805 3b01 	strb.w	r3, [r5], #1
10002c3a:	f100 0001 	add.w	r0, r0, #1
10002c3e:	ea47 73c1 	orr.w	r3, r7, r1, lsl #31
10002c42:	ea4f 0151 	mov.w	r1, r1, lsr #1
10002c46:	d2cf      	bcs.n	10002be8 <_vsnprintf+0x69c>
10002c48:	e9dd 750c 	ldrd	r7, r5, [sp, #48]	@ 0x30
10002c4c:	e9dd 680e 	ldrd	r6, r8, [sp, #56]	@ 0x38
10002c50:	9b0b      	ldr	r3, [sp, #44]	@ 0x2c
10002c52:	4642      	mov	r2, r8
10002c54:	9300      	str	r3, [sp, #0]
10002c56:	230a      	movs	r3, #10
10002c58:	e9cd 5c05 	strd	r5, ip, [sp, #20]
10002c5c:	e9cd 0701 	strd	r0, r7, [sp, #4]
10002c60:	9604      	str	r6, [sp, #16]
10002c62:	9303      	str	r3, [sp, #12]
10002c64:	464b      	mov	r3, r9
10002c66:	4651      	mov	r1, sl
10002c68:	4658      	mov	r0, fp
10002c6a:	f7fe fe61 	bl	10001930 <_ntoa_format>
10002c6e:	4680      	mov	r8, r0
10002c70:	e48a      	b.n	10002588 <_vsnprintf+0x3c>
10002c72:	7819      	ldrb	r1, [r3, #0]
10002c74:	460f      	mov	r7, r1
10002c76:	e764      	b.n	10002b42 <_vsnprintf+0x5f6>
10002c78:	2710      	movs	r7, #16
10002c7a:	46bc      	mov	ip, r7
10002c7c:	e6b3      	b.n	100029e6 <_vsnprintf+0x49a>
10002c7e:	f023 0c10 	bic.w	ip, r3, #16
10002c82:	e745      	b.n	10002b10 <_vsnprintf+0x5c4>
10002c84:	061c      	lsls	r4, r3, #24
10002c86:	bf4c      	ite	mi
10002c88:	8812      	ldrhmi	r2, [r2, #0]
10002c8a:	6812      	ldrpl	r2, [r2, #0]
10002c8c:	e6c0      	b.n	10002a10 <_vsnprintf+0x4c4>
10002c8e:	460a      	mov	r2, r1
10002c90:	1e19      	subs	r1, r3, #0
10002c92:	db01      	blt.n	10002c98 <_vsnprintf+0x74c>
10002c94:	4613      	mov	r3, r2
10002c96:	e79c      	b.n	10002bd2 <_vsnprintf+0x686>
10002c98:	4252      	negs	r2, r2
10002c9a:	4613      	mov	r3, r2
10002c9c:	eb61 0141 	sbc.w	r1, r1, r1, lsl #1
10002ca0:	e797      	b.n	10002bd2 <_vsnprintf+0x686>
10002ca2:	4613      	mov	r3, r2
10002ca4:	4651      	mov	r1, sl
10002ca6:	7818      	ldrb	r0, [r3, #0]
10002ca8:	4642      	mov	r2, r8
10002caa:	464b      	mov	r3, r9
10002cac:	47d8      	blx	fp
10002cae:	46b0      	mov	r8, r6
10002cb0:	e648      	b.n	10002944 <_vsnprintf+0x3f8>
10002cb2:	f013 0f20 	tst.w	r3, #32
10002cb6:	bf14      	ite	ne
10002cb8:	2041      	movne	r0, #65	@ 0x41
10002cba:	2061      	moveq	r0, #97	@ 0x61
10002cbc:	ac12      	add	r4, sp, #72	@ 0x48
10002cbe:	46a6      	mov	lr, r4
10002cc0:	940b      	str	r4, [sp, #44]	@ 0x2c
10002cc2:	930a      	str	r3, [sp, #40]	@ 0x28
10002cc4:	f1a0 040a 	sub.w	r4, r0, #10
10002cc8:	950c      	str	r5, [sp, #48]	@ 0x30
10002cca:	e002      	b.n	10002cd2 <_vsnprintf+0x786>
10002ccc:	2920      	cmp	r1, #32
10002cce:	d012      	beq.n	10002cf6 <_vsnprintf+0x7aa>
10002cd0:	462a      	mov	r2, r5
10002cd2:	fbb2 f5fc 	udiv	r5, r2, ip
10002cd6:	fb0c 2015 	mls	r0, ip, r5, r2
10002cda:	b2c3      	uxtb	r3, r0
10002cdc:	2809      	cmp	r0, #9
10002cde:	f103 0030 	add.w	r0, r3, #48	@ 0x30
10002ce2:	bf8a      	itet	hi
10002ce4:	191b      	addhi	r3, r3, r4
10002ce6:	b2c3      	uxtbls	r3, r0
10002ce8:	b2db      	uxtbhi	r3, r3
10002cea:	4562      	cmp	r2, ip
10002cec:	f80e 3b01 	strb.w	r3, [lr], #1
10002cf0:	f101 0101 	add.w	r1, r1, #1
10002cf4:	d2ea      	bcs.n	10002ccc <_vsnprintf+0x780>
10002cf6:	9b0a      	ldr	r3, [sp, #40]	@ 0x28
10002cf8:	9d0c      	ldr	r5, [sp, #48]	@ 0x30
10002cfa:	e694      	b.n	10002a26 <_vsnprintf+0x4da>
10002cfc:	9a0a      	ldr	r2, [sp, #40]	@ 0x28
10002cfe:	3207      	adds	r2, #7
10002d00:	f022 0207 	bic.w	r2, r2, #7
10002d04:	6851      	ldr	r1, [r2, #4]
10002d06:	f852 4b08 	ldr.w	r4, [r2], #8
10002d0a:	468e      	mov	lr, r1
10002d0c:	920a      	str	r2, [sp, #40]	@ 0x28
10002d0e:	ea54 0201 	orrs.w	r2, r4, r1
10002d12:	d176      	bne.n	10002e02 <_vsnprintf+0x8b6>
10002d14:	f023 0310 	bic.w	r3, r3, #16
10002d18:	2800      	cmp	r0, #0
10002d1a:	d072      	beq.n	10002e02 <_vsnprintf+0x8b6>
10002d1c:	2200      	movs	r2, #0
10002d1e:	4611      	mov	r1, r2
10002d20:	aa12      	add	r2, sp, #72	@ 0x48
10002d22:	920b      	str	r2, [sp, #44]	@ 0x2c
10002d24:	e9cd 5305 	strd	r5, r3, [sp, #20]
10002d28:	9b0b      	ldr	r3, [sp, #44]	@ 0x2c
10002d2a:	4642      	mov	r2, r8
10002d2c:	9300      	str	r3, [sp, #0]
10002d2e:	2300      	movs	r3, #0
10002d30:	e9cd c603 	strd	ip, r6, [sp, #12]
10002d34:	9101      	str	r1, [sp, #4]
10002d36:	9302      	str	r3, [sp, #8]
10002d38:	e794      	b.n	10002c64 <_vsnprintf+0x718>
10002d3a:	42a5      	cmp	r5, r4
10002d3c:	bf98      	it	ls
10002d3e:	3401      	addls	r4, #1
10002d40:	f67f ad74 	bls.w	1000282c <_vsnprintf+0x2e0>
10002d44:	f44f 6380 	mov.w	r3, #1024	@ 0x400
10002d48:	e9cd 750a 	strd	r7, r5, [sp, #40]	@ 0x28
10002d4c:	eb05 0208 	add.w	r2, r5, r8
10002d50:	461f      	mov	r7, r3
10002d52:	460d      	mov	r5, r1
10002d54:	1b14      	subs	r4, r2, r4
10002d56:	4642      	mov	r2, r8
10002d58:	464b      	mov	r3, r9
10002d5a:	4651      	mov	r1, sl
10002d5c:	2020      	movs	r0, #32
10002d5e:	f108 0801 	add.w	r8, r8, #1
10002d62:	47d8      	blx	fp
10002d64:	45a0      	cmp	r8, r4
10002d66:	d1f6      	bne.n	10002d56 <_vsnprintf+0x80a>
10002d68:	463b      	mov	r3, r7
10002d6a:	9f0a      	ldr	r7, [sp, #40]	@ 0x28
10002d6c:	4629      	mov	r1, r5
10002d6e:	7838      	ldrb	r0, [r7, #0]
10002d70:	9d0b      	ldr	r5, [sp, #44]	@ 0x2c
10002d72:	1c6c      	adds	r4, r5, #1
10002d74:	2800      	cmp	r0, #0
10002d76:	f43f ad70 	beq.w	1000285a <_vsnprintf+0x30e>
10002d7a:	2b00      	cmp	r3, #0
10002d7c:	f43f ae75 	beq.w	10002a6a <_vsnprintf+0x51e>
10002d80:	2300      	movs	r3, #0
10002d82:	e553      	b.n	1000282c <_vsnprintf+0x2e0>
10002d84:	42a5      	cmp	r5, r4
10002d86:	d8df      	bhi.n	10002d48 <_vsnprintf+0x7fc>
10002d88:	3401      	adds	r4, #1
10002d8a:	e66e      	b.n	10002a6a <_vsnprintf+0x51e>
10002d8c:	6819      	ldr	r1, [r3, #0]
10002d8e:	0fcb      	lsrs	r3, r1, #31
10002d90:	2900      	cmp	r1, #0
10002d92:	f000 80a8 	beq.w	10002ee6 <_vsnprintf+0x99a>
10002d96:	ea81 72e1 	eor.w	r2, r1, r1, asr #31
10002d9a:	eba2 72e1 	sub.w	r2, r2, r1, asr #31
10002d9e:	a912      	add	r1, sp, #72	@ 0x48
10002da0:	4608      	mov	r0, r1
10002da2:	f8df e188 	ldr.w	lr, [pc, #392]	@ 10002f2c <_vsnprintf+0x9e0>
10002da6:	910b      	str	r1, [sp, #44]	@ 0x2c
10002da8:	930a      	str	r3, [sp, #40]	@ 0x28
10002daa:	950c      	str	r5, [sp, #48]	@ 0x30
10002dac:	e001      	b.n	10002db2 <_vsnprintf+0x866>
10002dae:	2f20      	cmp	r7, #32
10002db0:	d00f      	beq.n	10002dd2 <_vsnprintf+0x886>
10002db2:	4615      	mov	r5, r2
10002db4:	fbae 1302 	umull	r1, r3, lr, r2
10002db8:	08db      	lsrs	r3, r3, #3
10002dba:	eb03 0183 	add.w	r1, r3, r3, lsl #2
10002dbe:	eba2 0141 	sub.w	r1, r2, r1, lsl #1
10002dc2:	3130      	adds	r1, #48	@ 0x30
10002dc4:	2d09      	cmp	r5, #9
10002dc6:	461a      	mov	r2, r3
10002dc8:	f107 0701 	add.w	r7, r7, #1
10002dcc:	f800 1b01 	strb.w	r1, [r0], #1
10002dd0:	d8ed      	bhi.n	10002dae <_vsnprintf+0x862>
10002dd2:	9b0a      	ldr	r3, [sp, #40]	@ 0x28
10002dd4:	9d0c      	ldr	r5, [sp, #48]	@ 0x30
10002dd6:	e9cd 5c05 	strd	r5, ip, [sp, #20]
10002dda:	e9cd 7301 	strd	r7, r3, [sp, #4]
10002dde:	9604      	str	r6, [sp, #16]
10002de0:	e6d5      	b.n	10002b8e <_vsnprintf+0x642>
10002de2:	2869      	cmp	r0, #105	@ 0x69
10002de4:	f023 0c10 	bic.w	ip, r3, #16
10002de8:	f040 808c 	bne.w	10002f04 <_vsnprintf+0x9b8>
10002dec:	f413 6280 	ands.w	r2, r3, #1024	@ 0x400
10002df0:	f43f ae8e 	beq.w	10002b10 <_vsnprintf+0x5c4>
10002df4:	e688      	b.n	10002b08 <_vsnprintf+0x5bc>
10002df6:	2a00      	cmp	r2, #0
10002df8:	f43f aea8 	beq.w	10002b4c <_vsnprintf+0x600>
10002dfc:	aa12      	add	r2, sp, #72	@ 0x48
10002dfe:	920b      	str	r2, [sp, #44]	@ 0x2c
10002e00:	e6c0      	b.n	10002b84 <_vsnprintf+0x638>
10002e02:	f013 0f20 	tst.w	r3, #32
10002e06:	bf14      	ite	ne
10002e08:	2241      	movne	r2, #65	@ 0x41
10002e0a:	2261      	moveq	r2, #97	@ 0x61
10002e0c:	2000      	movs	r0, #0
10002e0e:	a912      	add	r1, sp, #72	@ 0x48
10002e10:	3a0a      	subs	r2, #10
10002e12:	e9cd 680e 	strd	r6, r8, [sp, #56]	@ 0x38
10002e16:	e9cd 350c 	strd	r3, r5, [sp, #48]	@ 0x30
10002e1a:	f8cd b044 	str.w	fp, [sp, #68]	@ 0x44
10002e1e:	4606      	mov	r6, r0
10002e20:	4688      	mov	r8, r1
10002e22:	4675      	mov	r5, lr
10002e24:	4693      	mov	fp, r2
10002e26:	910b      	str	r1, [sp, #44]	@ 0x2c
10002e28:	f8cd c040 	str.w	ip, [sp, #64]	@ 0x40
10002e2c:	e003      	b.n	10002e36 <_vsnprintf+0x8ea>
10002e2e:	2e20      	cmp	r6, #32
10002e30:	d017      	beq.n	10002e62 <_vsnprintf+0x916>
10002e32:	4604      	mov	r4, r0
10002e34:	460d      	mov	r5, r1
10002e36:	4629      	mov	r1, r5
10002e38:	463a      	mov	r2, r7
10002e3a:	2300      	movs	r3, #0
10002e3c:	4620      	mov	r0, r4
10002e3e:	f000 fc63 	bl	10003708 <____aeabi_uldivmod_veneer>
10002e42:	b2d2      	uxtb	r2, r2
10002e44:	2a09      	cmp	r2, #9
10002e46:	f102 0330 	add.w	r3, r2, #48	@ 0x30
10002e4a:	bf88      	it	hi
10002e4c:	eb02 030b 	addhi.w	r3, r2, fp
10002e50:	42bc      	cmp	r4, r7
10002e52:	b2db      	uxtb	r3, r3
10002e54:	f175 0500 	sbcs.w	r5, r5, #0
10002e58:	f808 3b01 	strb.w	r3, [r8], #1
10002e5c:	f106 0601 	add.w	r6, r6, #1
10002e60:	d2e5      	bcs.n	10002e2e <_vsnprintf+0x8e2>
10002e62:	4631      	mov	r1, r6
10002e64:	e9dd 350c 	ldrd	r3, r5, [sp, #48]	@ 0x30
10002e68:	e9dd cb10 	ldrd	ip, fp, [sp, #64]	@ 0x40
10002e6c:	f8dd 803c 	ldr.w	r8, [sp, #60]	@ 0x3c
10002e70:	9e0e      	ldr	r6, [sp, #56]	@ 0x38
10002e72:	e757      	b.n	10002d24 <_vsnprintf+0x7d8>
10002e74:	990a      	ldr	r1, [sp, #40]	@ 0x28
10002e76:	6809      	ldr	r1, [r1, #0]
10002e78:	b951      	cbnz	r1, 10002e90 <_vsnprintf+0x944>
10002e7a:	f023 0310 	bic.w	r3, r3, #16
10002e7e:	b138      	cbz	r0, 10002e90 <_vsnprintf+0x944>
10002e80:	a912      	add	r1, sp, #72	@ 0x48
10002e82:	910b      	str	r1, [sp, #44]	@ 0x2c
10002e84:	e9cd 5305 	strd	r5, r3, [sp, #20]
10002e88:	e9cd c603 	strd	ip, r6, [sp, #12]
10002e8c:	9201      	str	r2, [sp, #4]
10002e8e:	e5cf      	b.n	10002a30 <_vsnprintf+0x4e4>
10002e90:	f013 0f20 	tst.w	r3, #32
10002e94:	bf14      	ite	ne
10002e96:	2041      	movne	r0, #65	@ 0x41
10002e98:	2061      	moveq	r0, #97	@ 0x61
10002e9a:	ac12      	add	r4, sp, #72	@ 0x48
10002e9c:	46a6      	mov	lr, r4
10002e9e:	940b      	str	r4, [sp, #44]	@ 0x2c
10002ea0:	930a      	str	r3, [sp, #40]	@ 0x28
10002ea2:	f1a0 040a 	sub.w	r4, r0, #10
10002ea6:	950c      	str	r5, [sp, #48]	@ 0x30
10002ea8:	e002      	b.n	10002eb0 <_vsnprintf+0x964>
10002eaa:	2a20      	cmp	r2, #32
10002eac:	d012      	beq.n	10002ed4 <_vsnprintf+0x988>
10002eae:	4629      	mov	r1, r5
10002eb0:	fbb1 f5fc 	udiv	r5, r1, ip
10002eb4:	fb0c 1015 	mls	r0, ip, r5, r1
10002eb8:	b2c3      	uxtb	r3, r0
10002eba:	2809      	cmp	r0, #9
10002ebc:	f103 0030 	add.w	r0, r3, #48	@ 0x30
10002ec0:	bf8a      	itet	hi
10002ec2:	191b      	addhi	r3, r3, r4
10002ec4:	b2c3      	uxtbls	r3, r0
10002ec6:	b2db      	uxtbhi	r3, r3
10002ec8:	4561      	cmp	r1, ip
10002eca:	f80e 3b01 	strb.w	r3, [lr], #1
10002ece:	f102 0201 	add.w	r2, r2, #1
10002ed2:	d2ea      	bcs.n	10002eaa <_vsnprintf+0x95e>
10002ed4:	9b0a      	ldr	r3, [sp, #40]	@ 0x28
10002ed6:	9d0c      	ldr	r5, [sp, #48]	@ 0x30
10002ed8:	e7d4      	b.n	10002e84 <_vsnprintf+0x938>
10002eda:	6819      	ldr	r1, [r3, #0]
10002edc:	ea81 77e1 	eor.w	r7, r1, r1, asr #31
10002ee0:	eba7 77e1 	sub.w	r7, r7, r1, asr #31
10002ee4:	e62d      	b.n	10002b42 <_vsnprintf+0x5f6>
10002ee6:	2a00      	cmp	r2, #0
10002ee8:	f43f af59 	beq.w	10002d9e <_vsnprintf+0x852>
10002eec:	aa12      	add	r2, sp, #72	@ 0x48
10002eee:	920b      	str	r2, [sp, #44]	@ 0x2c
10002ef0:	e771      	b.n	10002dd6 <_vsnprintf+0x88a>
10002ef2:	f413 6480 	ands.w	r4, r3, #1024	@ 0x400
10002ef6:	d00d      	beq.n	10002f14 <_vsnprintf+0x9c8>
10002ef8:	f013 0402 	ands.w	r4, r3, #2
10002efc:	d012      	beq.n	10002f24 <_vsnprintf+0x9d8>
10002efe:	4604      	mov	r4, r0
10002f00:	4646      	mov	r6, r8
10002f02:	e5ec      	b.n	10002ade <_vsnprintf+0x592>
10002f04:	270a      	movs	r7, #10
10002f06:	4663      	mov	r3, ip
10002f08:	46bc      	mov	ip, r7
10002f0a:	e56c      	b.n	100029e6 <_vsnprintf+0x49a>
10002f0c:	ab12      	add	r3, sp, #72	@ 0x48
10002f0e:	2000      	movs	r0, #0
10002f10:	930b      	str	r3, [sp, #44]	@ 0x2c
10002f12:	e69d      	b.n	10002c50 <_vsnprintf+0x704>
10002f14:	f013 0302 	ands.w	r3, r3, #2
10002f18:	f47f ade0 	bne.w	10002adc <_vsnprintf+0x590>
10002f1c:	2d00      	cmp	r5, #0
10002f1e:	f47f af13 	bne.w	10002d48 <_vsnprintf+0x7fc>
10002f22:	e49a      	b.n	1000285a <_vsnprintf+0x30e>
10002f24:	2d00      	cmp	r5, #0
10002f26:	f47f af0d 	bne.w	10002d44 <_vsnprintf+0x7f8>
10002f2a:	e496      	b.n	1000285a <_vsnprintf+0x30e>
10002f2c:	cccccccd 	.word	0xcccccccd

10002f30 <vfctprintf>:
10002f30:	b570      	push	{r4, r5, r6, lr}
10002f32:	4694      	mov	ip, r2
10002f34:	461e      	mov	r6, r3
10002f36:	4605      	mov	r5, r0
10002f38:	460c      	mov	r4, r1
10002f3a:	b084      	sub	sp, #16
10002f3c:	f04f 32ff 	mov.w	r2, #4294967295
10002f40:	4663      	mov	r3, ip
10002f42:	a902      	add	r1, sp, #8
10002f44:	9600      	str	r6, [sp, #0]
10002f46:	4803      	ldr	r0, [pc, #12]	@ (10002f54 <vfctprintf+0x24>)
10002f48:	e9cd 5402 	strd	r5, r4, [sp, #8]
10002f4c:	f7ff fafe 	bl	1000254c <_vsnprintf>
10002f50:	b004      	add	sp, #16
10002f52:	bd70      	pop	{r4, r5, r6, pc}
10002f54:	10001b0d 	.word	0x10001b0d

10002f58 <weak_raw_vprintf>:
10002f58:	b510      	push	{r4, lr}
10002f5a:	4b09      	ldr	r3, [pc, #36]	@ (10002f80 <weak_raw_vprintf+0x28>)
10002f5c:	b084      	sub	sp, #16
10002f5e:	681c      	ldr	r4, [r3, #0]
10002f60:	b14c      	cbz	r4, 10002f76 <weak_raw_vprintf+0x1e>
10002f62:	4603      	mov	r3, r0
10002f64:	9100      	str	r1, [sp, #0]
10002f66:	f04f 32ff 	mov.w	r2, #4294967295
10002f6a:	a903      	add	r1, sp, #12
10002f6c:	4805      	ldr	r0, [pc, #20]	@ (10002f84 <weak_raw_vprintf+0x2c>)
10002f6e:	47a0      	blx	r4
10002f70:	2001      	movs	r0, #1
10002f72:	b004      	add	sp, #16
10002f74:	bd10      	pop	{r4, pc}
10002f76:	f000 f97d 	bl	10003274 <__wrap_puts>
10002f7a:	4620      	mov	r0, r4
10002f7c:	b004      	add	sp, #16
10002f7e:	bd10      	pop	{r4, pc}
10002f80:	20000b84 	.word	0x20000b84
10002f84:	10001b05 	.word	0x10001b05

10002f88 <_exit>:
10002f88:	be00      	bkpt	0x0000
10002f8a:	e7fd      	b.n	10002f88 <_exit>

10002f8c <exit>:
10002f8c:	b508      	push	{r3, lr}
10002f8e:	f7ff fffb 	bl	10002f88 <_exit>
10002f92:	bf00      	nop

10002f94 <runtime_init>:
10002f94:	b538      	push	{r3, r4, r5, lr}
10002f96:	4c06      	ldr	r4, [pc, #24]	@ (10002fb0 <runtime_init+0x1c>)
10002f98:	4d06      	ldr	r5, [pc, #24]	@ (10002fb4 <runtime_init+0x20>)
10002f9a:	f7fe fa07 	bl	100013ac <runtime_run_initializers>
10002f9e:	42ac      	cmp	r4, r5
10002fa0:	d204      	bcs.n	10002fac <runtime_init+0x18>
10002fa2:	f854 3b04 	ldr.w	r3, [r4], #4
10002fa6:	4798      	blx	r3
10002fa8:	42ac      	cmp	r4, r5
10002faa:	d3fa      	bcc.n	10002fa2 <runtime_init+0xe>
10002fac:	bd38      	pop	{r3, r4, r5, pc}
10002fae:	bf00      	nop
10002fb0:	10003760 	.word	0x10003760
10002fb4:	10003764 	.word	0x10003764

10002fb8 <stdio_out_chars_no_crlf>:
10002fb8:	6803      	ldr	r3, [r0, #0]
10002fba:	4608      	mov	r0, r1
10002fbc:	4611      	mov	r1, r2
10002fbe:	4718      	bx	r3

10002fc0 <stdio_out_chars_crlf>:
10002fc0:	e92d 41f0 	stmdb	sp!, {r4, r5, r6, r7, r8, lr}
10002fc4:	4615      	mov	r5, r2
10002fc6:	7d42      	ldrb	r2, [r0, #21]
10002fc8:	4607      	mov	r7, r0
10002fca:	4688      	mov	r8, r1
10002fcc:	2a00      	cmp	r2, #0
10002fce:	d046      	beq.n	1000305e <stdio_out_chars_crlf+0x9e>
10002fd0:	2d00      	cmp	r5, #0
10002fd2:	dd1d      	ble.n	10003010 <stdio_out_chars_crlf+0x50>
10002fd4:	780b      	ldrb	r3, [r1, #0]
10002fd6:	2b0a      	cmp	r3, #10
10002fd8:	d023      	beq.n	10003022 <stdio_out_chars_crlf+0x62>
10002fda:	2d01      	cmp	r5, #1
10002fdc:	f04f 0c00 	mov.w	ip, #0
10002fe0:	d018      	beq.n	10003014 <stdio_out_chars_crlf+0x54>
10002fe2:	4646      	mov	r6, r8
10002fe4:	2401      	movs	r4, #1
10002fe6:	f816 2f01 	ldrb.w	r2, [r6, #1]!
10002fea:	4621      	mov	r1, r4
10002fec:	2a0a      	cmp	r2, #10
10002fee:	f104 0401 	add.w	r4, r4, #1
10002ff2:	d022      	beq.n	1000303a <stdio_out_chars_crlf+0x7a>
10002ff4:	42a5      	cmp	r5, r4
10002ff6:	d1f6      	bne.n	10002fe6 <stdio_out_chars_crlf+0x26>
10002ff8:	4565      	cmp	r5, ip
10002ffa:	dc0b      	bgt.n	10003014 <stdio_out_chars_crlf+0x54>
10002ffc:	eb08 0305 	add.w	r3, r8, r5
10003000:	f813 3c01 	ldrb.w	r3, [r3, #-1]
10003004:	f1a3 030d 	sub.w	r3, r3, #13
10003008:	fab3 f383 	clz	r3, r3
1000300c:	095b      	lsrs	r3, r3, #5
1000300e:	753b      	strb	r3, [r7, #20]
10003010:	e8bd 81f0 	ldmia.w	sp!, {r4, r5, r6, r7, r8, pc}
10003014:	683b      	ldr	r3, [r7, #0]
10003016:	eba5 010c 	sub.w	r1, r5, ip
1000301a:	eb08 000c 	add.w	r0, r8, ip
1000301e:	4798      	blx	r3
10003020:	e7ec      	b.n	10002ffc <stdio_out_chars_crlf+0x3c>
10003022:	7d03      	ldrb	r3, [r0, #20]
10003024:	2b00      	cmp	r3, #0
10003026:	d1d8      	bne.n	10002fda <stdio_out_chars_crlf+0x1a>
10003028:	6803      	ldr	r3, [r0, #0]
1000302a:	2102      	movs	r1, #2
1000302c:	480f      	ldr	r0, [pc, #60]	@ (1000306c <stdio_out_chars_crlf+0xac>)
1000302e:	4798      	blx	r3
10003030:	2d01      	cmp	r5, #1
10003032:	d0e3      	beq.n	10002ffc <stdio_out_chars_crlf+0x3c>
10003034:	f04f 0c01 	mov.w	ip, #1
10003038:	e7d3      	b.n	10002fe2 <stdio_out_chars_crlf+0x22>
1000303a:	f816 3c01 	ldrb.w	r3, [r6, #-1]
1000303e:	2b0d      	cmp	r3, #13
10003040:	d0d8      	beq.n	10002ff4 <stdio_out_chars_crlf+0x34>
10003042:	458c      	cmp	ip, r1
10003044:	eb08 000c 	add.w	r0, r8, ip
10003048:	eba1 010c 	sub.w	r1, r1, ip
1000304c:	da01      	bge.n	10003052 <stdio_out_chars_crlf+0x92>
1000304e:	683b      	ldr	r3, [r7, #0]
10003050:	4798      	blx	r3
10003052:	2102      	movs	r1, #2
10003054:	4805      	ldr	r0, [pc, #20]	@ (1000306c <stdio_out_chars_crlf+0xac>)
10003056:	683b      	ldr	r3, [r7, #0]
10003058:	4798      	blx	r3
1000305a:	46a4      	mov	ip, r4
1000305c:	e7ca      	b.n	10002ff4 <stdio_out_chars_crlf+0x34>
1000305e:	4629      	mov	r1, r5
10003060:	4640      	mov	r0, r8
10003062:	683b      	ldr	r3, [r7, #0]
10003064:	e8bd 41f0 	ldmia.w	sp!, {r4, r5, r6, r7, r8, lr}
10003068:	4718      	bx	r3
1000306a:	bf00      	nop
1000306c:	10003938 	.word	0x10003938

10003070 <stdio_buffered_printer>:
10003070:	680b      	ldr	r3, [r1, #0]
10003072:	e92d 41f0 	stmdb	sp!, {r4, r5, r6, r7, r8, lr}
10003076:	2b80      	cmp	r3, #128	@ 0x80
10003078:	460d      	mov	r5, r1
1000307a:	4606      	mov	r6, r0
1000307c:	d005      	beq.n	1000308a <stdio_buffered_printer+0x1a>
1000307e:	1c5a      	adds	r2, r3, #1
10003080:	442b      	add	r3, r5
10003082:	602a      	str	r2, [r5, #0]
10003084:	711e      	strb	r6, [r3, #4]
10003086:	e8bd 81f0 	ldmia.w	sp!, {r4, r5, r6, r7, r8, pc}
1000308a:	4b0f      	ldr	r3, [pc, #60]	@ (100030c8 <stdio_buffered_printer+0x58>)
1000308c:	681c      	ldr	r4, [r3, #0]
1000308e:	b1a4      	cbz	r4, 100030ba <stdio_buffered_printer+0x4a>
10003090:	4f0e      	ldr	r7, [pc, #56]	@ (100030cc <stdio_buffered_printer+0x5c>)
10003092:	f101 0804 	add.w	r8, r1, #4
10003096:	e001      	b.n	1000309c <stdio_buffered_printer+0x2c>
10003098:	6924      	ldr	r4, [r4, #16]
1000309a:	b174      	cbz	r4, 100030ba <stdio_buffered_printer+0x4a>
1000309c:	6823      	ldr	r3, [r4, #0]
1000309e:	2b00      	cmp	r3, #0
100030a0:	d0fa      	beq.n	10003098 <stdio_buffered_printer+0x28>
100030a2:	683b      	ldr	r3, [r7, #0]
100030a4:	b10b      	cbz	r3, 100030aa <stdio_buffered_printer+0x3a>
100030a6:	42a3      	cmp	r3, r4
100030a8:	d1f6      	bne.n	10003098 <stdio_buffered_printer+0x28>
100030aa:	4620      	mov	r0, r4
100030ac:	4641      	mov	r1, r8
100030ae:	682a      	ldr	r2, [r5, #0]
100030b0:	f7ff ff86 	bl	10002fc0 <stdio_out_chars_crlf>
100030b4:	6924      	ldr	r4, [r4, #16]
100030b6:	2c00      	cmp	r4, #0
100030b8:	d1f0      	bne.n	1000309c <stdio_buffered_printer+0x2c>
100030ba:	2300      	movs	r3, #0
100030bc:	2201      	movs	r2, #1
100030be:	442b      	add	r3, r5
100030c0:	602a      	str	r2, [r5, #0]
100030c2:	711e      	strb	r6, [r3, #4]
100030c4:	e8bd 81f0 	ldmia.w	sp!, {r4, r5, r6, r7, r8, pc}
100030c8:	20000b7c 	.word	0x20000b7c
100030cc:	20000b80 	.word	0x20000b80

100030d0 <stdio_put_string>:
100030d0:	e92d 47f0 	stmdb	sp!, {r4, r5, r6, r7, r8, r9, sl, lr}
100030d4:	b082      	sub	sp, #8
100030d6:	460d      	mov	r5, r1
100030d8:	4691      	mov	r9, r2
100030da:	461c      	mov	r4, r3
100030dc:	4606      	mov	r6, r0
100030de:	f7fd ff95 	bl	1000100c <time_us_64>
100030e2:	f04f 3cff 	mov.w	ip, #4294967295
100030e6:	f06f 4700 	mvn.w	r7, #2147483648	@ 0x80000000
100030ea:	4a2e      	ldr	r2, [pc, #184]	@ (100031a4 <stdio_put_string+0xd4>)
100030ec:	1882      	adds	r2, r0, r2
100030ee:	f141 0300 	adc.w	r3, r1, #0
100030f2:	4594      	cmp	ip, r2
100030f4:	eb77 0103 	sbcs.w	r1, r7, r3
100030f8:	bf3c      	itt	cc
100030fa:	4662      	movcc	r2, ip
100030fc:	463b      	movcc	r3, r7
100030fe:	482a      	ldr	r0, [pc, #168]	@ (100031a8 <stdio_put_string+0xd8>)
10003100:	f000 fb0a 	bl	10003718 <__mutex_try_enter_block_until_veneer>
10003104:	1c6b      	adds	r3, r5, #1
10003106:	4680      	mov	r8, r0
10003108:	d040      	beq.n	1000318c <stdio_put_string+0xbc>
1000310a:	b30c      	cbz	r4, 10003150 <stdio_put_string+0x80>
1000310c:	4f27      	ldr	r7, [pc, #156]	@ (100031ac <stdio_put_string+0xdc>)
1000310e:	4b28      	ldr	r3, [pc, #160]	@ (100031b0 <stdio_put_string+0xe0>)
10003110:	681c      	ldr	r4, [r3, #0]
10003112:	b1b4      	cbz	r4, 10003142 <stdio_put_string+0x72>
10003114:	f1b9 0f00 	cmp.w	r9, #0
10003118:	d11c      	bne.n	10003154 <stdio_put_string+0x84>
1000311a:	f8df 909c 	ldr.w	r9, [pc, #156]	@ 100031b8 <stdio_put_string+0xe8>
1000311e:	e001      	b.n	10003124 <stdio_put_string+0x54>
10003120:	6924      	ldr	r4, [r4, #16]
10003122:	b174      	cbz	r4, 10003142 <stdio_put_string+0x72>
10003124:	6823      	ldr	r3, [r4, #0]
10003126:	2b00      	cmp	r3, #0
10003128:	d0fa      	beq.n	10003120 <stdio_put_string+0x50>
1000312a:	f8d9 3000 	ldr.w	r3, [r9]
1000312e:	b10b      	cbz	r3, 10003134 <stdio_put_string+0x64>
10003130:	429c      	cmp	r4, r3
10003132:	d1f5      	bne.n	10003120 <stdio_put_string+0x50>
10003134:	4620      	mov	r0, r4
10003136:	462a      	mov	r2, r5
10003138:	4631      	mov	r1, r6
1000313a:	47b8      	blx	r7
1000313c:	6924      	ldr	r4, [r4, #16]
1000313e:	2c00      	cmp	r4, #0
10003140:	d1f0      	bne.n	10003124 <stdio_put_string+0x54>
10003142:	f1b8 0f00 	cmp.w	r8, #0
10003146:	d126      	bne.n	10003196 <stdio_put_string+0xc6>
10003148:	4628      	mov	r0, r5
1000314a:	b002      	add	sp, #8
1000314c:	e8bd 87f0 	ldmia.w	sp!, {r4, r5, r6, r7, r8, r9, sl, pc}
10003150:	4f18      	ldr	r7, [pc, #96]	@ (100031b4 <stdio_put_string+0xe4>)
10003152:	e7dc      	b.n	1000310e <stdio_put_string+0x3e>
10003154:	f04f 0a0a 	mov.w	sl, #10
10003158:	f8df 905c 	ldr.w	r9, [pc, #92]	@ 100031b8 <stdio_put_string+0xe8>
1000315c:	e002      	b.n	10003164 <stdio_put_string+0x94>
1000315e:	6924      	ldr	r4, [r4, #16]
10003160:	2c00      	cmp	r4, #0
10003162:	d0ee      	beq.n	10003142 <stdio_put_string+0x72>
10003164:	6823      	ldr	r3, [r4, #0]
10003166:	2b00      	cmp	r3, #0
10003168:	d0f9      	beq.n	1000315e <stdio_put_string+0x8e>
1000316a:	f8d9 3000 	ldr.w	r3, [r9]
1000316e:	b10b      	cbz	r3, 10003174 <stdio_put_string+0xa4>
10003170:	42a3      	cmp	r3, r4
10003172:	d1f4      	bne.n	1000315e <stdio_put_string+0x8e>
10003174:	462a      	mov	r2, r5
10003176:	4631      	mov	r1, r6
10003178:	4620      	mov	r0, r4
1000317a:	47b8      	blx	r7
1000317c:	2201      	movs	r2, #1
1000317e:	4620      	mov	r0, r4
10003180:	f10d 0107 	add.w	r1, sp, #7
10003184:	f88d a007 	strb.w	sl, [sp, #7]
10003188:	47b8      	blx	r7
1000318a:	e7e8      	b.n	1000315e <stdio_put_string+0x8e>
1000318c:	4630      	mov	r0, r6
1000318e:	f000 fa87 	bl	100036a0 <strlen>
10003192:	4605      	mov	r5, r0
10003194:	e7b9      	b.n	1000310a <stdio_put_string+0x3a>
10003196:	4804      	ldr	r0, [pc, #16]	@ (100031a8 <stdio_put_string+0xd8>)
10003198:	f000 faba 	bl	10003710 <__mutex_exit_veneer>
1000319c:	4628      	mov	r0, r5
1000319e:	b002      	add	sp, #8
100031a0:	e8bd 87f0 	ldmia.w	sp!, {r4, r5, r6, r7, r8, r9, sl, pc}
100031a4:	000f4240 	.word	0x000f4240
100031a8:	2000099c 	.word	0x2000099c
100031ac:	10002fc1 	.word	0x10002fc1
100031b0:	20000b7c 	.word	0x20000b7c
100031b4:	10002fb9 	.word	0x10002fb9
100031b8:	20000b80 	.word	0x20000b80

100031bc <stdio_set_driver_enabled>:
100031bc:	4a08      	ldr	r2, [pc, #32]	@ (100031e0 <stdio_set_driver_enabled+0x24>)
100031be:	6813      	ldr	r3, [r2, #0]
100031c0:	b923      	cbnz	r3, 100031cc <stdio_set_driver_enabled+0x10>
100031c2:	e00a      	b.n	100031da <stdio_set_driver_enabled+0x1e>
100031c4:	f103 0210 	add.w	r2, r3, #16
100031c8:	691b      	ldr	r3, [r3, #16]
100031ca:	b133      	cbz	r3, 100031da <stdio_set_driver_enabled+0x1e>
100031cc:	4283      	cmp	r3, r0
100031ce:	d1f9      	bne.n	100031c4 <stdio_set_driver_enabled+0x8>
100031d0:	b929      	cbnz	r1, 100031de <stdio_set_driver_enabled+0x22>
100031d2:	6918      	ldr	r0, [r3, #16]
100031d4:	6010      	str	r0, [r2, #0]
100031d6:	6119      	str	r1, [r3, #16]
100031d8:	4770      	bx	lr
100031da:	b101      	cbz	r1, 100031de <stdio_set_driver_enabled+0x22>
100031dc:	6010      	str	r0, [r2, #0]
100031de:	4770      	bx	lr
100031e0:	20000b7c 	.word	0x20000b7c

100031e4 <stdio_init_all>:
100031e4:	b508      	push	{r3, lr}
100031e6:	f000 f9a3 	bl	10003530 <stdio_uart_init>
100031ea:	2001      	movs	r0, #1
100031ec:	bd08      	pop	{r3, pc}
100031ee:	bf00      	nop

100031f0 <__wrap_putchar>:
100031f0:	b5f0      	push	{r4, r5, r6, r7, lr}
100031f2:	b083      	sub	sp, #12
100031f4:	4606      	mov	r6, r0
100031f6:	f88d 0007 	strb.w	r0, [sp, #7]
100031fa:	f7fd ff07 	bl	1000100c <time_us_64>
100031fe:	f04f 35ff 	mov.w	r5, #4294967295
10003202:	f06f 4400 	mvn.w	r4, #2147483648	@ 0x80000000
10003206:	4a17      	ldr	r2, [pc, #92]	@ (10003264 <__wrap_putchar+0x74>)
10003208:	1882      	adds	r2, r0, r2
1000320a:	f141 0300 	adc.w	r3, r1, #0
1000320e:	4295      	cmp	r5, r2
10003210:	eb74 0103 	sbcs.w	r1, r4, r3
10003214:	bf3c      	itt	cc
10003216:	4623      	movcc	r3, r4
10003218:	462a      	movcc	r2, r5
1000321a:	4813      	ldr	r0, [pc, #76]	@ (10003268 <__wrap_putchar+0x78>)
1000321c:	f000 fa7c 	bl	10003718 <__mutex_try_enter_block_until_veneer>
10003220:	4b12      	ldr	r3, [pc, #72]	@ (1000326c <__wrap_putchar+0x7c>)
10003222:	4607      	mov	r7, r0
10003224:	681c      	ldr	r4, [r3, #0]
10003226:	b19c      	cbz	r4, 10003250 <__wrap_putchar+0x60>
10003228:	4d11      	ldr	r5, [pc, #68]	@ (10003270 <__wrap_putchar+0x80>)
1000322a:	e001      	b.n	10003230 <__wrap_putchar+0x40>
1000322c:	6924      	ldr	r4, [r4, #16]
1000322e:	b17c      	cbz	r4, 10003250 <__wrap_putchar+0x60>
10003230:	6823      	ldr	r3, [r4, #0]
10003232:	2b00      	cmp	r3, #0
10003234:	d0fa      	beq.n	1000322c <__wrap_putchar+0x3c>
10003236:	682b      	ldr	r3, [r5, #0]
10003238:	b10b      	cbz	r3, 1000323e <__wrap_putchar+0x4e>
1000323a:	429c      	cmp	r4, r3
1000323c:	d1f6      	bne.n	1000322c <__wrap_putchar+0x3c>
1000323e:	4620      	mov	r0, r4
10003240:	2201      	movs	r2, #1
10003242:	f10d 0107 	add.w	r1, sp, #7
10003246:	f7ff febb 	bl	10002fc0 <stdio_out_chars_crlf>
1000324a:	6924      	ldr	r4, [r4, #16]
1000324c:	2c00      	cmp	r4, #0
1000324e:	d1ef      	bne.n	10003230 <__wrap_putchar+0x40>
10003250:	b917      	cbnz	r7, 10003258 <__wrap_putchar+0x68>
10003252:	4630      	mov	r0, r6
10003254:	b003      	add	sp, #12
10003256:	bdf0      	pop	{r4, r5, r6, r7, pc}
10003258:	4803      	ldr	r0, [pc, #12]	@ (10003268 <__wrap_putchar+0x78>)
1000325a:	f000 fa59 	bl	10003710 <__mutex_exit_veneer>
1000325e:	4630      	mov	r0, r6
10003260:	b003      	add	sp, #12
10003262:	bdf0      	pop	{r4, r5, r6, r7, pc}
10003264:	000f4240 	.word	0x000f4240
10003268:	2000099c 	.word	0x2000099c
1000326c:	20000b7c 	.word	0x20000b7c
10003270:	20000b80 	.word	0x20000b80

10003274 <__wrap_puts>:
10003274:	b538      	push	{r3, r4, r5, lr}
10003276:	4604      	mov	r4, r0
10003278:	f000 fa12 	bl	100036a0 <strlen>
1000327c:	2301      	movs	r3, #1
1000327e:	4605      	mov	r5, r0
10003280:	461a      	mov	r2, r3
10003282:	4620      	mov	r0, r4
10003284:	4629      	mov	r1, r5
10003286:	f7ff ff23 	bl	100030d0 <stdio_put_string>
1000328a:	4b08      	ldr	r3, [pc, #32]	@ (100032ac <__wrap_puts+0x38>)
1000328c:	681c      	ldr	r4, [r3, #0]
1000328e:	b12c      	cbz	r4, 1000329c <__wrap_puts+0x28>
10003290:	6863      	ldr	r3, [r4, #4]
10003292:	b12b      	cbz	r3, 100032a0 <__wrap_puts+0x2c>
10003294:	4798      	blx	r3
10003296:	6924      	ldr	r4, [r4, #16]
10003298:	2c00      	cmp	r4, #0
1000329a:	d1f9      	bne.n	10003290 <__wrap_puts+0x1c>
1000329c:	4628      	mov	r0, r5
1000329e:	bd38      	pop	{r3, r4, r5, pc}
100032a0:	6924      	ldr	r4, [r4, #16]
100032a2:	2c00      	cmp	r4, #0
100032a4:	d1f4      	bne.n	10003290 <__wrap_puts+0x1c>
100032a6:	4628      	mov	r0, r5
100032a8:	bd38      	pop	{r3, r4, r5, pc}
100032aa:	bf00      	nop
100032ac:	20000b7c 	.word	0x20000b7c

100032b0 <__wrap_vprintf>:
100032b0:	e92d 41f0 	stmdb	sp!, {r4, r5, r6, r7, r8, lr}
100032b4:	b0a2      	sub	sp, #136	@ 0x88
100032b6:	4604      	mov	r4, r0
100032b8:	460d      	mov	r5, r1
100032ba:	f7fd fea7 	bl	1000100c <time_us_64>
100032be:	f04f 37ff 	mov.w	r7, #4294967295
100032c2:	f06f 4600 	mvn.w	r6, #2147483648	@ 0x80000000
100032c6:	4a26      	ldr	r2, [pc, #152]	@ (10003360 <__wrap_vprintf+0xb0>)
100032c8:	f8df 80a4 	ldr.w	r8, [pc, #164]	@ 10003370 <__wrap_vprintf+0xc0>
100032cc:	1882      	adds	r2, r0, r2
100032ce:	f141 0300 	adc.w	r3, r1, #0
100032d2:	4297      	cmp	r7, r2
100032d4:	eb76 0103 	sbcs.w	r1, r6, r3
100032d8:	bf3c      	itt	cc
100032da:	463a      	movcc	r2, r7
100032dc:	4633      	movcc	r3, r6
100032de:	4821      	ldr	r0, [pc, #132]	@ (10003364 <__wrap_vprintf+0xb4>)
100032e0:	f000 fa1a 	bl	10003718 <__mutex_try_enter_block_until_veneer>
100032e4:	2700      	movs	r7, #0
100032e6:	462b      	mov	r3, r5
100032e8:	4622      	mov	r2, r4
100032ea:	4606      	mov	r6, r0
100032ec:	a901      	add	r1, sp, #4
100032ee:	481e      	ldr	r0, [pc, #120]	@ (10003368 <__wrap_vprintf+0xb8>)
100032f0:	9701      	str	r7, [sp, #4]
100032f2:	f7ff fe1d 	bl	10002f30 <vfctprintf>
100032f6:	9b01      	ldr	r3, [sp, #4]
100032f8:	4605      	mov	r5, r0
100032fa:	f8d8 4000 	ldr.w	r4, [r8]
100032fe:	b1c3      	cbz	r3, 10003332 <__wrap_vprintf+0x82>
10003300:	2c00      	cmp	r4, #0
10003302:	d02b      	beq.n	1000335c <__wrap_vprintf+0xac>
10003304:	4f19      	ldr	r7, [pc, #100]	@ (1000336c <__wrap_vprintf+0xbc>)
10003306:	e001      	b.n	1000330c <__wrap_vprintf+0x5c>
10003308:	6924      	ldr	r4, [r4, #16]
1000330a:	b174      	cbz	r4, 1000332a <__wrap_vprintf+0x7a>
1000330c:	6823      	ldr	r3, [r4, #0]
1000330e:	2b00      	cmp	r3, #0
10003310:	d0fa      	beq.n	10003308 <__wrap_vprintf+0x58>
10003312:	683b      	ldr	r3, [r7, #0]
10003314:	b10b      	cbz	r3, 1000331a <__wrap_vprintf+0x6a>
10003316:	42a3      	cmp	r3, r4
10003318:	d1f6      	bne.n	10003308 <__wrap_vprintf+0x58>
1000331a:	4620      	mov	r0, r4
1000331c:	9a01      	ldr	r2, [sp, #4]
1000331e:	a902      	add	r1, sp, #8
10003320:	f7ff fe4e 	bl	10002fc0 <stdio_out_chars_crlf>
10003324:	6924      	ldr	r4, [r4, #16]
10003326:	2c00      	cmp	r4, #0
10003328:	d1f0      	bne.n	1000330c <__wrap_vprintf+0x5c>
1000332a:	2300      	movs	r3, #0
1000332c:	f8d8 4000 	ldr.w	r4, [r8]
10003330:	9301      	str	r3, [sp, #4]
10003332:	b12c      	cbz	r4, 10003340 <__wrap_vprintf+0x90>
10003334:	6863      	ldr	r3, [r4, #4]
10003336:	b143      	cbz	r3, 1000334a <__wrap_vprintf+0x9a>
10003338:	4798      	blx	r3
1000333a:	6924      	ldr	r4, [r4, #16]
1000333c:	2c00      	cmp	r4, #0
1000333e:	d1f9      	bne.n	10003334 <__wrap_vprintf+0x84>
10003340:	b92e      	cbnz	r6, 1000334e <__wrap_vprintf+0x9e>
10003342:	4628      	mov	r0, r5
10003344:	b022      	add	sp, #136	@ 0x88
10003346:	e8bd 81f0 	ldmia.w	sp!, {r4, r5, r6, r7, r8, pc}
1000334a:	6924      	ldr	r4, [r4, #16]
1000334c:	e7f1      	b.n	10003332 <__wrap_vprintf+0x82>
1000334e:	4805      	ldr	r0, [pc, #20]	@ (10003364 <__wrap_vprintf+0xb4>)
10003350:	f000 f9de 	bl	10003710 <__mutex_exit_veneer>
10003354:	4628      	mov	r0, r5
10003356:	b022      	add	sp, #136	@ 0x88
10003358:	e8bd 81f0 	ldmia.w	sp!, {r4, r5, r6, r7, r8, pc}
1000335c:	9401      	str	r4, [sp, #4]
1000335e:	e7ef      	b.n	10003340 <__wrap_vprintf+0x90>
10003360:	000f4240 	.word	0x000f4240
10003364:	2000099c 	.word	0x2000099c
10003368:	10003071 	.word	0x10003071
1000336c:	20000b80 	.word	0x20000b80
10003370:	20000b7c 	.word	0x20000b7c

10003374 <__wrap_printf>:
10003374:	b40f      	push	{r0, r1, r2, r3}
10003376:	b500      	push	{lr}
10003378:	b083      	sub	sp, #12
1000337a:	a904      	add	r1, sp, #16
1000337c:	f851 0b04 	ldr.w	r0, [r1], #4
10003380:	9101      	str	r1, [sp, #4]
10003382:	f7ff ff95 	bl	100032b0 <__wrap_vprintf>
10003386:	b003      	add	sp, #12
10003388:	f85d eb04 	ldr.w	lr, [sp], #4
1000338c:	b004      	add	sp, #16
1000338e:	4770      	bx	lr

10003390 <stdio_uart_out_chars>:
10003390:	f1b1 0c00 	subs.w	ip, r1, #0
10003394:	dd1d      	ble.n	100033d2 <stdio_uart_out_chars+0x42>
10003396:	4a0f      	ldr	r2, [pc, #60]	@ (100033d4 <stdio_uart_out_chars+0x44>)
10003398:	4b0f      	ldr	r3, [pc, #60]	@ (100033d8 <stdio_uart_out_chars+0x48>)
1000339a:	6812      	ldr	r2, [r2, #0]
1000339c:	b530      	push	{r4, r5, lr}
1000339e:	1ad3      	subs	r3, r2, r3
100033a0:	fab3 f383 	clz	r3, r3
100033a4:	240d      	movs	r4, #13
100033a6:	4d0d      	ldr	r5, [pc, #52]	@ (100033dc <stdio_uart_out_chars+0x4c>)
100033a8:	095b      	lsrs	r3, r3, #5
100033aa:	1e41      	subs	r1, r0, #1
100033ac:	f935 e013 	ldrsh.w	lr, [r5, r3, lsl #1]
100033b0:	448c      	add	ip, r1
100033b2:	f811 0f01 	ldrb.w	r0, [r1, #1]!
100033b6:	4586      	cmp	lr, r0
100033b8:	d006      	beq.n	100033c8 <stdio_uart_out_chars+0x38>
100033ba:	6993      	ldr	r3, [r2, #24]
100033bc:	069b      	lsls	r3, r3, #26
100033be:	d4fc      	bmi.n	100033ba <stdio_uart_out_chars+0x2a>
100033c0:	4561      	cmp	r1, ip
100033c2:	6010      	str	r0, [r2, #0]
100033c4:	d1f5      	bne.n	100033b2 <stdio_uart_out_chars+0x22>
100033c6:	bd30      	pop	{r4, r5, pc}
100033c8:	6993      	ldr	r3, [r2, #24]
100033ca:	069d      	lsls	r5, r3, #26
100033cc:	d4fc      	bmi.n	100033c8 <stdio_uart_out_chars+0x38>
100033ce:	6014      	str	r4, [r2, #0]
100033d0:	e7f3      	b.n	100033ba <stdio_uart_out_chars+0x2a>
100033d2:	4770      	bx	lr
100033d4:	20000bc8 	.word	0x20000bc8
100033d8:	40078000 	.word	0x40078000
100033dc:	20000bc4 	.word	0x20000bc4

100033e0 <stdio_uart_in_chars>:
100033e0:	4b22      	ldr	r3, [pc, #136]	@ (1000346c <stdio_uart_in_chars+0x8c>)
100033e2:	f1b1 0c00 	subs.w	ip, r1, #0
100033e6:	b410      	push	{r4}
100033e8:	681c      	ldr	r4, [r3, #0]
100033ea:	dd2e      	ble.n	1000344a <stdio_uart_in_chars+0x6a>
100033ec:	4603      	mov	r3, r0
100033ee:	2000      	movs	r0, #0
100033f0:	4a1f      	ldr	r2, [pc, #124]	@ (10003470 <stdio_uart_in_chars+0x90>)
100033f2:	1e59      	subs	r1, r3, #1
100033f4:	6812      	ldr	r2, [r2, #0]
100033f6:	6993      	ldr	r3, [r2, #24]
100033f8:	06db      	lsls	r3, r3, #27
100033fa:	d417      	bmi.n	1000342c <stdio_uart_in_chars+0x4c>
100033fc:	3001      	adds	r0, #1
100033fe:	6993      	ldr	r3, [r2, #24]
10003400:	06db      	lsls	r3, r3, #27
10003402:	d4fc      	bmi.n	100033fe <stdio_uart_in_chars+0x1e>
10003404:	6813      	ldr	r3, [r2, #0]
10003406:	4584      	cmp	ip, r0
10003408:	f801 3f01 	strb.w	r3, [r1, #1]!
1000340c:	d1f3      	bne.n	100033f6 <stdio_uart_in_chars+0x16>
1000340e:	b14c      	cbz	r4, 10003424 <stdio_uart_in_chars+0x44>
10003410:	2150      	movs	r1, #80	@ 0x50
10003412:	4613      	mov	r3, r2
10003414:	6391      	str	r1, [r2, #56]	@ 0x38
10003416:	f853 2f34 	ldr.w	r2, [r3, #52]!
1000341a:	f002 0238 	and.w	r2, r2, #56	@ 0x38
1000341e:	f503 5380 	add.w	r3, r3, #4096	@ 0x1000
10003422:	601a      	str	r2, [r3, #0]
10003424:	4660      	mov	r0, ip
10003426:	f85d 4b04 	ldr.w	r4, [sp], #4
1000342a:	4770      	bx	lr
1000342c:	b14c      	cbz	r4, 10003442 <stdio_uart_in_chars+0x62>
1000342e:	2150      	movs	r1, #80	@ 0x50
10003430:	4613      	mov	r3, r2
10003432:	6391      	str	r1, [r2, #56]	@ 0x38
10003434:	f853 2f34 	ldr.w	r2, [r3, #52]!
10003438:	f002 0238 	and.w	r2, r2, #56	@ 0x38
1000343c:	f503 5380 	add.w	r3, r3, #4096	@ 0x1000
10003440:	601a      	str	r2, [r3, #0]
10003442:	b178      	cbz	r0, 10003464 <stdio_uart_in_chars+0x84>
10003444:	f85d 4b04 	ldr.w	r4, [sp], #4
10003448:	4770      	bx	lr
1000344a:	b15c      	cbz	r4, 10003464 <stdio_uart_in_chars+0x84>
1000344c:	4b08      	ldr	r3, [pc, #32]	@ (10003470 <stdio_uart_in_chars+0x90>)
1000344e:	2150      	movs	r1, #80	@ 0x50
10003450:	681a      	ldr	r2, [r3, #0]
10003452:	4613      	mov	r3, r2
10003454:	6391      	str	r1, [r2, #56]	@ 0x38
10003456:	f853 2f34 	ldr.w	r2, [r3, #52]!
1000345a:	f002 0238 	and.w	r2, r2, #56	@ 0x38
1000345e:	f503 5380 	add.w	r3, r3, #4096	@ 0x1000
10003462:	601a      	str	r2, [r3, #0]
10003464:	f06f 0002 	mvn.w	r0, #2
10003468:	e7dd      	b.n	10003426 <stdio_uart_in_chars+0x46>
1000346a:	bf00      	nop
1000346c:	20000b48 	.word	0x20000b48
10003470:	20000bc8 	.word	0x20000bc8

10003474 <on_uart_rx>:
10003474:	4b05      	ldr	r3, [pc, #20]	@ (1000348c <on_uart_rx+0x18>)
10003476:	681b      	ldr	r3, [r3, #0]
10003478:	b133      	cbz	r3, 10003488 <on_uart_rx+0x14>
1000347a:	2100      	movs	r1, #0
1000347c:	4a04      	ldr	r2, [pc, #16]	@ (10003490 <on_uart_rx+0x1c>)
1000347e:	4805      	ldr	r0, [pc, #20]	@ (10003494 <on_uart_rx+0x20>)
10003480:	6812      	ldr	r2, [r2, #0]
10003482:	6800      	ldr	r0, [r0, #0]
10003484:	6391      	str	r1, [r2, #56]	@ 0x38
10003486:	4718      	bx	r3
10003488:	4770      	bx	lr
1000348a:	bf00      	nop
1000348c:	20000b48 	.word	0x20000b48
10003490:	20000bc8 	.word	0x20000bc8
10003494:	20000b4c 	.word	0x20000b4c

10003498 <stdio_uart_out_flush>:
10003498:	4b02      	ldr	r3, [pc, #8]	@ (100034a4 <stdio_uart_out_flush+0xc>)
1000349a:	681a      	ldr	r2, [r3, #0]
1000349c:	6993      	ldr	r3, [r2, #24]
1000349e:	071b      	lsls	r3, r3, #28
100034a0:	d4fc      	bmi.n	1000349c <stdio_uart_out_flush+0x4>
100034a2:	4770      	bx	lr
100034a4:	20000bc8 	.word	0x20000bc8

100034a8 <stdio_uart_set_chars_available_callback>:
100034a8:	b5f8      	push	{r3, r4, r5, r6, r7, lr}
100034aa:	4f1c      	ldr	r7, [pc, #112]	@ (1000351c <stdio_uart_set_chars_available_callback+0x74>)
100034ac:	4d1c      	ldr	r5, [pc, #112]	@ (10003520 <stdio_uart_set_chars_available_callback+0x78>)
100034ae:	683a      	ldr	r2, [r7, #0]
100034b0:	4e1c      	ldr	r6, [pc, #112]	@ (10003524 <stdio_uart_set_chars_available_callback+0x7c>)
100034b2:	42aa      	cmp	r2, r5
100034b4:	bf14      	ite	ne
100034b6:	2521      	movne	r5, #33	@ 0x21
100034b8:	2522      	moveq	r5, #34	@ 0x22
100034ba:	4604      	mov	r4, r0
100034bc:	f8d6 c000 	ldr.w	ip, [r6]
100034c0:	b118      	cbz	r0, 100034ca <stdio_uart_set_chars_available_callback+0x22>
100034c2:	f1bc 0f00 	cmp.w	ip, #0
100034c6:	d010      	beq.n	100034ea <stdio_uart_set_chars_available_callback+0x42>
100034c8:	bdf8      	pop	{r3, r4, r5, r6, r7, pc}
100034ca:	f1bc 0f00 	cmp.w	ip, #0
100034ce:	d0fb      	beq.n	100034c8 <stdio_uart_set_chars_available_callback+0x20>
100034d0:	4601      	mov	r1, r0
100034d2:	6390      	str	r0, [r2, #56]	@ 0x38
100034d4:	4628      	mov	r0, r5
100034d6:	f7fd f821 	bl	1000051c <irq_set_enabled>
100034da:	4628      	mov	r0, r5
100034dc:	4912      	ldr	r1, [pc, #72]	@ (10003528 <stdio_uart_set_chars_available_callback+0x80>)
100034de:	f7fd f863 	bl	100005a8 <irq_remove_handler>
100034e2:	4b12      	ldr	r3, [pc, #72]	@ (1000352c <stdio_uart_set_chars_available_callback+0x84>)
100034e4:	6034      	str	r4, [r6, #0]
100034e6:	601c      	str	r4, [r3, #0]
100034e8:	bdf8      	pop	{r3, r4, r5, r6, r7, pc}
100034ea:	460b      	mov	r3, r1
100034ec:	4a0f      	ldr	r2, [pc, #60]	@ (1000352c <stdio_uart_set_chars_available_callback+0x84>)
100034ee:	490e      	ldr	r1, [pc, #56]	@ (10003528 <stdio_uart_set_chars_available_callback+0x80>)
100034f0:	6030      	str	r0, [r6, #0]
100034f2:	4628      	mov	r0, r5
100034f4:	6013      	str	r3, [r2, #0]
100034f6:	f7fd f827 	bl	10000548 <irq_set_exclusive_handler>
100034fa:	2101      	movs	r1, #1
100034fc:	4628      	mov	r0, r5
100034fe:	f7fd f80d 	bl	1000051c <irq_set_enabled>
10003502:	683a      	ldr	r2, [r7, #0]
10003504:	2150      	movs	r1, #80	@ 0x50
10003506:	4613      	mov	r3, r2
10003508:	6391      	str	r1, [r2, #56]	@ 0x38
1000350a:	f853 2f34 	ldr.w	r2, [r3, #52]!
1000350e:	f002 0238 	and.w	r2, r2, #56	@ 0x38
10003512:	f503 5380 	add.w	r3, r3, #4096	@ 0x1000
10003516:	601a      	str	r2, [r3, #0]
10003518:	bdf8      	pop	{r3, r4, r5, r6, r7, pc}
1000351a:	bf00      	nop
1000351c:	20000bc8 	.word	0x20000bc8
10003520:	40078000 	.word	0x40078000
10003524:	20000b48 	.word	0x20000b48
10003528:	10003475 	.word	0x10003475
1000352c:	20000b4c 	.word	0x20000b4c

10003530 <stdio_uart_init>:
10003530:	b510      	push	{r4, lr}
10003532:	490e      	ldr	r1, [pc, #56]	@ (1000356c <stdio_uart_init+0x3c>)
10003534:	4c0e      	ldr	r4, [pc, #56]	@ (10003570 <stdio_uart_init+0x40>)
10003536:	480f      	ldr	r0, [pc, #60]	@ (10003574 <stdio_uart_init+0x44>)
10003538:	4a0f      	ldr	r2, [pc, #60]	@ (10003578 <stdio_uart_init+0x48>)
1000353a:	4b10      	ldr	r3, [pc, #64]	@ (1000357c <stdio_uart_init+0x4c>)
1000353c:	7800      	ldrb	r0, [r0, #0]
1000353e:	6021      	str	r1, [r4, #0]
10003540:	2000      	movs	r0, #0
10003542:	2102      	movs	r1, #2
10003544:	7812      	ldrb	r2, [r2, #0]
10003546:	781b      	ldrb	r3, [r3, #0]
10003548:	f7fc ff22 	bl	10000390 <gpio_set_function>
1000354c:	2102      	movs	r1, #2
1000354e:	2001      	movs	r0, #1
10003550:	f7fc ff1e 	bl	10000390 <gpio_set_function>
10003554:	f44f 31e1 	mov.w	r1, #115200	@ 0x1c200
10003558:	6820      	ldr	r0, [r4, #0]
1000355a:	f7fd fda1 	bl	100010a0 <uart_init>
1000355e:	e8bd 4010 	ldmia.w	sp!, {r4, lr}
10003562:	2101      	movs	r1, #1
10003564:	4806      	ldr	r0, [pc, #24]	@ (10003580 <stdio_uart_init+0x50>)
10003566:	f7ff be29 	b.w	100031bc <stdio_set_driver_enabled>
1000356a:	bf00      	nop
1000356c:	40070000 	.word	0x40070000
10003570:	20000bc8 	.word	0x20000bc8
10003574:	10003988 	.word	0x10003988
10003578:	10003984 	.word	0x10003984
1000357c:	10003980 	.word	0x10003980
10003580:	20000984 	.word	0x20000984

10003584 <adc_init>:
10003584:	2301      	movs	r3, #1
10003586:	4807      	ldr	r0, [pc, #28]	@ (100035a4 <adc_init+0x20>)
10003588:	4907      	ldr	r1, [pc, #28]	@ (100035a8 <adc_init+0x24>)
1000358a:	4a08      	ldr	r2, [pc, #32]	@ (100035ac <adc_init+0x28>)
1000358c:	6003      	str	r3, [r0, #0]
1000358e:	600b      	str	r3, [r1, #0]
10003590:	6893      	ldr	r3, [r2, #8]
10003592:	07d9      	lsls	r1, r3, #31
10003594:	d5fc      	bpl.n	10003590 <adc_init+0xc>
10003596:	2301      	movs	r3, #1
10003598:	4a05      	ldr	r2, [pc, #20]	@ (100035b0 <adc_init+0x2c>)
1000359a:	6013      	str	r3, [r2, #0]
1000359c:	6813      	ldr	r3, [r2, #0]
1000359e:	05db      	lsls	r3, r3, #23
100035a0:	d5fc      	bpl.n	1000359c <adc_init+0x18>
100035a2:	4770      	bx	lr
100035a4:	40022000 	.word	0x40022000
100035a8:	40023000 	.word	0x40023000
100035ac:	40020000 	.word	0x40020000
100035b0:	400a0000 	.word	0x400a0000

100035b4 <memcpy>:
100035b4:	4684      	mov	ip, r0
100035b6:	ea41 0300 	orr.w	r3, r1, r0
100035ba:	f013 0303 	ands.w	r3, r3, #3
100035be:	d149      	bne.n	10003654 <memcpy+0xa0>
100035c0:	3a40      	subs	r2, #64	@ 0x40
100035c2:	d323      	bcc.n	1000360c <memcpy+0x58>
100035c4:	680b      	ldr	r3, [r1, #0]
100035c6:	6003      	str	r3, [r0, #0]
100035c8:	684b      	ldr	r3, [r1, #4]
100035ca:	6043      	str	r3, [r0, #4]
100035cc:	688b      	ldr	r3, [r1, #8]
100035ce:	6083      	str	r3, [r0, #8]
100035d0:	68cb      	ldr	r3, [r1, #12]
100035d2:	60c3      	str	r3, [r0, #12]
100035d4:	690b      	ldr	r3, [r1, #16]
100035d6:	6103      	str	r3, [r0, #16]
100035d8:	694b      	ldr	r3, [r1, #20]
100035da:	6143      	str	r3, [r0, #20]
100035dc:	698b      	ldr	r3, [r1, #24]
100035de:	6183      	str	r3, [r0, #24]
100035e0:	69cb      	ldr	r3, [r1, #28]
100035e2:	61c3      	str	r3, [r0, #28]
100035e4:	6a0b      	ldr	r3, [r1, #32]
100035e6:	6203      	str	r3, [r0, #32]
100035e8:	6a4b      	ldr	r3, [r1, #36]	@ 0x24
100035ea:	6243      	str	r3, [r0, #36]	@ 0x24
100035ec:	6a8b      	ldr	r3, [r1, #40]	@ 0x28
100035ee:	6283      	str	r3, [r0, #40]	@ 0x28
100035f0:	6acb      	ldr	r3, [r1, #44]	@ 0x2c
100035f2:	62c3      	str	r3, [r0, #44]	@ 0x2c
100035f4:	6b0b      	ldr	r3, [r1, #48]	@ 0x30
100035f6:	6303      	str	r3, [r0, #48]	@ 0x30
100035f8:	6b4b      	ldr	r3, [r1, #52]	@ 0x34
100035fa:	6343      	str	r3, [r0, #52]	@ 0x34
100035fc:	6b8b      	ldr	r3, [r1, #56]	@ 0x38
100035fe:	6383      	str	r3, [r0, #56]	@ 0x38
10003600:	6bcb      	ldr	r3, [r1, #60]	@ 0x3c
10003602:	63c3      	str	r3, [r0, #60]	@ 0x3c
10003604:	3040      	adds	r0, #64	@ 0x40
10003606:	3140      	adds	r1, #64	@ 0x40
10003608:	3a40      	subs	r2, #64	@ 0x40
1000360a:	d2db      	bcs.n	100035c4 <memcpy+0x10>
1000360c:	3230      	adds	r2, #48	@ 0x30
1000360e:	d30b      	bcc.n	10003628 <memcpy+0x74>
10003610:	680b      	ldr	r3, [r1, #0]
10003612:	6003      	str	r3, [r0, #0]
10003614:	684b      	ldr	r3, [r1, #4]
10003616:	6043      	str	r3, [r0, #4]
10003618:	688b      	ldr	r3, [r1, #8]
1000361a:	6083      	str	r3, [r0, #8]
1000361c:	68cb      	ldr	r3, [r1, #12]
1000361e:	60c3      	str	r3, [r0, #12]
10003620:	3010      	adds	r0, #16
10003622:	3110      	adds	r1, #16
10003624:	3a10      	subs	r2, #16
10003626:	d2f3      	bcs.n	10003610 <memcpy+0x5c>
10003628:	320c      	adds	r2, #12
1000362a:	d305      	bcc.n	10003638 <memcpy+0x84>
1000362c:	f851 3b04 	ldr.w	r3, [r1], #4
10003630:	f840 3b04 	str.w	r3, [r0], #4
10003634:	3a04      	subs	r2, #4
10003636:	d2f9      	bcs.n	1000362c <memcpy+0x78>
10003638:	3204      	adds	r2, #4
1000363a:	d008      	beq.n	1000364e <memcpy+0x9a>
1000363c:	07d2      	lsls	r2, r2, #31
1000363e:	bf1c      	itt	ne
10003640:	f811 3b01 	ldrbne.w	r3, [r1], #1
10003644:	f800 3b01 	strbne.w	r3, [r0], #1
10003648:	d301      	bcc.n	1000364e <memcpy+0x9a>
1000364a:	880b      	ldrh	r3, [r1, #0]
1000364c:	8003      	strh	r3, [r0, #0]
1000364e:	4660      	mov	r0, ip
10003650:	4770      	bx	lr
10003652:	bf00      	nop
10003654:	2a08      	cmp	r2, #8
10003656:	d313      	bcc.n	10003680 <memcpy+0xcc>
10003658:	078b      	lsls	r3, r1, #30
1000365a:	d0b1      	beq.n	100035c0 <memcpy+0xc>
1000365c:	f010 0303 	ands.w	r3, r0, #3
10003660:	d0ae      	beq.n	100035c0 <memcpy+0xc>
10003662:	f1c3 0304 	rsb	r3, r3, #4
10003666:	1ad2      	subs	r2, r2, r3
10003668:	07db      	lsls	r3, r3, #31
1000366a:	bf1c      	itt	ne
1000366c:	f811 3b01 	ldrbne.w	r3, [r1], #1
10003670:	f800 3b01 	strbne.w	r3, [r0], #1
10003674:	d3a4      	bcc.n	100035c0 <memcpy+0xc>
10003676:	f831 3b02 	ldrh.w	r3, [r1], #2
1000367a:	f820 3b02 	strh.w	r3, [r0], #2
1000367e:	e79f      	b.n	100035c0 <memcpy+0xc>
10003680:	3a04      	subs	r2, #4
10003682:	d3d9      	bcc.n	10003638 <memcpy+0x84>
10003684:	3a01      	subs	r2, #1
10003686:	f811 3b01 	ldrb.w	r3, [r1], #1
1000368a:	f800 3b01 	strb.w	r3, [r0], #1
1000368e:	d2f9      	bcs.n	10003684 <memcpy+0xd0>
10003690:	780b      	ldrb	r3, [r1, #0]
10003692:	7003      	strb	r3, [r0, #0]
10003694:	784b      	ldrb	r3, [r1, #1]
10003696:	7043      	strb	r3, [r0, #1]
10003698:	788b      	ldrb	r3, [r1, #2]
1000369a:	7083      	strb	r3, [r0, #2]
1000369c:	4660      	mov	r0, ip
1000369e:	4770      	bx	lr

100036a0 <strlen>:
100036a0:	f020 0103 	bic.w	r1, r0, #3
100036a4:	f010 0003 	ands.w	r0, r0, #3
100036a8:	f1c0 0000 	rsb	r0, r0, #0
100036ac:	f851 3b04 	ldr.w	r3, [r1], #4
100036b0:	f100 0c04 	add.w	ip, r0, #4
100036b4:	ea4f 0ccc 	mov.w	ip, ip, lsl #3
100036b8:	f06f 0200 	mvn.w	r2, #0
100036bc:	bf1c      	itt	ne
100036be:	fa22 f20c 	lsrne.w	r2, r2, ip
100036c2:	4313      	orrne	r3, r2
100036c4:	f04f 0c01 	mov.w	ip, #1
100036c8:	ea4c 2c0c 	orr.w	ip, ip, ip, lsl #8
100036cc:	ea4c 4c0c 	orr.w	ip, ip, ip, lsl #16
100036d0:	eba3 020c 	sub.w	r2, r3, ip
100036d4:	ea22 0203 	bic.w	r2, r2, r3
100036d8:	ea12 12cc 	ands.w	r2, r2, ip, lsl #7
100036dc:	bf04      	itt	eq
100036de:	f851 3b04 	ldreq.w	r3, [r1], #4
100036e2:	3004      	addeq	r0, #4
100036e4:	d0f4      	beq.n	100036d0 <strlen+0x30>
100036e6:	f1c2 0100 	rsb	r1, r2, #0
100036ea:	ea02 0201 	and.w	r2, r2, r1
100036ee:	fab2 f282 	clz	r2, r2
100036f2:	f1c2 021f 	rsb	r2, r2, #31
100036f6:	eb00 00d2 	add.w	r0, r0, r2, lsr #3
100036fa:	4770      	bx	lr

100036fc <_fini>:
100036fc:	b5f8      	push	{r3, r4, r5, r6, r7, lr}
100036fe:	bf00      	nop

10003700 <____aeabi_f2d_veneer>:
10003700:	f85f f000 	ldr.w	pc, [pc]	@ 10003704 <____aeabi_f2d_veneer+0x4>
10003704:	200004e9 	.word	0x200004e9

10003708 <____aeabi_uldivmod_veneer>:
10003708:	f85f f000 	ldr.w	pc, [pc]	@ 1000370c <____aeabi_uldivmod_veneer+0x4>
1000370c:	20000599 	.word	0x20000599

10003710 <__mutex_exit_veneer>:
10003710:	f85f f000 	ldr.w	pc, [pc]	@ 10003714 <__mutex_exit_veneer+0x4>
10003714:	200001e5 	.word	0x200001e5

10003718 <__mutex_try_enter_block_until_veneer>:
10003718:	f85f f000 	ldr.w	pc, [pc]	@ 1000371c <__mutex_try_enter_block_until_veneer+0x4>
1000371c:	2000017d 	.word	0x2000017d

10003720 <__pre_init_runtime_init_bootrom_reset>:
10003720:	10001459                                Y...

10003724 <__pre_init_runtime_init_early_resets>:
10003724:	100013cd                                ....

10003728 <__pre_init_runtime_init_usb_power_down>:
10003728:	10001401                                ....

1000372c <__pre_init_runtime_init_clocks>:
1000372c:	100014ed                                ....

10003730 <__pre_init_runtime_init_post_clock_resets>:
10003730:	10001439                                9...

10003734 <__pre_init_runtime_init_boot_locks_reset>:
10003734:	10001351                                Q...

10003738 <__pre_init_runtime_init_spin_locks_reset>:
10003738:	10001481                                ....

1000373c <__pre_init_runtime_init_bootrom_locking_enable>:
1000373c:	1000133d                                =...

10003740 <__pre_init_runtime_init_mutex>:
10003740:	10000865                                e...

10003744 <__pre_init_runtime_init_install_ram_vector_table>:
10003744:	10001485                                ....

10003748 <__pre_init_runtime_init_default_alarm_pool>:
10003748:	10000be1                                ....

1000374c <__pre_init_first_per_core_initializer>:
1000374c:	1000139d                                ....

10003750 <__pre_init_runtime_init_per_core_bootrom_reset>:
10003750:	1000146d                                m...

10003754 <__pre_init_runtime_init_per_core_enable_coprocessors>:
10003754:	1000141d                                ....

10003758 <__pre_init_spinlock_set_extexclall>:
10003758:	100004b5                                ....

1000375c <__pre_init_runtime_init_per_core_irq_priorities>:
1000375c:	100004dd                                ....

10003760 <__frame_dummy_init_array_entry>:
10003760:	10000211                                ....

Disassembly of section .data:

20000110 <mutex_enter_block_until>:
20000110:	f04f 4150 	mov.w	r1, #3489660928	@ 0xd0000000
20000114:	e92d 41f0 	stmdb	sp!, {r4, r5, r6, r7, r8, lr}
20000118:	2700      	movs	r7, #0
2000011a:	4604      	mov	r4, r0
2000011c:	4616      	mov	r6, r2
2000011e:	461d      	mov	r5, r3
20000120:	f8d1 8000 	ldr.w	r8, [r1]
20000124:	e008      	b.n	20000138 <mutex_enter_block_until+0x28>
20000126:	e8c1 7f8f 	stlb	r7, [r1]
2000012a:	f38c 8810 	msr	PRIMASK, ip
2000012e:	4630      	mov	r0, r6
20000130:	4629      	mov	r1, r5
20000132:	f000 fbf1 	bl	20000918 <__best_effort_wfe_or_timeout_veneer>
20000136:	b9e8      	cbnz	r0, 20000174 <mutex_enter_block_until+0x64>
20000138:	6821      	ldr	r1, [r4, #0]
2000013a:	f3ef 8c10 	mrs	ip, PRIMASK
2000013e:	b672      	cpsid	i
20000140:	e8d1 2fcf 	ldaexb	r2, [r1]
20000144:	2301      	movs	r3, #1
20000146:	2a00      	cmp	r2, #0
20000148:	d1fa      	bne.n	20000140 <mutex_enter_block_until+0x30>
2000014a:	e8c1 3f42 	strexb	r2, r3, [r1]
2000014e:	2a00      	cmp	r2, #0
20000150:	d1f6      	bne.n	20000140 <mutex_enter_block_until+0x30>
20000152:	f3bf 8f5f 	dmb	sy
20000156:	f994 3004 	ldrsb.w	r3, [r4, #4]
2000015a:	6821      	ldr	r1, [r4, #0]
2000015c:	2b00      	cmp	r3, #0
2000015e:	dae2      	bge.n	20000126 <mutex_enter_block_until+0x16>
20000160:	2300      	movs	r3, #0
20000162:	f884 8004 	strb.w	r8, [r4, #4]
20000166:	e8c1 3f8f 	stlb	r3, [r1]
2000016a:	f38c 8810 	msr	PRIMASK, ip
2000016e:	2001      	movs	r0, #1
20000170:	e8bd 81f0 	ldmia.w	sp!, {r4, r5, r6, r7, r8, pc}
20000174:	2000      	movs	r0, #0
20000176:	e8bd 81f0 	ldmia.w	sp!, {r4, r5, r6, r7, r8, pc}
2000017a:	bf00      	nop

2000017c <mutex_try_enter_block_until>:
2000017c:	b530      	push	{r4, r5, lr}
2000017e:	6804      	ldr	r4, [r0, #0]
20000180:	f3ef 8c10 	mrs	ip, PRIMASK
20000184:	b672      	cpsid	i
20000186:	e8d4 efcf 	ldaexb	lr, [r4]
2000018a:	2501      	movs	r5, #1
2000018c:	f1be 0f00 	cmp.w	lr, #0
20000190:	d1f9      	bne.n	20000186 <mutex_try_enter_block_until+0xa>
20000192:	e8c4 5f4e 	strexb	lr, r5, [r4]
20000196:	f1be 0f00 	cmp.w	lr, #0
2000019a:	d1f4      	bne.n	20000186 <mutex_try_enter_block_until+0xa>
2000019c:	f3bf 8f5f 	dmb	sy
200001a0:	f990 4004 	ldrsb.w	r4, [r0, #4]
200001a4:	6805      	ldr	r5, [r0, #0]
200001a6:	2c00      	cmp	r4, #0
200001a8:	db10      	blt.n	200001cc <mutex_try_enter_block_until+0x50>
200001aa:	2100      	movs	r1, #0
200001ac:	e8c5 1f8f 	stlb	r1, [r5]
200001b0:	f38c 8810 	msr	PRIMASK, ip
200001b4:	f04f 4550 	mov.w	r5, #3489660928	@ 0xd0000000
200001b8:	f995 5000 	ldrsb.w	r5, [r5]
200001bc:	42a5      	cmp	r5, r4
200001be:	d101      	bne.n	200001c4 <mutex_try_enter_block_until+0x48>
200001c0:	4608      	mov	r0, r1
200001c2:	bd30      	pop	{r4, r5, pc}
200001c4:	e8bd 4030 	ldmia.w	sp!, {r4, r5, lr}
200001c8:	f7ff bfa2 	b.w	20000110 <mutex_enter_block_until>
200001cc:	f04f 4250 	mov.w	r2, #3489660928	@ 0xd0000000
200001d0:	6812      	ldr	r2, [r2, #0]
200001d2:	2300      	movs	r3, #0
200001d4:	7102      	strb	r2, [r0, #4]
200001d6:	e8c5 3f8f 	stlb	r3, [r5]
200001da:	f38c 8810 	msr	PRIMASK, ip
200001de:	2001      	movs	r0, #1
200001e0:	bd30      	pop	{r4, r5, pc}
200001e2:	bf00      	nop

200001e4 <mutex_exit>:
200001e4:	6803      	ldr	r3, [r0, #0]
200001e6:	f3ef 8210 	mrs	r2, PRIMASK
200001ea:	b672      	cpsid	i
200001ec:	e8d3 cfcf 	ldaexb	ip, [r3]
200001f0:	2101      	movs	r1, #1
200001f2:	f1bc 0f00 	cmp.w	ip, #0
200001f6:	d1f9      	bne.n	200001ec <mutex_exit+0x8>
200001f8:	e8c3 1f4c 	strexb	ip, r1, [r3]
200001fc:	f1bc 0f00 	cmp.w	ip, #0
20000200:	d1f4      	bne.n	200001ec <mutex_exit+0x8>
20000202:	f3bf 8f5f 	dmb	sy
20000206:	f04f 0cff 	mov.w	ip, #255	@ 0xff
2000020a:	2300      	movs	r3, #0
2000020c:	6801      	ldr	r1, [r0, #0]
2000020e:	f880 c004 	strb.w	ip, [r0, #4]
20000212:	e8c1 3f8f 	stlb	r3, [r1]
20000216:	f382 8810 	msr	PRIMASK, r2
2000021a:	bf40      	sev
2000021c:	4770      	bx	lr
2000021e:	bf00      	nop

20000220 <__aeabi_drsub>:
20000220:	f081 4100 	eor.w	r1, r1, #2147483648	@ 0x80000000
20000224:	e002      	b.n	2000022c <__adddf3>
20000226:	bf00      	nop

20000228 <__aeabi_dsub>:
20000228:	f083 4300 	eor.w	r3, r3, #2147483648	@ 0x80000000

2000022c <__adddf3>:
2000022c:	b530      	push	{r4, r5, lr}
2000022e:	ea4f 0441 	mov.w	r4, r1, lsl #1
20000232:	ea4f 0543 	mov.w	r5, r3, lsl #1
20000236:	ea94 0f05 	teq	r4, r5
2000023a:	bf08      	it	eq
2000023c:	ea90 0f02 	teqeq	r0, r2
20000240:	bf1f      	itttt	ne
20000242:	ea54 0c00 	orrsne.w	ip, r4, r0
20000246:	ea55 0c02 	orrsne.w	ip, r5, r2
2000024a:	ea7f 5c64 	mvnsne.w	ip, r4, asr #21
2000024e:	ea7f 5c65 	mvnsne.w	ip, r5, asr #21
20000252:	f000 80e2 	beq.w	2000041a <__adddf3+0x1ee>
20000256:	ea4f 5454 	mov.w	r4, r4, lsr #21
2000025a:	ebd4 5555 	rsbs	r5, r4, r5, lsr #21
2000025e:	bfb8      	it	lt
20000260:	426d      	neglt	r5, r5
20000262:	dd0c      	ble.n	2000027e <__adddf3+0x52>
20000264:	442c      	add	r4, r5
20000266:	ea80 0202 	eor.w	r2, r0, r2
2000026a:	ea81 0303 	eor.w	r3, r1, r3
2000026e:	ea82 0000 	eor.w	r0, r2, r0
20000272:	ea83 0101 	eor.w	r1, r3, r1
20000276:	ea80 0202 	eor.w	r2, r0, r2
2000027a:	ea81 0303 	eor.w	r3, r1, r3
2000027e:	2d36      	cmp	r5, #54	@ 0x36
20000280:	bf88      	it	hi
20000282:	bd30      	pophi	{r4, r5, pc}
20000284:	f011 4f00 	tst.w	r1, #2147483648	@ 0x80000000
20000288:	ea4f 3101 	mov.w	r1, r1, lsl #12
2000028c:	f44f 1c80 	mov.w	ip, #1048576	@ 0x100000
20000290:	ea4c 3111 	orr.w	r1, ip, r1, lsr #12
20000294:	d002      	beq.n	2000029c <__adddf3+0x70>
20000296:	4240      	negs	r0, r0
20000298:	eb61 0141 	sbc.w	r1, r1, r1, lsl #1
2000029c:	f013 4f00 	tst.w	r3, #2147483648	@ 0x80000000
200002a0:	ea4f 3303 	mov.w	r3, r3, lsl #12
200002a4:	ea4c 3313 	orr.w	r3, ip, r3, lsr #12
200002a8:	d002      	beq.n	200002b0 <__adddf3+0x84>
200002aa:	4252      	negs	r2, r2
200002ac:	eb63 0343 	sbc.w	r3, r3, r3, lsl #1
200002b0:	ea94 0f05 	teq	r4, r5
200002b4:	f000 80a7 	beq.w	20000406 <__adddf3+0x1da>
200002b8:	f1a4 0401 	sub.w	r4, r4, #1
200002bc:	f1d5 0e20 	rsbs	lr, r5, #32
200002c0:	db0d      	blt.n	200002de <__adddf3+0xb2>
200002c2:	fa02 fc0e 	lsl.w	ip, r2, lr
200002c6:	fa22 f205 	lsr.w	r2, r2, r5
200002ca:	1880      	adds	r0, r0, r2
200002cc:	f141 0100 	adc.w	r1, r1, #0
200002d0:	fa03 f20e 	lsl.w	r2, r3, lr
200002d4:	1880      	adds	r0, r0, r2
200002d6:	fa43 f305 	asr.w	r3, r3, r5
200002da:	4159      	adcs	r1, r3
200002dc:	e00e      	b.n	200002fc <__adddf3+0xd0>
200002de:	f1a5 0520 	sub.w	r5, r5, #32
200002e2:	f10e 0e20 	add.w	lr, lr, #32
200002e6:	2a01      	cmp	r2, #1
200002e8:	fa03 fc0e 	lsl.w	ip, r3, lr
200002ec:	bf28      	it	cs
200002ee:	f04c 0c02 	orrcs.w	ip, ip, #2
200002f2:	fa43 f305 	asr.w	r3, r3, r5
200002f6:	18c0      	adds	r0, r0, r3
200002f8:	eb51 71e3 	adcs.w	r1, r1, r3, asr #31
200002fc:	f001 4500 	and.w	r5, r1, #2147483648	@ 0x80000000
20000300:	d507      	bpl.n	20000312 <__adddf3+0xe6>
20000302:	f04f 0e00 	mov.w	lr, #0
20000306:	f1dc 0c00 	rsbs	ip, ip, #0
2000030a:	eb7e 0000 	sbcs.w	r0, lr, r0
2000030e:	eb6e 0101 	sbc.w	r1, lr, r1
20000312:	f5b1 1f80 	cmp.w	r1, #1048576	@ 0x100000
20000316:	d31b      	bcc.n	20000350 <__adddf3+0x124>
20000318:	f5b1 1f00 	cmp.w	r1, #2097152	@ 0x200000
2000031c:	d30c      	bcc.n	20000338 <__adddf3+0x10c>
2000031e:	0849      	lsrs	r1, r1, #1
20000320:	ea5f 0030 	movs.w	r0, r0, rrx
20000324:	ea4f 0c3c 	mov.w	ip, ip, rrx
20000328:	f104 0401 	add.w	r4, r4, #1
2000032c:	ea4f 5244 	mov.w	r2, r4, lsl #21
20000330:	f512 0f80 	cmn.w	r2, #4194304	@ 0x400000
20000334:	f080 809a 	bcs.w	2000046c <__adddf3+0x240>
20000338:	f1bc 4f00 	cmp.w	ip, #2147483648	@ 0x80000000
2000033c:	bf08      	it	eq
2000033e:	ea5f 0c50 	movseq.w	ip, r0, lsr #1
20000342:	f150 0000 	adcs.w	r0, r0, #0
20000346:	eb41 5104 	adc.w	r1, r1, r4, lsl #20
2000034a:	ea41 0105 	orr.w	r1, r1, r5
2000034e:	bd30      	pop	{r4, r5, pc}
20000350:	ea5f 0c4c 	movs.w	ip, ip, lsl #1
20000354:	4140      	adcs	r0, r0
20000356:	eb41 0101 	adc.w	r1, r1, r1
2000035a:	3c01      	subs	r4, #1
2000035c:	bf28      	it	cs
2000035e:	f5b1 1f80 	cmpcs.w	r1, #1048576	@ 0x100000
20000362:	d2e9      	bcs.n	20000338 <__adddf3+0x10c>
20000364:	f091 0f00 	teq	r1, #0
20000368:	bf04      	itt	eq
2000036a:	4601      	moveq	r1, r0
2000036c:	2000      	moveq	r0, #0
2000036e:	fab1 f381 	clz	r3, r1
20000372:	bf08      	it	eq
20000374:	3320      	addeq	r3, #32
20000376:	f1a3 030b 	sub.w	r3, r3, #11
2000037a:	f1b3 0220 	subs.w	r2, r3, #32
2000037e:	da0c      	bge.n	2000039a <__adddf3+0x16e>
20000380:	320c      	adds	r2, #12
20000382:	dd08      	ble.n	20000396 <__adddf3+0x16a>
20000384:	f102 0c14 	add.w	ip, r2, #20
20000388:	f1c2 020c 	rsb	r2, r2, #12
2000038c:	fa01 f00c 	lsl.w	r0, r1, ip
20000390:	fa21 f102 	lsr.w	r1, r1, r2
20000394:	e00c      	b.n	200003b0 <__adddf3+0x184>
20000396:	f102 0214 	add.w	r2, r2, #20
2000039a:	bfd8      	it	le
2000039c:	f1c2 0c20 	rsble	ip, r2, #32
200003a0:	fa01 f102 	lsl.w	r1, r1, r2
200003a4:	fa20 fc0c 	lsr.w	ip, r0, ip
200003a8:	bfdc      	itt	le
200003aa:	ea41 010c 	orrle.w	r1, r1, ip
200003ae:	4090      	lslle	r0, r2
200003b0:	1ae4      	subs	r4, r4, r3
200003b2:	bfa2      	ittt	ge
200003b4:	eb01 5104 	addge.w	r1, r1, r4, lsl #20
200003b8:	4329      	orrge	r1, r5
200003ba:	bd30      	popge	{r4, r5, pc}
200003bc:	ea6f 0404 	mvn.w	r4, r4
200003c0:	3c1f      	subs	r4, #31
200003c2:	da1c      	bge.n	200003fe <__adddf3+0x1d2>
200003c4:	340c      	adds	r4, #12
200003c6:	dc0e      	bgt.n	200003e6 <__adddf3+0x1ba>
200003c8:	f104 0414 	add.w	r4, r4, #20
200003cc:	f1c4 0220 	rsb	r2, r4, #32
200003d0:	fa20 f004 	lsr.w	r0, r0, r4
200003d4:	fa01 f302 	lsl.w	r3, r1, r2
200003d8:	ea40 0003 	orr.w	r0, r0, r3
200003dc:	fa21 f304 	lsr.w	r3, r1, r4
200003e0:	ea45 0103 	orr.w	r1, r5, r3
200003e4:	bd30      	pop	{r4, r5, pc}
200003e6:	f1c4 040c 	rsb	r4, r4, #12
200003ea:	f1c4 0220 	rsb	r2, r4, #32
200003ee:	fa20 f002 	lsr.w	r0, r0, r2
200003f2:	fa01 f304 	lsl.w	r3, r1, r4
200003f6:	ea40 0003 	orr.w	r0, r0, r3
200003fa:	4629      	mov	r1, r5
200003fc:	bd30      	pop	{r4, r5, pc}
200003fe:	fa21 f004 	lsr.w	r0, r1, r4
20000402:	4629      	mov	r1, r5
20000404:	bd30      	pop	{r4, r5, pc}
20000406:	f094 0f00 	teq	r4, #0
2000040a:	f483 1380 	eor.w	r3, r3, #1048576	@ 0x100000
2000040e:	bf06      	itte	eq
20000410:	f481 1180 	eoreq.w	r1, r1, #1048576	@ 0x100000
20000414:	3401      	addeq	r4, #1
20000416:	3d01      	subne	r5, #1
20000418:	e74e      	b.n	200002b8 <__adddf3+0x8c>
2000041a:	ea7f 5c64 	mvns.w	ip, r4, asr #21
2000041e:	bf18      	it	ne
20000420:	ea7f 5c65 	mvnsne.w	ip, r5, asr #21
20000424:	d029      	beq.n	2000047a <__adddf3+0x24e>
20000426:	ea94 0f05 	teq	r4, r5
2000042a:	bf08      	it	eq
2000042c:	ea90 0f02 	teqeq	r0, r2
20000430:	d005      	beq.n	2000043e <__adddf3+0x212>
20000432:	ea54 0c00 	orrs.w	ip, r4, r0
20000436:	bf04      	itt	eq
20000438:	4619      	moveq	r1, r3
2000043a:	4610      	moveq	r0, r2
2000043c:	bd30      	pop	{r4, r5, pc}
2000043e:	ea91 0f03 	teq	r1, r3
20000442:	bf1e      	ittt	ne
20000444:	2100      	movne	r1, #0
20000446:	2000      	movne	r0, #0
20000448:	bd30      	popne	{r4, r5, pc}
2000044a:	ea5f 5c54 	movs.w	ip, r4, lsr #21
2000044e:	d105      	bne.n	2000045c <__adddf3+0x230>
20000450:	0040      	lsls	r0, r0, #1
20000452:	4149      	adcs	r1, r1
20000454:	bf28      	it	cs
20000456:	f041 4100 	orrcs.w	r1, r1, #2147483648	@ 0x80000000
2000045a:	bd30      	pop	{r4, r5, pc}
2000045c:	f514 0480 	adds.w	r4, r4, #4194304	@ 0x400000
20000460:	bf3c      	itt	cc
20000462:	f501 1180 	addcc.w	r1, r1, #1048576	@ 0x100000
20000466:	bd30      	popcc	{r4, r5, pc}
20000468:	f001 4500 	and.w	r5, r1, #2147483648	@ 0x80000000
2000046c:	f045 41fe 	orr.w	r1, r5, #2130706432	@ 0x7f000000
20000470:	f441 0170 	orr.w	r1, r1, #15728640	@ 0xf00000
20000474:	f04f 0000 	mov.w	r0, #0
20000478:	bd30      	pop	{r4, r5, pc}
2000047a:	ea7f 5c64 	mvns.w	ip, r4, asr #21
2000047e:	bf1a      	itte	ne
20000480:	4619      	movne	r1, r3
20000482:	4610      	movne	r0, r2
20000484:	ea7f 5c65 	mvnseq.w	ip, r5, asr #21
20000488:	bf1c      	itt	ne
2000048a:	460b      	movne	r3, r1
2000048c:	4602      	movne	r2, r0
2000048e:	ea50 3401 	orrs.w	r4, r0, r1, lsl #12
20000492:	bf06      	itte	eq
20000494:	ea52 3503 	orrseq.w	r5, r2, r3, lsl #12
20000498:	ea91 0f03 	teqeq	r1, r3
2000049c:	f441 2100 	orrne.w	r1, r1, #524288	@ 0x80000
200004a0:	bd30      	pop	{r4, r5, pc}
200004a2:	bf00      	nop

200004a4 <__aeabi_ui2d>:
200004a4:	f090 0f00 	teq	r0, #0
200004a8:	bf04      	itt	eq
200004aa:	2100      	moveq	r1, #0
200004ac:	4770      	bxeq	lr
200004ae:	b530      	push	{r4, r5, lr}
200004b0:	f44f 6480 	mov.w	r4, #1024	@ 0x400
200004b4:	f104 0432 	add.w	r4, r4, #50	@ 0x32
200004b8:	f04f 0500 	mov.w	r5, #0
200004bc:	f04f 0100 	mov.w	r1, #0
200004c0:	e750      	b.n	20000364 <__adddf3+0x138>
200004c2:	bf00      	nop

200004c4 <__aeabi_i2d>:
200004c4:	f090 0f00 	teq	r0, #0
200004c8:	bf04      	itt	eq
200004ca:	2100      	moveq	r1, #0
200004cc:	4770      	bxeq	lr
200004ce:	b530      	push	{r4, r5, lr}
200004d0:	f44f 6480 	mov.w	r4, #1024	@ 0x400
200004d4:	f104 0432 	add.w	r4, r4, #50	@ 0x32
200004d8:	f010 4500 	ands.w	r5, r0, #2147483648	@ 0x80000000
200004dc:	bf48      	it	mi
200004de:	4240      	negmi	r0, r0
200004e0:	f04f 0100 	mov.w	r1, #0
200004e4:	e73e      	b.n	20000364 <__adddf3+0x138>
200004e6:	bf00      	nop

200004e8 <__aeabi_f2d>:
200004e8:	0042      	lsls	r2, r0, #1
200004ea:	ea4f 01e2 	mov.w	r1, r2, asr #3
200004ee:	ea4f 0131 	mov.w	r1, r1, rrx
200004f2:	ea4f 7002 	mov.w	r0, r2, lsl #28
200004f6:	bf1f      	itttt	ne
200004f8:	f012 437f 	andsne.w	r3, r2, #4278190080	@ 0xff000000
200004fc:	f093 4f7f 	teqne	r3, #4278190080	@ 0xff000000
20000500:	f081 5160 	eorne.w	r1, r1, #939524096	@ 0x38000000
20000504:	4770      	bxne	lr
20000506:	f032 427f 	bics.w	r2, r2, #4278190080	@ 0xff000000
2000050a:	bf08      	it	eq
2000050c:	4770      	bxeq	lr
2000050e:	f093 4f7f 	teq	r3, #4278190080	@ 0xff000000
20000512:	bf04      	itt	eq
20000514:	f441 2100 	orreq.w	r1, r1, #524288	@ 0x80000
20000518:	4770      	bxeq	lr
2000051a:	b530      	push	{r4, r5, lr}
2000051c:	f44f 7460 	mov.w	r4, #896	@ 0x380
20000520:	f001 4500 	and.w	r5, r1, #2147483648	@ 0x80000000
20000524:	f021 4100 	bic.w	r1, r1, #2147483648	@ 0x80000000
20000528:	e71c      	b.n	20000364 <__adddf3+0x138>
2000052a:	bf00      	nop

2000052c <__aeabi_ul2d>:
2000052c:	ea50 0201 	orrs.w	r2, r0, r1
20000530:	bf08      	it	eq
20000532:	4770      	bxeq	lr
20000534:	b530      	push	{r4, r5, lr}
20000536:	f04f 0500 	mov.w	r5, #0
2000053a:	e00a      	b.n	20000552 <__aeabi_l2d+0x16>

2000053c <__aeabi_l2d>:
2000053c:	ea50 0201 	orrs.w	r2, r0, r1
20000540:	bf08      	it	eq
20000542:	4770      	bxeq	lr
20000544:	b530      	push	{r4, r5, lr}
20000546:	f011 4500 	ands.w	r5, r1, #2147483648	@ 0x80000000
2000054a:	d502      	bpl.n	20000552 <__aeabi_l2d+0x16>
2000054c:	4240      	negs	r0, r0
2000054e:	eb61 0141 	sbc.w	r1, r1, r1, lsl #1
20000552:	f44f 6480 	mov.w	r4, #1024	@ 0x400
20000556:	f104 0432 	add.w	r4, r4, #50	@ 0x32
2000055a:	ea5f 5c91 	movs.w	ip, r1, lsr #22
2000055e:	f43f aed8 	beq.w	20000312 <__adddf3+0xe6>
20000562:	f04f 0203 	mov.w	r2, #3
20000566:	ea5f 0cdc 	movs.w	ip, ip, lsr #3
2000056a:	bf18      	it	ne
2000056c:	3203      	addne	r2, #3
2000056e:	ea5f 0cdc 	movs.w	ip, ip, lsr #3
20000572:	bf18      	it	ne
20000574:	3203      	addne	r2, #3
20000576:	eb02 02dc 	add.w	r2, r2, ip, lsr #3
2000057a:	f1c2 0320 	rsb	r3, r2, #32
2000057e:	fa00 fc03 	lsl.w	ip, r0, r3
20000582:	fa20 f002 	lsr.w	r0, r0, r2
20000586:	fa01 fe03 	lsl.w	lr, r1, r3
2000058a:	ea40 000e 	orr.w	r0, r0, lr
2000058e:	fa21 f102 	lsr.w	r1, r1, r2
20000592:	4414      	add	r4, r2
20000594:	e6bd      	b.n	20000312 <__adddf3+0xe6>
20000596:	bf00      	nop

20000598 <__aeabi_uldivmod>:
20000598:	b953      	cbnz	r3, 200005b0 <__aeabi_uldivmod+0x18>
2000059a:	b94a      	cbnz	r2, 200005b0 <__aeabi_uldivmod+0x18>
2000059c:	2900      	cmp	r1, #0
2000059e:	bf08      	it	eq
200005a0:	2800      	cmpeq	r0, #0
200005a2:	bf1c      	itt	ne
200005a4:	f04f 31ff 	movne.w	r1, #4294967295
200005a8:	f04f 30ff 	movne.w	r0, #4294967295
200005ac:	f000 b9b2 	b.w	20000914 <__aeabi_idiv0>
200005b0:	f1ad 0c08 	sub.w	ip, sp, #8
200005b4:	e96d ce04 	strd	ip, lr, [sp, #-16]!
200005b8:	f000 f806 	bl	200005c8 <__udivmoddi4>
200005bc:	f8dd e004 	ldr.w	lr, [sp, #4]
200005c0:	e9dd 2302 	ldrd	r2, r3, [sp, #8]
200005c4:	b004      	add	sp, #16
200005c6:	4770      	bx	lr

200005c8 <__udivmoddi4>:
200005c8:	e92d 4ff0 	stmdb	sp!, {r4, r5, r6, r7, r8, r9, sl, fp, lr}
200005cc:	468c      	mov	ip, r1
200005ce:	9e09      	ldr	r6, [sp, #36]	@ 0x24
200005d0:	4604      	mov	r4, r0
200005d2:	460f      	mov	r7, r1
200005d4:	2b00      	cmp	r3, #0
200005d6:	d148      	bne.n	2000066a <__udivmoddi4+0xa2>
200005d8:	428a      	cmp	r2, r1
200005da:	4615      	mov	r5, r2
200005dc:	d95e      	bls.n	2000069c <__udivmoddi4+0xd4>
200005de:	fab2 f382 	clz	r3, r2
200005e2:	b13b      	cbz	r3, 200005f4 <__udivmoddi4+0x2c>
200005e4:	f1c3 0220 	rsb	r2, r3, #32
200005e8:	409f      	lsls	r7, r3
200005ea:	409d      	lsls	r5, r3
200005ec:	409c      	lsls	r4, r3
200005ee:	fa20 f202 	lsr.w	r2, r0, r2
200005f2:	4317      	orrs	r7, r2
200005f4:	ea4f 4e15 	mov.w	lr, r5, lsr #16
200005f8:	fa1f fc85 	uxth.w	ip, r5
200005fc:	0c22      	lsrs	r2, r4, #16
200005fe:	fbb7 f1fe 	udiv	r1, r7, lr
20000602:	fb0e 7711 	mls	r7, lr, r1, r7
20000606:	fb01 f00c 	mul.w	r0, r1, ip
2000060a:	ea42 4207 	orr.w	r2, r2, r7, lsl #16
2000060e:	4290      	cmp	r0, r2
20000610:	d907      	bls.n	20000622 <__udivmoddi4+0x5a>
20000612:	18aa      	adds	r2, r5, r2
20000614:	f101 37ff 	add.w	r7, r1, #4294967295
20000618:	d202      	bcs.n	20000620 <__udivmoddi4+0x58>
2000061a:	4290      	cmp	r0, r2
2000061c:	f200 8158 	bhi.w	200008d0 <__udivmoddi4+0x308>
20000620:	4639      	mov	r1, r7
20000622:	1a12      	subs	r2, r2, r0
20000624:	b2a4      	uxth	r4, r4
20000626:	fbb2 f0fe 	udiv	r0, r2, lr
2000062a:	fb0e 2210 	mls	r2, lr, r0, r2
2000062e:	fb00 fc0c 	mul.w	ip, r0, ip
20000632:	ea44 4402 	orr.w	r4, r4, r2, lsl #16
20000636:	45a4      	cmp	ip, r4
20000638:	d90b      	bls.n	20000652 <__udivmoddi4+0x8a>
2000063a:	192c      	adds	r4, r5, r4
2000063c:	f100 32ff 	add.w	r2, r0, #4294967295
20000640:	bf2c      	ite	cs
20000642:	2701      	movcs	r7, #1
20000644:	2700      	movcc	r7, #0
20000646:	45a4      	cmp	ip, r4
20000648:	d902      	bls.n	20000650 <__udivmoddi4+0x88>
2000064a:	2f00      	cmp	r7, #0
2000064c:	f000 8143 	beq.w	200008d6 <__udivmoddi4+0x30e>
20000650:	4610      	mov	r0, r2
20000652:	ea40 4001 	orr.w	r0, r0, r1, lsl #16
20000656:	eba4 040c 	sub.w	r4, r4, ip
2000065a:	2100      	movs	r1, #0
2000065c:	b11e      	cbz	r6, 20000666 <__udivmoddi4+0x9e>
2000065e:	40dc      	lsrs	r4, r3
20000660:	2300      	movs	r3, #0
20000662:	e9c6 4300 	strd	r4, r3, [r6]
20000666:	e8bd 8ff0 	ldmia.w	sp!, {r4, r5, r6, r7, r8, r9, sl, fp, pc}
2000066a:	428b      	cmp	r3, r1
2000066c:	d906      	bls.n	2000067c <__udivmoddi4+0xb4>
2000066e:	b10e      	cbz	r6, 20000674 <__udivmoddi4+0xac>
20000670:	e9c6 0100 	strd	r0, r1, [r6]
20000674:	2100      	movs	r1, #0
20000676:	4608      	mov	r0, r1
20000678:	e8bd 8ff0 	ldmia.w	sp!, {r4, r5, r6, r7, r8, r9, sl, fp, pc}
2000067c:	fab3 f183 	clz	r1, r3
20000680:	2900      	cmp	r1, #0
20000682:	d151      	bne.n	20000728 <__udivmoddi4+0x160>
20000684:	4563      	cmp	r3, ip
20000686:	f0c0 8116 	bcc.w	200008b6 <__udivmoddi4+0x2ee>
2000068a:	4282      	cmp	r2, r0
2000068c:	f240 8113 	bls.w	200008b6 <__udivmoddi4+0x2ee>
20000690:	4608      	mov	r0, r1
20000692:	2e00      	cmp	r6, #0
20000694:	d0e7      	beq.n	20000666 <__udivmoddi4+0x9e>
20000696:	e9c6 4700 	strd	r4, r7, [r6]
2000069a:	e7e4      	b.n	20000666 <__udivmoddi4+0x9e>
2000069c:	2a00      	cmp	r2, #0
2000069e:	f000 80af 	beq.w	20000800 <__udivmoddi4+0x238>
200006a2:	fab2 f382 	clz	r3, r2
200006a6:	2b00      	cmp	r3, #0
200006a8:	f040 80c2 	bne.w	20000830 <__udivmoddi4+0x268>
200006ac:	1a8a      	subs	r2, r1, r2
200006ae:	ea4f 4e15 	mov.w	lr, r5, lsr #16
200006b2:	b2af      	uxth	r7, r5
200006b4:	2101      	movs	r1, #1
200006b6:	0c20      	lsrs	r0, r4, #16
200006b8:	fbb2 fcfe 	udiv	ip, r2, lr
200006bc:	fb0e 221c 	mls	r2, lr, ip, r2
200006c0:	ea40 4202 	orr.w	r2, r0, r2, lsl #16
200006c4:	fb07 f00c 	mul.w	r0, r7, ip
200006c8:	4290      	cmp	r0, r2
200006ca:	d90e      	bls.n	200006ea <__udivmoddi4+0x122>
200006cc:	18aa      	adds	r2, r5, r2
200006ce:	f10c 38ff 	add.w	r8, ip, #4294967295
200006d2:	bf2c      	ite	cs
200006d4:	f04f 0901 	movcs.w	r9, #1
200006d8:	f04f 0900 	movcc.w	r9, #0
200006dc:	4290      	cmp	r0, r2
200006de:	d903      	bls.n	200006e8 <__udivmoddi4+0x120>
200006e0:	f1b9 0f00 	cmp.w	r9, #0
200006e4:	f000 80f0 	beq.w	200008c8 <__udivmoddi4+0x300>
200006e8:	46c4      	mov	ip, r8
200006ea:	1a12      	subs	r2, r2, r0
200006ec:	b2a4      	uxth	r4, r4
200006ee:	fbb2 f0fe 	udiv	r0, r2, lr
200006f2:	fb0e 2210 	mls	r2, lr, r0, r2
200006f6:	fb00 f707 	mul.w	r7, r0, r7
200006fa:	ea44 4402 	orr.w	r4, r4, r2, lsl #16
200006fe:	42a7      	cmp	r7, r4
20000700:	d90e      	bls.n	20000720 <__udivmoddi4+0x158>
20000702:	192c      	adds	r4, r5, r4
20000704:	f100 32ff 	add.w	r2, r0, #4294967295
20000708:	bf2c      	ite	cs
2000070a:	f04f 0e01 	movcs.w	lr, #1
2000070e:	f04f 0e00 	movcc.w	lr, #0
20000712:	42a7      	cmp	r7, r4
20000714:	d903      	bls.n	2000071e <__udivmoddi4+0x156>
20000716:	f1be 0f00 	cmp.w	lr, #0
2000071a:	f000 80d2 	beq.w	200008c2 <__udivmoddi4+0x2fa>
2000071e:	4610      	mov	r0, r2
20000720:	1be4      	subs	r4, r4, r7
20000722:	ea40 400c 	orr.w	r0, r0, ip, lsl #16
20000726:	e799      	b.n	2000065c <__udivmoddi4+0x94>
20000728:	f1c1 0520 	rsb	r5, r1, #32
2000072c:	408b      	lsls	r3, r1
2000072e:	fa0c f401 	lsl.w	r4, ip, r1
20000732:	fa00 f901 	lsl.w	r9, r0, r1
20000736:	fa22 f705 	lsr.w	r7, r2, r5
2000073a:	fa2c fc05 	lsr.w	ip, ip, r5
2000073e:	408a      	lsls	r2, r1
20000740:	431f      	orrs	r7, r3
20000742:	fa20 f305 	lsr.w	r3, r0, r5
20000746:	0c38      	lsrs	r0, r7, #16
20000748:	4323      	orrs	r3, r4
2000074a:	fa1f fe87 	uxth.w	lr, r7
2000074e:	0c1c      	lsrs	r4, r3, #16
20000750:	fbbc f8f0 	udiv	r8, ip, r0
20000754:	fb00 cc18 	mls	ip, r0, r8, ip
20000758:	ea44 440c 	orr.w	r4, r4, ip, lsl #16
2000075c:	fb08 fc0e 	mul.w	ip, r8, lr
20000760:	45a4      	cmp	ip, r4
20000762:	d90e      	bls.n	20000782 <__udivmoddi4+0x1ba>
20000764:	193c      	adds	r4, r7, r4
20000766:	f108 3aff 	add.w	sl, r8, #4294967295
2000076a:	bf2c      	ite	cs
2000076c:	f04f 0b01 	movcs.w	fp, #1
20000770:	f04f 0b00 	movcc.w	fp, #0
20000774:	45a4      	cmp	ip, r4
20000776:	d903      	bls.n	20000780 <__udivmoddi4+0x1b8>
20000778:	f1bb 0f00 	cmp.w	fp, #0
2000077c:	f000 80b8 	beq.w	200008f0 <__udivmoddi4+0x328>
20000780:	46d0      	mov	r8, sl
20000782:	eba4 040c 	sub.w	r4, r4, ip
20000786:	fa1f fc83 	uxth.w	ip, r3
2000078a:	fbb4 f3f0 	udiv	r3, r4, r0
2000078e:	fb00 4413 	mls	r4, r0, r3, r4
20000792:	fb03 fe0e 	mul.w	lr, r3, lr
20000796:	ea4c 4404 	orr.w	r4, ip, r4, lsl #16
2000079a:	45a6      	cmp	lr, r4
2000079c:	d90e      	bls.n	200007bc <__udivmoddi4+0x1f4>
2000079e:	193c      	adds	r4, r7, r4
200007a0:	f103 30ff 	add.w	r0, r3, #4294967295
200007a4:	bf2c      	ite	cs
200007a6:	f04f 0c01 	movcs.w	ip, #1
200007aa:	f04f 0c00 	movcc.w	ip, #0
200007ae:	45a6      	cmp	lr, r4
200007b0:	d903      	bls.n	200007ba <__udivmoddi4+0x1f2>
200007b2:	f1bc 0f00 	cmp.w	ip, #0
200007b6:	f000 809f 	beq.w	200008f8 <__udivmoddi4+0x330>
200007ba:	4603      	mov	r3, r0
200007bc:	ea43 4008 	orr.w	r0, r3, r8, lsl #16
200007c0:	eba4 040e 	sub.w	r4, r4, lr
200007c4:	fba0 ec02 	umull	lr, ip, r0, r2
200007c8:	4564      	cmp	r4, ip
200007ca:	4673      	mov	r3, lr
200007cc:	46e0      	mov	r8, ip
200007ce:	d302      	bcc.n	200007d6 <__udivmoddi4+0x20e>
200007d0:	d107      	bne.n	200007e2 <__udivmoddi4+0x21a>
200007d2:	45f1      	cmp	r9, lr
200007d4:	d205      	bcs.n	200007e2 <__udivmoddi4+0x21a>
200007d6:	ebbe 0302 	subs.w	r3, lr, r2
200007da:	eb6c 0c07 	sbc.w	ip, ip, r7
200007de:	3801      	subs	r0, #1
200007e0:	46e0      	mov	r8, ip
200007e2:	b15e      	cbz	r6, 200007fc <__udivmoddi4+0x234>
200007e4:	ebb9 0203 	subs.w	r2, r9, r3
200007e8:	eb64 0408 	sbc.w	r4, r4, r8
200007ec:	fa04 f505 	lsl.w	r5, r4, r5
200007f0:	fa22 f301 	lsr.w	r3, r2, r1
200007f4:	40cc      	lsrs	r4, r1
200007f6:	431d      	orrs	r5, r3
200007f8:	e9c6 5400 	strd	r5, r4, [r6]
200007fc:	2100      	movs	r1, #0
200007fe:	e732      	b.n	20000666 <__udivmoddi4+0x9e>
20000800:	0842      	lsrs	r2, r0, #1
20000802:	462f      	mov	r7, r5
20000804:	084b      	lsrs	r3, r1, #1
20000806:	46ac      	mov	ip, r5
20000808:	ea42 72c1 	orr.w	r2, r2, r1, lsl #31
2000080c:	46ae      	mov	lr, r5
2000080e:	07c4      	lsls	r4, r0, #31
20000810:	0c11      	lsrs	r1, r2, #16
20000812:	b292      	uxth	r2, r2
20000814:	ea41 4103 	orr.w	r1, r1, r3, lsl #16
20000818:	ea42 4201 	orr.w	r2, r2, r1, lsl #16
2000081c:	fbb1 f1f5 	udiv	r1, r1, r5
20000820:	fbb3 f0f5 	udiv	r0, r3, r5
20000824:	231f      	movs	r3, #31
20000826:	eba2 020c 	sub.w	r2, r2, ip
2000082a:	ea41 4100 	orr.w	r1, r1, r0, lsl #16
2000082e:	e742      	b.n	200006b6 <__udivmoddi4+0xee>
20000830:	409d      	lsls	r5, r3
20000832:	f1c3 0220 	rsb	r2, r3, #32
20000836:	4099      	lsls	r1, r3
20000838:	409c      	lsls	r4, r3
2000083a:	fa2c fc02 	lsr.w	ip, ip, r2
2000083e:	ea4f 4e15 	mov.w	lr, r5, lsr #16
20000842:	fa20 f202 	lsr.w	r2, r0, r2
20000846:	b2af      	uxth	r7, r5
20000848:	fbbc f8fe 	udiv	r8, ip, lr
2000084c:	430a      	orrs	r2, r1
2000084e:	fb0e cc18 	mls	ip, lr, r8, ip
20000852:	0c11      	lsrs	r1, r2, #16
20000854:	ea41 410c 	orr.w	r1, r1, ip, lsl #16
20000858:	fb08 fc07 	mul.w	ip, r8, r7
2000085c:	458c      	cmp	ip, r1
2000085e:	d950      	bls.n	20000902 <__udivmoddi4+0x33a>
20000860:	1869      	adds	r1, r5, r1
20000862:	f108 30ff 	add.w	r0, r8, #4294967295
20000866:	bf2c      	ite	cs
20000868:	f04f 0901 	movcs.w	r9, #1
2000086c:	f04f 0900 	movcc.w	r9, #0
20000870:	458c      	cmp	ip, r1
20000872:	d902      	bls.n	2000087a <__udivmoddi4+0x2b2>
20000874:	f1b9 0f00 	cmp.w	r9, #0
20000878:	d030      	beq.n	200008dc <__udivmoddi4+0x314>
2000087a:	eba1 010c 	sub.w	r1, r1, ip
2000087e:	fbb1 f8fe 	udiv	r8, r1, lr
20000882:	fb08 fc07 	mul.w	ip, r8, r7
20000886:	fb0e 1118 	mls	r1, lr, r8, r1
2000088a:	b292      	uxth	r2, r2
2000088c:	ea42 4201 	orr.w	r2, r2, r1, lsl #16
20000890:	4562      	cmp	r2, ip
20000892:	d234      	bcs.n	200008fe <__udivmoddi4+0x336>
20000894:	18aa      	adds	r2, r5, r2
20000896:	f108 31ff 	add.w	r1, r8, #4294967295
2000089a:	bf2c      	ite	cs
2000089c:	f04f 0901 	movcs.w	r9, #1
200008a0:	f04f 0900 	movcc.w	r9, #0
200008a4:	4562      	cmp	r2, ip
200008a6:	d2be      	bcs.n	20000826 <__udivmoddi4+0x25e>
200008a8:	f1b9 0f00 	cmp.w	r9, #0
200008ac:	d1bb      	bne.n	20000826 <__udivmoddi4+0x25e>
200008ae:	f1a8 0102 	sub.w	r1, r8, #2
200008b2:	442a      	add	r2, r5
200008b4:	e7b7      	b.n	20000826 <__udivmoddi4+0x25e>
200008b6:	1a84      	subs	r4, r0, r2
200008b8:	eb6c 0203 	sbc.w	r2, ip, r3
200008bc:	2001      	movs	r0, #1
200008be:	4617      	mov	r7, r2
200008c0:	e6e7      	b.n	20000692 <__udivmoddi4+0xca>
200008c2:	442c      	add	r4, r5
200008c4:	3802      	subs	r0, #2
200008c6:	e72b      	b.n	20000720 <__udivmoddi4+0x158>
200008c8:	f1ac 0c02 	sub.w	ip, ip, #2
200008cc:	442a      	add	r2, r5
200008ce:	e70c      	b.n	200006ea <__udivmoddi4+0x122>
200008d0:	3902      	subs	r1, #2
200008d2:	442a      	add	r2, r5
200008d4:	e6a5      	b.n	20000622 <__udivmoddi4+0x5a>
200008d6:	442c      	add	r4, r5
200008d8:	3802      	subs	r0, #2
200008da:	e6ba      	b.n	20000652 <__udivmoddi4+0x8a>
200008dc:	eba5 0c0c 	sub.w	ip, r5, ip
200008e0:	f1a8 0002 	sub.w	r0, r8, #2
200008e4:	4461      	add	r1, ip
200008e6:	fbb1 f8fe 	udiv	r8, r1, lr
200008ea:	fb08 fc07 	mul.w	ip, r8, r7
200008ee:	e7ca      	b.n	20000886 <__udivmoddi4+0x2be>
200008f0:	f1a8 0802 	sub.w	r8, r8, #2
200008f4:	443c      	add	r4, r7
200008f6:	e744      	b.n	20000782 <__udivmoddi4+0x1ba>
200008f8:	3b02      	subs	r3, #2
200008fa:	443c      	add	r4, r7
200008fc:	e75e      	b.n	200007bc <__udivmoddi4+0x1f4>
200008fe:	4641      	mov	r1, r8
20000900:	e791      	b.n	20000826 <__udivmoddi4+0x25e>
20000902:	eba1 010c 	sub.w	r1, r1, ip
20000906:	4640      	mov	r0, r8
20000908:	fbb1 f8fe 	udiv	r8, r1, lr
2000090c:	fb08 fc07 	mul.w	ip, r8, r7
20000910:	e7b9      	b.n	20000886 <__udivmoddi4+0x2be>
20000912:	bf00      	nop

20000914 <__aeabi_idiv0>:
20000914:	4770      	bx	lr
20000916:	bf00      	nop

20000918 <__best_effort_wfe_or_timeout_veneer>:
20000918:	f85f f000 	ldr.w	pc, [pc]	@ 2000091c <__best_effort_wfe_or_timeout_veneer+0x4>
2000091c:	10000f05 	.word	0x10000f05

20000920 <striped_spin_lock_num>:
20000920:	00000010                                ....

20000924 <irq_handler_chain_slots>:
20000924:	00000000 	.word	0x00000000
20000928:	00010000 	.word	0x00010000
	...
20000934:	00020000 	.word	0x00020000
	...
20000940:	00030000 	.word	0x00030000
	...
2000094c:	00ff0000 	.word	0x00ff0000
20000950:	00000000 	.word	0x00000000

20000954 <irq_handler_chain_first_slot>:
20000954:	b501      	push	{r0, lr}
20000956:	6848      	ldr	r0, [r1, #4]
20000958:	3101      	adds	r1, #1
2000095a:	468e      	mov	lr, r1
2000095c:	4700      	bx	r0

2000095e <irq_handler_chain_remove_tail>:
2000095e:	4670      	mov	r0, lr
20000960:	3809      	subs	r0, #9
20000962:	4901      	ldr	r1, [pc, #4]	@ (20000968 <irq_handler_chain_remove_tail+0xa>)
20000964:	4788      	blx	r1
20000966:	bd01      	pop	{r0, pc}
20000968:	1000079d 	.word	0x1000079d

2000096c <default_alarm_pool>:
	...
20000980:	200009a8                                ... 

20000984 <stdio_uart>:
20000984:	10003391 10003499 100033e1 100034a9     .3...4...3...4..
20000994:	00000000 00000100                       ........

2000099c <print_mutex>:
	...
