
C:/Users/assem.KEVINTHOMAS/OneDrive/Documents/Embedded-Hacking/drivers/0x07_i2c/build/0x07_i2c.elf:     file format elf32-littlearm

Sections:
Idx Name          Size      VMA       LMA       File off  Algn
  0 .text         0000386c  10000000  10000000  00001000  2**3
                  CONTENTS, ALLOC, LOAD, READONLY, CODE
  1 .rodata       00000248  10003870  10003870  00004870  2**3
                  CONTENTS, ALLOC, LOAD, READONLY, DATA
  2 .ARM.exidx    00000008  10003ab8  10003ab8  00004ab8  2**2
                  CONTENTS, ALLOC, LOAD, READONLY, DATA
  3 .binary_info  0000002c  10003ac0  10003ac0  00004ac0  2**2
                  CONTENTS, ALLOC, LOAD, READONLY, DATA
  4 .ram_vector_table 00000110  20000000  20000000  00007000  2**2
                  ALLOC
  5 .uninitialized_data 00000000  20000110  20000110  0000602c  2**0
                  CONTENTS
  6 .data         0000052c  20000110  10003aec  00005110  2**3
                  CONTENTS, ALLOC, LOAD, READONLY, CODE
  7 .tdata        00000000  2000063c  2000063c  0000602c  2**0
                  CONTENTS, ALLOC, LOAD, DATA, THREAD_LOCAL
  8 .tbss         00000000  2000063c  2000063c  00000000  2**0
                  ALLOC, THREAD_LOCAL
  9 .bss          00000228  20000640  10004018  00006640  2**3
                  ALLOC
 10 .heap         00000800  20000868  10004018  00006868  2**2
                  ALLOC, READONLY
 11 .scratch_x    00000000  20080000  20080000  0000602c  2**0
                  CONTENTS
 12 .scratch_y    00000000  20081000  20081000  0000602c  2**0
                  CONTENTS
 13 .stack_dummy  00000800  20081000  20081000  00007000  2**5
                  ALLOC, READONLY
 14 .flash_end    00000014  10004018  10004018  00006018  2**2
                  CONTENTS, ALLOC, LOAD, READONLY, DATA
 15 .ARM.attributes 00000034  00000000  00000000  0000602c  2**0
                  CONTENTS, READONLY
 16 .comment      00000045  00000000  00000000  00006060  2**0
                  CONTENTS, READONLY
 17 .debug_info   00022de9  00000000  00000000  000060a5  2**0
                  CONTENTS, READONLY, DEBUGGING, OCTETS
 18 .debug_abbrev 00005d03  00000000  00000000  00028e8e  2**0
                  CONTENTS, READONLY, DEBUGGING, OCTETS
 19 .debug_aranges 00000cb0  00000000  00000000  0002eb98  2**3
                  CONTENTS, READONLY, DEBUGGING, OCTETS
 20 .debug_rnglists 0000326d  00000000  00000000  0002f848  2**0
                  CONTENTS, READONLY, DEBUGGING, OCTETS
 21 .debug_line   00017bef  00000000  00000000  00032ab5  2**0
                  CONTENTS, READONLY, DEBUGGING, OCTETS
 22 .debug_str    00005d95  00000000  00000000  0004a6a4  2**0
                  CONTENTS, READONLY, DEBUGGING, OCTETS
 23 .debug_frame  000021ec  00000000  00000000  0005043c  2**2
                  CONTENTS, READONLY, DEBUGGING, OCTETS
 24 .debug_loclists 00011113  00000000  00000000  00052628  2**0
                  CONTENTS, READONLY, DEBUGGING, OCTETS
 25 .debug_line_str 000002c6  00000000  00000000  0006373b  2**0
                  CONTENTS, READONLY, DEBUGGING, OCTETS

C:/Users/assem.KEVINTHOMAS/OneDrive/Documents/Embedded-Hacking/drivers/0x07_i2c/build/0x07_i2c.elf:     file format elf32-littlearm


Disassembly of section .text:

10000000 <__VECTOR_TABLE>:
10000000:	20082000 	.word	0x20082000
10000004:	1000015d 	.word	0x1000015d
10000008:	1000011b 	.word	0x1000011b
1000000c:	1000011d 	.word	0x1000011d
10000010:	10000111 	.word	0x10000111
10000014:	10000111 	.word	0x10000111
10000018:	10000111 	.word	0x10000111
1000001c:	10000111 	.word	0x10000111
10000020:	10000119 	.word	0x10000119
10000024:	10000119 	.word	0x10000119
10000028:	10000119 	.word	0x10000119
1000002c:	1000011f 	.word	0x1000011f
10000030:	10000111 	.word	0x10000111
10000034:	10000119 	.word	0x10000119
10000038:	10000121 	.word	0x10000121
1000003c:	10000123 	.word	0x10000123
10000040:	10000111 	.word	0x10000111
10000044:	10000111 	.word	0x10000111
10000048:	10000111 	.word	0x10000111
1000004c:	10000111 	.word	0x10000111
10000050:	10000111 	.word	0x10000111
10000054:	10000111 	.word	0x10000111
10000058:	10000111 	.word	0x10000111
1000005c:	10000111 	.word	0x10000111
10000060:	10000111 	.word	0x10000111
10000064:	10000111 	.word	0x10000111
10000068:	10000111 	.word	0x10000111
1000006c:	10000111 	.word	0x10000111
10000070:	10000111 	.word	0x10000111
10000074:	10000111 	.word	0x10000111
10000078:	10000111 	.word	0x10000111
1000007c:	10000111 	.word	0x10000111
10000080:	10000111 	.word	0x10000111
10000084:	10000111 	.word	0x10000111
10000088:	10000111 	.word	0x10000111
1000008c:	10000111 	.word	0x10000111
10000090:	10000111 	.word	0x10000111
10000094:	10000111 	.word	0x10000111
10000098:	10000111 	.word	0x10000111
1000009c:	10000111 	.word	0x10000111
100000a0:	10000111 	.word	0x10000111
100000a4:	10000111 	.word	0x10000111
100000a8:	10000111 	.word	0x10000111
100000ac:	10000111 	.word	0x10000111
100000b0:	10000111 	.word	0x10000111
100000b4:	10000111 	.word	0x10000111
100000b8:	10000111 	.word	0x10000111
100000bc:	10000111 	.word	0x10000111
100000c0:	10000111 	.word	0x10000111
100000c4:	10000111 	.word	0x10000111
100000c8:	10000111 	.word	0x10000111
100000cc:	10000111 	.word	0x10000111
100000d0:	10000111 	.word	0x10000111
100000d4:	10000111 	.word	0x10000111
100000d8:	10000111 	.word	0x10000111
100000dc:	10000111 	.word	0x10000111
100000e0:	10000111 	.word	0x10000111
100000e4:	10000111 	.word	0x10000111
100000e8:	10000111 	.word	0x10000111
100000ec:	10000111 	.word	0x10000111
100000f0:	10000111 	.word	0x10000111
100000f4:	10000111 	.word	0x10000111
100000f8:	10000111 	.word	0x10000111
100000fc:	10000111 	.word	0x10000111
10000100:	10000111 	.word	0x10000111
10000104:	10000111 	.word	0x10000111
10000108:	10000111 	.word	0x10000111
1000010c:	10000111 	.word	0x10000111

10000110 <__unhandled_user_irq>:
10000110:	f3ef 8005 	mrs	r0, IPSR
10000114:	3810      	subs	r0, #16

10000116 <unhandled_user_irq_num_in_r0>:
10000116:	be00      	bkpt	0x0000

10000118 <isr_invalid>:
10000118:	be00      	bkpt	0x0000

1000011a <isr_nmi>:
1000011a:	be00      	bkpt	0x0000

1000011c <isr_hardfault>:
1000011c:	be00      	bkpt	0x0000

1000011e <isr_svcall>:
1000011e:	be00      	bkpt	0x0000

10000120 <isr_pendsv>:
10000120:	be00      	bkpt	0x0000

10000122 <isr_systick>:
10000122:	be00      	bkpt	0x0000

10000124 <__default_isrs_end>:
10000124:	7188ebf2 	.word	0x7188ebf2
10000128:	10003ac0 	.word	0x10003ac0
1000012c:	10003aec 	.word	0x10003aec
10000130:	100001a0 	.word	0x100001a0
10000134:	e71aa390 	.word	0xe71aa390

10000138 <__binary_info_header_end>:
10000138:	ffffded3 	.word	0xffffded3
1000013c:	10210142 	.word	0x10210142
10000140:	000001ff 	.word	0x000001ff
10000144:	00003ee0 	.word	0x00003ee0
10000148:	ab123579 	.word	0xab123579

1000014c <_entry_point>:
1000014c:	f04f 0000 	mov.w	r0, #0

10000150 <_enter_vtable_in_r0>:
10000150:	491e      	ldr	r1, [pc, #120]	@ (100001cc <data_cpy_table+0x2c>)
10000152:	6008      	str	r0, [r1, #0]
10000154:	c806      	ldmia	r0!, {r1, r2}
10000156:	f381 8808 	msr	MSP, r1
1000015a:	4710      	bx	r2

1000015c <_reset_handler>:
1000015c:	f04f 4050 	mov.w	r0, #3489660928	@ 0xd0000000
10000160:	6800      	ldr	r0, [r0, #0]
10000162:	b110      	cbz	r0, 1000016a <hold_non_core0_in_bootrom+0x6>

10000164 <hold_non_core0_in_bootrom>:
10000164:	f04f 0000 	mov.w	r0, #0
10000168:	e7f2      	b.n	10000150 <_enter_vtable_in_r0>
1000016a:	a40d      	add	r4, pc, #52	@ (adr r4, 100001a0 <data_cpy_table>)
1000016c:	cc0e      	ldmia	r4!, {r1, r2, r3}
1000016e:	2900      	cmp	r1, #0
10000170:	d002      	beq.n	10000178 <hold_non_core0_in_bootrom+0x14>
10000172:	f000 f812 	bl	1000019a <data_cpy>
10000176:	e7f9      	b.n	1000016c <hold_non_core0_in_bootrom+0x8>
10000178:	4915      	ldr	r1, [pc, #84]	@ (100001d0 <data_cpy_table+0x30>)
1000017a:	4a16      	ldr	r2, [pc, #88]	@ (100001d4 <data_cpy_table+0x34>)
1000017c:	2000      	movs	r0, #0
1000017e:	e000      	b.n	10000182 <bss_fill_test>

10000180 <bss_fill_loop>:
10000180:	c101      	stmia	r1!, {r0}

10000182 <bss_fill_test>:
10000182:	4291      	cmp	r1, r2
10000184:	d1fc      	bne.n	10000180 <bss_fill_loop>

10000186 <platform_entry>:
10000186:	4914      	ldr	r1, [pc, #80]	@ (100001d8 <data_cpy_table+0x38>)
10000188:	4788      	blx	r1
1000018a:	4914      	ldr	r1, [pc, #80]	@ (100001dc <data_cpy_table+0x3c>)
1000018c:	4788      	blx	r1
1000018e:	4914      	ldr	r1, [pc, #80]	@ (100001e0 <data_cpy_table+0x40>)
10000190:	4788      	blx	r1
10000192:	be00      	bkpt	0x0000
10000194:	e7fd      	b.n	10000192 <platform_entry+0xc>

10000196 <data_cpy_loop>:
10000196:	c901      	ldmia	r1!, {r0}
10000198:	c201      	stmia	r2!, {r0}

1000019a <data_cpy>:
1000019a:	429a      	cmp	r2, r3
1000019c:	d3fb      	bcc.n	10000196 <data_cpy_loop>
1000019e:	4770      	bx	lr

100001a0 <data_cpy_table>:
100001a0:	10003aec 	.word	0x10003aec
100001a4:	20000110 	.word	0x20000110
100001a8:	2000063c 	.word	0x2000063c
100001ac:	10004018 	.word	0x10004018
100001b0:	20080000 	.word	0x20080000
100001b4:	20080000 	.word	0x20080000
100001b8:	10004018 	.word	0x10004018
100001bc:	20081000 	.word	0x20081000
100001c0:	20081000 	.word	0x20081000
100001c4:	00000000 	.word	0x00000000
100001c8:	4770      	bx	lr
100001ca:	0000      	.short	0x0000
100001cc:	e000ed08 	.word	0xe000ed08
100001d0:	2000063c 	.word	0x2000063c
100001d4:	20000868 	.word	0x20000868
100001d8:	10002f65 	.word	0x10002f65
100001dc:	10000235 	.word	0x10000235
100001e0:	10002f5d 	.word	0x10002f5d

100001e4 <_init>:
100001e4:	b5f8      	push	{r3, r4, r5, r6, r7, lr}
100001e6:	bf00      	nop

100001e8 <register_tm_clones>:
100001e8:	4b06      	ldr	r3, [pc, #24]	@ (10000204 <register_tm_clones+0x1c>)
100001ea:	4907      	ldr	r1, [pc, #28]	@ (10000208 <register_tm_clones+0x20>)
100001ec:	1ac9      	subs	r1, r1, r3
100001ee:	1089      	asrs	r1, r1, #2
100001f0:	bf48      	it	mi
100001f2:	3101      	addmi	r1, #1
100001f4:	1049      	asrs	r1, r1, #1
100001f6:	d003      	beq.n	10000200 <register_tm_clones+0x18>
100001f8:	4b04      	ldr	r3, [pc, #16]	@ (1000020c <register_tm_clones+0x24>)
100001fa:	b10b      	cbz	r3, 10000200 <register_tm_clones+0x18>
100001fc:	4801      	ldr	r0, [pc, #4]	@ (10000204 <register_tm_clones+0x1c>)
100001fe:	4718      	bx	r3
10000200:	4770      	bx	lr
10000202:	bf00      	nop
10000204:	2000063c 	.word	0x2000063c
10000208:	2000063c 	.word	0x2000063c
1000020c:	00000000 	.word	0x00000000

10000210 <frame_dummy>:
10000210:	b508      	push	{r3, lr}
10000212:	4b05      	ldr	r3, [pc, #20]	@ (10000228 <frame_dummy+0x18>)
10000214:	b11b      	cbz	r3, 1000021e <frame_dummy+0xe>
10000216:	4905      	ldr	r1, [pc, #20]	@ (1000022c <frame_dummy+0x1c>)
10000218:	4805      	ldr	r0, [pc, #20]	@ (10000230 <frame_dummy+0x20>)
1000021a:	f3af 8000 	nop.w
1000021e:	e8bd 4008 	ldmia.w	sp!, {r3, lr}
10000222:	f7ff bfe1 	b.w	100001e8 <register_tm_clones>
10000226:	bf00      	nop
10000228:	00000000 	.word	0x00000000
1000022c:	20000820 	.word	0x20000820
10000230:	1000386c 	.word	0x1000386c

10000234 <main>:
10000234:	b500      	push	{lr}
10000236:	b083      	sub	sp, #12
10000238:	f002 ffbc 	bl	100031b4 <stdio_init_all>
1000023c:	2203      	movs	r2, #3
1000023e:	2102      	movs	r1, #2
10000240:	2001      	movs	r0, #1
10000242:	4b0a      	ldr	r3, [pc, #40]	@ (1000026c <main+0x38>)
10000244:	f000 f816 	bl	10000274 <i2c_driver_init>
10000248:	f04f 0c03 	mov.w	ip, #3
1000024c:	2302      	movs	r3, #2
1000024e:	2101      	movs	r1, #1
10000250:	4a06      	ldr	r2, [pc, #24]	@ (1000026c <main+0x38>)
10000252:	4807      	ldr	r0, [pc, #28]	@ (10000270 <main+0x3c>)
10000254:	f8cd c000 	str.w	ip, [sp]
10000258:	f003 f874 	bl	10003344 <__wrap_printf>
1000025c:	2001      	movs	r0, #1
1000025e:	f000 f82b 	bl	100002b8 <i2c_driver_scan>
10000262:	f241 3088 	movw	r0, #5000	@ 0x1388
10000266:	f000 fdc7 	bl	10000df8 <sleep_ms>
1000026a:	e7f7      	b.n	1000025c <main+0x28>
1000026c:	000186a0 	.word	0x000186a0
10000270:	10003870 	.word	0x10003870

10000274 <i2c_driver_init>:
10000274:	b538      	push	{r3, r4, r5, lr}
10000276:	460d      	mov	r5, r1
10000278:	4614      	mov	r4, r2
1000027a:	4619      	mov	r1, r3
1000027c:	b9b0      	cbnz	r0, 100002ac <i2c_driver_init+0x38>
1000027e:	480c      	ldr	r0, [pc, #48]	@ (100002b0 <i2c_driver_init+0x3c>)
10000280:	f003 f9f2 	bl	10003668 <i2c_init>
10000284:	4628      	mov	r0, r5
10000286:	2103      	movs	r1, #3
10000288:	f000 f87a 	bl	10000380 <gpio_set_function>
1000028c:	4620      	mov	r0, r4
1000028e:	2103      	movs	r1, #3
10000290:	f000 f876 	bl	10000380 <gpio_set_function>
10000294:	4628      	mov	r0, r5
10000296:	2200      	movs	r2, #0
10000298:	2101      	movs	r1, #1
1000029a:	f000 f88f 	bl	100003bc <gpio_set_pulls>
1000029e:	4620      	mov	r0, r4
100002a0:	e8bd 4038 	ldmia.w	sp!, {r3, r4, r5, lr}
100002a4:	2200      	movs	r2, #0
100002a6:	2101      	movs	r1, #1
100002a8:	f000 b888 	b.w	100003bc <gpio_set_pulls>
100002ac:	4801      	ldr	r0, [pc, #4]	@ (100002b4 <i2c_driver_init+0x40>)
100002ae:	e7e7      	b.n	10000280 <i2c_driver_init+0xc>
100002b0:	2000062c 	.word	0x2000062c
100002b4:	20000624 	.word	0x20000624

100002b8 <i2c_driver_scan>:
100002b8:	e92d 41f0 	stmdb	sp!, {r4, r5, r6, r7, r8, lr}
100002bc:	4606      	mov	r6, r0
100002be:	2400      	movs	r4, #0
100002c0:	b084      	sub	sp, #16
100002c2:	4826      	ldr	r0, [pc, #152]	@ (1000035c <i2c_driver_scan+0xa4>)
100002c4:	f002 ffbe 	bl	10003244 <__wrap_puts>
100002c8:	4825      	ldr	r0, [pc, #148]	@ (10000360 <i2c_driver_scan+0xa8>)
100002ca:	f002 ffbb 	bl	10003244 <__wrap_puts>
100002ce:	4a25      	ldr	r2, [pc, #148]	@ (10000364 <i2c_driver_scan+0xac>)
100002d0:	4b25      	ldr	r3, [pc, #148]	@ (10000368 <i2c_driver_scan+0xb0>)
100002d2:	25f8      	movs	r5, #248	@ 0xf8
100002d4:	42a6      	cmp	r6, r4
100002d6:	bf0c      	ite	eq
100002d8:	4690      	moveq	r8, r2
100002da:	4698      	movne	r8, r3
100002dc:	e019      	b.n	10000312 <i2c_driver_scan+0x5a>
100002de:	2d6f      	cmp	r5, #111	@ 0x6f
100002e0:	d838      	bhi.n	10000354 <i2c_driver_scan+0x9c>
100002e2:	f04f 0c00 	mov.w	ip, #0
100002e6:	2301      	movs	r3, #1
100002e8:	4639      	mov	r1, r7
100002ea:	4640      	mov	r0, r8
100002ec:	f10d 020f 	add.w	r2, sp, #15
100002f0:	f8cd c000 	str.w	ip, [sp]
100002f4:	f003 f9de 	bl	100036b4 <i2c_read_blocking>
100002f8:	2800      	cmp	r0, #0
100002fa:	db1b      	blt.n	10000334 <i2c_driver_scan+0x7c>
100002fc:	4621      	mov	r1, r4
100002fe:	481b      	ldr	r0, [pc, #108]	@ (1000036c <i2c_driver_scan+0xb4>)
10000300:	f003 f820 	bl	10003344 <__wrap_printf>
10000304:	2e0f      	cmp	r6, #15
10000306:	d01a      	beq.n	1000033e <i2c_driver_scan+0x86>
10000308:	3401      	adds	r4, #1
1000030a:	3501      	adds	r5, #1
1000030c:	2c80      	cmp	r4, #128	@ 0x80
1000030e:	b2ed      	uxtb	r5, r5
10000310:	d01d      	beq.n	1000034e <i2c_driver_scan+0x96>
10000312:	f014 060f 	ands.w	r6, r4, #15
10000316:	b2e7      	uxtb	r7, r4
10000318:	d1e1      	bne.n	100002de <i2c_driver_scan+0x26>
1000031a:	4621      	mov	r1, r4
1000031c:	4814      	ldr	r0, [pc, #80]	@ (10000370 <i2c_driver_scan+0xb8>)
1000031e:	f003 f811 	bl	10003344 <__wrap_printf>
10000322:	2d6f      	cmp	r5, #111	@ 0x6f
10000324:	d9dd      	bls.n	100002e2 <i2c_driver_scan+0x2a>
10000326:	4813      	ldr	r0, [pc, #76]	@ (10000374 <i2c_driver_scan+0xbc>)
10000328:	3501      	adds	r5, #1
1000032a:	f003 f80b 	bl	10003344 <__wrap_printf>
1000032e:	3401      	adds	r4, #1
10000330:	b2ed      	uxtb	r5, r5
10000332:	e7ee      	b.n	10000312 <i2c_driver_scan+0x5a>
10000334:	4810      	ldr	r0, [pc, #64]	@ (10000378 <i2c_driver_scan+0xc0>)
10000336:	f003 f805 	bl	10003344 <__wrap_printf>
1000033a:	2e0f      	cmp	r6, #15
1000033c:	d1e4      	bne.n	10000308 <i2c_driver_scan+0x50>
1000033e:	480f      	ldr	r0, [pc, #60]	@ (1000037c <i2c_driver_scan+0xc4>)
10000340:	3401      	adds	r4, #1
10000342:	f002 ff7f 	bl	10003244 <__wrap_puts>
10000346:	3501      	adds	r5, #1
10000348:	2c80      	cmp	r4, #128	@ 0x80
1000034a:	b2ed      	uxtb	r5, r5
1000034c:	d1e1      	bne.n	10000312 <i2c_driver_scan+0x5a>
1000034e:	b004      	add	sp, #16
10000350:	e8bd 81f0 	ldmia.w	sp!, {r4, r5, r6, r7, r8, pc}
10000354:	4807      	ldr	r0, [pc, #28]	@ (10000374 <i2c_driver_scan+0xbc>)
10000356:	f002 fff5 	bl	10003344 <__wrap_printf>
1000035a:	e7d3      	b.n	10000304 <i2c_driver_scan+0x4c>
1000035c:	100038b0 	.word	0x100038b0
10000360:	100038c4 	.word	0x100038c4
10000364:	2000062c 	.word	0x2000062c
10000368:	20000624 	.word	0x20000624
1000036c:	10003908 	.word	0x10003908
10000370:	100038fc 	.word	0x100038fc
10000374:	10003904 	.word	0x10003904
10000378:	10003910 	.word	0x10003910
1000037c:	10003914 	.word	0x10003914

10000380 <gpio_set_function>:
10000380:	b410      	push	{r4}
10000382:	f44f 7480 	mov.w	r4, #256	@ 0x100
10000386:	4b0c      	ldr	r3, [pc, #48]	@ (100003b8 <gpio_set_function+0x38>)
10000388:	f853 2020 	ldr.w	r2, [r3, r0, lsl #2]
1000038c:	eb03 0380 	add.w	r3, r3, r0, lsl #2
10000390:	00c0      	lsls	r0, r0, #3
10000392:	f082 0240 	eor.w	r2, r2, #64	@ 0x40
10000396:	f100 4080 	add.w	r0, r0, #1073741824	@ 0x40000000
1000039a:	f503 5c80 	add.w	ip, r3, #4096	@ 0x1000
1000039e:	f002 02c0 	and.w	r2, r2, #192	@ 0xc0
100003a2:	f500 3020 	add.w	r0, r0, #163840	@ 0x28000
100003a6:	f503 5340 	add.w	r3, r3, #12288	@ 0x3000
100003aa:	f8cc 2000 	str.w	r2, [ip]
100003ae:	6041      	str	r1, [r0, #4]
100003b0:	601c      	str	r4, [r3, #0]
100003b2:	f85d 4b04 	ldr.w	r4, [sp], #4
100003b6:	4770      	bx	lr
100003b8:	40038004 	.word	0x40038004

100003bc <gpio_set_pulls>:
100003bc:	b410      	push	{r4}
100003be:	4c08      	ldr	r4, [pc, #32]	@ (100003e0 <gpio_set_pulls+0x24>)
100003c0:	00c9      	lsls	r1, r1, #3
100003c2:	ea41 0182 	orr.w	r1, r1, r2, lsl #2
100003c6:	f854 2020 	ldr.w	r2, [r4, r0, lsl #2]
100003ca:	eb04 0380 	add.w	r3, r4, r0, lsl #2
100003ce:	4051      	eors	r1, r2
100003d0:	f503 5380 	add.w	r3, r3, #4096	@ 0x1000
100003d4:	f001 010c 	and.w	r1, r1, #12
100003d8:	f85d 4b04 	ldr.w	r4, [sp], #4
100003dc:	6019      	str	r1, [r3, #0]
100003de:	4770      	bx	lr
100003e0:	40038004 	.word	0x40038004

100003e4 <panic>:
100003e4:	b40f      	push	{r0, r1, r2, r3}
100003e6:	b500      	push	{lr}
100003e8:	b083      	sub	sp, #12
100003ea:	9c04      	ldr	r4, [sp, #16]
100003ec:	4807      	ldr	r0, [pc, #28]	@ (1000040c <panic+0x28>)
100003ee:	f002 ff29 	bl	10003244 <__wrap_puts>
100003f2:	b13c      	cbz	r4, 10000404 <panic+0x20>
100003f4:	a905      	add	r1, sp, #20
100003f6:	4620      	mov	r0, r4
100003f8:	9101      	str	r1, [sp, #4]
100003fa:	f002 fd95 	bl	10002f28 <weak_raw_vprintf>
100003fe:	4804      	ldr	r0, [pc, #16]	@ (10000410 <panic+0x2c>)
10000400:	f002 ff20 	bl	10003244 <__wrap_puts>
10000404:	2001      	movs	r0, #1
10000406:	f002 fda7 	bl	10002f58 <_exit>
1000040a:	bf00      	nop
1000040c:	10003918 	.word	0x10003918
10000410:	10003928 	.word	0x10003928

10000414 <hw_claim_or_assert>:
10000414:	b570      	push	{r4, r5, r6, lr}
10000416:	4686      	mov	lr, r0
10000418:	f3ef 8510 	mrs	r5, PRIMASK
1000041c:	b672      	cpsid	i
1000041e:	4c12      	ldr	r4, [pc, #72]	@ (10000468 <hw_claim_or_assert+0x54>)
10000420:	e8d4 6fcf 	ldaexb	r6, [r4]
10000424:	2001      	movs	r0, #1
10000426:	2e00      	cmp	r6, #0
10000428:	d1fa      	bne.n	10000420 <hw_claim_or_assert+0xc>
1000042a:	e8c4 0f46 	strexb	r6, r0, [r4]
1000042e:	2e00      	cmp	r6, #0
10000430:	d1f6      	bne.n	10000420 <hw_claim_or_assert+0xc>
10000432:	f3bf 8f5f 	dmb	sy
10000436:	f04f 0c01 	mov.w	ip, #1
1000043a:	08c8      	lsrs	r0, r1, #3
1000043c:	f001 0307 	and.w	r3, r1, #7
10000440:	fa0c f303 	lsl.w	r3, ip, r3
10000444:	f81e c000 	ldrb.w	ip, [lr, r0]
10000448:	ea1c 0603 	ands.w	r6, ip, r3
1000044c:	d108      	bne.n	10000460 <hw_claim_or_assert+0x4c>
1000044e:	ea4c 0c03 	orr.w	ip, ip, r3
10000452:	f80e c000 	strb.w	ip, [lr, r0]
10000456:	e8c4 6f8f 	stlb	r6, [r4]
1000045a:	f385 8810 	msr	PRIMASK, r5
1000045e:	bd70      	pop	{r4, r5, r6, pc}
10000460:	4610      	mov	r0, r2
10000462:	f7ff ffbf 	bl	100003e4 <panic>
10000466:	bf00      	nop
10000468:	200007cb 	.word	0x200007cb

1000046c <next_striped_spin_lock_num>:
1000046c:	4a04      	ldr	r2, [pc, #16]	@ (10000480 <next_striped_spin_lock_num+0x14>)
1000046e:	7810      	ldrb	r0, [r2, #0]
10000470:	1c43      	adds	r3, r0, #1
10000472:	b2db      	uxtb	r3, r3
10000474:	2b18      	cmp	r3, #24
10000476:	bf28      	it	cs
10000478:	2310      	movcs	r3, #16
1000047a:	7013      	strb	r3, [r2, #0]
1000047c:	4770      	bx	lr
1000047e:	bf00      	nop
10000480:	200005a8 	.word	0x200005a8

10000484 <spinlock_set_extexclall>:
10000484:	f04f 22e0 	mov.w	r2, #3758153728	@ 0xe000e000
10000488:	6893      	ldr	r3, [r2, #8]
1000048a:	f043 5300 	orr.w	r3, r3, #536870912	@ 0x20000000
1000048e:	6093      	str	r3, [r2, #8]
10000490:	4770      	bx	lr
10000492:	bf00      	nop

10000494 <spin_locks_reset>:
10000494:	2100      	movs	r1, #0
10000496:	4b04      	ldr	r3, [pc, #16]	@ (100004a8 <spin_locks_reset+0x14>)
10000498:	f103 0220 	add.w	r2, r3, #32
1000049c:	e8c3 1f8f 	stlb	r1, [r3]
100004a0:	3301      	adds	r3, #1
100004a2:	4293      	cmp	r3, r2
100004a4:	d1fa      	bne.n	1000049c <spin_locks_reset+0x8>
100004a6:	4770      	bx	lr
100004a8:	200007c0 	.word	0x200007c0

100004ac <runtime_init_per_core_irq_priorities>:
100004ac:	f04f 23e0 	mov.w	r3, #3758153728	@ 0xe000e000
100004b0:	f04f 3280 	mov.w	r2, #2155905152	@ 0x80808080
100004b4:	f8c3 2400 	str.w	r2, [r3, #1024]	@ 0x400
100004b8:	f8c3 2404 	str.w	r2, [r3, #1028]	@ 0x404
100004bc:	f8c3 2408 	str.w	r2, [r3, #1032]	@ 0x408
100004c0:	f8c3 240c 	str.w	r2, [r3, #1036]	@ 0x40c
100004c4:	f8c3 2410 	str.w	r2, [r3, #1040]	@ 0x410
100004c8:	f8c3 2414 	str.w	r2, [r3, #1044]	@ 0x414
100004cc:	f8c3 2418 	str.w	r2, [r3, #1048]	@ 0x418
100004d0:	f8c3 241c 	str.w	r2, [r3, #1052]	@ 0x41c
100004d4:	f8c3 2420 	str.w	r2, [r3, #1056]	@ 0x420
100004d8:	f8c3 2424 	str.w	r2, [r3, #1060]	@ 0x424
100004dc:	f8c3 2428 	str.w	r2, [r3, #1064]	@ 0x428
100004e0:	f8c3 242c 	str.w	r2, [r3, #1068]	@ 0x42c
100004e4:	f8c3 2430 	str.w	r2, [r3, #1072]	@ 0x430
100004e8:	b662      	cpsie	i
100004ea:	4770      	bx	lr

100004ec <irq_set_enabled>:
100004ec:	2301      	movs	r3, #1
100004ee:	f000 021f 	and.w	r2, r0, #31
100004f2:	4093      	lsls	r3, r2
100004f4:	0940      	lsrs	r0, r0, #5
100004f6:	b141      	cbz	r1, 1000050a <irq_set_enabled+0x1e>
100004f8:	0080      	lsls	r0, r0, #2
100004fa:	f100 4060 	add.w	r0, r0, #3758096384	@ 0xe0000000
100004fe:	f500 4061 	add.w	r0, r0, #57600	@ 0xe100
10000502:	f8c0 3180 	str.w	r3, [r0, #384]	@ 0x180
10000506:	6003      	str	r3, [r0, #0]
10000508:	4770      	bx	lr
1000050a:	4a02      	ldr	r2, [pc, #8]	@ (10000514 <irq_set_enabled+0x28>)
1000050c:	3020      	adds	r0, #32
1000050e:	f842 3020 	str.w	r3, [r2, r0, lsl #2]
10000512:	4770      	bx	lr
10000514:	e000e100 	.word	0xe000e100

10000518 <irq_set_exclusive_handler>:
10000518:	b5f8      	push	{r3, r4, r5, r6, r7, lr}
1000051a:	460d      	mov	r5, r1
1000051c:	f3ef 8710 	mrs	r7, PRIMASK
10000520:	b672      	cpsid	i
10000522:	4e12      	ldr	r6, [pc, #72]	@ (1000056c <irq_set_exclusive_handler+0x54>)
10000524:	e8d6 2fcf 	ldaexb	r2, [r6]
10000528:	2301      	movs	r3, #1
1000052a:	2a00      	cmp	r2, #0
1000052c:	d1fa      	bne.n	10000524 <irq_set_exclusive_handler+0xc>
1000052e:	e8c6 3f42 	strexb	r2, r3, [r6]
10000532:	2a00      	cmp	r2, #0
10000534:	d1f6      	bne.n	10000524 <irq_set_exclusive_handler+0xc>
10000536:	f3bf 8f5f 	dmb	sy
1000053a:	4b0d      	ldr	r3, [pc, #52]	@ (10000570 <irq_set_exclusive_handler+0x58>)
1000053c:	f100 0410 	add.w	r4, r0, #16
10000540:	689b      	ldr	r3, [r3, #8]
10000542:	4a0c      	ldr	r2, [pc, #48]	@ (10000574 <irq_set_exclusive_handler+0x5c>)
10000544:	f853 3024 	ldr.w	r3, [r3, r4, lsl #2]
10000548:	4293      	cmp	r3, r2
1000054a:	d003      	beq.n	10000554 <irq_set_exclusive_handler+0x3c>
1000054c:	4299      	cmp	r1, r3
1000054e:	d001      	beq.n	10000554 <irq_set_exclusive_handler+0x3c>
10000550:	f000 ff0e 	bl	10001370 <hard_assertion_failure>
10000554:	4b06      	ldr	r3, [pc, #24]	@ (10000570 <irq_set_exclusive_handler+0x58>)
10000556:	689b      	ldr	r3, [r3, #8]
10000558:	f843 5024 	str.w	r5, [r3, r4, lsl #2]
1000055c:	f3bf 8f5f 	dmb	sy
10000560:	2300      	movs	r3, #0
10000562:	e8c6 3f8f 	stlb	r3, [r6]
10000566:	f387 8810 	msr	PRIMASK, r7
1000056a:	bdf8      	pop	{r3, r4, r5, r6, r7, pc}
1000056c:	200007c9 	.word	0x200007c9
10000570:	e000ed00 	.word	0xe000ed00
10000574:	10000111 	.word	0x10000111

10000578 <irq_remove_handler>:
10000578:	e92d 4ff0 	stmdb	sp!, {r4, r5, r6, r7, r8, r9, sl, fp, lr}
1000057c:	b083      	sub	sp, #12
1000057e:	f3ef 8a10 	mrs	sl, PRIMASK
10000582:	b672      	cpsid	i
10000584:	4e71      	ldr	r6, [pc, #452]	@ (1000074c <irq_remove_handler+0x1d4>)
10000586:	e8d6 2fcf 	ldaexb	r2, [r6]
1000058a:	2301      	movs	r3, #1
1000058c:	2a00      	cmp	r2, #0
1000058e:	d1fa      	bne.n	10000586 <irq_remove_handler+0xe>
10000590:	e8c6 3f42 	strexb	r2, r3, [r6]
10000594:	2a00      	cmp	r2, #0
10000596:	d1f6      	bne.n	10000586 <irq_remove_handler+0xe>
10000598:	f3bf 8f5f 	dmb	sy
1000059c:	4b6c      	ldr	r3, [pc, #432]	@ (10000750 <irq_remove_handler+0x1d8>)
1000059e:	f100 0810 	add.w	r8, r0, #16
100005a2:	689b      	ldr	r3, [r3, #8]
100005a4:	4a6b      	ldr	r2, [pc, #428]	@ (10000754 <irq_remove_handler+0x1dc>)
100005a6:	f853 5028 	ldr.w	r5, [r3, r8, lsl #2]
100005aa:	4295      	cmp	r5, r2
100005ac:	d045      	beq.n	1000063a <irq_remove_handler+0xc2>
100005ae:	428d      	cmp	r5, r1
100005b0:	460c      	mov	r4, r1
100005b2:	d050      	beq.n	10000656 <irq_remove_handler+0xde>
100005b4:	4f68      	ldr	r7, [pc, #416]	@ (10000758 <irq_remove_handler+0x1e0>)
100005b6:	1beb      	subs	r3, r5, r7
100005b8:	2b2f      	cmp	r3, #47	@ 0x2f
100005ba:	d83e      	bhi.n	1000063a <irq_remove_handler+0xc2>
100005bc:	2101      	movs	r1, #1
100005be:	ea4f 1950 	mov.w	r9, r0, lsr #5
100005c2:	ea4f 0989 	mov.w	r9, r9, lsl #2
100005c6:	f109 4960 	add.w	r9, r9, #3758096384	@ 0xe0000000
100005ca:	f509 4961 	add.w	r9, r9, #57600	@ 0xe100
100005ce:	f000 031f 	and.w	r3, r0, #31
100005d2:	fa01 f003 	lsl.w	r0, r1, r3
100005d6:	f8d9 3000 	ldr.w	r3, [r9]
100005da:	f8c9 0080 	str.w	r0, [r9, #128]	@ 0x80
100005de:	ea00 0b03 	and.w	fp, r0, r3
100005e2:	f3bf 8f5f 	dmb	sy
100005e6:	f3ef 8105 	mrs	r1, IPSR
100005ea:	b2c9      	uxtb	r1, r1
100005ec:	2900      	cmp	r1, #0
100005ee:	d034      	beq.n	1000065a <irq_remove_handler+0xe2>
100005f0:	4588      	cmp	r8, r1
100005f2:	d005      	beq.n	10000600 <irq_remove_handler+0x88>
100005f4:	e9cd 1000 	strd	r1, r0, [sp]
100005f8:	f000 feba 	bl	10001370 <hard_assertion_failure>
100005fc:	e9dd 1000 	ldrd	r1, r0, [sp]
10000600:	f025 0e01 	bic.w	lr, r5, #1
10000604:	f8de c008 	ldr.w	ip, [lr, #8]
10000608:	4564      	cmp	r4, ip
1000060a:	d105      	bne.n	10000618 <irq_remove_handler+0xa0>
1000060c:	e089      	b.n	10000722 <irq_remove_handler+0x1aa>
1000060e:	f8d3 c008 	ldr.w	ip, [r3, #8]
10000612:	4564      	cmp	r4, ip
10000614:	d031      	beq.n	1000067a <irq_remove_handler+0x102>
10000616:	469e      	mov	lr, r3
10000618:	f99e 2006 	ldrsb.w	r2, [lr, #6]
1000061c:	eb02 0342 	add.w	r3, r2, r2, lsl #1
10000620:	2a00      	cmp	r2, #0
10000622:	eb07 0383 	add.w	r3, r7, r3, lsl #2
10000626:	daf2      	bge.n	1000060e <irq_remove_handler+0x96>
10000628:	4564      	cmp	r4, ip
1000062a:	d061      	beq.n	100006f0 <irq_remove_handler+0x178>
1000062c:	f1bb 0f00 	cmp.w	fp, #0
10000630:	d020      	beq.n	10000674 <irq_remove_handler+0xfc>
10000632:	f8c9 0180 	str.w	r0, [r9, #384]	@ 0x180
10000636:	f8c9 0000 	str.w	r0, [r9]
1000063a:	4b45      	ldr	r3, [pc, #276]	@ (10000750 <irq_remove_handler+0x1d8>)
1000063c:	689b      	ldr	r3, [r3, #8]
1000063e:	f843 5028 	str.w	r5, [r3, r8, lsl #2]
10000642:	f3bf 8f5f 	dmb	sy
10000646:	2300      	movs	r3, #0
10000648:	e8c6 3f8f 	stlb	r3, [r6]
1000064c:	f38a 8810 	msr	PRIMASK, sl
10000650:	b003      	add	sp, #12
10000652:	e8bd 8ff0 	ldmia.w	sp!, {r4, r5, r6, r7, r8, r9, sl, fp, pc}
10000656:	4615      	mov	r5, r2
10000658:	e7ef      	b.n	1000063a <irq_remove_handler+0xc2>
1000065a:	f025 0e01 	bic.w	lr, r5, #1
1000065e:	f8de c008 	ldr.w	ip, [lr, #8]
10000662:	4564      	cmp	r4, ip
10000664:	d1d8      	bne.n	10000618 <irq_remove_handler+0xa0>
10000666:	f99e 4006 	ldrsb.w	r4, [lr, #6]
1000066a:	4673      	mov	r3, lr
1000066c:	2c00      	cmp	r4, #0
1000066e:	da08      	bge.n	10000682 <irq_remove_handler+0x10a>
10000670:	4615      	mov	r5, r2
10000672:	e046      	b.n	10000702 <irq_remove_handler+0x18a>
10000674:	f8c9 0080 	str.w	r0, [r9, #128]	@ 0x80
10000678:	e7df      	b.n	1000063a <irq_remove_handler+0xc2>
1000067a:	f993 4006 	ldrsb.w	r4, [r3, #6]
1000067e:	2c00      	cmp	r4, #0
10000680:	db37      	blt.n	100006f2 <irq_remove_handler+0x17a>
10000682:	eb04 0c44 	add.w	ip, r4, r4, lsl #1
10000686:	eb07 0c8c 	add.w	ip, r7, ip, lsl #2
1000068a:	f89c 1007 	ldrb.w	r1, [ip, #7]
1000068e:	f8dc 2008 	ldr.w	r2, [ip, #8]
10000692:	71d9      	strb	r1, [r3, #7]
10000694:	609a      	str	r2, [r3, #8]
10000696:	f99c 2006 	ldrsb.w	r2, [ip, #6]
1000069a:	0061      	lsls	r1, r4, #1
1000069c:	2a00      	cmp	r2, #0
1000069e:	719a      	strb	r2, [r3, #6]
100006a0:	db3d      	blt.n	1000071e <irq_remove_handler+0x1a6>
100006a2:	f8bc e004 	ldrh.w	lr, [ip, #4]
100006a6:	ea5f 5e4e 	movs.w	lr, lr, lsl #21
100006aa:	d505      	bpl.n	100006b8 <irq_remove_handler+0x140>
100006ac:	f50e 1eff 	add.w	lr, lr, #2088960	@ 0x1fe000
100006b0:	f50e 5eff 	add.w	lr, lr, #8160	@ 0x1fe0
100006b4:	f10e 0e1f 	add.w	lr, lr, #31
100006b8:	f06f 0c07 	mvn.w	ip, #7
100006bc:	190a      	adds	r2, r1, r4
100006be:	ea4f 5e6e 	mov.w	lr, lr, asr #21
100006c2:	0092      	lsls	r2, r2, #2
100006c4:	eb02 024e 	add.w	r2, r2, lr, lsl #1
100006c8:	3208      	adds	r2, #8
100006ca:	443a      	add	r2, r7
100006cc:	ebac 0c03 	sub.w	ip, ip, r3
100006d0:	4462      	add	r2, ip
100006d2:	f3c2 024a 	ubfx	r2, r2, #1, #11
100006d6:	ea6f 42c2 	mvn.w	r2, r2, lsl #19
100006da:	ea6f 42d2 	mvn.w	r2, r2, lsr #19
100006de:	809a      	strh	r2, [r3, #4]
100006e0:	4b1e      	ldr	r3, [pc, #120]	@ (1000075c <irq_remove_handler+0x1e4>)
100006e2:	4421      	add	r1, r4
100006e4:	781a      	ldrb	r2, [r3, #0]
100006e6:	eb07 0181 	add.w	r1, r7, r1, lsl #2
100006ea:	701c      	strb	r4, [r3, #0]
100006ec:	718a      	strb	r2, [r1, #6]
100006ee:	e79d      	b.n	1000062c <irq_remove_handler+0xb4>
100006f0:	4673      	mov	r3, lr
100006f2:	b9d9      	cbnz	r1, 1000072c <irq_remove_handler+0x1b4>
100006f4:	22ff      	movs	r2, #255	@ 0xff
100006f6:	f88e 2006 	strb.w	r2, [lr, #6]
100006fa:	f64b 5201 	movw	r2, #48385	@ 0xbd01
100006fe:	f8ae 2004 	strh.w	r2, [lr, #4]
10000702:	4c16      	ldr	r4, [pc, #88]	@ (1000075c <irq_remove_handler+0x1e4>)
10000704:	f64a 22aa 	movw	r2, #43690	@ 0xaaaa
10000708:	f894 c000 	ldrb.w	ip, [r4]
1000070c:	4619      	mov	r1, r3
1000070e:	1bc9      	subs	r1, r1, r7
10000710:	4149      	adcs	r1, r1
10000712:	434a      	muls	r2, r1
10000714:	0d12      	lsrs	r2, r2, #20
10000716:	f883 c006 	strb.w	ip, [r3, #6]
1000071a:	7022      	strb	r2, [r4, #0]
1000071c:	e786      	b.n	1000062c <irq_remove_handler+0xb4>
1000071e:	4a10      	ldr	r2, [pc, #64]	@ (10000760 <irq_remove_handler+0x1e8>)
10000720:	e7dd      	b.n	100006de <irq_remove_handler+0x166>
10000722:	f99e 4006 	ldrsb.w	r4, [lr, #6]
10000726:	4673      	mov	r3, lr
10000728:	2c00      	cmp	r4, #0
1000072a:	daaa      	bge.n	10000682 <irq_remove_handler+0x10a>
1000072c:	4a0d      	ldr	r2, [pc, #52]	@ (10000764 <irq_remove_handler+0x1ec>)
1000072e:	4c0e      	ldr	r4, [pc, #56]	@ (10000768 <irq_remove_handler+0x1f0>)
10000730:	1ad2      	subs	r2, r2, r3
10000732:	3a08      	subs	r2, #8
10000734:	f3c2 310a 	ubfx	r1, r2, #12, #11
10000738:	ea6f 5101 	mvn.w	r1, r1, lsl #20
1000073c:	ea6f 5111 	mvn.w	r1, r1, lsr #20
10000740:	ea44 0252 	orr.w	r2, r4, r2, lsr #1
10000744:	80da      	strh	r2, [r3, #6]
10000746:	8099      	strh	r1, [r3, #4]
10000748:	e770      	b.n	1000062c <irq_remove_handler+0xb4>
1000074a:	bf00      	nop
1000074c:	200007c9 	.word	0x200007c9
10000750:	e000ed00 	.word	0xe000ed00
10000754:	10000111 	.word	0x10000111
10000758:	200005ac 	.word	0x200005ac
1000075c:	20000864 	.word	0x20000864
10000760:	ffffbd01 	.word	0xffffbd01
10000764:	200005e6 	.word	0x200005e6
10000768:	fffff800 	.word	0xfffff800

1000076c <irq_add_tail_to_free_list>:
1000076c:	b5f0      	push	{r4, r5, r6, r7, lr}
1000076e:	f3ef 8505 	mrs	r5, IPSR
10000772:	b2ed      	uxtb	r5, r5
10000774:	f3ef 8c10 	mrs	ip, PRIMASK
10000778:	b672      	cpsid	i
1000077a:	4926      	ldr	r1, [pc, #152]	@ (10000814 <irq_add_tail_to_free_list+0xa8>)
1000077c:	e8d1 2fcf 	ldaexb	r2, [r1]
10000780:	2301      	movs	r3, #1
10000782:	2a00      	cmp	r2, #0
10000784:	d1fa      	bne.n	1000077c <irq_add_tail_to_free_list+0x10>
10000786:	e8c1 3f42 	strexb	r2, r3, [r1]
1000078a:	2a00      	cmp	r2, #0
1000078c:	d1f6      	bne.n	1000077c <irq_add_tail_to_free_list+0x10>
1000078e:	f3bf 8f5f 	dmb	sy
10000792:	4e21      	ldr	r6, [pc, #132]	@ (10000818 <irq_add_tail_to_free_list+0xac>)
10000794:	f040 0e01 	orr.w	lr, r0, #1
10000798:	68b4      	ldr	r4, [r6, #8]
1000079a:	f64a 23aa 	movw	r3, #43690	@ 0xaaaa
1000079e:	f854 7025 	ldr.w	r7, [r4, r5, lsl #2]
100007a2:	4a1e      	ldr	r2, [pc, #120]	@ (1000081c <irq_add_tail_to_free_list+0xb0>)
100007a4:	4604      	mov	r4, r0
100007a6:	1aa4      	subs	r4, r4, r2
100007a8:	4164      	adcs	r4, r4
100007aa:	4363      	muls	r3, r4
100007ac:	0d1b      	lsrs	r3, r3, #20
100007ae:	4577      	cmp	r7, lr
100007b0:	b25b      	sxtb	r3, r3
100007b2:	d01b      	beq.n	100007ec <irq_add_tail_to_free_list+0x80>
100007b4:	f992 4006 	ldrsb.w	r4, [r2, #6]
100007b8:	429c      	cmp	r4, r3
100007ba:	d01c      	beq.n	100007f6 <irq_add_tail_to_free_list+0x8a>
100007bc:	f992 4012 	ldrsb.w	r4, [r2, #18]
100007c0:	429c      	cmp	r4, r3
100007c2:	d023      	beq.n	1000080c <irq_add_tail_to_free_list+0xa0>
100007c4:	f992 401e 	ldrsb.w	r4, [r2, #30]
100007c8:	429c      	cmp	r4, r3
100007ca:	d021      	beq.n	10000810 <irq_add_tail_to_free_list+0xa4>
100007cc:	f992 402a 	ldrsb.w	r4, [r2, #42]	@ 0x2a
100007d0:	429c      	cmp	r4, r3
100007d2:	bf08      	it	eq
100007d4:	2403      	moveq	r4, #3
100007d6:	d00f      	beq.n	100007f8 <irq_add_tail_to_free_list+0x8c>
100007d8:	4a11      	ldr	r2, [pc, #68]	@ (10000820 <irq_add_tail_to_free_list+0xb4>)
100007da:	2400      	movs	r4, #0
100007dc:	7815      	ldrb	r5, [r2, #0]
100007de:	7013      	strb	r3, [r2, #0]
100007e0:	7185      	strb	r5, [r0, #6]
100007e2:	e8c1 4f8f 	stlb	r4, [r1]
100007e6:	f38c 8810 	msr	PRIMASK, ip
100007ea:	bdf0      	pop	{r4, r5, r6, r7, pc}
100007ec:	68b2      	ldr	r2, [r6, #8]
100007ee:	4c0d      	ldr	r4, [pc, #52]	@ (10000824 <irq_add_tail_to_free_list+0xb8>)
100007f0:	f842 4025 	str.w	r4, [r2, r5, lsl #2]
100007f4:	e7f0      	b.n	100007d8 <irq_add_tail_to_free_list+0x6c>
100007f6:	2400      	movs	r4, #0
100007f8:	eb04 0444 	add.w	r4, r4, r4, lsl #1
100007fc:	eb02 0284 	add.w	r2, r2, r4, lsl #2
10000800:	24ff      	movs	r4, #255	@ 0xff
10000802:	7194      	strb	r4, [r2, #6]
10000804:	f64b 5401 	movw	r4, #48385	@ 0xbd01
10000808:	8094      	strh	r4, [r2, #4]
1000080a:	e7e5      	b.n	100007d8 <irq_add_tail_to_free_list+0x6c>
1000080c:	2401      	movs	r4, #1
1000080e:	e7f3      	b.n	100007f8 <irq_add_tail_to_free_list+0x8c>
10000810:	2402      	movs	r4, #2
10000812:	e7f1      	b.n	100007f8 <irq_add_tail_to_free_list+0x8c>
10000814:	200007c9 	.word	0x200007c9
10000818:	e000ed00 	.word	0xe000ed00
1000081c:	200005ac 	.word	0x200005ac
10000820:	20000864 	.word	0x20000864
10000824:	10000111 	.word	0x10000111

10000828 <lock_init>:
10000828:	4b01      	ldr	r3, [pc, #4]	@ (10000830 <lock_init+0x8>)
1000082a:	440b      	add	r3, r1
1000082c:	6003      	str	r3, [r0, #0]
1000082e:	4770      	bx	lr
10000830:	200007c0 	.word	0x200007c0

10000834 <runtime_init_mutex>:
10000834:	b570      	push	{r4, r5, r6, lr}
10000836:	4c10      	ldr	r4, [pc, #64]	@ (10000878 <runtime_init_mutex+0x44>)
10000838:	4d10      	ldr	r5, [pc, #64]	@ (1000087c <runtime_init_mutex+0x48>)
1000083a:	42ac      	cmp	r4, r5
1000083c:	d20e      	bcs.n	1000085c <runtime_init_mutex+0x28>
1000083e:	26ff      	movs	r6, #255	@ 0xff
10000840:	6823      	ldr	r3, [r4, #0]
10000842:	b163      	cbz	r3, 1000085e <runtime_init_mutex+0x2a>
10000844:	f7ff fe12 	bl	1000046c <next_striped_spin_lock_num>
10000848:	4601      	mov	r1, r0
1000084a:	4620      	mov	r0, r4
1000084c:	f7ff ffec 	bl	10000828 <lock_init>
10000850:	80a6      	strh	r6, [r4, #4]
10000852:	f3bf 8f5f 	dmb	sy
10000856:	3408      	adds	r4, #8
10000858:	42ac      	cmp	r4, r5
1000085a:	d3f1      	bcc.n	10000840 <runtime_init_mutex+0xc>
1000085c:	bd70      	pop	{r4, r5, r6, pc}
1000085e:	f7ff fe05 	bl	1000046c <next_striped_spin_lock_num>
10000862:	4601      	mov	r1, r0
10000864:	4620      	mov	r0, r4
10000866:	f7ff ffdf 	bl	10000828 <lock_init>
1000086a:	7126      	strb	r6, [r4, #4]
1000086c:	f3bf 8f5f 	dmb	sy
10000870:	3408      	adds	r4, #8
10000872:	42ac      	cmp	r4, r5
10000874:	d3e4      	bcc.n	10000840 <runtime_init_mutex+0xc>
10000876:	bd70      	pop	{r4, r5, r6, pc}
10000878:	20000634 	.word	0x20000634
1000087c:	2000063c 	.word	0x2000063c

10000880 <sleep_until_callback>:
10000880:	4b0d      	ldr	r3, [pc, #52]	@ (100008b8 <sleep_until_callback+0x38>)
10000882:	681a      	ldr	r2, [r3, #0]
10000884:	f3ef 8110 	mrs	r1, PRIMASK
10000888:	b672      	cpsid	i
1000088a:	e8d2 cfcf 	ldaexb	ip, [r2]
1000088e:	2001      	movs	r0, #1
10000890:	f1bc 0f00 	cmp.w	ip, #0
10000894:	d1f9      	bne.n	1000088a <sleep_until_callback+0xa>
10000896:	e8c2 0f4c 	strexb	ip, r0, [r2]
1000089a:	f1bc 0f00 	cmp.w	ip, #0
1000089e:	d1f4      	bne.n	1000088a <sleep_until_callback+0xa>
100008a0:	f3bf 8f5f 	dmb	sy
100008a4:	2200      	movs	r2, #0
100008a6:	681b      	ldr	r3, [r3, #0]
100008a8:	e8c3 2f8f 	stlb	r2, [r3]
100008ac:	f381 8810 	msr	PRIMASK, r1
100008b0:	bf40      	sev
100008b2:	2000      	movs	r0, #0
100008b4:	2100      	movs	r1, #0
100008b6:	4770      	bx	lr
100008b8:	20000858 	.word	0x20000858
100008bc:	00000000 	.word	0x00000000

100008c0 <alarm_pool_irq_handler>:
100008c0:	e92d 4ff0 	stmdb	sp!, {r4, r5, r6, r7, r8, r9, sl, fp, lr}
100008c4:	ed2d 8b02 	vpush	{d8}
100008c8:	b085      	sub	sp, #20
100008ca:	f3ef 8305 	mrs	r3, IPSR
100008ce:	b2db      	uxtb	r3, r3
100008d0:	3b10      	subs	r3, #16
100008d2:	089a      	lsrs	r2, r3, #2
100008d4:	bf18      	it	ne
100008d6:	2201      	movne	r2, #1
100008d8:	f04f 0101 	mov.w	r1, #1
100008dc:	f003 0b03 	and.w	fp, r3, #3
100008e0:	bf18      	it	ne
100008e2:	4daf      	ldrne	r5, [pc, #700]	@ (10000ba0 <alarm_pool_irq_handler+0x2e0>)
100008e4:	4baf      	ldr	r3, [pc, #700]	@ (10000ba4 <alarm_pool_irq_handler+0x2e4>)
100008e6:	bf08      	it	eq
100008e8:	4daf      	ldreq	r5, [pc, #700]	@ (10000ba8 <alarm_pool_irq_handler+0x2e8>)
100008ea:	eb0b 0282 	add.w	r2, fp, r2, lsl #2
100008ee:	f853 6022 	ldr.w	r6, [r3, r2, lsl #2]
100008f2:	fa01 f20b 	lsl.w	r2, r1, fp
100008f6:	f505 5341 	add.w	r3, r5, #12352	@ 0x3040
100008fa:	ed9f 8ba7 	vldr	d8, [pc, #668]	@ 10000b98 <alarm_pool_irq_handler+0x2d8>
100008fe:	9201      	str	r2, [sp, #4]
10000900:	605a      	str	r2, [r3, #4]
10000902:	e02f      	b.n	10000964 <alarm_pool_irq_handler+0xa4>
10000904:	88b3      	ldrh	r3, [r6, #4]
10000906:	041c      	lsls	r4, r3, #16
10000908:	f140 8093 	bpl.w	10000a32 <alarm_pool_irq_handler+0x172>
1000090c:	79b3      	ldrb	r3, [r6, #6]
1000090e:	2b00      	cmp	r3, #0
10000910:	f040 80dd 	bne.w	10000ace <alarm_pool_irq_handler+0x20e>
10000914:	f9b6 2008 	ldrsh.w	r2, [r6, #8]
10000918:	2a00      	cmp	r2, #0
1000091a:	f2c0 811e 	blt.w	10000b5a <alarm_pool_irq_handler+0x29a>
1000091e:	6973      	ldr	r3, [r6, #20]
10000920:	eb02 0242 	add.w	r2, r2, r2, lsl #1
10000924:	eb03 03c2 	add.w	r3, r3, r2, lsl #3
10000928:	e9d3 4702 	ldrd	r4, r7, [r3, #8]
1000092c:	f1b7 3fff 	cmp.w	r7, #4294967295
10000930:	bf08      	it	eq
10000932:	f1b4 3fff 	cmpeq.w	r4, #4294967295
10000936:	d00e      	beq.n	10000956 <alarm_pool_irq_handler+0x96>
10000938:	eb05 018b 	add.w	r1, r5, fp, lsl #2
1000093c:	6aab      	ldr	r3, [r5, #40]	@ 0x28
1000093e:	690a      	ldr	r2, [r1, #16]
10000940:	1ad2      	subs	r2, r2, r3
10000942:	1ae3      	subs	r3, r4, r3
10000944:	4293      	cmp	r3, r2
10000946:	d305      	bcc.n	10000954 <alarm_pool_irq_handler+0x94>
10000948:	2301      	movs	r3, #1
1000094a:	6a2a      	ldr	r2, [r5, #32]
1000094c:	fa03 f30b 	lsl.w	r3, r3, fp
10000950:	4213      	tst	r3, r2
10000952:	d100      	bne.n	10000956 <alarm_pool_irq_handler+0x96>
10000954:	610c      	str	r4, [r1, #16]
10000956:	4628      	mov	r0, r5
10000958:	f000 fb38 	bl	10000fcc <timer_time_us_64>
1000095c:	42a0      	cmp	r0, r4
1000095e:	41b9      	sbcs	r1, r7
10000960:	f2c0 80fb 	blt.w	10000b5a <alarm_pool_irq_handler+0x29a>
10000964:	f9b6 3008 	ldrsh.w	r3, [r6, #8]
10000968:	9a01      	ldr	r2, [sp, #4]
1000096a:	2b00      	cmp	r3, #0
1000096c:	9300      	str	r3, [sp, #0]
1000096e:	63ea      	str	r2, [r5, #60]	@ 0x3c
10000970:	dbc8      	blt.n	10000904 <alarm_pool_irq_handler+0x44>
10000972:	f8d6 8014 	ldr.w	r8, [r6, #20]
10000976:	eb03 0943 	add.w	r9, r3, r3, lsl #1
1000097a:	4628      	mov	r0, r5
1000097c:	eb08 07c9 	add.w	r7, r8, r9, lsl #3
10000980:	e9d7 4a02 	ldrd	r4, sl, [r7, #8]
10000984:	f000 fb22 	bl	10000fcc <timer_time_us_64>
10000988:	42a0      	cmp	r0, r4
1000098a:	eb71 010a 	sbcs.w	r1, r1, sl
1000098e:	dbb9      	blt.n	10000904 <alarm_pool_irq_handler+0x44>
10000990:	f1ba 0f00 	cmp.w	sl, #0
10000994:	f2c0 80c3 	blt.w	10000b1e <alarm_pool_irq_handler+0x25e>
10000998:	e9d7 3104 	ldrd	r3, r1, [r7, #16]
1000099c:	4a83      	ldr	r2, [pc, #524]	@ (10000bac <alarm_pool_irq_handler+0x2ec>)
1000099e:	4293      	cmp	r3, r2
100009a0:	f000 80ed 	beq.w	10000b7e <alarm_pool_irq_handler+0x2be>
100009a4:	887a      	ldrh	r2, [r7, #2]
100009a6:	f9b6 0008 	ldrsh.w	r0, [r6, #8]
100009aa:	b292      	uxth	r2, r2
100009ac:	ea42 4000 	orr.w	r0, r2, r0, lsl #16
100009b0:	4798      	blx	r3
100009b2:	4602      	mov	r2, r0
100009b4:	460b      	mov	r3, r1
100009b6:	ea52 0103 	orrs.w	r1, r2, r3
100009ba:	f000 80b0 	beq.w	10000b1e <alarm_pool_irq_handler+0x25e>
100009be:	2b00      	cmp	r3, #0
100009c0:	f280 80d1 	bge.w	10000b66 <alarm_pool_irq_handler+0x2a6>
100009c4:	ebb4 0e02 	subs.w	lr, r4, r2
100009c8:	eb6a 0a03 	sbc.w	sl, sl, r3
100009cc:	f938 3039 	ldrsh.w	r3, [r8, r9, lsl #3]
100009d0:	e9c7 ea02 	strd	lr, sl, [r7, #8]
100009d4:	2b00      	cmp	r3, #0
100009d6:	db95      	blt.n	10000904 <alarm_pool_irq_handler+0x44>
100009d8:	6971      	ldr	r1, [r6, #20]
100009da:	eb03 0243 	add.w	r2, r3, r3, lsl #1
100009de:	eb01 02c2 	add.w	r2, r1, r2, lsl #3
100009e2:	e9d2 7002 	ldrd	r7, r0, [r2, #8]
100009e6:	45be      	cmp	lr, r7
100009e8:	eb7a 0c00 	sbcs.w	ip, sl, r0
100009ec:	ea4f 0243 	mov.w	r2, r3, lsl #1
100009f0:	db88      	blt.n	10000904 <alarm_pool_irq_handler+0x44>
100009f2:	46b4      	mov	ip, r6
100009f4:	f82c 3f08 	strh.w	r3, [ip, #8]!
100009f8:	e006      	b.n	10000a08 <alarm_pool_irq_handler+0x148>
100009fa:	eb03 0043 	add.w	r0, r3, r3, lsl #1
100009fe:	eb01 00c0 	add.w	r0, r1, r0, lsl #3
10000a02:	005a      	lsls	r2, r3, #1
10000a04:	e9d0 7002 	ldrd	r7, r0, [r0, #8]
10000a08:	45be      	cmp	lr, r7
10000a0a:	441a      	add	r2, r3
10000a0c:	eb7a 0000 	sbcs.w	r0, sl, r0
10000a10:	eb01 04c2 	add.w	r4, r1, r2, lsl #3
10000a14:	db04      	blt.n	10000a20 <alarm_pool_irq_handler+0x160>
10000a16:	f931 3032 	ldrsh.w	r3, [r1, r2, lsl #3]
10000a1a:	46a4      	mov	ip, r4
10000a1c:	2b00      	cmp	r3, #0
10000a1e:	daec      	bge.n	100009fa <alarm_pool_irq_handler+0x13a>
10000a20:	f828 3039 	strh.w	r3, [r8, r9, lsl #3]
10000a24:	9b00      	ldr	r3, [sp, #0]
10000a26:	f8ac 3000 	strh.w	r3, [ip]
10000a2a:	88b3      	ldrh	r3, [r6, #4]
10000a2c:	041c      	lsls	r4, r3, #16
10000a2e:	f53f af6d 	bmi.w	1000090c <alarm_pool_irq_handler+0x4c>
10000a32:	6933      	ldr	r3, [r6, #16]
10000a34:	f3ef 8210 	mrs	r2, PRIMASK
10000a38:	b672      	cpsid	i
10000a3a:	e8d3 0fcf 	ldaexb	r0, [r3]
10000a3e:	2101      	movs	r1, #1
10000a40:	2800      	cmp	r0, #0
10000a42:	d1fa      	bne.n	10000a3a <alarm_pool_irq_handler+0x17a>
10000a44:	e8c3 1f40 	strexb	r0, r1, [r3]
10000a48:	2800      	cmp	r0, #0
10000a4a:	d1f6      	bne.n	10000a3a <alarm_pool_irq_handler+0x17a>
10000a4c:	f3bf 8f5f 	dmb	sy
10000a50:	f64f 74ff 	movw	r4, #65535	@ 0xffff
10000a54:	88b0      	ldrh	r0, [r6, #4]
10000a56:	2300      	movs	r3, #0
10000a58:	6931      	ldr	r1, [r6, #16]
10000a5a:	b200      	sxth	r0, r0
10000a5c:	80b4      	strh	r4, [r6, #4]
10000a5e:	e8c1 3f8f 	stlb	r3, [r1]
10000a62:	f382 8810 	msr	PRIMASK, r2
10000a66:	4298      	cmp	r0, r3
10000a68:	f6ff af50 	blt.w	1000090c <alarm_pool_irq_handler+0x4c>
10000a6c:	4607      	mov	r7, r0
10000a6e:	46a9      	mov	r9, r5
10000a70:	6974      	ldr	r4, [r6, #20]
10000a72:	f106 0808 	add.w	r8, r6, #8
10000a76:	eb07 0e47 	add.w	lr, r7, r7, lsl #1
10000a7a:	eb04 03ce 	add.w	r3, r4, lr, lsl #3
10000a7e:	e9d3 5002 	ldrd	r5, r0, [r3, #8]
10000a82:	f9b6 3008 	ldrsh.w	r3, [r6, #8]
10000a86:	46c4      	mov	ip, r8
10000a88:	2b00      	cmp	r3, #0
10000a8a:	db13      	blt.n	10000ab4 <alarm_pool_irq_handler+0x1f4>
10000a8c:	46b2      	mov	sl, r6
10000a8e:	9700      	str	r7, [sp, #0]
10000a90:	e004      	b.n	10000a9c <alarm_pool_irq_handler+0x1dc>
10000a92:	f934 3036 	ldrsh.w	r3, [r4, r6, lsl #3]
10000a96:	4694      	mov	ip, r2
10000a98:	2b00      	cmp	r3, #0
10000a9a:	db09      	blt.n	10000ab0 <alarm_pool_irq_handler+0x1f0>
10000a9c:	eb03 0643 	add.w	r6, r3, r3, lsl #1
10000aa0:	eb04 02c6 	add.w	r2, r4, r6, lsl #3
10000aa4:	e9d2 7102 	ldrd	r7, r1, [r2, #8]
10000aa8:	42bd      	cmp	r5, r7
10000aaa:	eb70 0101 	sbcs.w	r1, r0, r1
10000aae:	daf0      	bge.n	10000a92 <alarm_pool_irq_handler+0x1d2>
10000ab0:	4656      	mov	r6, sl
10000ab2:	9f00      	ldr	r7, [sp, #0]
10000ab4:	f8ac 7000 	strh.w	r7, [ip]
10000ab8:	f934 703e 	ldrsh.w	r7, [r4, lr, lsl #3]
10000abc:	f824 303e 	strh.w	r3, [r4, lr, lsl #3]
10000ac0:	2f00      	cmp	r7, #0
10000ac2:	dad8      	bge.n	10000a76 <alarm_pool_irq_handler+0x1b6>
10000ac4:	79b3      	ldrb	r3, [r6, #6]
10000ac6:	464d      	mov	r5, r9
10000ac8:	2b00      	cmp	r3, #0
10000aca:	f43f af23 	beq.w	10000914 <alarm_pool_irq_handler+0x54>
10000ace:	2300      	movs	r3, #0
10000ad0:	71b3      	strb	r3, [r6, #6]
10000ad2:	f9b6 3008 	ldrsh.w	r3, [r6, #8]
10000ad6:	f106 0808 	add.w	r8, r6, #8
10000ada:	1c58      	adds	r0, r3, #1
10000adc:	d03d      	beq.n	10000b5a <alarm_pool_irq_handler+0x29a>
10000ade:	461a      	mov	r2, r3
10000ae0:	6977      	ldr	r7, [r6, #20]
10000ae2:	e003      	b.n	10000aec <alarm_pool_irq_handler+0x22c>
10000ae4:	4680      	mov	r8, r0
10000ae6:	1c59      	adds	r1, r3, #1
10000ae8:	f43f af16 	beq.w	10000918 <alarm_pool_irq_handler+0x58>
10000aec:	eb03 0143 	add.w	r1, r3, r3, lsl #1
10000af0:	eb07 00c1 	add.w	r0, r7, r1, lsl #3
10000af4:	f8b0 c002 	ldrh.w	ip, [r0, #2]
10000af8:	461c      	mov	r4, r3
10000afa:	f41c 4f00 	tst.w	ip, #32768	@ 0x8000
10000afe:	469e      	mov	lr, r3
10000b00:	f937 3031 	ldrsh.w	r3, [r7, r1, lsl #3]
10000b04:	d0ee      	beq.n	10000ae4 <alarm_pool_irq_handler+0x224>
10000b06:	4294      	cmp	r4, r2
10000b08:	ed80 8b02 	vstr	d8, [r0, #8]
10000b0c:	d005      	beq.n	10000b1a <alarm_pool_irq_handler+0x25a>
10000b0e:	f8a8 3000 	strh.w	r3, [r8]
10000b12:	8932      	ldrh	r2, [r6, #8]
10000b14:	f827 2031 	strh.w	r2, [r7, r1, lsl #3]
10000b18:	8134      	strh	r4, [r6, #8]
10000b1a:	4672      	mov	r2, lr
10000b1c:	e7e3      	b.n	10000ae6 <alarm_pool_irq_handler+0x226>
10000b1e:	f838 3039 	ldrh.w	r3, [r8, r9, lsl #3]
10000b22:	8133      	strh	r3, [r6, #8]
10000b24:	6933      	ldr	r3, [r6, #16]
10000b26:	f3ef 8210 	mrs	r2, PRIMASK
10000b2a:	b672      	cpsid	i
10000b2c:	e8d3 0fcf 	ldaexb	r0, [r3]
10000b30:	2101      	movs	r1, #1
10000b32:	2800      	cmp	r0, #0
10000b34:	d1fa      	bne.n	10000b2c <alarm_pool_irq_handler+0x26c>
10000b36:	e8c3 1f40 	strexb	r0, r1, [r3]
10000b3a:	2800      	cmp	r0, #0
10000b3c:	d1f6      	bne.n	10000b2c <alarm_pool_irq_handler+0x26c>
10000b3e:	f3bf 8f5f 	dmb	sy
10000b42:	8873      	ldrh	r3, [r6, #2]
10000b44:	6931      	ldr	r1, [r6, #16]
10000b46:	f828 3039 	strh.w	r3, [r8, r9, lsl #3]
10000b4a:	9b00      	ldr	r3, [sp, #0]
10000b4c:	8073      	strh	r3, [r6, #2]
10000b4e:	2300      	movs	r3, #0
10000b50:	e8c1 3f8f 	stlb	r3, [r1]
10000b54:	f382 8810 	msr	PRIMASK, r2
10000b58:	e6d4      	b.n	10000904 <alarm_pool_irq_handler+0x44>
10000b5a:	bf40      	sev
10000b5c:	b005      	add	sp, #20
10000b5e:	ecbd 8b02 	vpop	{d8}
10000b62:	e8bd 8ff0 	ldmia.w	sp!, {r4, r5, r6, r7, r8, r9, sl, fp, pc}
10000b66:	4628      	mov	r0, r5
10000b68:	e9cd 2302 	strd	r2, r3, [sp, #8]
10000b6c:	f000 fa2e 	bl	10000fcc <timer_time_us_64>
10000b70:	9a02      	ldr	r2, [sp, #8]
10000b72:	9b03      	ldr	r3, [sp, #12]
10000b74:	eb10 0e02 	adds.w	lr, r0, r2
10000b78:	eb43 0a01 	adc.w	sl, r3, r1
10000b7c:	e726      	b.n	100009cc <alarm_pool_irq_handler+0x10c>
10000b7e:	4608      	mov	r0, r1
10000b80:	690b      	ldr	r3, [r1, #16]
10000b82:	9102      	str	r1, [sp, #8]
10000b84:	4798      	blx	r3
10000b86:	2800      	cmp	r0, #0
10000b88:	d0c9      	beq.n	10000b1e <alarm_pool_irq_handler+0x25e>
10000b8a:	9902      	ldr	r1, [sp, #8]
10000b8c:	e9d1 2300 	ldrd	r2, r3, [r1]
10000b90:	e711      	b.n	100009b6 <alarm_pool_irq_handler+0xf6>
10000b92:	bf00      	nop
10000b94:	f3af 8000 	nop.w
10000b98:	ffffffff 	.word	0xffffffff
10000b9c:	ffffffff 	.word	0xffffffff
10000ba0:	400b8000 	.word	0x400b8000
10000ba4:	20000838 	.word	0x20000838
10000ba8:	400b0000 	.word	0x400b0000
10000bac:	100008c1 	.word	0x100008c1

10000bb0 <runtime_init_default_alarm_pool>:
10000bb0:	e92d 4ff8 	stmdb	sp!, {r3, r4, r5, r6, r7, r8, r9, sl, fp, lr}
10000bb4:	4c36      	ldr	r4, [pc, #216]	@ (10000c90 <runtime_init_default_alarm_pool+0xe0>)
10000bb6:	6925      	ldr	r5, [r4, #16]
10000bb8:	b12d      	cbz	r5, 10000bc6 <runtime_init_default_alarm_pool+0x16>
10000bba:	e8bd 4ff8 	ldmia.w	sp!, {r3, r4, r5, r6, r7, r8, r9, sl, fp, lr}
10000bbe:	210a      	movs	r1, #10
10000bc0:	4834      	ldr	r0, [pc, #208]	@ (10000c94 <runtime_init_default_alarm_pool+0xe4>)
10000bc2:	f7ff be31 	b.w	10000828 <lock_init>
10000bc6:	f8df 80e4 	ldr.w	r8, [pc, #228]	@ 10000cac <runtime_init_default_alarm_pool+0xfc>
10000bca:	2103      	movs	r1, #3
10000bcc:	4640      	mov	r0, r8
10000bce:	f000 f9eb 	bl	10000fa8 <timer_hardware_alarm_claim>
10000bd2:	2603      	movs	r6, #3
10000bd4:	f8c4 800c 	str.w	r8, [r4, #12]
10000bd8:	f7ff fc48 	bl	1000046c <next_striped_spin_lock_num>
10000bdc:	f04f 4c50 	mov.w	ip, #3489660928	@ 0xd0000000
10000be0:	4b2d      	ldr	r3, [pc, #180]	@ (10000c98 <runtime_init_default_alarm_pool+0xe8>)
10000be2:	7026      	strb	r6, [r4, #0]
10000be4:	4403      	add	r3, r0
10000be6:	6123      	str	r3, [r4, #16]
10000be8:	f8dc 3000 	ldr.w	r3, [ip]
10000bec:	210f      	movs	r1, #15
10000bee:	7063      	strb	r3, [r4, #1]
10000bf0:	6963      	ldr	r3, [r4, #20]
10000bf2:	8061      	strh	r1, [r4, #2]
10000bf4:	831d      	strh	r5, [r3, #24]
10000bf6:	f04f 0504 	mov.w	r5, #4
10000bfa:	f8a3 5078 	strh.w	r5, [r3, #120]	@ 0x78
10000bfe:	f04f 0505 	mov.w	r5, #5
10000c02:	f8a3 5090 	strh.w	r5, [r3, #144]	@ 0x90
10000c06:	f04f 0506 	mov.w	r5, #6
10000c0a:	f8a3 50a8 	strh.w	r5, [r3, #168]	@ 0xa8
10000c0e:	f04f 0507 	mov.w	r5, #7
10000c12:	210e      	movs	r1, #14
10000c14:	f64f 72ff 	movw	r2, #65535	@ 0xffff
10000c18:	2708      	movs	r7, #8
10000c1a:	f04f 0e0a 	mov.w	lr, #10
10000c1e:	f8a3 50c0 	strh.w	r5, [r3, #192]	@ 0xc0
10000c22:	f04f 0901 	mov.w	r9, #1
10000c26:	f04f 0c0c 	mov.w	ip, #12
10000c2a:	f04f 0b02 	mov.w	fp, #2
10000c2e:	f04f 0a09 	mov.w	sl, #9
10000c32:	200d      	movs	r0, #13
10000c34:	f04f 050b 	mov.w	r5, #11
10000c38:	f8a3 1168 	strh.w	r1, [r3, #360]	@ 0x168
10000c3c:	4917      	ldr	r1, [pc, #92]	@ (10000c9c <runtime_init_default_alarm_pool+0xec>)
10000c3e:	80a2      	strh	r2, [r4, #4]
10000c40:	f8a3 e108 	strh.w	lr, [r3, #264]	@ 0x108
10000c44:	60a1      	str	r1, [r4, #8]
10000c46:	f8a3 b048 	strh.w	fp, [r3, #72]	@ 0x48
10000c4a:	f8a3 a0f0 	strh.w	sl, [r3, #240]	@ 0xf0
10000c4e:	f8a3 5120 	strh.w	r5, [r3, #288]	@ 0x120
10000c52:	f8a3 c138 	strh.w	ip, [r3, #312]	@ 0x138
10000c56:	f8a3 0150 	strh.w	r0, [r3, #336]	@ 0x150
10000c5a:	f8a3 9030 	strh.w	r9, [r3, #48]	@ 0x30
10000c5e:	f8a3 6060 	strh.w	r6, [r3, #96]	@ 0x60
10000c62:	f8a3 70d8 	strh.w	r7, [r3, #216]	@ 0xd8
10000c66:	801a      	strh	r2, [r3, #0]
10000c68:	4b0d      	ldr	r3, [pc, #52]	@ (10000ca0 <runtime_init_default_alarm_pool+0xf0>)
10000c6a:	4630      	mov	r0, r6
10000c6c:	f8c8 7020 	str.w	r7, [r8, #32]
10000c70:	490c      	ldr	r1, [pc, #48]	@ (10000ca4 <runtime_init_default_alarm_pool+0xf4>)
10000c72:	60dc      	str	r4, [r3, #12]
10000c74:	f7ff fc50 	bl	10000518 <irq_set_exclusive_handler>
10000c78:	4649      	mov	r1, r9
10000c7a:	4630      	mov	r0, r6
10000c7c:	f7ff fc36 	bl	100004ec <irq_set_enabled>
10000c80:	4b09      	ldr	r3, [pc, #36]	@ (10000ca8 <runtime_init_default_alarm_pool+0xf8>)
10000c82:	210a      	movs	r1, #10
10000c84:	641f      	str	r7, [r3, #64]	@ 0x40
10000c86:	4803      	ldr	r0, [pc, #12]	@ (10000c94 <runtime_init_default_alarm_pool+0xe4>)
10000c88:	e8bd 4ff8 	ldmia.w	sp!, {r3, r4, r5, r6, r7, r8, r9, sl, fp, lr}
10000c8c:	f7ff bdcc 	b.w	10000828 <lock_init>
10000c90:	200005f4 	.word	0x200005f4
10000c94:	20000858 	.word	0x20000858
10000c98:	200007c0 	.word	0x200007c0
10000c9c:	0010ffff 	.word	0x0010ffff
10000ca0:	20000838 	.word	0x20000838
10000ca4:	100008c1 	.word	0x100008c1
10000ca8:	400b2000 	.word	0x400b2000
10000cac:	400b0000 	.word	0x400b0000

10000cb0 <alarm_pool_add_alarm_at_force_in_context>:
10000cb0:	4601      	mov	r1, r0
10000cb2:	b5f0      	push	{r4, r5, r6, r7, lr}
10000cb4:	6900      	ldr	r0, [r0, #16]
10000cb6:	f3ef 8710 	mrs	r7, PRIMASK
10000cba:	b672      	cpsid	i
10000cbc:	e8d0 5fcf 	ldaexb	r5, [r0]
10000cc0:	2401      	movs	r4, #1
10000cc2:	2d00      	cmp	r5, #0
10000cc4:	d1fa      	bne.n	10000cbc <alarm_pool_add_alarm_at_force_in_context+0xc>
10000cc6:	e8c0 4f45 	strexb	r5, r4, [r0]
10000cca:	2d00      	cmp	r5, #0
10000ccc:	d1f6      	bne.n	10000cbc <alarm_pool_add_alarm_at_force_in_context+0xc>
10000cce:	f3bf 8f5f 	dmb	sy
10000cd2:	f9b1 e002 	ldrsh.w	lr, [r1, #2]
10000cd6:	694c      	ldr	r4, [r1, #20]
10000cd8:	eb0e 0c4e 	add.w	ip, lr, lr, lsl #1
10000cdc:	f1be 0f00 	cmp.w	lr, #0
10000ce0:	ea4f 05cc 	mov.w	r5, ip, lsl #3
10000ce4:	6908      	ldr	r0, [r1, #16]
10000ce6:	eb04 0ccc 	add.w	ip, r4, ip, lsl #3
10000cea:	db3c      	blt.n	10000d66 <alarm_pool_add_alarm_at_force_in_context+0xb6>
10000cec:	5b66      	ldrh	r6, [r4, r5]
10000cee:	804e      	strh	r6, [r1, #2]
10000cf0:	2600      	movs	r6, #0
10000cf2:	e8c0 6f8f 	stlb	r6, [r0]
10000cf6:	f387 8810 	msr	PRIMASK, r7
10000cfa:	f8bc 0002 	ldrh.w	r0, [ip, #2]
10000cfe:	e9cc 2302 	strd	r2, r3, [ip, #8]
10000d02:	3001      	adds	r0, #1
10000d04:	f3c0 000e 	ubfx	r0, r0, #0, #15
10000d08:	2801      	cmp	r0, #1
10000d0a:	bf38      	it	cc
10000d0c:	2001      	movcc	r0, #1
10000d0e:	9b05      	ldr	r3, [sp, #20]
10000d10:	f8ac 0002 	strh.w	r0, [ip, #2]
10000d14:	f8cc 3010 	str.w	r3, [ip, #16]
10000d18:	9b06      	ldr	r3, [sp, #24]
10000d1a:	ea40 400e 	orr.w	r0, r0, lr, lsl #16
10000d1e:	f8cc 3014 	str.w	r3, [ip, #20]
10000d22:	690b      	ldr	r3, [r1, #16]
10000d24:	f3ef 8210 	mrs	r2, PRIMASK
10000d28:	b672      	cpsid	i
10000d2a:	e8d3 cfcf 	ldaexb	ip, [r3]
10000d2e:	2701      	movs	r7, #1
10000d30:	f1bc 0f00 	cmp.w	ip, #0
10000d34:	d1f9      	bne.n	10000d2a <alarm_pool_add_alarm_at_force_in_context+0x7a>
10000d36:	e8c3 7f4c 	strexb	ip, r7, [r3]
10000d3a:	f1bc 0f00 	cmp.w	ip, #0
10000d3e:	d1f4      	bne.n	10000d2a <alarm_pool_add_alarm_at_force_in_context+0x7a>
10000d40:	f3bf 8f5f 	dmb	sy
10000d44:	888b      	ldrh	r3, [r1, #4]
10000d46:	5363      	strh	r3, [r4, r5]
10000d48:	f8a1 e004 	strh.w	lr, [r1, #4]
10000d4c:	690b      	ldr	r3, [r1, #16]
10000d4e:	e8c3 6f8f 	stlb	r6, [r3]
10000d52:	f382 8810 	msr	PRIMASK, r2
10000d56:	2201      	movs	r2, #1
10000d58:	68cb      	ldr	r3, [r1, #12]
10000d5a:	7809      	ldrb	r1, [r1, #0]
10000d5c:	f503 5301 	add.w	r3, r3, #8256	@ 0x2040
10000d60:	408a      	lsls	r2, r1
10000d62:	605a      	str	r2, [r3, #4]
10000d64:	bdf0      	pop	{r4, r5, r6, r7, pc}
10000d66:	2300      	movs	r3, #0
10000d68:	e8c0 3f8f 	stlb	r3, [r0]
10000d6c:	f387 8810 	msr	PRIMASK, r7
10000d70:	f04f 30ff 	mov.w	r0, #4294967295
10000d74:	bdf0      	pop	{r4, r5, r6, r7, pc}
10000d76:	bf00      	nop

10000d78 <alarm_pool_cancel_alarm>:
10000d78:	4603      	mov	r3, r0
10000d7a:	8940      	ldrh	r0, [r0, #10]
10000d7c:	ebb0 4f21 	cmp.w	r0, r1, asr #16
10000d80:	dd37      	ble.n	10000df2 <alarm_pool_cancel_alarm+0x7a>
10000d82:	6958      	ldr	r0, [r3, #20]
10000d84:	140a      	asrs	r2, r1, #16
10000d86:	eb02 0242 	add.w	r2, r2, r2, lsl #1
10000d8a:	b510      	push	{r4, lr}
10000d8c:	eb00 00c2 	add.w	r0, r0, r2, lsl #3
10000d90:	691c      	ldr	r4, [r3, #16]
10000d92:	f3ef 8c10 	mrs	ip, PRIMASK
10000d96:	b672      	cpsid	i
10000d98:	e8d4 efcf 	ldaexb	lr, [r4]
10000d9c:	2201      	movs	r2, #1
10000d9e:	f1be 0f00 	cmp.w	lr, #0
10000da2:	d1f9      	bne.n	10000d98 <alarm_pool_cancel_alarm+0x20>
10000da4:	e8c4 2f4e 	strexb	lr, r2, [r4]
10000da8:	f1be 0f00 	cmp.w	lr, #0
10000dac:	d1f4      	bne.n	10000d98 <alarm_pool_cancel_alarm+0x20>
10000dae:	f3bf 8f5f 	dmb	sy
10000db2:	8842      	ldrh	r2, [r0, #2]
10000db4:	b289      	uxth	r1, r1
10000db6:	b292      	uxth	r2, r2
10000db8:	428a      	cmp	r2, r1
10000dba:	d007      	beq.n	10000dcc <alarm_pool_cancel_alarm+0x54>
10000dbc:	2200      	movs	r2, #0
10000dbe:	691b      	ldr	r3, [r3, #16]
10000dc0:	e8c3 2f8f 	stlb	r2, [r3]
10000dc4:	f38c 8810 	msr	PRIMASK, ip
10000dc8:	2000      	movs	r0, #0
10000dca:	bd10      	pop	{r4, pc}
10000dcc:	f442 4200 	orr.w	r2, r2, #32768	@ 0x8000
10000dd0:	8042      	strh	r2, [r0, #2]
10000dd2:	2101      	movs	r1, #1
10000dd4:	2200      	movs	r2, #0
10000dd6:	6918      	ldr	r0, [r3, #16]
10000dd8:	7199      	strb	r1, [r3, #6]
10000dda:	e8c0 2f8f 	stlb	r2, [r0]
10000dde:	f38c 8810 	msr	PRIMASK, ip
10000de2:	781c      	ldrb	r4, [r3, #0]
10000de4:	68da      	ldr	r2, [r3, #12]
10000de6:	4608      	mov	r0, r1
10000de8:	f502 5301 	add.w	r3, r2, #8256	@ 0x2040
10000dec:	40a1      	lsls	r1, r4
10000dee:	6059      	str	r1, [r3, #4]
10000df0:	bd10      	pop	{r4, pc}
10000df2:	2000      	movs	r0, #0
10000df4:	4770      	bx	lr
10000df6:	bf00      	nop

10000df8 <sleep_ms>:
10000df8:	e92d 41f0 	stmdb	sp!, {r4, r5, r6, r7, r8, lr}
10000dfc:	b082      	sub	sp, #8
10000dfe:	4606      	mov	r6, r0
10000e00:	f000 f8ec 	bl	10000fdc <time_us_64>
10000e04:	f44f 737a 	mov.w	r3, #1000	@ 0x3e8
10000e08:	4604      	mov	r4, r0
10000e0a:	f04f 30ff 	mov.w	r0, #4294967295
10000e0e:	f06f 4200 	mvn.w	r2, #2147483648	@ 0x80000000
10000e12:	fbe6 4103 	umlal	r4, r1, r6, r3
10000e16:	42a0      	cmp	r0, r4
10000e18:	eb72 0301 	sbcs.w	r3, r2, r1
10000e1c:	bf3a      	itte	cc
10000e1e:	4604      	movcc	r4, r0
10000e20:	4615      	movcc	r5, r2
10000e22:	460d      	movcs	r5, r1
10000e24:	1fa6      	subs	r6, r4, #6
10000e26:	f145 37ff 	adc.w	r7, r5, #4294967295
10000e2a:	42b4      	cmp	r4, r6
10000e2c:	eb75 0307 	sbcs.w	r3, r5, r7
10000e30:	bf3c      	itt	cc
10000e32:	2600      	movcc	r6, #0
10000e34:	4637      	movcc	r7, r6
10000e36:	f000 f8d1 	bl	10000fdc <time_us_64>
10000e3a:	1a30      	subs	r0, r6, r0
10000e3c:	eb67 0101 	sbc.w	r1, r7, r1
10000e40:	2801      	cmp	r0, #1
10000e42:	f171 0100 	sbcs.w	r1, r1, #0
10000e46:	da06      	bge.n	10000e56 <sleep_ms+0x5e>
10000e48:	4620      	mov	r0, r4
10000e4a:	4629      	mov	r1, r5
10000e4c:	b002      	add	sp, #8
10000e4e:	e8bd 41f0 	ldmia.w	sp!, {r4, r5, r6, r7, r8, lr}
10000e52:	f000 b8fb 	b.w	1000104c <busy_wait_until>
10000e56:	f000 f8c1 	bl	10000fdc <time_us_64>
10000e5a:	4286      	cmp	r6, r0
10000e5c:	eb67 0101 	sbc.w	r1, r7, r1
10000e60:	2900      	cmp	r1, #0
10000e62:	db0a      	blt.n	10000e7a <sleep_ms+0x82>
10000e64:	2100      	movs	r1, #0
10000e66:	4b17      	ldr	r3, [pc, #92]	@ (10000ec4 <sleep_ms+0xcc>)
10000e68:	4632      	mov	r2, r6
10000e6a:	9300      	str	r3, [sp, #0]
10000e6c:	4816      	ldr	r0, [pc, #88]	@ (10000ec8 <sleep_ms+0xd0>)
10000e6e:	463b      	mov	r3, r7
10000e70:	9101      	str	r1, [sp, #4]
10000e72:	f7ff ff1d 	bl	10000cb0 <alarm_pool_add_alarm_at_force_in_context>
10000e76:	3001      	adds	r0, #1
10000e78:	d0e6      	beq.n	10000e48 <sleep_ms+0x50>
10000e7a:	f04f 0c00 	mov.w	ip, #0
10000e7e:	4a13      	ldr	r2, [pc, #76]	@ (10000ecc <sleep_ms+0xd4>)
10000e80:	4913      	ldr	r1, [pc, #76]	@ (10000ed0 <sleep_ms+0xd8>)
10000e82:	6a53      	ldr	r3, [r2, #36]	@ 0x24
10000e84:	429f      	cmp	r7, r3
10000e86:	d804      	bhi.n	10000e92 <sleep_ms+0x9a>
10000e88:	6a90      	ldr	r0, [r2, #40]	@ 0x28
10000e8a:	42b0      	cmp	r0, r6
10000e8c:	d2dc      	bcs.n	10000e48 <sleep_ms+0x50>
10000e8e:	429f      	cmp	r7, r3
10000e90:	d1da      	bne.n	10000e48 <sleep_ms+0x50>
10000e92:	680b      	ldr	r3, [r1, #0]
10000e94:	f3ef 8010 	mrs	r0, PRIMASK
10000e98:	b672      	cpsid	i
10000e9a:	e8d3 8fcf 	ldaexb	r8, [r3]
10000e9e:	f05f 0e01 	movs.w	lr, #1
10000ea2:	f1b8 0f00 	cmp.w	r8, #0
10000ea6:	d1f8      	bne.n	10000e9a <sleep_ms+0xa2>
10000ea8:	e8c3 ef48 	strexb	r8, lr, [r3]
10000eac:	f1b8 0f00 	cmp.w	r8, #0
10000eb0:	d1f3      	bne.n	10000e9a <sleep_ms+0xa2>
10000eb2:	f3bf 8f5f 	dmb	sy
10000eb6:	680b      	ldr	r3, [r1, #0]
10000eb8:	e8c3 cf8f 	stlb	ip, [r3]
10000ebc:	f380 8810 	msr	PRIMASK, r0
10000ec0:	bf20      	wfe
10000ec2:	e7de      	b.n	10000e82 <sleep_ms+0x8a>
10000ec4:	10000881 	.word	0x10000881
10000ec8:	200005f4 	.word	0x200005f4
10000ecc:	400b0000 	.word	0x400b0000
10000ed0:	20000858 	.word	0x20000858

10000ed4 <best_effort_wfe_or_timeout>:
10000ed4:	e92d 43f0 	stmdb	sp!, {r4, r5, r6, r7, r8, r9, lr}
10000ed8:	4606      	mov	r6, r0
10000eda:	460d      	mov	r5, r1
10000edc:	b083      	sub	sp, #12
10000ede:	f3ef 8405 	mrs	r4, IPSR
10000ee2:	b2e4      	uxtb	r4, r4
10000ee4:	b13c      	cbz	r4, 10000ef6 <best_effort_wfe_or_timeout+0x22>
10000ee6:	4b2d      	ldr	r3, [pc, #180]	@ (10000f9c <best_effort_wfe_or_timeout+0xc8>)
10000ee8:	6a5a      	ldr	r2, [r3, #36]	@ 0x24
10000eea:	42aa      	cmp	r2, r5
10000eec:	d21c      	bcs.n	10000f28 <best_effort_wfe_or_timeout+0x54>
10000eee:	2000      	movs	r0, #0
10000ef0:	b003      	add	sp, #12
10000ef2:	e8bd 83f0 	ldmia.w	sp!, {r4, r5, r6, r7, r8, r9, pc}
10000ef6:	4f2a      	ldr	r7, [pc, #168]	@ (10000fa0 <best_effort_wfe_or_timeout+0xcc>)
10000ef8:	f8d7 900c 	ldr.w	r9, [r7, #12]
10000efc:	f897 8000 	ldrb.w	r8, [r7]
10000f00:	4648      	mov	r0, r9
10000f02:	f000 f863 	bl	10000fcc <timer_time_us_64>
10000f06:	f108 0804 	add.w	r8, r8, #4
10000f0a:	f859 3028 	ldr.w	r3, [r9, r8, lsl #2]
10000f0e:	1a1b      	subs	r3, r3, r0
10000f10:	1a30      	subs	r0, r6, r0
10000f12:	eb65 0101 	sbc.w	r1, r5, r1
10000f16:	4298      	cmp	r0, r3
10000f18:	f171 0100 	sbcs.w	r1, r1, #0
10000f1c:	db10      	blt.n	10000f40 <best_effort_wfe_or_timeout+0x6c>
10000f1e:	bf20      	wfe
10000f20:	4b1e      	ldr	r3, [pc, #120]	@ (10000f9c <best_effort_wfe_or_timeout+0xc8>)
10000f22:	6a5a      	ldr	r2, [r3, #36]	@ 0x24
10000f24:	42aa      	cmp	r2, r5
10000f26:	d3e2      	bcc.n	10000eee <best_effort_wfe_or_timeout+0x1a>
10000f28:	bf14      	ite	ne
10000f2a:	2401      	movne	r4, #1
10000f2c:	2400      	moveq	r4, #0
10000f2e:	6a9b      	ldr	r3, [r3, #40]	@ 0x28
10000f30:	42b3      	cmp	r3, r6
10000f32:	bf34      	ite	cc
10000f34:	4620      	movcc	r0, r4
10000f36:	f044 0001 	orrcs.w	r0, r4, #1
10000f3a:	b003      	add	sp, #12
10000f3c:	e8bd 83f0 	ldmia.w	sp!, {r4, r5, r6, r7, r8, r9, pc}
10000f40:	f000 f84c 	bl	10000fdc <time_us_64>
10000f44:	4286      	cmp	r6, r0
10000f46:	eb65 0101 	sbc.w	r1, r5, r1
10000f4a:	2900      	cmp	r1, #0
10000f4c:	db14      	blt.n	10000f78 <best_effort_wfe_or_timeout+0xa4>
10000f4e:	4b15      	ldr	r3, [pc, #84]	@ (10000fa4 <best_effort_wfe_or_timeout+0xd0>)
10000f50:	4638      	mov	r0, r7
10000f52:	e9cd 3400 	strd	r3, r4, [sp]
10000f56:	4632      	mov	r2, r6
10000f58:	462b      	mov	r3, r5
10000f5a:	f7ff fea9 	bl	10000cb0 <alarm_pool_add_alarm_at_force_in_context>
10000f5e:	1e01      	subs	r1, r0, #0
10000f60:	dd0a      	ble.n	10000f78 <best_effort_wfe_or_timeout+0xa4>
10000f62:	4b0e      	ldr	r3, [pc, #56]	@ (10000f9c <best_effort_wfe_or_timeout+0xc8>)
10000f64:	6a5a      	ldr	r2, [r3, #36]	@ 0x24
10000f66:	42aa      	cmp	r2, r5
10000f68:	d316      	bcc.n	10000f98 <best_effort_wfe_or_timeout+0xc4>
10000f6a:	6a9b      	ldr	r3, [r3, #40]	@ 0x28
10000f6c:	42b3      	cmp	r3, r6
10000f6e:	d311      	bcc.n	10000f94 <best_effort_wfe_or_timeout+0xc0>
10000f70:	480b      	ldr	r0, [pc, #44]	@ (10000fa0 <best_effort_wfe_or_timeout+0xcc>)
10000f72:	f7ff ff01 	bl	10000d78 <alarm_pool_cancel_alarm>
10000f76:	e7b6      	b.n	10000ee6 <best_effort_wfe_or_timeout+0x12>
10000f78:	4b08      	ldr	r3, [pc, #32]	@ (10000f9c <best_effort_wfe_or_timeout+0xc8>)
10000f7a:	6a5c      	ldr	r4, [r3, #36]	@ 0x24
10000f7c:	42ac      	cmp	r4, r5
10000f7e:	d3b6      	bcc.n	10000eee <best_effort_wfe_or_timeout+0x1a>
10000f80:	1b64      	subs	r4, r4, r5
10000f82:	bf18      	it	ne
10000f84:	2401      	movne	r4, #1
10000f86:	6a9b      	ldr	r3, [r3, #40]	@ 0x28
10000f88:	42b3      	cmp	r3, r6
10000f8a:	bf34      	ite	cc
10000f8c:	4620      	movcc	r0, r4
10000f8e:	f044 0001 	orrcs.w	r0, r4, #1
10000f92:	e7ad      	b.n	10000ef0 <best_effort_wfe_or_timeout+0x1c>
10000f94:	42aa      	cmp	r2, r5
10000f96:	d1eb      	bne.n	10000f70 <best_effort_wfe_or_timeout+0x9c>
10000f98:	bf20      	wfe
10000f9a:	e7e9      	b.n	10000f70 <best_effort_wfe_or_timeout+0x9c>
10000f9c:	400b0000 	.word	0x400b0000
10000fa0:	200005f4 	.word	0x200005f4
10000fa4:	10000881 	.word	0x10000881

10000fa8 <timer_hardware_alarm_claim>:
10000fa8:	b410      	push	{r4}
10000faa:	4b05      	ldr	r3, [pc, #20]	@ (10000fc0 <timer_hardware_alarm_claim+0x18>)
10000fac:	4c05      	ldr	r4, [pc, #20]	@ (10000fc4 <timer_hardware_alarm_claim+0x1c>)
10000fae:	4a06      	ldr	r2, [pc, #24]	@ (10000fc8 <timer_hardware_alarm_claim+0x20>)
10000fb0:	42a0      	cmp	r0, r4
10000fb2:	bf14      	ite	ne
10000fb4:	4618      	movne	r0, r3
10000fb6:	1c58      	addeq	r0, r3, #1
10000fb8:	f85d 4b04 	ldr.w	r4, [sp], #4
10000fbc:	f7ff ba2a 	b.w	10000414 <hw_claim_or_assert>
10000fc0:	200007e8 	.word	0x200007e8
10000fc4:	400b8000 	.word	0x400b8000
10000fc8:	1000392c 	.word	0x1000392c

10000fcc <timer_time_us_64>:
10000fcc:	4603      	mov	r3, r0
10000fce:	6a41      	ldr	r1, [r0, #36]	@ 0x24
10000fd0:	460a      	mov	r2, r1
10000fd2:	6a98      	ldr	r0, [r3, #40]	@ 0x28
10000fd4:	6a59      	ldr	r1, [r3, #36]	@ 0x24
10000fd6:	428a      	cmp	r2, r1
10000fd8:	d1fa      	bne.n	10000fd0 <timer_time_us_64+0x4>
10000fda:	4770      	bx	lr

10000fdc <time_us_64>:
10000fdc:	4b03      	ldr	r3, [pc, #12]	@ (10000fec <time_us_64+0x10>)
10000fde:	6a59      	ldr	r1, [r3, #36]	@ 0x24
10000fe0:	460a      	mov	r2, r1
10000fe2:	6a98      	ldr	r0, [r3, #40]	@ 0x28
10000fe4:	6a59      	ldr	r1, [r3, #36]	@ 0x24
10000fe6:	4291      	cmp	r1, r2
10000fe8:	d1fa      	bne.n	10000fe0 <time_us_64+0x4>
10000fea:	4770      	bx	lr
10000fec:	400b0000 	.word	0x400b0000

10000ff0 <busy_wait_us>:
10000ff0:	b430      	push	{r4, r5}
10000ff2:	4a15      	ldr	r2, [pc, #84]	@ (10001048 <busy_wait_us+0x58>)
10000ff4:	6a53      	ldr	r3, [r2, #36]	@ 0x24
10000ff6:	469c      	mov	ip, r3
10000ff8:	6a94      	ldr	r4, [r2, #40]	@ 0x28
10000ffa:	6a53      	ldr	r3, [r2, #36]	@ 0x24
10000ffc:	4563      	cmp	r3, ip
10000ffe:	d1fa      	bne.n	10000ff6 <busy_wait_us+0x6>
10001000:	1902      	adds	r2, r0, r4
10001002:	4159      	adcs	r1, r3
10001004:	f04f 0500 	mov.w	r5, #0
10001008:	bf28      	it	cs
1000100a:	2501      	movcs	r5, #1
1000100c:	4b0e      	ldr	r3, [pc, #56]	@ (10001048 <busy_wait_us+0x58>)
1000100e:	6a5b      	ldr	r3, [r3, #36]	@ 0x24
10001010:	b1b5      	cbz	r5, 10001040 <busy_wait_us+0x50>
10001012:	1c5a      	adds	r2, r3, #1
10001014:	bf08      	it	eq
10001016:	461a      	moveq	r2, r3
10001018:	d008      	beq.n	1000102c <busy_wait_us+0x3c>
1000101a:	f04f 31ff 	mov.w	r1, #4294967295
1000101e:	460a      	mov	r2, r1
10001020:	4809      	ldr	r0, [pc, #36]	@ (10001048 <busy_wait_us+0x58>)
10001022:	6a43      	ldr	r3, [r0, #36]	@ 0x24
10001024:	428b      	cmp	r3, r1
10001026:	d3fc      	bcc.n	10001022 <busy_wait_us+0x32>
10001028:	428b      	cmp	r3, r1
1000102a:	d107      	bne.n	1000103c <busy_wait_us+0x4c>
1000102c:	4906      	ldr	r1, [pc, #24]	@ (10001048 <busy_wait_us+0x58>)
1000102e:	e002      	b.n	10001036 <busy_wait_us+0x46>
10001030:	6a48      	ldr	r0, [r1, #36]	@ 0x24
10001032:	4298      	cmp	r0, r3
10001034:	d102      	bne.n	1000103c <busy_wait_us+0x4c>
10001036:	6a88      	ldr	r0, [r1, #40]	@ 0x28
10001038:	4290      	cmp	r0, r2
1000103a:	d3f9      	bcc.n	10001030 <busy_wait_us+0x40>
1000103c:	bc30      	pop	{r4, r5}
1000103e:	4770      	bx	lr
10001040:	4299      	cmp	r1, r3
10001042:	d8ed      	bhi.n	10001020 <busy_wait_us+0x30>
10001044:	e7f0      	b.n	10001028 <busy_wait_us+0x38>
10001046:	bf00      	nop
10001048:	400b0000 	.word	0x400b0000

1000104c <busy_wait_until>:
1000104c:	4a07      	ldr	r2, [pc, #28]	@ (1000106c <busy_wait_until+0x20>)
1000104e:	6a53      	ldr	r3, [r2, #36]	@ 0x24
10001050:	4299      	cmp	r1, r3
10001052:	d8fc      	bhi.n	1000104e <busy_wait_until+0x2>
10001054:	4299      	cmp	r1, r3
10001056:	d107      	bne.n	10001068 <busy_wait_until+0x1c>
10001058:	4b04      	ldr	r3, [pc, #16]	@ (1000106c <busy_wait_until+0x20>)
1000105a:	e002      	b.n	10001062 <busy_wait_until+0x16>
1000105c:	6a5a      	ldr	r2, [r3, #36]	@ 0x24
1000105e:	4291      	cmp	r1, r2
10001060:	d102      	bne.n	10001068 <busy_wait_until+0x1c>
10001062:	6a9a      	ldr	r2, [r3, #40]	@ 0x28
10001064:	4290      	cmp	r0, r2
10001066:	d8f9      	bhi.n	1000105c <busy_wait_until+0x10>
10001068:	4770      	bx	lr
1000106a:	bf00      	nop
1000106c:	400b0000 	.word	0x400b0000

10001070 <uart_init>:
10001070:	b5f8      	push	{r3, r4, r5, r6, r7, lr}
10001072:	4605      	mov	r5, r0
10001074:	2006      	movs	r0, #6
10001076:	460e      	mov	r6, r1
10001078:	f000 f8e4 	bl	10001244 <clock_get_hz>
1000107c:	2800      	cmp	r0, #0
1000107e:	d042      	beq.n	10001106 <uart_init+0x96>
10001080:	4a35      	ldr	r2, [pc, #212]	@ (10001158 <uart_init+0xe8>)
10001082:	4836      	ldr	r0, [pc, #216]	@ (1000115c <uart_init+0xec>)
10001084:	4295      	cmp	r5, r2
10001086:	bf14      	ite	ne
10001088:	f04f 6280 	movne.w	r2, #67108864	@ 0x4000000
1000108c:	f04f 6200 	moveq.w	r2, #134217728	@ 0x8000000
10001090:	4b33      	ldr	r3, [pc, #204]	@ (10001160 <uart_init+0xf0>)
10001092:	4934      	ldr	r1, [pc, #208]	@ (10001164 <uart_init+0xf4>)
10001094:	6002      	str	r2, [r0, #0]
10001096:	601a      	str	r2, [r3, #0]
10001098:	688c      	ldr	r4, [r1, #8]
1000109a:	ea32 0404 	bics.w	r4, r2, r4
1000109e:	d1fb      	bne.n	10001098 <uart_init+0x28>
100010a0:	4b2d      	ldr	r3, [pc, #180]	@ (10001158 <uart_init+0xe8>)
100010a2:	f44f 7180 	mov.w	r1, #256	@ 0x100
100010a6:	1aeb      	subs	r3, r5, r3
100010a8:	fab3 f383 	clz	r3, r3
100010ac:	4a2e      	ldr	r2, [pc, #184]	@ (10001168 <uart_init+0xf8>)
100010ae:	095b      	lsrs	r3, r3, #5
100010b0:	2006      	movs	r0, #6
100010b2:	f822 1013 	strh.w	r1, [r2, r3, lsl #1]
100010b6:	f000 f8c5 	bl	10001244 <clock_get_hz>
100010ba:	00c3      	lsls	r3, r0, #3
100010bc:	fbb3 f3f6 	udiv	r3, r3, r6
100010c0:	3301      	adds	r3, #1
100010c2:	09da      	lsrs	r2, r3, #7
100010c4:	d120      	bne.n	10001108 <uart_init+0x98>
100010c6:	2640      	movs	r6, #64	@ 0x40
100010c8:	2101      	movs	r1, #1
100010ca:	6269      	str	r1, [r5, #36]	@ 0x24
100010cc:	62aa      	str	r2, [r5, #40]	@ 0x28
100010ce:	6b2f      	ldr	r7, [r5, #48]	@ 0x30
100010d0:	07fb      	lsls	r3, r7, #31
100010d2:	d422      	bmi.n	1000111a <uart_init+0xaa>
100010d4:	462b      	mov	r3, r5
100010d6:	2200      	movs	r2, #0
100010d8:	f853 1f2c 	ldr.w	r1, [r3, #44]!
100010dc:	2006      	movs	r0, #6
100010de:	f503 5480 	add.w	r4, r3, #4096	@ 0x1000
100010e2:	6022      	str	r2, [r4, #0]
100010e4:	632f      	str	r7, [r5, #48]	@ 0x30
100010e6:	f000 f8ad 	bl	10001244 <clock_get_hz>
100010ea:	f240 3101 	movw	r1, #769	@ 0x301
100010ee:	2203      	movs	r2, #3
100010f0:	0080      	lsls	r0, r0, #2
100010f2:	fbb0 f0f6 	udiv	r0, r0, r6
100010f6:	6aeb      	ldr	r3, [r5, #44]	@ 0x2c
100010f8:	f083 0370 	eor.w	r3, r3, #112	@ 0x70
100010fc:	f003 037e 	and.w	r3, r3, #126	@ 0x7e
10001100:	6023      	str	r3, [r4, #0]
10001102:	6329      	str	r1, [r5, #48]	@ 0x30
10001104:	64aa      	str	r2, [r5, #72]	@ 0x48
10001106:	bdf8      	pop	{r3, r4, r5, r6, r7, pc}
10001108:	f64f 71fe 	movw	r1, #65534	@ 0xfffe
1000110c:	428a      	cmp	r2, r1
1000110e:	d91b      	bls.n	10001148 <uart_init+0xd8>
10001110:	4622      	mov	r2, r4
10001112:	f64f 71ff 	movw	r1, #65535	@ 0xffff
10001116:	4e15      	ldr	r6, [pc, #84]	@ (1000116c <uart_init+0xfc>)
10001118:	e7d7      	b.n	100010ca <uart_init+0x5a>
1000111a:	f240 3201 	movw	r2, #769	@ 0x301
1000111e:	f505 5340 	add.w	r3, r5, #12288	@ 0x3000
10001122:	631a      	str	r2, [r3, #48]	@ 0x30
10001124:	6a6b      	ldr	r3, [r5, #36]	@ 0x24
10001126:	6aac      	ldr	r4, [r5, #40]	@ 0x28
10001128:	2006      	movs	r0, #6
1000112a:	eb04 1483 	add.w	r4, r4, r3, lsl #6
1000112e:	f000 f889 	bl	10001244 <clock_get_hz>
10001132:	4b0f      	ldr	r3, [pc, #60]	@ (10001170 <uart_init+0x100>)
10001134:	02a4      	lsls	r4, r4, #10
10001136:	fba3 2300 	umull	r2, r3, r3, r0
1000113a:	0adb      	lsrs	r3, r3, #11
1000113c:	2100      	movs	r1, #0
1000113e:	fbb4 f0f3 	udiv	r0, r4, r3
10001142:	f7ff ff55 	bl	10000ff0 <busy_wait_us>
10001146:	e7c5      	b.n	100010d4 <uart_init+0x64>
10001148:	f3c3 0345 	ubfx	r3, r3, #1, #6
1000114c:	4611      	mov	r1, r2
1000114e:	eb03 1682 	add.w	r6, r3, r2, lsl #6
10001152:	461a      	mov	r2, r3
10001154:	e7b9      	b.n	100010ca <uart_init+0x5a>
10001156:	bf00      	nop
10001158:	40078000 	.word	0x40078000
1000115c:	40022000 	.word	0x40022000
10001160:	40023000 	.word	0x40023000
10001164:	40020000 	.word	0x40020000
10001168:	2000085c 	.word	0x2000085c
1000116c:	003fffc0 	.word	0x003fffc0
10001170:	8f2b7b75 	.word	0x8f2b7b75

10001174 <clock_configure_undivided>:
10001174:	eb00 0c40 	add.w	ip, r0, r0, lsl #1
10001178:	ea4f 0c8c 	mov.w	ip, ip, lsl #2
1000117c:	f10c 4c80 	add.w	ip, ip, #1073741824	@ 0x40000000
10001180:	f50c 3c80 	add.w	ip, ip, #65536	@ 0x10000
10001184:	b5f0      	push	{r4, r5, r6, r7, lr}
10001186:	4616      	mov	r6, r2
10001188:	f8dc 2004 	ldr.w	r2, [ip, #4]
1000118c:	1f05      	subs	r5, r0, #4
1000118e:	f5b2 3f80 	cmp.w	r2, #65536	@ 0x10000
10001192:	bf38      	it	cc
10001194:	f44f 3280 	movcc.w	r2, #65536	@ 0x10000
10001198:	b2ed      	uxtb	r5, r5
1000119a:	bf38      	it	cc
1000119c:	f8cc 2004 	strcc.w	r2, [ip, #4]
100011a0:	2d01      	cmp	r5, #1
100011a2:	d92a      	bls.n	100011fa <clock_configure_undivided+0x86>
100011a4:	f44f 6700 	mov.w	r7, #2048	@ 0x800
100011a8:	4c25      	ldr	r4, [pc, #148]	@ (10001240 <clock_configure_undivided+0xcc>)
100011aa:	f50c 5240 	add.w	r2, ip, #12288	@ 0x3000
100011ae:	6017      	str	r7, [r2, #0]
100011b0:	f854 2020 	ldr.w	r2, [r4, r0, lsl #2]
100011b4:	b9b2      	cbnz	r2, 100011e4 <clock_configure_undivided+0x70>
100011b6:	f8dc 2000 	ldr.w	r2, [ip]
100011ba:	2d01      	cmp	r5, #1
100011bc:	ea82 1246 	eor.w	r2, r2, r6, lsl #5
100011c0:	f002 02e0 	and.w	r2, r2, #224	@ 0xe0
100011c4:	f50c 5680 	add.w	r6, ip, #4096	@ 0x1000
100011c8:	6032      	str	r2, [r6, #0]
100011ca:	d92a      	bls.n	10001222 <clock_configure_undivided+0xae>
100011cc:	f44f 6100 	mov.w	r1, #2048	@ 0x800
100011d0:	f844 3020 	str.w	r3, [r4, r0, lsl #2]
100011d4:	f44f 3380 	mov.w	r3, #65536	@ 0x10000
100011d8:	f50c 5200 	add.w	r2, ip, #8192	@ 0x2000
100011dc:	6011      	str	r1, [r2, #0]
100011de:	f8cc 3004 	str.w	r3, [ip, #4]
100011e2:	bdf0      	pop	{r4, r5, r6, r7, pc}
100011e4:	6967      	ldr	r7, [r4, #20]
100011e6:	fbb7 fef2 	udiv	lr, r7, r2
100011ea:	f10e 0e01 	add.w	lr, lr, #1
100011ee:	eb0e 0e4e 	add.w	lr, lr, lr, lsl #1
100011f2:	f1be 0e03 	subs.w	lr, lr, #3
100011f6:	d2fc      	bcs.n	100011f2 <clock_configure_undivided+0x7e>
100011f8:	e7dd      	b.n	100011b6 <clock_configure_undivided+0x42>
100011fa:	2901      	cmp	r1, #1
100011fc:	d1d2      	bne.n	100011a4 <clock_configure_undivided+0x30>
100011fe:	2403      	movs	r4, #3
10001200:	f50c 5240 	add.w	r2, ip, #12288	@ 0x3000
10001204:	6014      	str	r4, [r2, #0]
10001206:	f8dc 2008 	ldr.w	r2, [ip, #8]
1000120a:	07d2      	lsls	r2, r2, #31
1000120c:	d5fb      	bpl.n	10001206 <clock_configure_undivided+0x92>
1000120e:	f8dc 2000 	ldr.w	r2, [ip]
10001212:	4c0b      	ldr	r4, [pc, #44]	@ (10001240 <clock_configure_undivided+0xcc>)
10001214:	ea82 1246 	eor.w	r2, r2, r6, lsl #5
10001218:	f002 02e0 	and.w	r2, r2, #224	@ 0xe0
1000121c:	f50c 5680 	add.w	r6, ip, #4096	@ 0x1000
10001220:	6032      	str	r2, [r6, #0]
10001222:	2201      	movs	r2, #1
10001224:	f8dc 5000 	ldr.w	r5, [ip]
10001228:	404d      	eors	r5, r1
1000122a:	f005 0503 	and.w	r5, r5, #3
1000122e:	6035      	str	r5, [r6, #0]
10001230:	fa02 f101 	lsl.w	r1, r2, r1
10001234:	f8dc 2008 	ldr.w	r2, [ip, #8]
10001238:	420a      	tst	r2, r1
1000123a:	d0fb      	beq.n	10001234 <clock_configure_undivided+0xc0>
1000123c:	e7c6      	b.n	100011cc <clock_configure_undivided+0x58>
1000123e:	bf00      	nop
10001240:	200007ec 	.word	0x200007ec

10001244 <clock_get_hz>:
10001244:	4b01      	ldr	r3, [pc, #4]	@ (1000124c <clock_get_hz+0x8>)
10001246:	f853 0020 	ldr.w	r0, [r3, r0, lsl #2]
1000124a:	4770      	bx	lr
1000124c:	200007ec 	.word	0x200007ec

10001250 <pll_init>:
10001250:	b470      	push	{r4, r5, r6}
10001252:	9d03      	ldr	r5, [sp, #12]
10001254:	6804      	ldr	r4, [r0, #0]
10001256:	032d      	lsls	r5, r5, #12
10001258:	ea45 4503 	orr.w	r5, r5, r3, lsl #16
1000125c:	4b1b      	ldr	r3, [pc, #108]	@ (100012cc <pll_init+0x7c>)
1000125e:	2c00      	cmp	r4, #0
10001260:	fbb3 f3f1 	udiv	r3, r3, r1
10001264:	fbb2 f6f3 	udiv	r6, r2, r3
10001268:	db1f      	blt.n	100012aa <pll_init+0x5a>
1000126a:	4a19      	ldr	r2, [pc, #100]	@ (100012d0 <pll_init+0x80>)
1000126c:	4b19      	ldr	r3, [pc, #100]	@ (100012d4 <pll_init+0x84>)
1000126e:	4290      	cmp	r0, r2
10001270:	bf14      	ite	ne
10001272:	f44f 4280 	movne.w	r2, #16384	@ 0x4000
10001276:	f44f 4200 	moveq.w	r2, #32768	@ 0x8000
1000127a:	4c17      	ldr	r4, [pc, #92]	@ (100012d8 <pll_init+0x88>)
1000127c:	601a      	str	r2, [r3, #0]
1000127e:	f503 5380 	add.w	r3, r3, #4096	@ 0x1000
10001282:	601a      	str	r2, [r3, #0]
10001284:	68a3      	ldr	r3, [r4, #8]
10001286:	ea32 0303 	bics.w	r3, r2, r3
1000128a:	d1fb      	bne.n	10001284 <pll_init+0x34>
1000128c:	2221      	movs	r2, #33	@ 0x21
1000128e:	f500 5340 	add.w	r3, r0, #12288	@ 0x3000
10001292:	3304      	adds	r3, #4
10001294:	6001      	str	r1, [r0, #0]
10001296:	6086      	str	r6, [r0, #8]
10001298:	601a      	str	r2, [r3, #0]
1000129a:	6802      	ldr	r2, [r0, #0]
1000129c:	2a00      	cmp	r2, #0
1000129e:	dafc      	bge.n	1000129a <pll_init+0x4a>
100012a0:	2208      	movs	r2, #8
100012a2:	60c5      	str	r5, [r0, #12]
100012a4:	601a      	str	r2, [r3, #0]
100012a6:	bc70      	pop	{r4, r5, r6}
100012a8:	4770      	bx	lr
100012aa:	6803      	ldr	r3, [r0, #0]
100012ac:	f003 033f 	and.w	r3, r3, #63	@ 0x3f
100012b0:	428b      	cmp	r3, r1
100012b2:	d1da      	bne.n	1000126a <pll_init+0x1a>
100012b4:	6883      	ldr	r3, [r0, #8]
100012b6:	f3c3 030b 	ubfx	r3, r3, #0, #12
100012ba:	42b3      	cmp	r3, r6
100012bc:	d1d5      	bne.n	1000126a <pll_init+0x1a>
100012be:	68c3      	ldr	r3, [r0, #12]
100012c0:	f403 23ee 	and.w	r3, r3, #487424	@ 0x77000
100012c4:	42ab      	cmp	r3, r5
100012c6:	d1d0      	bne.n	1000126a <pll_init+0x1a>
100012c8:	e7ed      	b.n	100012a6 <pll_init+0x56>
100012ca:	bf00      	nop
100012cc:	00b71b00 	.word	0x00b71b00
100012d0:	40058000 	.word	0x40058000
100012d4:	40022000 	.word	0x40022000
100012d8:	40020000 	.word	0x40020000

100012dc <tick_start>:
100012dc:	2301      	movs	r3, #1
100012de:	eb00 0040 	add.w	r0, r0, r0, lsl #1
100012e2:	0080      	lsls	r0, r0, #2
100012e4:	f100 4080 	add.w	r0, r0, #1073741824	@ 0x40000000
100012e8:	f500 1084 	add.w	r0, r0, #1081344	@ 0x108000
100012ec:	6041      	str	r1, [r0, #4]
100012ee:	6003      	str	r3, [r0, #0]
100012f0:	4770      	bx	lr
100012f2:	bf00      	nop

100012f4 <rom_func_lookup>:
100012f4:	2300      	movs	r3, #0
100012f6:	8adb      	ldrh	r3, [r3, #22]
100012f8:	2200      	movs	r2, #0
100012fa:	e842 f200 	tt	r2, r2
100012fe:	0252      	lsls	r2, r2, #9
10001300:	d401      	bmi.n	10001306 <rom_func_lookup+0x12>
10001302:	2110      	movs	r1, #16
10001304:	4718      	bx	r3
10001306:	2104      	movs	r1, #4
10001308:	4718      	bx	r3
1000130a:	bf00      	nop

1000130c <runtime_init_bootrom_locking_enable>:
1000130c:	4a03      	ldr	r2, [pc, #12]	@ (1000131c <runtime_init_bootrom_locking_enable+0x10>)
1000130e:	f8d2 3828 	ldr.w	r3, [r2, #2088]	@ 0x828
10001312:	2b00      	cmp	r3, #0
10001314:	d0fb      	beq.n	1000130e <runtime_init_bootrom_locking_enable+0x2>
10001316:	f3bf 8f5f 	dmb	sy
1000131a:	4770      	bx	lr
1000131c:	400e0000 	.word	0x400e0000

10001320 <runtime_init_boot_locks_reset>:
10001320:	2100      	movs	r1, #0
10001322:	4b04      	ldr	r3, [pc, #16]	@ (10001334 <runtime_init_boot_locks_reset+0x14>)
10001324:	4a04      	ldr	r2, [pc, #16]	@ (10001338 <runtime_init_boot_locks_reset+0x18>)
10001326:	f3bf 8f5f 	dmb	sy
1000132a:	f843 1b04 	str.w	r1, [r3], #4
1000132e:	4293      	cmp	r3, r2
10001330:	d1f9      	bne.n	10001326 <runtime_init_boot_locks_reset+0x6>
10001332:	4770      	bx	lr
10001334:	400e080c 	.word	0x400e080c
10001338:	400e082c 	.word	0x400e082c

1000133c <xosc_init>:
1000133c:	b410      	push	{r4}
1000133e:	f44f 708d 	mov.w	r0, #282	@ 0x11a
10001342:	f44f 642a 	mov.w	r4, #2720	@ 0xaa0
10001346:	4a06      	ldr	r2, [pc, #24]	@ (10001360 <xosc_init+0x24>)
10001348:	4b06      	ldr	r3, [pc, #24]	@ (10001364 <xosc_init+0x28>)
1000134a:	4907      	ldr	r1, [pc, #28]	@ (10001368 <xosc_init+0x2c>)
1000134c:	6014      	str	r4, [r2, #0]
1000134e:	60d0      	str	r0, [r2, #12]
10001350:	6019      	str	r1, [r3, #0]
10001352:	6853      	ldr	r3, [r2, #4]
10001354:	2b00      	cmp	r3, #0
10001356:	dafc      	bge.n	10001352 <xosc_init+0x16>
10001358:	f85d 4b04 	ldr.w	r4, [sp], #4
1000135c:	4770      	bx	lr
1000135e:	bf00      	nop
10001360:	40048000 	.word	0x40048000
10001364:	4004a000 	.word	0x4004a000
10001368:	00fab000 	.word	0x00fab000

1000136c <first_per_core_initializer>:
1000136c:	4770      	bx	lr
1000136e:	bf00      	nop

10001370 <hard_assertion_failure>:
10001370:	b508      	push	{r3, lr}
10001372:	4801      	ldr	r0, [pc, #4]	@ (10001378 <hard_assertion_failure+0x8>)
10001374:	f7ff f836 	bl	100003e4 <panic>
10001378:	10003950 	.word	0x10003950

1000137c <runtime_run_initializers>:
1000137c:	b538      	push	{r3, r4, r5, lr}
1000137e:	4c05      	ldr	r4, [pc, #20]	@ (10001394 <runtime_run_initializers+0x18>)
10001380:	4d05      	ldr	r5, [pc, #20]	@ (10001398 <runtime_run_initializers+0x1c>)
10001382:	42ac      	cmp	r4, r5
10001384:	d204      	bcs.n	10001390 <runtime_run_initializers+0x14>
10001386:	f854 3b04 	ldr.w	r3, [r4], #4
1000138a:	4798      	blx	r3
1000138c:	42ac      	cmp	r4, r5
1000138e:	d3fa      	bcc.n	10001386 <runtime_run_initializers+0xa>
10001390:	bd38      	pop	{r3, r4, r5, pc}
10001392:	bf00      	nop
10001394:	10003828 	.word	0x10003828
10001398:	10003868 	.word	0x10003868

1000139c <runtime_init_early_resets>:
1000139c:	b410      	push	{r4}
1000139e:	4807      	ldr	r0, [pc, #28]	@ (100013bc <runtime_init_early_resets+0x20>)
100013a0:	4c07      	ldr	r4, [pc, #28]	@ (100013c0 <runtime_init_early_resets+0x24>)
100013a2:	4b08      	ldr	r3, [pc, #32]	@ (100013c4 <runtime_init_early_resets+0x28>)
100013a4:	4a08      	ldr	r2, [pc, #32]	@ (100013c8 <runtime_init_early_resets+0x2c>)
100013a6:	4909      	ldr	r1, [pc, #36]	@ (100013cc <runtime_init_early_resets+0x30>)
100013a8:	6004      	str	r4, [r0, #0]
100013aa:	601a      	str	r2, [r3, #0]
100013ac:	688b      	ldr	r3, [r1, #8]
100013ae:	ea32 0303 	bics.w	r3, r2, r3
100013b2:	d1fb      	bne.n	100013ac <runtime_init_early_resets+0x10>
100013b4:	f85d 4b04 	ldr.w	r4, [sp], #4
100013b8:	4770      	bx	lr
100013ba:	bf00      	nop
100013bc:	40022000 	.word	0x40022000
100013c0:	efef3b7f 	.word	0xefef3b7f
100013c4:	40023000 	.word	0x40023000
100013c8:	03f3fff6 	.word	0x03f3fff6
100013cc:	40020000 	.word	0x40020000

100013d0 <runtime_init_usb_power_down>:
100013d0:	4b04      	ldr	r3, [pc, #16]	@ (100013e4 <runtime_init_usb_power_down+0x14>)
100013d2:	6cdb      	ldr	r3, [r3, #76]	@ 0x4c
100013d4:	f5b3 4f00 	cmp.w	r3, #32768	@ 0x8000
100013d8:	d103      	bne.n	100013e2 <runtime_init_usb_power_down+0x12>
100013da:	f44f 2280 	mov.w	r2, #262144	@ 0x40000
100013de:	4b02      	ldr	r3, [pc, #8]	@ (100013e8 <runtime_init_usb_power_down+0x18>)
100013e0:	64da      	str	r2, [r3, #76]	@ 0x4c
100013e2:	4770      	bx	lr
100013e4:	50110000 	.word	0x50110000
100013e8:	50112000 	.word	0x50112000

100013ec <runtime_init_per_core_enable_coprocessors>:
100013ec:	f04f 22e0 	mov.w	r2, #3758153728	@ 0xe000e000
100013f0:	4b04      	ldr	r3, [pc, #16]	@ (10001404 <runtime_init_per_core_enable_coprocessors+0x18>)
100013f2:	f8d2 1d88 	ldr.w	r1, [r2, #3464]	@ 0xd88
100013f6:	430b      	orrs	r3, r1
100013f8:	f8c2 3d88 	str.w	r3, [r2, #3464]	@ 0xd88
100013fc:	ee10 0430 			dcp_rcmp r0
10001400:	4770      	bx	lr
10001402:	bf00      	nop
10001404:	00300303 	.word	0x00300303

10001408 <runtime_init_post_clock_resets>:
10001408:	f06f 4160 	mvn.w	r1, #3758096384	@ 0xe0000000
1000140c:	4b04      	ldr	r3, [pc, #16]	@ (10001420 <runtime_init_post_clock_resets+0x18>)
1000140e:	4a05      	ldr	r2, [pc, #20]	@ (10001424 <runtime_init_post_clock_resets+0x1c>)
10001410:	6019      	str	r1, [r3, #0]
10001412:	6893      	ldr	r3, [r2, #8]
10001414:	43db      	mvns	r3, r3
10001416:	f033 4360 	bics.w	r3, r3, #3758096384	@ 0xe0000000
1000141a:	d1fa      	bne.n	10001412 <runtime_init_post_clock_resets+0xa>
1000141c:	4770      	bx	lr
1000141e:	bf00      	nop
10001420:	40023000 	.word	0x40023000
10001424:	40020000 	.word	0x40020000

10001428 <runtime_init_bootrom_reset>:
10001428:	b510      	push	{r4, lr}
1000142a:	f245 2053 	movw	r0, #21075	@ 0x5253
1000142e:	f7ff ff61 	bl	100012f4 <rom_func_lookup>
10001432:	e8bd 4010 	ldmia.w	sp!, {r4, lr}
10001436:	4603      	mov	r3, r0
10001438:	2004      	movs	r0, #4
1000143a:	4718      	bx	r3

1000143c <runtime_init_per_core_bootrom_reset>:
1000143c:	b510      	push	{r4, lr}
1000143e:	f245 2053 	movw	r0, #21075	@ 0x5253
10001442:	f7ff ff57 	bl	100012f4 <rom_func_lookup>
10001446:	e8bd 4010 	ldmia.w	sp!, {r4, lr}
1000144a:	4603      	mov	r3, r0
1000144c:	2001      	movs	r0, #1
1000144e:	4718      	bx	r3

10001450 <runtime_init_spin_locks_reset>:
10001450:	f7ff b820 	b.w	10000494 <spin_locks_reset>

10001454 <runtime_init_install_ram_vector_table>:
10001454:	4914      	ldr	r1, [pc, #80]	@ (100014a8 <runtime_init_install_ram_vector_table+0x54>)
10001456:	4b15      	ldr	r3, [pc, #84]	@ (100014ac <runtime_init_install_ram_vector_table+0x58>)
10001458:	b570      	push	{r4, r5, r6, lr}
1000145a:	1a5c      	subs	r4, r3, r1
1000145c:	10a6      	asrs	r6, r4, #2
1000145e:	2e44      	cmp	r6, #68	@ 0x44
10001460:	4632      	mov	r2, r6
10001462:	bf28      	it	cs
10001464:	2244      	movcs	r2, #68	@ 0x44
10001466:	4d12      	ldr	r5, [pc, #72]	@ (100014b0 <runtime_init_install_ram_vector_table+0x5c>)
10001468:	0092      	lsls	r2, r2, #2
1000146a:	4628      	mov	r0, r5
1000146c:	f002 f92a 	bl	100036c4 <memcpy>
10001470:	f5b4 7f86 	cmp.w	r4, #268	@ 0x10c
10001474:	d813      	bhi.n	1000149e <runtime_init_install_ram_vector_table+0x4a>
10001476:	4a0f      	ldr	r2, [pc, #60]	@ (100014b4 <runtime_init_install_ram_vector_table+0x60>)
10001478:	f1c6 0044 	rsb	r0, r6, #68	@ 0x44
1000147c:	d012      	beq.n	100014a4 <runtime_init_install_ram_vector_table+0x50>
1000147e:	192b      	adds	r3, r5, r4
10001480:	0841      	lsrs	r1, r0, #1
10001482:	eb03 01c1 	add.w	r1, r3, r1, lsl #3
10001486:	e9c3 2200 	strd	r2, r2, [r3]
1000148a:	3308      	adds	r3, #8
1000148c:	428b      	cmp	r3, r1
1000148e:	d1fa      	bne.n	10001486 <runtime_init_install_ram_vector_table+0x32>
10001490:	07c3      	lsls	r3, r0, #31
10001492:	d504      	bpl.n	1000149e <runtime_init_install_ram_vector_table+0x4a>
10001494:	f020 0001 	bic.w	r0, r0, #1
10001498:	4430      	add	r0, r6
1000149a:	f845 2020 	str.w	r2, [r5, r0, lsl #2]
1000149e:	4b06      	ldr	r3, [pc, #24]	@ (100014b8 <runtime_init_install_ram_vector_table+0x64>)
100014a0:	609d      	str	r5, [r3, #8]
100014a2:	bd70      	pop	{r4, r5, r6, pc}
100014a4:	2043      	movs	r0, #67	@ 0x43
100014a6:	e7f8      	b.n	1000149a <runtime_init_install_ram_vector_table+0x46>
100014a8:	10000000 	.word	0x10000000
100014ac:	10000110 	.word	0x10000110
100014b0:	20000000 	.word	0x20000000
100014b4:	10000111 	.word	0x10000111
100014b8:	e000ed00 	.word	0xe000ed00

100014bc <runtime_init_clocks>:
100014bc:	2300      	movs	r3, #0
100014be:	b570      	push	{r4, r5, r6, lr}
100014c0:	4c2b      	ldr	r4, [pc, #172]	@ (10001570 <runtime_init_clocks+0xb4>)
100014c2:	b082      	sub	sp, #8
100014c4:	f8c4 3084 	str.w	r3, [r4, #132]	@ 0x84
100014c8:	f7ff ff38 	bl	1000133c <xosc_init>
100014cc:	2201      	movs	r2, #1
100014ce:	4b29      	ldr	r3, [pc, #164]	@ (10001574 <runtime_init_clocks+0xb8>)
100014d0:	63da      	str	r2, [r3, #60]	@ 0x3c
100014d2:	6c63      	ldr	r3, [r4, #68]	@ 0x44
100014d4:	2b01      	cmp	r3, #1
100014d6:	d1fc      	bne.n	100014d2 <runtime_init_clocks+0x16>
100014d8:	2103      	movs	r1, #3
100014da:	4a26      	ldr	r2, [pc, #152]	@ (10001574 <runtime_init_clocks+0xb8>)
100014dc:	4b24      	ldr	r3, [pc, #144]	@ (10001570 <runtime_init_clocks+0xb4>)
100014de:	6311      	str	r1, [r2, #48]	@ 0x30
100014e0:	6b9c      	ldr	r4, [r3, #56]	@ 0x38
100014e2:	2c01      	cmp	r4, #1
100014e4:	d1fc      	bne.n	100014e0 <runtime_init_clocks+0x24>
100014e6:	2602      	movs	r6, #2
100014e8:	2505      	movs	r5, #5
100014ea:	4621      	mov	r1, r4
100014ec:	2305      	movs	r3, #5
100014ee:	4a22      	ldr	r2, [pc, #136]	@ (10001578 <runtime_init_clocks+0xbc>)
100014f0:	4822      	ldr	r0, [pc, #136]	@ (1000157c <runtime_init_clocks+0xc0>)
100014f2:	9600      	str	r6, [sp, #0]
100014f4:	f7ff feac 	bl	10001250 <pll_init>
100014f8:	4621      	mov	r1, r4
100014fa:	462b      	mov	r3, r5
100014fc:	4a20      	ldr	r2, [pc, #128]	@ (10001580 <runtime_init_clocks+0xc4>)
100014fe:	4821      	ldr	r0, [pc, #132]	@ (10001584 <runtime_init_clocks+0xc8>)
10001500:	9500      	str	r5, [sp, #0]
10001502:	f7ff fea5 	bl	10001250 <pll_init>
10001506:	2200      	movs	r2, #0
10001508:	2004      	movs	r0, #4
1000150a:	4631      	mov	r1, r6
1000150c:	4b1e      	ldr	r3, [pc, #120]	@ (10001588 <runtime_init_clocks+0xcc>)
1000150e:	f7ff fe31 	bl	10001174 <clock_configure_undivided>
10001512:	4621      	mov	r1, r4
10001514:	4628      	mov	r0, r5
10001516:	2200      	movs	r2, #0
10001518:	4b1c      	ldr	r3, [pc, #112]	@ (1000158c <runtime_init_clocks+0xd0>)
1000151a:	f7ff fe2b 	bl	10001174 <clock_configure_undivided>
1000151e:	2200      	movs	r2, #0
10001520:	2008      	movs	r0, #8
10001522:	4611      	mov	r1, r2
10001524:	4b1a      	ldr	r3, [pc, #104]	@ (10001590 <runtime_init_clocks+0xd4>)
10001526:	f7ff fe25 	bl	10001174 <clock_configure_undivided>
1000152a:	2200      	movs	r2, #0
1000152c:	2009      	movs	r0, #9
1000152e:	4611      	mov	r1, r2
10001530:	4b17      	ldr	r3, [pc, #92]	@ (10001590 <runtime_init_clocks+0xd4>)
10001532:	f7ff fe1f 	bl	10001174 <clock_configure_undivided>
10001536:	2200      	movs	r2, #0
10001538:	2006      	movs	r0, #6
1000153a:	4611      	mov	r1, r2
1000153c:	4b13      	ldr	r3, [pc, #76]	@ (1000158c <runtime_init_clocks+0xd0>)
1000153e:	f7ff fe19 	bl	10001174 <clock_configure_undivided>
10001542:	2200      	movs	r2, #0
10001544:	4b11      	ldr	r3, [pc, #68]	@ (1000158c <runtime_init_clocks+0xd0>)
10001546:	2007      	movs	r0, #7
10001548:	4611      	mov	r1, r2
1000154a:	f7ff fe13 	bl	10001174 <clock_configure_undivided>
1000154e:	2004      	movs	r0, #4
10001550:	f7ff fe78 	bl	10001244 <clock_get_hz>
10001554:	2400      	movs	r4, #0
10001556:	4b0f      	ldr	r3, [pc, #60]	@ (10001594 <runtime_init_clocks+0xd8>)
10001558:	fba3 3500 	umull	r3, r5, r3, r0
1000155c:	0cad      	lsrs	r5, r5, #18
1000155e:	b2e0      	uxtb	r0, r4
10001560:	4629      	mov	r1, r5
10001562:	3401      	adds	r4, #1
10001564:	f7ff feba 	bl	100012dc <tick_start>
10001568:	2c06      	cmp	r4, #6
1000156a:	d1f8      	bne.n	1000155e <runtime_init_clocks+0xa2>
1000156c:	b002      	add	sp, #8
1000156e:	bd70      	pop	{r4, r5, r6, pc}
10001570:	40010000 	.word	0x40010000
10001574:	40013000 	.word	0x40013000
10001578:	59682f00 	.word	0x59682f00
1000157c:	40050000 	.word	0x40050000
10001580:	47868c00 	.word	0x47868c00
10001584:	40058000 	.word	0x40058000
10001588:	00b71b00 	.word	0x00b71b00
1000158c:	08f0d180 	.word	0x08f0d180
10001590:	02dc6c00 	.word	0x02dc6c00
10001594:	431bde83 	.word	0x431bde83

10001598 <generic_save_state>:
10001598:	b086      	sub	sp, #24
1000159a:	b403      	push	{r0, r1}
1000159c:	fc51 0408 	dcp_pxmd r0, r1
100015a0:	e9cd 0102 	strd	r0, r1, [sp, #8]
100015a4:	fc51 0409 	dcp_pymd r0, r1
100015a8:	e9cd 0104 	strd	r0, r1, [sp, #16]
100015ac:	ec51 040a 	dcp_refd r0, r1
100015b0:	e9cd 0106 	strd	r0, r1, [sp, #24]
100015b4:	bc03      	pop	{r0, r1}
100015b6:	47f0      	blx	lr

100015b8 <generic_restore_state>:
100015b8:	e8bd 5000 	ldmia.w	sp!, {ip, lr}
100015bc:	ec4e c400 	dcp_wxmd ip, lr
100015c0:	e8bd 5000 	ldmia.w	sp!, {ip, lr}
100015c4:	ec4e c401 	dcp_wymd ip, lr
100015c8:	e8bd 5000 	ldmia.w	sp!, {ip, lr}
100015cc:	ec4e c402 	dcp_wefd ip, lr
100015d0:	bd00      	pop	{pc}
100015d2:	0000      	movs	r0, r0
100015d4:	b500      	push	{lr}
100015d6:	f7ff ffdf 	bl	10001598 <generic_save_state>
100015da:	e002      	b.n	100015e2 <__wrap___aeabi_dadd+0x6>

100015dc <__wrap___aeabi_dadd>:
100015dc:	fe10 f430 	dcp_pcmp APSR_nzcv
100015e0:	d4f8      	bmi.n	100015d4 <generic_restore_state+0x1c>
100015e2:	ec41 0410 	dcp_wxup r0, r1
100015e6:	ec43 2411 	dcp_wyup r2, r3
100015ea:	ee00 0401 			dcp_add0
100015ee:	ee10 0401 			dcp_add1
100015f2:	ee80 0420 			dcp_nrdd
100015f6:	ec51 0410 	dcp_rdda r0, r1
100015fa:	4770      	bx	lr
100015fc:	b500      	push	{lr}
100015fe:	f7ff ffcb 	bl	10001598 <generic_save_state>
10001602:	e002      	b.n	1000160a <__wrap___aeabi_dsub+0x6>

10001604 <__wrap___aeabi_dsub>:
10001604:	fe10 f430 	dcp_pcmp APSR_nzcv
10001608:	d4f8      	bmi.n	100015fc <__wrap___aeabi_dadd+0x20>
1000160a:	ec41 0410 	dcp_wxup r0, r1
1000160e:	ec43 2411 	dcp_wyup r2, r3
10001612:	ee00 0401 			dcp_add0
10001616:	ee10 0421 			dcp_sub1
1000161a:	ee80 0420 			dcp_nrdd
1000161e:	ec51 0430 	dcp_rdds r0, r1
10001622:	4770      	bx	lr
10001624:	b500      	push	{lr}
10001626:	f7ff ffb7 	bl	10001598 <generic_save_state>
1000162a:	e002      	b.n	10001632 <__wrap___aeabi_dmul+0x6>

1000162c <__wrap___aeabi_dmul>:
1000162c:	fe10 f430 	dcp_pcmp APSR_nzcv
10001630:	d4f8      	bmi.n	10001624 <__wrap___aeabi_dsub+0x20>
10001632:	b510      	push	{r4, lr}
10001634:	ec41 0410 	dcp_wxup r0, r1
10001638:	ec43 2411 	dcp_wyup r2, r3
1000163c:	ec51 0404 	dcp_rxms r0, r1, #0x0
10001640:	ec53 2405 	dcp_ryms r2, r3, #0x0
10001644:	fba0 4c02 	umull	r4, ip, r0, r2
10001648:	f05f 0e00 	movs.w	lr, #0
1000164c:	fbe0 ce03 	umlal	ip, lr, r0, r3
10001650:	fbe1 ce02 	umlal	ip, lr, r1, r2
10001654:	ec4c 4420 	dcp_wxms r4, ip
10001658:	2400      	movs	r4, #0
1000165a:	fbe1 e403 	umlal	lr, r4, r1, r3
1000165e:	ec44 e430 	dcp_wxmo lr, r4
10001662:	ee80 0420 			dcp_nrdd
10001666:	ec51 0450 	dcp_rddm r0, r1
1000166a:	e8bd 4010 	ldmia.w	sp!, {r4, lr}
1000166e:	4770      	bx	lr
10001670:	b500      	push	{lr}
10001672:	f7ff ff91 	bl	10001598 <generic_save_state>
10001676:	e002      	b.n	1000167e <__wrap___aeabi_ddiv+0x6>

10001678 <__wrap___aeabi_ddiv>:
10001678:	fe10 f430 	dcp_pcmp APSR_nzcv
1000167c:	d4f8      	bmi.n	10001670 <__wrap___aeabi_dmul+0x44>
1000167e:	ec41 0410 	dcp_wxup r0, r1
10001682:	ec43 2411 	dcp_wyup r2, r3
10001686:	ec51 0421 	dcp_rymr r0, r1
1000168a:	fba0 1201 	umull	r1, r2, r0, r1
1000168e:	ea6f 0282 	mvn.w	r2, r2, lsl #2
10001692:	fb52 0010 	smmlar	r0, r2, r0, r0
10001696:	fb52 f212 	smmulr	r2, r2, r2
1000169a:	fb52 0010 	smmlar	r0, r2, r0, r0
1000169e:	eba0 7cd0 	sub.w	ip, r0, r0, lsr #31
100016a2:	ec53 2404 	dcp_rxms r2, r3, #0x0
100016a6:	fb5c f113 	smmulr	r1, ip, r3
100016aa:	ec53 2415 	dcp_ryms r2, r3, #0x1
100016ae:	fba1 2002 	umull	r2, r0, r1, r2
100016b2:	fb01 0003 	mla	r0, r1, r3, r0
100016b6:	ec53 2444 	dcp_rxms r2, r3, #0x4
100016ba:	eba2 0000 	sub.w	r0, r2, r0
100016be:	fb50 f21c 	smmulr	r2, r0, ip
100016c2:	ea4f 1311 	mov.w	r3, r1, lsr #4
100016c6:	eb12 7001 	adds.w	r0, r2, r1, lsl #28
100016ca:	eb43 71e2 	adc.w	r1, r3, r2, asr #31
100016ce:	ea40 5051 	orr.w	r0, r0, r1, lsr #21
100016d2:	ea20 5091 	bic.w	r0, r0, r1, lsr #22
100016d6:	f020 0007 	bic.w	r0, r0, #7
100016da:	ec53 2475 	dcp_ryms r2, r3, #0x7
100016de:	fba0 3c02 	umull	r3, ip, r0, r2
100016e2:	ec53 2475 	dcp_ryms r2, r3, #0x7
100016e6:	fb00 cc03 	mla	ip, r0, r3, ip
100016ea:	fb01 cc02 	mla	ip, r1, r2, ip
100016ee:	ec53 2404 	dcp_rxms r2, r3, #0x0
100016f2:	ebac 4c82 	sub.w	ip, ip, r2, lsl #18
100016f6:	ea40 705c 	orr.w	r0, r0, ip, lsr #29
100016fa:	f1a0 0001 	sub.w	r0, r0, #1
100016fe:	ec41 0440 	dcp_wxdd r0, r1
10001702:	ee80 0420 			dcp_nrdd
10001706:	ec51 0470 	dcp_rddd r0, r1
1000170a:	4770      	bx	lr
1000170c:	b500      	push	{lr}
1000170e:	f7ff ff43 	bl	10001598 <generic_save_state>
10001712:	e002      	b.n	1000171a <__wrap___aeabi_i2d+0x6>

10001714 <__wrap___aeabi_i2d>:
10001714:	fe10 f430 	dcp_pcmp APSR_nzcv
10001718:	d4f8      	bmi.n	1000170c <__wrap___aeabi_ddiv+0x94>
1000171a:	ec40 0470 	dcp_wxic r0, r0
1000171e:	ee00 0401 			dcp_add0
10001722:	ee10 0421 			dcp_sub1
10001726:	ee80 0420 			dcp_nrdd
1000172a:	ec51 0430 	dcp_rdds r0, r1
1000172e:	4770      	bx	lr
10001730:	b500      	push	{lr}
10001732:	f7ff ff31 	bl	10001598 <generic_save_state>
10001736:	e002      	b.n	1000173e <__wrap___aeabi_ui2d+0x6>

10001738 <__wrap___aeabi_ui2d>:
10001738:	fe10 f430 	dcp_pcmp APSR_nzcv
1000173c:	d4f8      	bmi.n	10001730 <__wrap___aeabi_i2d+0x1c>
1000173e:	ec40 0460 	dcp_wxuc r0, r0
10001742:	ee00 0401 			dcp_add0
10001746:	ee10 0421 			dcp_sub1
1000174a:	ee80 0420 			dcp_nrdd
1000174e:	ec51 0430 	dcp_rdds r0, r1
10001752:	4770      	bx	lr
10001754:	b500      	push	{lr}
10001756:	f7ff ff1f 	bl	10001598 <generic_save_state>
1000175a:	e002      	b.n	10001762 <double2int_z_entry>

1000175c <__wrap___aeabi_d2iz>:
1000175c:	fe10 f430 	dcp_pcmp APSR_nzcv
10001760:	d4f8      	bmi.n	10001754 <__wrap___aeabi_ui2d+0x1c>

10001762 <double2int_z_entry>:
10001762:	ec41 0480 	dcp_wxdc r0, r1
10001766:	ee00 0401 			dcp_add0
1000176a:	ee10 0401 			dcp_add1
1000176e:	ee80 0440 			dcp_ntdc
10001772:	ee10 0413 			dcp_rdic r0
10001776:	4770      	bx	lr
10001778:	b500      	push	{lr}
1000177a:	f7ff ff0d 	bl	10001598 <generic_save_state>
1000177e:	e002      	b.n	10001786 <double2uint_z_entry>

10001780 <__wrap___aeabi_d2uiz>:
10001780:	fe10 f430 	dcp_pcmp APSR_nzcv
10001784:	d4f8      	bmi.n	10001778 <double2int_z_entry+0x16>

10001786 <double2uint_z_entry>:
10001786:	ec41 0480 	dcp_wxdc r0, r1
1000178a:	ee00 0401 			dcp_add0
1000178e:	ee10 0401 			dcp_add1
10001792:	ee80 0440 			dcp_ntdc
10001796:	ee10 0433 			dcp_rduc r0
1000179a:	4770      	bx	lr
1000179c:	b500      	push	{lr}
1000179e:	f7ff fefb 	bl	10001598 <generic_save_state>
100017a2:	e002      	b.n	100017aa <__wrap___aeabi_dcmpun+0x6>

100017a4 <__wrap___aeabi_dcmpun>:
100017a4:	fe10 f430 	dcp_pcmp APSR_nzcv
100017a8:	d4f8      	bmi.n	1000179c <double2uint_z_entry+0x16>
100017aa:	ec41 0410 	dcp_wxup r0, r1
100017ae:	ec43 2411 	dcp_wyup r2, r3
100017b2:	ee00 0401 			dcp_add0
100017b6:	ee10 0430 			dcp_rcmp r0
100017ba:	f3c0 7000 	ubfx	r0, r0, #28, #1
100017be:	4770      	bx	lr
100017c0:	b500      	push	{lr}
100017c2:	f7ff fee9 	bl	10001598 <generic_save_state>
100017c6:	e002      	b.n	100017ce <__wrap___aeabi_dcmplt+0x6>

100017c8 <__wrap___aeabi_dcmplt>:
100017c8:	fe10 f430 	dcp_pcmp APSR_nzcv
100017cc:	d4f8      	bmi.n	100017c0 <__wrap___aeabi_dcmpun+0x1c>
100017ce:	ec43 2410 	dcp_wxup r2, r3
100017d2:	ec41 0411 	dcp_wyup r0, r1
100017d6:	ee00 0401 			dcp_add0
100017da:	ee10 f430 			dcp_rcmp APSR_nzcv
100017de:	bf8c      	ite	hi
100017e0:	2001      	movhi	r0, #1
100017e2:	2000      	movls	r0, #0
100017e4:	4770      	bx	lr
100017e6:	bf00      	nop
100017e8:	b500      	push	{lr}
100017ea:	f7ff fed5 	bl	10001598 <generic_save_state>
100017ee:	e002      	b.n	100017f6 <__wrap___aeabi_dcmple+0x6>

100017f0 <__wrap___aeabi_dcmple>:
100017f0:	fe10 f430 	dcp_pcmp APSR_nzcv
100017f4:	d4f8      	bmi.n	100017e8 <__wrap___aeabi_dcmplt+0x20>
100017f6:	ec43 2410 	dcp_wxup r2, r3
100017fa:	ec41 0411 	dcp_wyup r0, r1
100017fe:	ee00 0401 			dcp_add0
10001802:	ee10 f430 			dcp_rcmp APSR_nzcv
10001806:	bf2c      	ite	cs
10001808:	2001      	movcs	r0, #1
1000180a:	2000      	movcc	r0, #0
1000180c:	4770      	bx	lr
1000180e:	bf00      	nop
10001810:	b500      	push	{lr}
10001812:	f7ff fec1 	bl	10001598 <generic_save_state>
10001816:	e002      	b.n	1000181e <__wrap___aeabi_dcmpge+0x6>

10001818 <__wrap___aeabi_dcmpge>:
10001818:	fe10 f430 	dcp_pcmp APSR_nzcv
1000181c:	d4f8      	bmi.n	10001810 <__wrap___aeabi_dcmple+0x20>
1000181e:	ec41 0410 	dcp_wxup r0, r1
10001822:	ec43 2411 	dcp_wyup r2, r3
10001826:	ee00 0401 			dcp_add0
1000182a:	ee10 f430 			dcp_rcmp APSR_nzcv
1000182e:	bf2c      	ite	cs
10001830:	2001      	movcs	r0, #1
10001832:	2000      	movcc	r0, #0
10001834:	4770      	bx	lr
10001836:	bf00      	nop
10001838:	b500      	push	{lr}
1000183a:	f7ff fead 	bl	10001598 <generic_save_state>
1000183e:	e002      	b.n	10001846 <__wrap___aeabi_dcmpgt+0x6>

10001840 <__wrap___aeabi_dcmpgt>:
10001840:	fe10 f430 	dcp_pcmp APSR_nzcv
10001844:	d4f8      	bmi.n	10001838 <__wrap___aeabi_dcmpge+0x20>
10001846:	ec41 0410 	dcp_wxup r0, r1
1000184a:	ec43 2411 	dcp_wyup r2, r3
1000184e:	ee00 0401 			dcp_add0
10001852:	ee10 f430 			dcp_rcmp APSR_nzcv
10001856:	bf8c      	ite	hi
10001858:	2001      	movhi	r0, #1
1000185a:	2000      	movls	r0, #0
1000185c:	4770      	bx	lr
1000185e:	bf00      	nop

10001860 <_out_null>:
10001860:	4770      	bx	lr
10001862:	bf00      	nop

10001864 <_out_rev>:
10001864:	e92d 4ff0 	stmdb	sp!, {r4, r5, r6, r7, r8, r9, sl, fp, lr}
10001868:	b083      	sub	sp, #12
1000186a:	4699      	mov	r9, r3
1000186c:	e9dd ab0d 	ldrd	sl, fp, [sp, #52]	@ 0x34
10001870:	9b0f      	ldr	r3, [sp, #60]	@ 0x3c
10001872:	4688      	mov	r8, r1
10001874:	4611      	mov	r1, r2
10001876:	079a      	lsls	r2, r3, #30
10001878:	4607      	mov	r7, r0
1000187a:	d116      	bne.n	100018aa <_out_rev+0x46>
1000187c:	45da      	cmp	sl, fp
1000187e:	d23a      	bcs.n	100018f6 <_out_rev+0x92>
10001880:	460c      	mov	r4, r1
10001882:	460d      	mov	r5, r1
10001884:	ebab 060a 	sub.w	r6, fp, sl
10001888:	440e      	add	r6, r1
1000188a:	4622      	mov	r2, r4
1000188c:	464b      	mov	r3, r9
1000188e:	4641      	mov	r1, r8
10001890:	2020      	movs	r0, #32
10001892:	3401      	adds	r4, #1
10001894:	47b8      	blx	r7
10001896:	42b4      	cmp	r4, r6
10001898:	d1f7      	bne.n	1000188a <_out_rev+0x26>
1000189a:	4629      	mov	r1, r5
1000189c:	f1ba 0f00 	cmp.w	sl, #0
100018a0:	d108      	bne.n	100018b4 <_out_rev+0x50>
100018a2:	4620      	mov	r0, r4
100018a4:	b003      	add	sp, #12
100018a6:	e8bd 8ff0 	ldmia.w	sp!, {r4, r5, r6, r7, r8, r9, sl, fp, pc}
100018aa:	460c      	mov	r4, r1
100018ac:	f1ba 0f00 	cmp.w	sl, #0
100018b0:	d010      	beq.n	100018d4 <_out_rev+0x70>
100018b2:	460e      	mov	r6, r1
100018b4:	4655      	mov	r5, sl
100018b6:	9b0c      	ldr	r3, [sp, #48]	@ 0x30
100018b8:	442e      	add	r6, r5
100018ba:	449a      	add	sl, r3
100018bc:	9101      	str	r1, [sp, #4]
100018be:	1b72      	subs	r2, r6, r5
100018c0:	464b      	mov	r3, r9
100018c2:	3d01      	subs	r5, #1
100018c4:	4641      	mov	r1, r8
100018c6:	f81a 0d01 	ldrb.w	r0, [sl, #-1]!
100018ca:	4634      	mov	r4, r6
100018cc:	47b8      	blx	r7
100018ce:	2d00      	cmp	r5, #0
100018d0:	d1f5      	bne.n	100018be <_out_rev+0x5a>
100018d2:	9901      	ldr	r1, [sp, #4]
100018d4:	9b0f      	ldr	r3, [sp, #60]	@ 0x3c
100018d6:	079b      	lsls	r3, r3, #30
100018d8:	d5e3      	bpl.n	100018a2 <_out_rev+0x3e>
100018da:	1a65      	subs	r5, r4, r1
100018dc:	45ab      	cmp	fp, r5
100018de:	d9e0      	bls.n	100018a2 <_out_rev+0x3e>
100018e0:	4622      	mov	r2, r4
100018e2:	464b      	mov	r3, r9
100018e4:	4641      	mov	r1, r8
100018e6:	2020      	movs	r0, #32
100018e8:	3501      	adds	r5, #1
100018ea:	47b8      	blx	r7
100018ec:	455d      	cmp	r5, fp
100018ee:	f104 0401 	add.w	r4, r4, #1
100018f2:	d3f5      	bcc.n	100018e0 <_out_rev+0x7c>
100018f4:	e7d5      	b.n	100018a2 <_out_rev+0x3e>
100018f6:	460c      	mov	r4, r1
100018f8:	f1ba 0f00 	cmp.w	sl, #0
100018fc:	d1d9      	bne.n	100018b2 <_out_rev+0x4e>
100018fe:	e7d0      	b.n	100018a2 <_out_rev+0x3e>

10001900 <_ntoa_format>:
10001900:	e92d 4ff0 	stmdb	sp!, {r4, r5, r6, r7, r8, r9, sl, fp, lr}
10001904:	9f0f      	ldr	r7, [sp, #60]	@ 0x3c
10001906:	f8dd 8024 	ldr.w	r8, [sp, #36]	@ 0x24
1000190a:	f017 0f02 	tst.w	r7, #2
1000190e:	9c0a      	ldr	r4, [sp, #40]	@ 0x28
10001910:	f89d a02c 	ldrb.w	sl, [sp, #44]	@ 0x2c
10001914:	9d0e      	ldr	r5, [sp, #56]	@ 0x38
10001916:	e9dd 960c 	ldrd	r9, r6, [sp, #48]	@ 0x30
1000191a:	d144      	bne.n	100019a6 <_ntoa_format+0xa6>
1000191c:	bbf5      	cbnz	r5, 1000199c <_ntoa_format+0x9c>
1000191e:	42b4      	cmp	r4, r6
10001920:	d241      	bcs.n	100019a6 <_ntoa_format+0xa6>
10001922:	f007 0b01 	and.w	fp, r7, #1
10001926:	f104 3cff 	add.w	ip, r4, #4294967295
1000192a:	f04f 0e30 	mov.w	lr, #48	@ 0x30
1000192e:	44c4      	add	ip, r8
10001930:	e004      	b.n	1000193c <_ntoa_format+0x3c>
10001932:	3401      	adds	r4, #1
10001934:	42a6      	cmp	r6, r4
10001936:	f80c ef01 	strb.w	lr, [ip, #1]!
1000193a:	d901      	bls.n	10001940 <_ntoa_format+0x40>
1000193c:	2c20      	cmp	r4, #32
1000193e:	d1f8      	bne.n	10001932 <_ntoa_format+0x32>
10001940:	f1bb 0f00 	cmp.w	fp, #0
10001944:	f000 8088 	beq.w	10001a58 <_ntoa_format+0x158>
10001948:	42a5      	cmp	r5, r4
1000194a:	d92c      	bls.n	100019a6 <_ntoa_format+0xa6>
1000194c:	f104 3cff 	add.w	ip, r4, #4294967295
10001950:	f04f 0e30 	mov.w	lr, #48	@ 0x30
10001954:	44c4      	add	ip, r8
10001956:	e004      	b.n	10001962 <_ntoa_format+0x62>
10001958:	3401      	adds	r4, #1
1000195a:	42ac      	cmp	r4, r5
1000195c:	f80c ef01 	strb.w	lr, [ip, #1]!
10001960:	d021      	beq.n	100019a6 <_ntoa_format+0xa6>
10001962:	2c20      	cmp	r4, #32
10001964:	d1f8      	bne.n	10001958 <_ntoa_format+0x58>
10001966:	f017 0f10 	tst.w	r7, #16
1000196a:	d00e      	beq.n	1000198a <_ntoa_format+0x8a>
1000196c:	f417 6f80 	tst.w	r7, #1024	@ 0x400
10001970:	d154      	bne.n	10001a1c <_ntoa_format+0x11c>
10001972:	42a6      	cmp	r6, r4
10001974:	d063      	beq.n	10001a3e <_ntoa_format+0x13e>
10001976:	42a5      	cmp	r5, r4
10001978:	d061      	beq.n	10001a3e <_ntoa_format+0x13e>
1000197a:	f1b9 0f10 	cmp.w	r9, #16
1000197e:	d050      	beq.n	10001a22 <_ntoa_format+0x122>
10001980:	f1b9 0f02 	cmp.w	r9, #2
10001984:	d056      	beq.n	10001a34 <_ntoa_format+0x134>
10001986:	2c20      	cmp	r4, #32
10001988:	d129      	bne.n	100019de <_ntoa_format+0xde>
1000198a:	2420      	movs	r4, #32
1000198c:	e9cd 570b 	strd	r5, r7, [sp, #44]	@ 0x2c
10001990:	e9cd 8409 	strd	r8, r4, [sp, #36]	@ 0x24
10001994:	e8bd 4ff0 	ldmia.w	sp!, {r4, r5, r6, r7, r8, r9, sl, fp, lr}
10001998:	f7ff bf64 	b.w	10001864 <_out_rev>
1000199c:	f017 0b01 	ands.w	fp, r7, #1
100019a0:	d134      	bne.n	10001a0c <_ntoa_format+0x10c>
100019a2:	42b4      	cmp	r4, r6
100019a4:	d3bf      	bcc.n	10001926 <_ntoa_format+0x26>
100019a6:	f017 0f10 	tst.w	r7, #16
100019aa:	d01e      	beq.n	100019ea <_ntoa_format+0xea>
100019ac:	f417 6f80 	tst.w	r7, #1024	@ 0x400
100019b0:	d1e3      	bne.n	1000197a <_ntoa_format+0x7a>
100019b2:	2c00      	cmp	r4, #0
100019b4:	d1dd      	bne.n	10001972 <_ntoa_format+0x72>
100019b6:	f1b9 0f10 	cmp.w	r9, #16
100019ba:	d063      	beq.n	10001a84 <_ntoa_format+0x184>
100019bc:	f1b9 0f02 	cmp.w	r9, #2
100019c0:	d077      	beq.n	10001ab2 <_ntoa_format+0x1b2>
100019c2:	2430      	movs	r4, #48	@ 0x30
100019c4:	f888 4000 	strb.w	r4, [r8]
100019c8:	2401      	movs	r4, #1
100019ca:	f1ba 0f00 	cmp.w	sl, #0
100019ce:	d111      	bne.n	100019f4 <_ntoa_format+0xf4>
100019d0:	077e      	lsls	r6, r7, #29
100019d2:	d548      	bpl.n	10001a66 <_ntoa_format+0x166>
100019d4:	262b      	movs	r6, #43	@ 0x2b
100019d6:	f808 6004 	strb.w	r6, [r8, r4]
100019da:	3401      	adds	r4, #1
100019dc:	e7d6      	b.n	1000198c <_ntoa_format+0x8c>
100019de:	4626      	mov	r6, r4
100019e0:	3401      	adds	r4, #1
100019e2:	f04f 0c30 	mov.w	ip, #48	@ 0x30
100019e6:	f808 c006 	strb.w	ip, [r8, r6]
100019ea:	2c20      	cmp	r4, #32
100019ec:	d0cd      	beq.n	1000198a <_ntoa_format+0x8a>
100019ee:	f1ba 0f00 	cmp.w	sl, #0
100019f2:	d0ed      	beq.n	100019d0 <_ntoa_format+0xd0>
100019f4:	262d      	movs	r6, #45	@ 0x2d
100019f6:	f808 6004 	strb.w	r6, [r8, r4]
100019fa:	3401      	adds	r4, #1
100019fc:	e9cd 570b 	strd	r5, r7, [sp, #44]	@ 0x2c
10001a00:	e9cd 8409 	strd	r8, r4, [sp, #36]	@ 0x24
10001a04:	e8bd 4ff0 	ldmia.w	sp!, {r4, r5, r6, r7, r8, r9, sl, fp, lr}
10001a08:	f7ff bf2c 	b.w	10001864 <_out_rev>
10001a0c:	f1ba 0f00 	cmp.w	sl, #0
10001a10:	d030      	beq.n	10001a74 <_ntoa_format+0x174>
10001a12:	42b4      	cmp	r4, r6
10001a14:	f105 35ff 	add.w	r5, r5, #4294967295
10001a18:	d385      	bcc.n	10001926 <_ntoa_format+0x26>
10001a1a:	e795      	b.n	10001948 <_ntoa_format+0x48>
10001a1c:	f1b9 0f10 	cmp.w	r9, #16
10001a20:	d1b3      	bne.n	1000198a <_ntoa_format+0x8a>
10001a22:	06be      	lsls	r6, r7, #26
10001a24:	d53b      	bpl.n	10001a9e <_ntoa_format+0x19e>
10001a26:	2c20      	cmp	r4, #32
10001a28:	d0af      	beq.n	1000198a <_ntoa_format+0x8a>
10001a2a:	2658      	movs	r6, #88	@ 0x58
10001a2c:	f808 6004 	strb.w	r6, [r8, r4]
10001a30:	3401      	adds	r4, #1
10001a32:	e7a8      	b.n	10001986 <_ntoa_format+0x86>
10001a34:	2c20      	cmp	r4, #32
10001a36:	d0a8      	beq.n	1000198a <_ntoa_format+0x8a>
10001a38:	4626      	mov	r6, r4
10001a3a:	3401      	adds	r4, #1
10001a3c:	e007      	b.n	10001a4e <_ntoa_format+0x14e>
10001a3e:	1e66      	subs	r6, r4, #1
10001a40:	d0b9      	beq.n	100019b6 <_ntoa_format+0xb6>
10001a42:	f1b9 0f10 	cmp.w	r9, #16
10001a46:	d036      	beq.n	10001ab6 <_ntoa_format+0x1b6>
10001a48:	f1b9 0f02 	cmp.w	r9, #2
10001a4c:	d1c9      	bne.n	100019e2 <_ntoa_format+0xe2>
10001a4e:	f04f 0c62 	mov.w	ip, #98	@ 0x62
10001a52:	f808 c006 	strb.w	ip, [r8, r6]
10001a56:	e796      	b.n	10001986 <_ntoa_format+0x86>
10001a58:	f017 0f10 	tst.w	r7, #16
10001a5c:	d0c5      	beq.n	100019ea <_ntoa_format+0xea>
10001a5e:	f417 6f80 	tst.w	r7, #1024	@ 0x400
10001a62:	d086      	beq.n	10001972 <_ntoa_format+0x72>
10001a64:	e789      	b.n	1000197a <_ntoa_format+0x7a>
10001a66:	073e      	lsls	r6, r7, #28
10001a68:	d590      	bpl.n	1000198c <_ntoa_format+0x8c>
10001a6a:	2620      	movs	r6, #32
10001a6c:	f808 6004 	strb.w	r6, [r8, r4]
10001a70:	3401      	adds	r4, #1
10001a72:	e78b      	b.n	1000198c <_ntoa_format+0x8c>
10001a74:	f017 0f0c 	tst.w	r7, #12
10001a78:	d000      	beq.n	10001a7c <_ntoa_format+0x17c>
10001a7a:	3d01      	subs	r5, #1
10001a7c:	42b4      	cmp	r4, r6
10001a7e:	f4ff af52 	bcc.w	10001926 <_ntoa_format+0x26>
10001a82:	e761      	b.n	10001948 <_ntoa_format+0x48>
10001a84:	06bc      	lsls	r4, r7, #26
10001a86:	d412      	bmi.n	10001aae <_ntoa_format+0x1ae>
10001a88:	2478      	movs	r4, #120	@ 0x78
10001a8a:	f888 4000 	strb.w	r4, [r8]
10001a8e:	2430      	movs	r4, #48	@ 0x30
10001a90:	f888 4001 	strb.w	r4, [r8, #1]
10001a94:	2402      	movs	r4, #2
10001a96:	f1ba 0f00 	cmp.w	sl, #0
10001a9a:	d099      	beq.n	100019d0 <_ntoa_format+0xd0>
10001a9c:	e7aa      	b.n	100019f4 <_ntoa_format+0xf4>
10001a9e:	2c20      	cmp	r4, #32
10001aa0:	f43f af73 	beq.w	1000198a <_ntoa_format+0x8a>
10001aa4:	2678      	movs	r6, #120	@ 0x78
10001aa6:	f808 6004 	strb.w	r6, [r8, r4]
10001aaa:	3401      	adds	r4, #1
10001aac:	e76b      	b.n	10001986 <_ntoa_format+0x86>
10001aae:	2458      	movs	r4, #88	@ 0x58
10001ab0:	e7eb      	b.n	10001a8a <_ntoa_format+0x18a>
10001ab2:	2462      	movs	r4, #98	@ 0x62
10001ab4:	e7e9      	b.n	10001a8a <_ntoa_format+0x18a>
10001ab6:	f017 0f20 	tst.w	r7, #32
10001aba:	f1a4 0c02 	sub.w	ip, r4, #2
10001abe:	d004      	beq.n	10001aca <_ntoa_format+0x1ca>
10001ac0:	f04f 0e58 	mov.w	lr, #88	@ 0x58
10001ac4:	f808 e00c 	strb.w	lr, [r8, ip]
10001ac8:	e78b      	b.n	100019e2 <_ntoa_format+0xe2>
10001aca:	f04f 0e78 	mov.w	lr, #120	@ 0x78
10001ace:	f808 e00c 	strb.w	lr, [r8, ip]
10001ad2:	e786      	b.n	100019e2 <_ntoa_format+0xe2>

10001ad4 <_out_char>:
10001ad4:	b900      	cbnz	r0, 10001ad8 <_out_char+0x4>
10001ad6:	4770      	bx	lr
10001ad8:	f001 bb72 	b.w	100031c0 <__wrap_putchar>

10001adc <_out_fct>:
10001adc:	b110      	cbz	r0, 10001ae4 <_out_fct+0x8>
10001ade:	e9d1 3100 	ldrd	r3, r1, [r1]
10001ae2:	4718      	bx	r3
10001ae4:	4770      	bx	lr
10001ae6:	bf00      	nop

10001ae8 <_ftoa>:
10001ae8:	e92d 4ff0 	stmdb	sp!, {r4, r5, r6, r7, r8, r9, sl, fp, lr}
10001aec:	b097      	sub	sp, #92	@ 0x5c
10001aee:	ed9d 7b20 	vldr	d7, [sp, #128]	@ 0x80
10001af2:	e9dd 5b22 	ldrd	r5, fp, [sp, #136]	@ 0x88
10001af6:	4607      	mov	r7, r0
10001af8:	4688      	mov	r8, r1
10001afa:	ec51 0b17 	vmov	r0, r1, d7
10001afe:	9c24      	ldr	r4, [sp, #144]	@ 0x90
10001b00:	4699      	mov	r9, r3
10001b02:	920c      	str	r2, [sp, #48]	@ 0x30
10001b04:	460b      	mov	r3, r1
10001b06:	4602      	mov	r2, r0
10001b08:	ed8d 7b04 	vstr	d7, [sp, #16]
10001b0c:	9407      	str	r4, [sp, #28]
10001b0e:	f7ff fe49 	bl	100017a4 <__wrap___aeabi_dcmpun>
10001b12:	2800      	cmp	r0, #0
10001b14:	f040 81f4 	bne.w	10001f00 <_ftoa+0x418>
10001b18:	e9dd 0104 	ldrd	r0, r1, [sp, #16]
10001b1c:	f04f 32ff 	mov.w	r2, #4294967295
10001b20:	f46f 1380 	mvn.w	r3, #1048576	@ 0x100000
10001b24:	f7ff fe50 	bl	100017c8 <__wrap___aeabi_dcmplt>
10001b28:	2800      	cmp	r0, #0
10001b2a:	f040 811b 	bne.w	10001d64 <_ftoa+0x27c>
10001b2e:	e9dd 0104 	ldrd	r0, r1, [sp, #16]
10001b32:	f04f 32ff 	mov.w	r2, #4294967295
10001b36:	4bac      	ldr	r3, [pc, #688]	@ (10001de8 <_ftoa+0x300>)
10001b38:	f7ff fe82 	bl	10001840 <__wrap___aeabi_dcmpgt>
10001b3c:	2800      	cmp	r0, #0
10001b3e:	f040 80ee 	bne.w	10001d1e <_ftoa+0x236>
10001b42:	e9dd 0104 	ldrd	r0, r1, [sp, #16]
10001b46:	a3a4      	add	r3, pc, #656	@ (adr r3, 10001dd8 <_ftoa+0x2f0>)
10001b48:	e9d3 2300 	ldrd	r2, r3, [r3]
10001b4c:	f7ff fe78 	bl	10001840 <__wrap___aeabi_dcmpgt>
10001b50:	2800      	cmp	r0, #0
10001b52:	f040 80d3 	bne.w	10001cfc <_ftoa+0x214>
10001b56:	e9dd 0104 	ldrd	r0, r1, [sp, #16]
10001b5a:	a3a1      	add	r3, pc, #644	@ (adr r3, 10001de0 <_ftoa+0x2f8>)
10001b5c:	e9d3 2300 	ldrd	r2, r3, [r3]
10001b60:	f7ff fe32 	bl	100017c8 <__wrap___aeabi_dcmplt>
10001b64:	2800      	cmp	r0, #0
10001b66:	f040 80c9 	bne.w	10001cfc <_ftoa+0x214>
10001b6a:	e9dd 0104 	ldrd	r0, r1, [sp, #16]
10001b6e:	2200      	movs	r2, #0
10001b70:	2300      	movs	r3, #0
10001b72:	f7ff fe29 	bl	100017c8 <__wrap___aeabi_dcmplt>
10001b76:	2800      	cmp	r0, #0
10001b78:	f040 80e8 	bne.w	10001d4c <_ftoa+0x264>
10001b7c:	4623      	mov	r3, r4
10001b7e:	900d      	str	r0, [sp, #52]	@ 0x34
10001b80:	f413 6f80 	tst.w	r3, #1024	@ 0x400
10001b84:	bf08      	it	eq
10001b86:	2506      	moveq	r5, #6
10001b88:	2130      	movs	r1, #48	@ 0x30
10001b8a:	462b      	mov	r3, r5
10001b8c:	aa0e      	add	r2, sp, #56	@ 0x38
10001b8e:	f1a5 0620 	sub.w	r6, r5, #32
10001b92:	e005      	b.n	10001ba0 <_ftoa+0xb8>
10001b94:	3b01      	subs	r3, #1
10001b96:	42b3      	cmp	r3, r6
10001b98:	f802 1b01 	strb.w	r1, [r2], #1
10001b9c:	f000 8193 	beq.w	10001ec6 <_ftoa+0x3de>
10001ba0:	2b09      	cmp	r3, #9
10001ba2:	d8f7      	bhi.n	10001b94 <_ftoa+0xac>
10001ba4:	461e      	mov	r6, r3
10001ba6:	1aed      	subs	r5, r5, r3
10001ba8:	e9dd 0104 	ldrd	r0, r1, [sp, #16]
10001bac:	f7ff fdd6 	bl	1000175c <__wrap___aeabi_d2iz>
10001bb0:	4b8e      	ldr	r3, [pc, #568]	@ (10001dec <_ftoa+0x304>)
10001bb2:	4604      	mov	r4, r0
10001bb4:	eb03 03c6 	add.w	r3, r3, r6, lsl #3
10001bb8:	ed93 7b00 	vldr	d7, [r3]
10001bbc:	ed8d 7b08 	vstr	d7, [sp, #32]
10001bc0:	f7ff fda8 	bl	10001714 <__wrap___aeabi_i2d>
10001bc4:	4602      	mov	r2, r0
10001bc6:	460b      	mov	r3, r1
10001bc8:	e9dd 0104 	ldrd	r0, r1, [sp, #16]
10001bcc:	f7ff fd1a 	bl	10001604 <__wrap___aeabi_dsub>
10001bd0:	e9dd 2308 	ldrd	r2, r3, [sp, #32]
10001bd4:	f7ff fd2a 	bl	1000162c <__wrap___aeabi_dmul>
10001bd8:	4602      	mov	r2, r0
10001bda:	460b      	mov	r3, r1
10001bdc:	e9cd 230a 	strd	r2, r3, [sp, #40]	@ 0x28
10001be0:	f7ff fdce 	bl	10001780 <__wrap___aeabi_d2uiz>
10001be4:	4682      	mov	sl, r0
10001be6:	f7ff fda7 	bl	10001738 <__wrap___aeabi_ui2d>
10001bea:	4602      	mov	r2, r0
10001bec:	460b      	mov	r3, r1
10001bee:	e9dd 010a 	ldrd	r0, r1, [sp, #40]	@ 0x28
10001bf2:	f7ff fd07 	bl	10001604 <__wrap___aeabi_dsub>
10001bf6:	4602      	mov	r2, r0
10001bf8:	460b      	mov	r3, r1
10001bfa:	e9cd 230a 	strd	r2, r3, [sp, #40]	@ 0x28
10001bfe:	2200      	movs	r2, #0
10001c00:	4b7b      	ldr	r3, [pc, #492]	@ (10001df0 <_ftoa+0x308>)
10001c02:	f7ff fe1d 	bl	10001840 <__wrap___aeabi_dcmpgt>
10001c06:	2800      	cmp	r0, #0
10001c08:	f000 80fe 	beq.w	10001e08 <_ftoa+0x320>
10001c0c:	f10a 0a01 	add.w	sl, sl, #1
10001c10:	4650      	mov	r0, sl
10001c12:	f7ff fd91 	bl	10001738 <__wrap___aeabi_ui2d>
10001c16:	4602      	mov	r2, r0
10001c18:	460b      	mov	r3, r1
10001c1a:	e9dd 0108 	ldrd	r0, r1, [sp, #32]
10001c1e:	f7ff fde7 	bl	100017f0 <__wrap___aeabi_dcmple>
10001c22:	b110      	cbz	r0, 10001c2a <_ftoa+0x142>
10001c24:	f04f 0a00 	mov.w	sl, #0
10001c28:	3401      	adds	r4, #1
10001c2a:	2e00      	cmp	r6, #0
10001c2c:	f000 80fd 	beq.w	10001e2a <_ftoa+0x342>
10001c30:	1e68      	subs	r0, r5, #1
10001c32:	ab0e      	add	r3, sp, #56	@ 0x38
10001c34:	f8df c1cc 	ldr.w	ip, [pc, #460]	@ 10001e04 <_ftoa+0x31c>
10001c38:	4418      	add	r0, r3
10001c3a:	e00f      	b.n	10001c5c <_ftoa+0x174>
10001c3c:	fbac 210a 	umull	r2, r1, ip, sl
10001c40:	08c9      	lsrs	r1, r1, #3
10001c42:	eb01 0281 	add.w	r2, r1, r1, lsl #2
10001c46:	ebaa 0242 	sub.w	r2, sl, r2, lsl #1
10001c4a:	3230      	adds	r2, #48	@ 0x30
10001c4c:	f1ba 0f09 	cmp.w	sl, #9
10001c50:	f800 2f01 	strb.w	r2, [r0, #1]!
10001c54:	f240 811c 	bls.w	10001e90 <_ftoa+0x3a8>
10001c58:	468a      	mov	sl, r1
10001c5a:	461d      	mov	r5, r3
10001c5c:	2d20      	cmp	r5, #32
10001c5e:	f105 0301 	add.w	r3, r5, #1
10001c62:	f106 36ff 	add.w	r6, r6, #4294967295
10001c66:	d1e9      	bne.n	10001c3c <_ftoa+0x154>
10001c68:	2520      	movs	r5, #32
10001c6a:	1e69      	subs	r1, r5, #1
10001c6c:	ab0e      	add	r3, sp, #56	@ 0x38
10001c6e:	4861      	ldr	r0, [pc, #388]	@ (10001df4 <_ftoa+0x30c>)
10001c70:	4419      	add	r1, r3
10001c72:	e010      	b.n	10001c96 <_ftoa+0x1ae>
10001c74:	fb80 6204 	smull	r6, r2, r0, r4
10001c78:	ebc3 03a2 	rsb	r3, r3, r2, asr #2
10001c7c:	eb03 0283 	add.w	r2, r3, r3, lsl #2
10001c80:	eba4 0442 	sub.w	r4, r4, r2, lsl #1
10001c84:	f104 0230 	add.w	r2, r4, #48	@ 0x30
10001c88:	3501      	adds	r5, #1
10001c8a:	461c      	mov	r4, r3
10001c8c:	f801 2f01 	strb.w	r2, [r1, #1]!
10001c90:	2b00      	cmp	r3, #0
10001c92:	f000 80eb 	beq.w	10001e6c <_ftoa+0x384>
10001c96:	2d20      	cmp	r5, #32
10001c98:	ea4f 73e4 	mov.w	r3, r4, asr #31
10001c9c:	d1ea      	bne.n	10001c74 <_ftoa+0x18c>
10001c9e:	9b07      	ldr	r3, [sp, #28]
10001ca0:	f003 0303 	and.w	r3, r3, #3
10001ca4:	2b01      	cmp	r3, #1
10001ca6:	d118      	bne.n	10001cda <_ftoa+0x1f2>
10001ca8:	f1bb 0f00 	cmp.w	fp, #0
10001cac:	d015      	beq.n	10001cda <_ftoa+0x1f2>
10001cae:	9b0d      	ldr	r3, [sp, #52]	@ 0x34
10001cb0:	2b00      	cmp	r3, #0
10001cb2:	f000 810a 	beq.w	10001eca <_ftoa+0x3e2>
10001cb6:	f10b 3bff 	add.w	fp, fp, #4294967295
10001cba:	f1bb 0f20 	cmp.w	fp, #32
10001cbe:	d90c      	bls.n	10001cda <_ftoa+0x1f2>
10001cc0:	1e6b      	subs	r3, r5, #1
10001cc2:	a90e      	add	r1, sp, #56	@ 0x38
10001cc4:	2230      	movs	r2, #48	@ 0x30
10001cc6:	440b      	add	r3, r1
10001cc8:	e005      	b.n	10001cd6 <_ftoa+0x1ee>
10001cca:	3501      	adds	r5, #1
10001ccc:	455d      	cmp	r5, fp
10001cce:	f803 2f01 	strb.w	r2, [r3, #1]!
10001cd2:	f080 80d1 	bcs.w	10001e78 <_ftoa+0x390>
10001cd6:	2d20      	cmp	r5, #32
10001cd8:	d1f7      	bne.n	10001cca <_ftoa+0x1e2>
10001cda:	9b07      	ldr	r3, [sp, #28]
10001cdc:	ac0e      	add	r4, sp, #56	@ 0x38
10001cde:	e9cd b302 	strd	fp, r3, [sp, #8]
10001ce2:	4641      	mov	r1, r8
10001ce4:	464b      	mov	r3, r9
10001ce6:	4638      	mov	r0, r7
10001ce8:	9a0c      	ldr	r2, [sp, #48]	@ 0x30
10001cea:	9501      	str	r5, [sp, #4]
10001cec:	9400      	str	r4, [sp, #0]
10001cee:	f7ff fdb9 	bl	10001864 <_out_rev>
10001cf2:	4682      	mov	sl, r0
10001cf4:	4650      	mov	r0, sl
10001cf6:	b017      	add	sp, #92	@ 0x5c
10001cf8:	e8bd 8ff0 	ldmia.w	sp!, {r4, r5, r6, r7, r8, r9, sl, fp, pc}
10001cfc:	9b07      	ldr	r3, [sp, #28]
10001cfe:	ed9d 7b04 	vldr	d7, [sp, #16]
10001d02:	e9cd b323 	strd	fp, r3, [sp, #140]	@ 0x8c
10001d06:	4641      	mov	r1, r8
10001d08:	464b      	mov	r3, r9
10001d0a:	4638      	mov	r0, r7
10001d0c:	9a0c      	ldr	r2, [sp, #48]	@ 0x30
10001d0e:	ed8d 7b20 	vstr	d7, [sp, #128]	@ 0x80
10001d12:	9522      	str	r5, [sp, #136]	@ 0x88
10001d14:	b017      	add	sp, #92	@ 0x5c
10001d16:	e8bd 4ff0 	ldmia.w	sp!, {r4, r5, r6, r7, r8, r9, sl, fp, lr}
10001d1a:	f000 b945 	b.w	10001fa8 <_etoa>
10001d1e:	0761      	lsls	r1, r4, #29
10001d20:	4623      	mov	r3, r4
10001d22:	bf4c      	ite	mi
10001d24:	2304      	movmi	r3, #4
10001d26:	2303      	movpl	r3, #3
10001d28:	4641      	mov	r1, r8
10001d2a:	9321      	str	r3, [sp, #132]	@ 0x84
10001d2c:	4638      	mov	r0, r7
10001d2e:	464b      	mov	r3, r9
10001d30:	9a07      	ldr	r2, [sp, #28]
10001d32:	bf48      	it	mi
10001d34:	4c30      	ldrmi	r4, [pc, #192]	@ (10001df8 <_ftoa+0x310>)
10001d36:	e9cd b222 	strd	fp, r2, [sp, #136]	@ 0x88
10001d3a:	bf58      	it	pl
10001d3c:	4c2f      	ldrpl	r4, [pc, #188]	@ (10001dfc <_ftoa+0x314>)
10001d3e:	9a0c      	ldr	r2, [sp, #48]	@ 0x30
10001d40:	9420      	str	r4, [sp, #128]	@ 0x80
10001d42:	b017      	add	sp, #92	@ 0x5c
10001d44:	e8bd 4ff0 	ldmia.w	sp!, {r4, r5, r6, r7, r8, r9, sl, fp, lr}
10001d48:	f7ff bd8c 	b.w	10001864 <_out_rev>
10001d4c:	e9dd 2304 	ldrd	r2, r3, [sp, #16]
10001d50:	2000      	movs	r0, #0
10001d52:	2100      	movs	r1, #0
10001d54:	f7ff fc56 	bl	10001604 <__wrap___aeabi_dsub>
10001d58:	2301      	movs	r3, #1
10001d5a:	e9cd 0104 	strd	r0, r1, [sp, #16]
10001d5e:	930d      	str	r3, [sp, #52]	@ 0x34
10001d60:	4623      	mov	r3, r4
10001d62:	e70d      	b.n	10001b80 <_ftoa+0x98>
10001d64:	4623      	mov	r3, r4
10001d66:	079c      	lsls	r4, r3, #30
10001d68:	f040 80aa 	bne.w	10001ec0 <_ftoa+0x3d8>
10001d6c:	f1bb 0f04 	cmp.w	fp, #4
10001d70:	f240 80a6 	bls.w	10001ec0 <_ftoa+0x3d8>
10001d74:	9b0c      	ldr	r3, [sp, #48]	@ 0x30
10001d76:	461d      	mov	r5, r3
10001d78:	1f1c      	subs	r4, r3, #4
10001d7a:	eb04 0a0b 	add.w	sl, r4, fp
10001d7e:	462a      	mov	r2, r5
10001d80:	464b      	mov	r3, r9
10001d82:	4641      	mov	r1, r8
10001d84:	2020      	movs	r0, #32
10001d86:	3501      	adds	r5, #1
10001d88:	47b8      	blx	r7
10001d8a:	45aa      	cmp	sl, r5
10001d8c:	d1f7      	bne.n	10001d7e <_ftoa+0x296>
10001d8e:	4655      	mov	r5, sl
10001d90:	4c1b      	ldr	r4, [pc, #108]	@ (10001e00 <_ftoa+0x318>)
10001d92:	1f26      	subs	r6, r4, #4
10001d94:	f814 0d01 	ldrb.w	r0, [r4, #-1]!
10001d98:	462a      	mov	r2, r5
10001d9a:	464b      	mov	r3, r9
10001d9c:	4641      	mov	r1, r8
10001d9e:	47b8      	blx	r7
10001da0:	42b4      	cmp	r4, r6
10001da2:	f105 0501 	add.w	r5, r5, #1
10001da6:	d1f5      	bne.n	10001d94 <_ftoa+0x2ac>
10001da8:	9b07      	ldr	r3, [sp, #28]
10001daa:	f10a 0a04 	add.w	sl, sl, #4
10001dae:	0798      	lsls	r0, r3, #30
10001db0:	d5a0      	bpl.n	10001cf4 <_ftoa+0x20c>
10001db2:	9c0c      	ldr	r4, [sp, #48]	@ 0x30
10001db4:	ebaa 0304 	sub.w	r3, sl, r4
10001db8:	459b      	cmp	fp, r3
10001dba:	d99b      	bls.n	10001cf4 <_ftoa+0x20c>
10001dbc:	4652      	mov	r2, sl
10001dbe:	464b      	mov	r3, r9
10001dc0:	4641      	mov	r1, r8
10001dc2:	2020      	movs	r0, #32
10001dc4:	f10a 0a01 	add.w	sl, sl, #1
10001dc8:	47b8      	blx	r7
10001dca:	ebaa 0304 	sub.w	r3, sl, r4
10001dce:	455b      	cmp	r3, fp
10001dd0:	d3f4      	bcc.n	10001dbc <_ftoa+0x2d4>
10001dd2:	e78f      	b.n	10001cf4 <_ftoa+0x20c>
10001dd4:	f3af 8000 	nop.w
10001dd8:	00000000 	.word	0x00000000
10001ddc:	41cdcd65 	.word	0x41cdcd65
10001de0:	00000000 	.word	0x00000000
10001de4:	c1cdcd65 	.word	0xc1cdcd65
10001de8:	7fefffff 	.word	0x7fefffff
10001dec:	10003a48 	.word	0x10003a48
10001df0:	3fe00000 	.word	0x3fe00000
10001df4:	66666667 	.word	0x66666667
10001df8:	100039a0 	.word	0x100039a0
10001dfc:	100039a8 	.word	0x100039a8
10001e00:	100039b4 	.word	0x100039b4
10001e04:	cccccccd 	.word	0xcccccccd
10001e08:	2200      	movs	r2, #0
10001e0a:	e9dd 010a 	ldrd	r0, r1, [sp, #40]	@ 0x28
10001e0e:	4b63      	ldr	r3, [pc, #396]	@ (10001f9c <_ftoa+0x4b4>)
10001e10:	f7ff fcda 	bl	100017c8 <__wrap___aeabi_dcmplt>
10001e14:	2800      	cmp	r0, #0
10001e16:	f47f af08 	bne.w	10001c2a <_ftoa+0x142>
10001e1a:	f1ba 0f00 	cmp.w	sl, #0
10001e1e:	d16a      	bne.n	10001ef6 <_ftoa+0x40e>
10001e20:	f10a 0a01 	add.w	sl, sl, #1
10001e24:	2e00      	cmp	r6, #0
10001e26:	f47f af03 	bne.w	10001c30 <_ftoa+0x148>
10001e2a:	4620      	mov	r0, r4
10001e2c:	f7ff fc72 	bl	10001714 <__wrap___aeabi_i2d>
10001e30:	4602      	mov	r2, r0
10001e32:	460b      	mov	r3, r1
10001e34:	e9dd 0104 	ldrd	r0, r1, [sp, #16]
10001e38:	f7ff fbe4 	bl	10001604 <__wrap___aeabi_dsub>
10001e3c:	4602      	mov	r2, r0
10001e3e:	460b      	mov	r3, r1
10001e40:	e9cd 2304 	strd	r2, r3, [sp, #16]
10001e44:	2200      	movs	r2, #0
10001e46:	4b55      	ldr	r3, [pc, #340]	@ (10001f9c <_ftoa+0x4b4>)
10001e48:	f7ff fcbe 	bl	100017c8 <__wrap___aeabi_dcmplt>
10001e4c:	2800      	cmp	r0, #0
10001e4e:	f47f af0c 	bne.w	10001c6a <_ftoa+0x182>
10001e52:	e9dd 0104 	ldrd	r0, r1, [sp, #16]
10001e56:	2200      	movs	r2, #0
10001e58:	4b50      	ldr	r3, [pc, #320]	@ (10001f9c <_ftoa+0x4b4>)
10001e5a:	f7ff fcf1 	bl	10001840 <__wrap___aeabi_dcmpgt>
10001e5e:	2800      	cmp	r0, #0
10001e60:	f47f af03 	bne.w	10001c6a <_ftoa+0x182>
10001e64:	3401      	adds	r4, #1
10001e66:	f024 0401 	bic.w	r4, r4, #1
10001e6a:	e6fe      	b.n	10001c6a <_ftoa+0x182>
10001e6c:	9b07      	ldr	r3, [sp, #28]
10001e6e:	f003 0303 	and.w	r3, r3, #3
10001e72:	2b01      	cmp	r3, #1
10001e74:	f000 8082 	beq.w	10001f7c <_ftoa+0x494>
10001e78:	2d20      	cmp	r5, #32
10001e7a:	f43f af2e 	beq.w	10001cda <_ftoa+0x1f2>
10001e7e:	9b0d      	ldr	r3, [sp, #52]	@ 0x34
10001e80:	b37b      	cbz	r3, 10001ee2 <_ftoa+0x3fa>
10001e82:	222d      	movs	r2, #45	@ 0x2d
10001e84:	eb0d 0305 	add.w	r3, sp, r5
10001e88:	f883 2038 	strb.w	r2, [r3, #56]	@ 0x38
10001e8c:	3501      	adds	r5, #1
10001e8e:	e724      	b.n	10001cda <_ftoa+0x1f2>
10001e90:	2b20      	cmp	r3, #32
10001e92:	f43f aee9 	beq.w	10001c68 <_ftoa+0x180>
10001e96:	aa0e      	add	r2, sp, #56	@ 0x38
10001e98:	4415      	add	r5, r2
10001e9a:	441e      	add	r6, r3
10001e9c:	2230      	movs	r2, #48	@ 0x30
10001e9e:	e004      	b.n	10001eaa <_ftoa+0x3c2>
10001ea0:	2b20      	cmp	r3, #32
10001ea2:	f805 2f01 	strb.w	r2, [r5, #1]!
10001ea6:	f43f aedf 	beq.w	10001c68 <_ftoa+0x180>
10001eaa:	429e      	cmp	r6, r3
10001eac:	f103 0301 	add.w	r3, r3, #1
10001eb0:	d1f6      	bne.n	10001ea0 <_ftoa+0x3b8>
10001eb2:	222e      	movs	r2, #46	@ 0x2e
10001eb4:	eb0d 0306 	add.w	r3, sp, r6
10001eb8:	f883 2038 	strb.w	r2, [r3, #56]	@ 0x38
10001ebc:	1c75      	adds	r5, r6, #1
10001ebe:	e6d4      	b.n	10001c6a <_ftoa+0x182>
10001ec0:	f8dd a030 	ldr.w	sl, [sp, #48]	@ 0x30
10001ec4:	e763      	b.n	10001d8e <_ftoa+0x2a6>
10001ec6:	2520      	movs	r5, #32
10001ec8:	e66e      	b.n	10001ba8 <_ftoa+0xc0>
10001eca:	9b07      	ldr	r3, [sp, #28]
10001ecc:	f013 0f0c 	tst.w	r3, #12
10001ed0:	d050      	beq.n	10001f74 <_ftoa+0x48c>
10001ed2:	f10b 3bff 	add.w	fp, fp, #4294967295
10001ed6:	45ab      	cmp	fp, r5
10001ed8:	f63f aef2 	bhi.w	10001cc0 <_ftoa+0x1d8>
10001edc:	2d20      	cmp	r5, #32
10001ede:	f43f aefc 	beq.w	10001cda <_ftoa+0x1f2>
10001ee2:	9b07      	ldr	r3, [sp, #28]
10001ee4:	075a      	lsls	r2, r3, #29
10001ee6:	d501      	bpl.n	10001eec <_ftoa+0x404>
10001ee8:	222b      	movs	r2, #43	@ 0x2b
10001eea:	e7cb      	b.n	10001e84 <_ftoa+0x39c>
10001eec:	071b      	lsls	r3, r3, #28
10001eee:	f57f aef4 	bpl.w	10001cda <_ftoa+0x1f2>
10001ef2:	2220      	movs	r2, #32
10001ef4:	e7c6      	b.n	10001e84 <_ftoa+0x39c>
10001ef6:	f01a 0f01 	tst.w	sl, #1
10001efa:	f43f ae96 	beq.w	10001c2a <_ftoa+0x142>
10001efe:	e78f      	b.n	10001e20 <_ftoa+0x338>
10001f00:	07a6      	lsls	r6, r4, #30
10001f02:	d134      	bne.n	10001f6e <_ftoa+0x486>
10001f04:	f1bb 0f03 	cmp.w	fp, #3
10001f08:	d931      	bls.n	10001f6e <_ftoa+0x486>
10001f0a:	9b0c      	ldr	r3, [sp, #48]	@ 0x30
10001f0c:	461d      	mov	r5, r3
10001f0e:	1edc      	subs	r4, r3, #3
10001f10:	eb04 0a0b 	add.w	sl, r4, fp
10001f14:	462a      	mov	r2, r5
10001f16:	464b      	mov	r3, r9
10001f18:	4641      	mov	r1, r8
10001f1a:	2020      	movs	r0, #32
10001f1c:	3501      	adds	r5, #1
10001f1e:	47b8      	blx	r7
10001f20:	4555      	cmp	r5, sl
10001f22:	d1f7      	bne.n	10001f14 <_ftoa+0x42c>
10001f24:	4655      	mov	r5, sl
10001f26:	4c1e      	ldr	r4, [pc, #120]	@ (10001fa0 <_ftoa+0x4b8>)
10001f28:	1ee6      	subs	r6, r4, #3
10001f2a:	f814 0d01 	ldrb.w	r0, [r4, #-1]!
10001f2e:	462a      	mov	r2, r5
10001f30:	464b      	mov	r3, r9
10001f32:	4641      	mov	r1, r8
10001f34:	47b8      	blx	r7
10001f36:	42a6      	cmp	r6, r4
10001f38:	f105 0501 	add.w	r5, r5, #1
10001f3c:	d1f5      	bne.n	10001f2a <_ftoa+0x442>
10001f3e:	9b07      	ldr	r3, [sp, #28]
10001f40:	f10a 0a03 	add.w	sl, sl, #3
10001f44:	079d      	lsls	r5, r3, #30
10001f46:	f57f aed5 	bpl.w	10001cf4 <_ftoa+0x20c>
10001f4a:	9c0c      	ldr	r4, [sp, #48]	@ 0x30
10001f4c:	ebaa 0304 	sub.w	r3, sl, r4
10001f50:	459b      	cmp	fp, r3
10001f52:	f67f aecf 	bls.w	10001cf4 <_ftoa+0x20c>
10001f56:	4652      	mov	r2, sl
10001f58:	464b      	mov	r3, r9
10001f5a:	4641      	mov	r1, r8
10001f5c:	2020      	movs	r0, #32
10001f5e:	f10a 0a01 	add.w	sl, sl, #1
10001f62:	47b8      	blx	r7
10001f64:	ebaa 0304 	sub.w	r3, sl, r4
10001f68:	459b      	cmp	fp, r3
10001f6a:	d8f4      	bhi.n	10001f56 <_ftoa+0x46e>
10001f6c:	e6c2      	b.n	10001cf4 <_ftoa+0x20c>
10001f6e:	f8dd a030 	ldr.w	sl, [sp, #48]	@ 0x30
10001f72:	e7d7      	b.n	10001f24 <_ftoa+0x43c>
10001f74:	45ab      	cmp	fp, r5
10001f76:	f63f aea3 	bhi.w	10001cc0 <_ftoa+0x1d8>
10001f7a:	e6ae      	b.n	10001cda <_ftoa+0x1f2>
10001f7c:	f1bb 0f00 	cmp.w	fp, #0
10001f80:	f43f af7a 	beq.w	10001e78 <_ftoa+0x390>
10001f84:	9b0d      	ldr	r3, [sp, #52]	@ 0x34
10001f86:	2b00      	cmp	r3, #0
10001f88:	d09f      	beq.n	10001eca <_ftoa+0x3e2>
10001f8a:	f10b 3bff 	add.w	fp, fp, #4294967295
10001f8e:	455d      	cmp	r5, fp
10001f90:	f4ff ae96 	bcc.w	10001cc0 <_ftoa+0x1d8>
10001f94:	2d20      	cmp	r5, #32
10001f96:	f47f af74 	bne.w	10001e82 <_ftoa+0x39a>
10001f9a:	e69e      	b.n	10001cda <_ftoa+0x1f2>
10001f9c:	3fe00000 	.word	0x3fe00000
10001fa0:	100039af 	.word	0x100039af
10001fa4:	00000000 	.word	0x00000000

10001fa8 <_etoa>:
10001fa8:	e92d 4ff0 	stmdb	sp!, {r4, r5, r6, r7, r8, r9, sl, fp, lr}
10001fac:	b09f      	sub	sp, #124	@ 0x7c
10001fae:	9e2a      	ldr	r6, [sp, #168]	@ 0xa8
10001fb0:	e9dd 4528 	ldrd	r4, r5, [sp, #160]	@ 0xa0
10001fb4:	4607      	mov	r7, r0
10001fb6:	4693      	mov	fp, r2
10001fb8:	9108      	str	r1, [sp, #32]
10001fba:	9309      	str	r3, [sp, #36]	@ 0x24
10001fbc:	4622      	mov	r2, r4
10001fbe:	462b      	mov	r3, r5
10001fc0:	4620      	mov	r0, r4
10001fc2:	4629      	mov	r1, r5
10001fc4:	960e      	str	r6, [sp, #56]	@ 0x38
10001fc6:	e9dd a62b 	ldrd	sl, r6, [sp, #172]	@ 0xac
10001fca:	f7ff fbeb 	bl	100017a4 <__wrap___aeabi_dcmpun>
10001fce:	2800      	cmp	r0, #0
10001fd0:	f040 80be 	bne.w	10002150 <_etoa+0x1a8>
10001fd4:	4620      	mov	r0, r4
10001fd6:	4629      	mov	r1, r5
10001fd8:	f04f 32ff 	mov.w	r2, #4294967295
10001fdc:	4b78      	ldr	r3, [pc, #480]	@ (100021c0 <_etoa+0x218>)
10001fde:	f7ff fc2f 	bl	10001840 <__wrap___aeabi_dcmpgt>
10001fe2:	2800      	cmp	r0, #0
10001fe4:	f040 80b4 	bne.w	10002150 <_etoa+0x1a8>
10001fe8:	4620      	mov	r0, r4
10001fea:	4629      	mov	r1, r5
10001fec:	f04f 32ff 	mov.w	r2, #4294967295
10001ff0:	f46f 1380 	mvn.w	r3, #1048576	@ 0x100000
10001ff4:	f7ff fbe8 	bl	100017c8 <__wrap___aeabi_dcmplt>
10001ff8:	2800      	cmp	r0, #0
10001ffa:	f040 80a9 	bne.w	10002150 <_etoa+0x1a8>
10001ffe:	4620      	mov	r0, r4
10002000:	4629      	mov	r1, r5
10002002:	2200      	movs	r2, #0
10002004:	2300      	movs	r3, #0
10002006:	f7ff fbdf 	bl	100017c8 <__wrap___aeabi_dcmplt>
1000200a:	2800      	cmp	r0, #0
1000200c:	f040 81d5 	bne.w	100023ba <_etoa+0x412>
10002010:	e9cd 450a 	strd	r4, r5, [sp, #40]	@ 0x28
10002014:	e9dd 230a 	ldrd	r2, r3, [sp, #40]	@ 0x28
10002018:	4690      	mov	r8, r2
1000201a:	4699      	mov	r9, r3
1000201c:	f406 6200 	and.w	r2, r6, #2048	@ 0x800
10002020:	f416 6380 	ands.w	r3, r6, #1024	@ 0x400
10002024:	920f      	str	r2, [sp, #60]	@ 0x3c
10002026:	9313      	str	r3, [sp, #76]	@ 0x4c
10002028:	f040 80a1 	bne.w	1000216e <_etoa+0x1c6>
1000202c:	ea58 0309 	orrs.w	r3, r8, r9
10002030:	f040 80ca 	bne.w	100021c8 <_etoa+0x220>
10002034:	2a00      	cmp	r2, #0
10002036:	f040 81e3 	bne.w	10002400 <_etoa+0x458>
1000203a:	2306      	movs	r3, #6
1000203c:	930e      	str	r3, [sp, #56]	@ 0x38
1000203e:	f016 0202 	ands.w	r2, r6, #2
10002042:	9210      	str	r2, [sp, #64]	@ 0x40
10002044:	f040 81d4 	bne.w	100023f0 <_etoa+0x448>
10002048:	4653      	mov	r3, sl
1000204a:	2b04      	cmp	r3, #4
1000204c:	bf38      	it	cc
1000204e:	2304      	movcc	r3, #4
10002050:	920c      	str	r2, [sp, #48]	@ 0x30
10002052:	2204      	movs	r2, #4
10002054:	3b04      	subs	r3, #4
10002056:	9212      	str	r2, [sp, #72]	@ 0x48
10002058:	930f      	str	r3, [sp, #60]	@ 0x3c
1000205a:	4620      	mov	r0, r4
1000205c:	4629      	mov	r1, r5
1000205e:	2200      	movs	r2, #0
10002060:	2300      	movs	r3, #0
10002062:	f7ff fbb1 	bl	100017c8 <__wrap___aeabi_dcmplt>
10002066:	2800      	cmp	r0, #0
10002068:	f040 81f3 	bne.w	10002452 <_etoa+0x4aa>
1000206c:	ed9d 7b0a 	vldr	d7, [sp, #40]	@ 0x28
10002070:	9b0f      	ldr	r3, [sp, #60]	@ 0x3c
10002072:	465a      	mov	r2, fp
10002074:	9303      	str	r3, [sp, #12]
10002076:	9b0e      	ldr	r3, [sp, #56]	@ 0x38
10002078:	ed8d 7b00 	vstr	d7, [sp]
1000207c:	9302      	str	r3, [sp, #8]
1000207e:	f426 6300 	bic.w	r3, r6, #2048	@ 0x800
10002082:	9304      	str	r3, [sp, #16]
10002084:	4638      	mov	r0, r7
10002086:	9b09      	ldr	r3, [sp, #36]	@ 0x24
10002088:	9908      	ldr	r1, [sp, #32]
1000208a:	f7ff fd2d 	bl	10001ae8 <_ftoa>
1000208e:	4602      	mov	r2, r0
10002090:	f016 0f20 	tst.w	r6, #32
10002094:	9b09      	ldr	r3, [sp, #36]	@ 0x24
10002096:	9908      	ldr	r1, [sp, #32]
10002098:	bf0c      	ite	eq
1000209a:	2065      	moveq	r0, #101	@ 0x65
1000209c:	2045      	movne	r0, #69	@ 0x45
1000209e:	f102 0801 	add.w	r8, r2, #1
100020a2:	47b8      	blx	r7
100020a4:	9a0c      	ldr	r2, [sp, #48]	@ 0x30
100020a6:	9b12      	ldr	r3, [sp, #72]	@ 0x48
100020a8:	ac16      	add	r4, sp, #88	@ 0x58
100020aa:	1e5d      	subs	r5, r3, #1
100020ac:	ea82 73e2 	eor.w	r3, r2, r2, asr #31
100020b0:	eba3 73e2 	sub.w	r3, r3, r2, asr #31
100020b4:	0fd1      	lsrs	r1, r2, #31
100020b6:	2600      	movs	r6, #0
100020b8:	4622      	mov	r2, r4
100020ba:	4699      	mov	r9, r3
100020bc:	f8df c104 	ldr.w	ip, [pc, #260]	@ 100021c4 <_etoa+0x21c>
100020c0:	e001      	b.n	100020c6 <_etoa+0x11e>
100020c2:	2e20      	cmp	r6, #32
100020c4:	d010      	beq.n	100020e8 <_etoa+0x140>
100020c6:	46ce      	mov	lr, r9
100020c8:	fbac 3009 	umull	r3, r0, ip, r9
100020cc:	08c0      	lsrs	r0, r0, #3
100020ce:	eb00 0380 	add.w	r3, r0, r0, lsl #2
100020d2:	eba9 0343 	sub.w	r3, r9, r3, lsl #1
100020d6:	3330      	adds	r3, #48	@ 0x30
100020d8:	f1be 0f09 	cmp.w	lr, #9
100020dc:	4681      	mov	r9, r0
100020de:	f106 0601 	add.w	r6, r6, #1
100020e2:	f802 3b01 	strb.w	r3, [r2], #1
100020e6:	d8ec      	bhi.n	100020c2 <_etoa+0x11a>
100020e8:	2305      	movs	r3, #5
100020ea:	2000      	movs	r0, #0
100020ec:	9306      	str	r3, [sp, #24]
100020ee:	230a      	movs	r3, #10
100020f0:	9505      	str	r5, [sp, #20]
100020f2:	9400      	str	r4, [sp, #0]
100020f4:	9d09      	ldr	r5, [sp, #36]	@ 0x24
100020f6:	9c08      	ldr	r4, [sp, #32]
100020f8:	4642      	mov	r2, r8
100020fa:	e9cd 3003 	strd	r3, r0, [sp, #12]
100020fe:	e9cd 6101 	strd	r6, r1, [sp, #4]
10002102:	462b      	mov	r3, r5
10002104:	4621      	mov	r1, r4
10002106:	4638      	mov	r0, r7
10002108:	f7ff fbfa 	bl	10001900 <_ntoa_format>
1000210c:	9a10      	ldr	r2, [sp, #64]	@ 0x40
1000210e:	4680      	mov	r8, r0
10002110:	b1d2      	cbz	r2, 10002148 <_etoa+0x1a0>
10002112:	eba0 060b 	sub.w	r6, r0, fp
10002116:	45b2      	cmp	sl, r6
10002118:	d916      	bls.n	10002148 <_etoa+0x1a0>
1000211a:	eb0b 0206 	add.w	r2, fp, r6
1000211e:	462b      	mov	r3, r5
10002120:	4621      	mov	r1, r4
10002122:	2020      	movs	r0, #32
10002124:	3601      	adds	r6, #1
10002126:	47b8      	blx	r7
10002128:	45b2      	cmp	sl, r6
1000212a:	d8f6      	bhi.n	1000211a <_etoa+0x172>
1000212c:	f10b 33ff 	add.w	r3, fp, #4294967295
10002130:	4453      	add	r3, sl
10002132:	f1cb 0201 	rsb	r2, fp, #1
10002136:	eba3 0308 	sub.w	r3, r3, r8
1000213a:	4442      	add	r2, r8
1000213c:	4592      	cmp	sl, r2
1000213e:	bf38      	it	cc
10002140:	2300      	movcc	r3, #0
10002142:	f108 0801 	add.w	r8, r8, #1
10002146:	4498      	add	r8, r3
10002148:	4640      	mov	r0, r8
1000214a:	b01f      	add	sp, #124	@ 0x7c
1000214c:	e8bd 8ff0 	ldmia.w	sp!, {r4, r5, r6, r7, r8, r9, sl, fp, pc}
10002150:	465a      	mov	r2, fp
10002152:	4638      	mov	r0, r7
10002154:	e9cd 4528 	strd	r4, r5, [sp, #160]	@ 0xa0
10002158:	e9cd a62b 	strd	sl, r6, [sp, #172]	@ 0xac
1000215c:	9c0e      	ldr	r4, [sp, #56]	@ 0x38
1000215e:	9b09      	ldr	r3, [sp, #36]	@ 0x24
10002160:	9908      	ldr	r1, [sp, #32]
10002162:	942a      	str	r4, [sp, #168]	@ 0xa8
10002164:	b01f      	add	sp, #124	@ 0x7c
10002166:	e8bd 4ff0 	ldmia.w	sp!, {r4, r5, r6, r7, r8, r9, sl, fp, lr}
1000216a:	f7ff bcbd 	b.w	10001ae8 <_ftoa>
1000216e:	ea58 0309 	orrs.w	r3, r8, r9
10002172:	d12b      	bne.n	100021cc <_etoa+0x224>
10002174:	2a00      	cmp	r2, #0
10002176:	f43f af62 	beq.w	1000203e <_etoa+0x96>
1000217a:	2300      	movs	r3, #0
1000217c:	930c      	str	r3, [sp, #48]	@ 0x30
1000217e:	9b0e      	ldr	r3, [sp, #56]	@ 0x38
10002180:	9a0c      	ldr	r2, [sp, #48]	@ 0x30
10002182:	4293      	cmp	r3, r2
10002184:	f300 81b9 	bgt.w	100024fa <_etoa+0x552>
10002188:	f04f 0800 	mov.w	r8, #0
1000218c:	4620      	mov	r0, r4
1000218e:	4629      	mov	r1, r5
10002190:	2200      	movs	r2, #0
10002192:	2300      	movs	r3, #0
10002194:	f7ff fb18 	bl	100017c8 <__wrap___aeabi_dcmplt>
10002198:	2800      	cmp	r0, #0
1000219a:	f040 8113 	bne.w	100023c4 <_etoa+0x41c>
1000219e:	ed9d 7b0a 	vldr	d7, [sp, #40]	@ 0x28
100021a2:	f426 6600 	bic.w	r6, r6, #2048	@ 0x800
100021a6:	f446 6680 	orr.w	r6, r6, #1024	@ 0x400
100021aa:	ed8d 7b28 	vstr	d7, [sp, #160]	@ 0xa0
100021ae:	465a      	mov	r2, fp
100021b0:	4638      	mov	r0, r7
100021b2:	e9cd 8a2a 	strd	r8, sl, [sp, #168]	@ 0xa8
100021b6:	9b09      	ldr	r3, [sp, #36]	@ 0x24
100021b8:	9908      	ldr	r1, [sp, #32]
100021ba:	962c      	str	r6, [sp, #176]	@ 0xb0
100021bc:	e7d2      	b.n	10002164 <_etoa+0x1bc>
100021be:	bf00      	nop
100021c0:	7fefffff 	.word	0x7fefffff
100021c4:	cccccccd 	.word	0xcccccccd
100021c8:	2306      	movs	r3, #6
100021ca:	930e      	str	r3, [sp, #56]	@ 0x38
100021cc:	f3c9 500a 	ubfx	r0, r9, #20, #11
100021d0:	f2a0 30ff 	subw	r0, r0, #1023	@ 0x3ff
100021d4:	f7ff fa9e 	bl	10001714 <__wrap___aeabi_i2d>
100021d8:	a3c1      	add	r3, pc, #772	@ (adr r3, 100024e0 <_etoa+0x538>)
100021da:	e9d3 2300 	ldrd	r2, r3, [r3]
100021de:	f7ff fa25 	bl	1000162c <__wrap___aeabi_dmul>
100021e2:	a3c1      	add	r3, pc, #772	@ (adr r3, 100024e8 <_etoa+0x540>)
100021e4:	e9d3 2300 	ldrd	r2, r3, [r3]
100021e8:	f7ff f9f8 	bl	100015dc <__wrap___aeabi_dadd>
100021ec:	f3c9 0913 	ubfx	r9, r9, #0, #20
100021f0:	e9cd 010c 	strd	r0, r1, [sp, #48]	@ 0x30
100021f4:	f049 517f 	orr.w	r1, r9, #1069547520	@ 0x3fc00000
100021f8:	4640      	mov	r0, r8
100021fa:	2200      	movs	r2, #0
100021fc:	4bb2      	ldr	r3, [pc, #712]	@ (100024c8 <_etoa+0x520>)
100021fe:	f441 1140 	orr.w	r1, r1, #3145728	@ 0x300000
10002202:	f7ff f9ff 	bl	10001604 <__wrap___aeabi_dsub>
10002206:	a3a4      	add	r3, pc, #656	@ (adr r3, 10002498 <_etoa+0x4f0>)
10002208:	e9d3 2300 	ldrd	r2, r3, [r3]
1000220c:	f7ff fa0e 	bl	1000162c <__wrap___aeabi_dmul>
10002210:	4602      	mov	r2, r0
10002212:	460b      	mov	r3, r1
10002214:	e9dd 010c 	ldrd	r0, r1, [sp, #48]	@ 0x30
10002218:	f7ff f9e0 	bl	100015dc <__wrap___aeabi_dadd>
1000221c:	f7ff fa9e 	bl	1000175c <__wrap___aeabi_d2iz>
10002220:	900c      	str	r0, [sp, #48]	@ 0x30
10002222:	f7ff fa77 	bl	10001714 <__wrap___aeabi_i2d>
10002226:	a39e      	add	r3, pc, #632	@ (adr r3, 100024a0 <_etoa+0x4f8>)
10002228:	e9d3 2300 	ldrd	r2, r3, [r3]
1000222c:	4680      	mov	r8, r0
1000222e:	4689      	mov	r9, r1
10002230:	f7ff f9fc 	bl	1000162c <__wrap___aeabi_dmul>
10002234:	2200      	movs	r2, #0
10002236:	4ba5      	ldr	r3, [pc, #660]	@ (100024cc <_etoa+0x524>)
10002238:	f7ff f9d0 	bl	100015dc <__wrap___aeabi_dadd>
1000223c:	f7ff fa8e 	bl	1000175c <__wrap___aeabi_d2iz>
10002240:	4603      	mov	r3, r0
10002242:	4649      	mov	r1, r9
10002244:	4640      	mov	r0, r8
10002246:	9312      	str	r3, [sp, #72]	@ 0x48
10002248:	a397      	add	r3, pc, #604	@ (adr r3, 100024a8 <_etoa+0x500>)
1000224a:	e9d3 2300 	ldrd	r2, r3, [r3]
1000224e:	f7ff f9ed 	bl	1000162c <__wrap___aeabi_dmul>
10002252:	4680      	mov	r8, r0
10002254:	9812      	ldr	r0, [sp, #72]	@ 0x48
10002256:	4689      	mov	r9, r1
10002258:	f7ff fa5c 	bl	10001714 <__wrap___aeabi_i2d>
1000225c:	a394      	add	r3, pc, #592	@ (adr r3, 100024b0 <_etoa+0x508>)
1000225e:	e9d3 2300 	ldrd	r2, r3, [r3]
10002262:	f7ff f9e3 	bl	1000162c <__wrap___aeabi_dmul>
10002266:	4602      	mov	r2, r0
10002268:	460b      	mov	r3, r1
1000226a:	4640      	mov	r0, r8
1000226c:	4649      	mov	r1, r9
1000226e:	f7ff f9c9 	bl	10001604 <__wrap___aeabi_dsub>
10002272:	4602      	mov	r2, r0
10002274:	460b      	mov	r3, r1
10002276:	4680      	mov	r8, r0
10002278:	4689      	mov	r9, r1
1000227a:	f7ff f9d7 	bl	1000162c <__wrap___aeabi_dmul>
1000227e:	4642      	mov	r2, r8
10002280:	464b      	mov	r3, r9
10002282:	e9cd 0110 	strd	r0, r1, [sp, #64]	@ 0x40
10002286:	4640      	mov	r0, r8
10002288:	4649      	mov	r1, r9
1000228a:	f7ff f9a7 	bl	100015dc <__wrap___aeabi_dadd>
1000228e:	2200      	movs	r2, #0
10002290:	e9cd 0114 	strd	r0, r1, [sp, #80]	@ 0x50
10002294:	e9dd 0110 	ldrd	r0, r1, [sp, #64]	@ 0x40
10002298:	4b8d      	ldr	r3, [pc, #564]	@ (100024d0 <_etoa+0x528>)
1000229a:	f7ff f9ed 	bl	10001678 <__wrap___aeabi_ddiv>
1000229e:	2200      	movs	r2, #0
100022a0:	4b8c      	ldr	r3, [pc, #560]	@ (100024d4 <_etoa+0x52c>)
100022a2:	f7ff f99b 	bl	100015dc <__wrap___aeabi_dadd>
100022a6:	4602      	mov	r2, r0
100022a8:	460b      	mov	r3, r1
100022aa:	e9dd 0110 	ldrd	r0, r1, [sp, #64]	@ 0x40
100022ae:	f7ff f9e3 	bl	10001678 <__wrap___aeabi_ddiv>
100022b2:	2200      	movs	r2, #0
100022b4:	4b88      	ldr	r3, [pc, #544]	@ (100024d8 <_etoa+0x530>)
100022b6:	f7ff f991 	bl	100015dc <__wrap___aeabi_dadd>
100022ba:	4602      	mov	r2, r0
100022bc:	460b      	mov	r3, r1
100022be:	e9dd 0110 	ldrd	r0, r1, [sp, #64]	@ 0x40
100022c2:	f7ff f9d9 	bl	10001678 <__wrap___aeabi_ddiv>
100022c6:	4642      	mov	r2, r8
100022c8:	464b      	mov	r3, r9
100022ca:	4680      	mov	r8, r0
100022cc:	4689      	mov	r9, r1
100022ce:	2000      	movs	r0, #0
100022d0:	f04f 4180 	mov.w	r1, #1073741824	@ 0x40000000
100022d4:	f7ff f996 	bl	10001604 <__wrap___aeabi_dsub>
100022d8:	4602      	mov	r2, r0
100022da:	460b      	mov	r3, r1
100022dc:	4640      	mov	r0, r8
100022de:	4649      	mov	r1, r9
100022e0:	f7ff f97c 	bl	100015dc <__wrap___aeabi_dadd>
100022e4:	4602      	mov	r2, r0
100022e6:	460b      	mov	r3, r1
100022e8:	e9dd 0114 	ldrd	r0, r1, [sp, #80]	@ 0x50
100022ec:	f7ff f9c4 	bl	10001678 <__wrap___aeabi_ddiv>
100022f0:	2200      	movs	r2, #0
100022f2:	4b7a      	ldr	r3, [pc, #488]	@ (100024dc <_etoa+0x534>)
100022f4:	f7ff f972 	bl	100015dc <__wrap___aeabi_dadd>
100022f8:	9b12      	ldr	r3, [sp, #72]	@ 0x48
100022fa:	2200      	movs	r2, #0
100022fc:	f203 3cff 	addw	ip, r3, #1023	@ 0x3ff
10002300:	ea4f 530c 	mov.w	r3, ip, lsl #20
10002304:	f7ff f992 	bl	1000162c <__wrap___aeabi_dmul>
10002308:	4680      	mov	r8, r0
1000230a:	4689      	mov	r9, r1
1000230c:	e9dd 010a 	ldrd	r0, r1, [sp, #40]	@ 0x28
10002310:	4642      	mov	r2, r8
10002312:	464b      	mov	r3, r9
10002314:	f7ff fa58 	bl	100017c8 <__wrap___aeabi_dcmplt>
10002318:	b150      	cbz	r0, 10002330 <_etoa+0x388>
1000231a:	9b0c      	ldr	r3, [sp, #48]	@ 0x30
1000231c:	4640      	mov	r0, r8
1000231e:	3b01      	subs	r3, #1
10002320:	4649      	mov	r1, r9
10002322:	930c      	str	r3, [sp, #48]	@ 0x30
10002324:	2200      	movs	r2, #0
10002326:	4b6b      	ldr	r3, [pc, #428]	@ (100024d4 <_etoa+0x52c>)
10002328:	f7ff f9a6 	bl	10001678 <__wrap___aeabi_ddiv>
1000232c:	4680      	mov	r8, r0
1000232e:	4689      	mov	r9, r1
10002330:	9a0c      	ldr	r2, [sp, #48]	@ 0x30
10002332:	4643      	mov	r3, r8
10002334:	3263      	adds	r2, #99	@ 0x63
10002336:	2ac6      	cmp	r2, #198	@ 0xc6
10002338:	f006 0202 	and.w	r2, r6, #2
1000233c:	9210      	str	r2, [sp, #64]	@ 0x40
1000233e:	4649      	mov	r1, r9
10002340:	9a0f      	ldr	r2, [sp, #60]	@ 0x3c
10002342:	d82c      	bhi.n	1000239e <_etoa+0x3f6>
10002344:	2a00      	cmp	r2, #0
10002346:	d05e      	beq.n	10002406 <_etoa+0x45e>
10002348:	2204      	movs	r2, #4
1000234a:	9212      	str	r2, [sp, #72]	@ 0x48
1000234c:	430b      	orrs	r3, r1
1000234e:	f43f af16 	beq.w	1000217e <_etoa+0x1d6>
10002352:	e9dd 010a 	ldrd	r0, r1, [sp, #40]	@ 0x28
10002356:	a358      	add	r3, pc, #352	@ (adr r3, 100024b8 <_etoa+0x510>)
10002358:	e9d3 2300 	ldrd	r2, r3, [r3]
1000235c:	f7ff fa5c 	bl	10001818 <__wrap___aeabi_dcmpge>
10002360:	b148      	cbz	r0, 10002376 <_etoa+0x3ce>
10002362:	e9dd 010a 	ldrd	r0, r1, [sp, #40]	@ 0x28
10002366:	a356      	add	r3, pc, #344	@ (adr r3, 100024c0 <_etoa+0x518>)
10002368:	e9d3 2300 	ldrd	r2, r3, [r3]
1000236c:	f7ff fa2c 	bl	100017c8 <__wrap___aeabi_dcmplt>
10002370:	2800      	cmp	r0, #0
10002372:	f47f af04 	bne.w	1000217e <_etoa+0x1d6>
10002376:	9b0e      	ldr	r3, [sp, #56]	@ 0x38
10002378:	2b00      	cmp	r3, #0
1000237a:	d050      	beq.n	1000241e <_etoa+0x476>
1000237c:	9a13      	ldr	r2, [sp, #76]	@ 0x4c
1000237e:	2a00      	cmp	r2, #0
10002380:	d07d      	beq.n	1000247e <_etoa+0x4d6>
10002382:	3b01      	subs	r3, #1
10002384:	930e      	str	r3, [sp, #56]	@ 0x38
10002386:	9b12      	ldr	r3, [sp, #72]	@ 0x48
10002388:	459a      	cmp	sl, r3
1000238a:	d905      	bls.n	10002398 <_etoa+0x3f0>
1000238c:	9b10      	ldr	r3, [sp, #64]	@ 0x40
1000238e:	2b00      	cmp	r3, #0
10002390:	f000 80ae 	beq.w	100024f0 <_etoa+0x548>
10002394:	2302      	movs	r3, #2
10002396:	9310      	str	r3, [sp, #64]	@ 0x40
10002398:	2300      	movs	r3, #0
1000239a:	930f      	str	r3, [sp, #60]	@ 0x3c
1000239c:	e044      	b.n	10002428 <_etoa+0x480>
1000239e:	bb22      	cbnz	r2, 100023ea <_etoa+0x442>
100023a0:	f1ba 0f05 	cmp.w	sl, #5
100023a4:	d94f      	bls.n	10002446 <_etoa+0x49e>
100023a6:	f006 0302 	and.w	r3, r6, #2
100023aa:	2b00      	cmp	r3, #0
100023ac:	d149      	bne.n	10002442 <_etoa+0x49a>
100023ae:	2305      	movs	r3, #5
100023b0:	9312      	str	r3, [sp, #72]	@ 0x48
100023b2:	f1aa 0305 	sub.w	r3, sl, #5
100023b6:	930f      	str	r3, [sp, #60]	@ 0x3c
100023b8:	e03a      	b.n	10002430 <_etoa+0x488>
100023ba:	f105 4300 	add.w	r3, r5, #2147483648	@ 0x80000000
100023be:	940a      	str	r4, [sp, #40]	@ 0x28
100023c0:	930b      	str	r3, [sp, #44]	@ 0x2c
100023c2:	e627      	b.n	10002014 <_etoa+0x6c>
100023c4:	f426 6600 	bic.w	r6, r6, #2048	@ 0x800
100023c8:	f446 6680 	orr.w	r6, r6, #1024	@ 0x400
100023cc:	4638      	mov	r0, r7
100023ce:	962c      	str	r6, [sp, #176]	@ 0xb0
100023d0:	e9dd 670a 	ldrd	r6, r7, [sp, #40]	@ 0x28
100023d4:	4634      	mov	r4, r6
100023d6:	f107 4500 	add.w	r5, r7, #2147483648	@ 0x80000000
100023da:	465a      	mov	r2, fp
100023dc:	e9cd 8a2a 	strd	r8, sl, [sp, #168]	@ 0xa8
100023e0:	e9cd 4528 	strd	r4, r5, [sp, #160]	@ 0xa0
100023e4:	9b09      	ldr	r3, [sp, #36]	@ 0x24
100023e6:	9908      	ldr	r1, [sp, #32]
100023e8:	e6bc      	b.n	10002164 <_etoa+0x1bc>
100023ea:	2205      	movs	r2, #5
100023ec:	9212      	str	r2, [sp, #72]	@ 0x48
100023ee:	e7ad      	b.n	1000234c <_etoa+0x3a4>
100023f0:	2300      	movs	r3, #0
100023f2:	2202      	movs	r2, #2
100023f4:	e9cd 320f 	strd	r3, r2, [sp, #60]	@ 0x3c
100023f8:	2204      	movs	r2, #4
100023fa:	930c      	str	r3, [sp, #48]	@ 0x30
100023fc:	9212      	str	r2, [sp, #72]	@ 0x48
100023fe:	e62c      	b.n	1000205a <_etoa+0xb2>
10002400:	f04f 0805 	mov.w	r8, #5
10002404:	e6c2      	b.n	1000218c <_etoa+0x1e4>
10002406:	f1ba 0f04 	cmp.w	sl, #4
1000240a:	d91f      	bls.n	1000244c <_etoa+0x4a4>
1000240c:	9b10      	ldr	r3, [sp, #64]	@ 0x40
1000240e:	2b00      	cmp	r3, #0
10002410:	d178      	bne.n	10002504 <_etoa+0x55c>
10002412:	2304      	movs	r3, #4
10002414:	9312      	str	r3, [sp, #72]	@ 0x48
10002416:	f1aa 0304 	sub.w	r3, sl, #4
1000241a:	930f      	str	r3, [sp, #60]	@ 0x3c
1000241c:	e004      	b.n	10002428 <_etoa+0x480>
1000241e:	9b12      	ldr	r3, [sp, #72]	@ 0x48
10002420:	459a      	cmp	sl, r3
10002422:	d831      	bhi.n	10002488 <_etoa+0x4e0>
10002424:	9b0e      	ldr	r3, [sp, #56]	@ 0x38
10002426:	930f      	str	r3, [sp, #60]	@ 0x3c
10002428:	9b0c      	ldr	r3, [sp, #48]	@ 0x30
1000242a:	2b00      	cmp	r3, #0
1000242c:	f43f ae15 	beq.w	1000205a <_etoa+0xb2>
10002430:	e9dd 010a 	ldrd	r0, r1, [sp, #40]	@ 0x28
10002434:	4642      	mov	r2, r8
10002436:	464b      	mov	r3, r9
10002438:	f7ff f91e 	bl	10001678 <__wrap___aeabi_ddiv>
1000243c:	e9cd 010a 	strd	r0, r1, [sp, #40]	@ 0x28
10002440:	e60b      	b.n	1000205a <_etoa+0xb2>
10002442:	2302      	movs	r3, #2
10002444:	9310      	str	r3, [sp, #64]	@ 0x40
10002446:	2305      	movs	r3, #5
10002448:	9312      	str	r3, [sp, #72]	@ 0x48
1000244a:	e7f1      	b.n	10002430 <_etoa+0x488>
1000244c:	2304      	movs	r3, #4
1000244e:	9312      	str	r3, [sp, #72]	@ 0x48
10002450:	e7ea      	b.n	10002428 <_etoa+0x480>
10002452:	e9dd 450a 	ldrd	r4, r5, [sp, #40]	@ 0x28
10002456:	46a0      	mov	r8, r4
10002458:	9b0f      	ldr	r3, [sp, #60]	@ 0x3c
1000245a:	f105 4900 	add.w	r9, r5, #2147483648	@ 0x80000000
1000245e:	9303      	str	r3, [sp, #12]
10002460:	9b0e      	ldr	r3, [sp, #56]	@ 0x38
10002462:	465a      	mov	r2, fp
10002464:	9302      	str	r3, [sp, #8]
10002466:	f426 6300 	bic.w	r3, r6, #2048	@ 0x800
1000246a:	9304      	str	r3, [sp, #16]
1000246c:	4638      	mov	r0, r7
1000246e:	e9cd 8900 	strd	r8, r9, [sp]
10002472:	9b09      	ldr	r3, [sp, #36]	@ 0x24
10002474:	9908      	ldr	r1, [sp, #32]
10002476:	f7ff fb37 	bl	10001ae8 <_ftoa>
1000247a:	4602      	mov	r2, r0
1000247c:	e608      	b.n	10002090 <_etoa+0xe8>
1000247e:	9b12      	ldr	r3, [sp, #72]	@ 0x48
10002480:	459a      	cmp	sl, r3
10002482:	d844      	bhi.n	1000250e <_etoa+0x566>
10002484:	920f      	str	r2, [sp, #60]	@ 0x3c
10002486:	e7cf      	b.n	10002428 <_etoa+0x480>
10002488:	9b10      	ldr	r3, [sp, #64]	@ 0x40
1000248a:	b38b      	cbz	r3, 100024f0 <_etoa+0x548>
1000248c:	9b0e      	ldr	r3, [sp, #56]	@ 0x38
1000248e:	930f      	str	r3, [sp, #60]	@ 0x3c
10002490:	2302      	movs	r3, #2
10002492:	9310      	str	r3, [sp, #64]	@ 0x40
10002494:	e7c8      	b.n	10002428 <_etoa+0x480>
10002496:	bf00      	nop
10002498:	636f4361 	.word	0x636f4361
1000249c:	3fd287a7 	.word	0x3fd287a7
100024a0:	0979a371 	.word	0x0979a371
100024a4:	400a934f 	.word	0x400a934f
100024a8:	bbb55516 	.word	0xbbb55516
100024ac:	40026bb1 	.word	0x40026bb1
100024b0:	fefa39ef 	.word	0xfefa39ef
100024b4:	3fe62e42 	.word	0x3fe62e42
100024b8:	eb1c432d 	.word	0xeb1c432d
100024bc:	3f1a36e2 	.word	0x3f1a36e2
100024c0:	00000000 	.word	0x00000000
100024c4:	412e8480 	.word	0x412e8480
100024c8:	3ff80000 	.word	0x3ff80000
100024cc:	3fe00000 	.word	0x3fe00000
100024d0:	402c0000 	.word	0x402c0000
100024d4:	40240000 	.word	0x40240000
100024d8:	40180000 	.word	0x40180000
100024dc:	3ff00000 	.word	0x3ff00000
100024e0:	509f79fb 	.word	0x509f79fb
100024e4:	3fd34413 	.word	0x3fd34413
100024e8:	8b60c8b3 	.word	0x8b60c8b3
100024ec:	3fc68a28 	.word	0x3fc68a28
100024f0:	9b12      	ldr	r3, [sp, #72]	@ 0x48
100024f2:	ebaa 0303 	sub.w	r3, sl, r3
100024f6:	930f      	str	r3, [sp, #60]	@ 0x3c
100024f8:	e796      	b.n	10002428 <_etoa+0x480>
100024fa:	eba3 0802 	sub.w	r8, r3, r2
100024fe:	f108 38ff 	add.w	r8, r8, #4294967295
10002502:	e643      	b.n	1000218c <_etoa+0x1e4>
10002504:	2304      	movs	r3, #4
10002506:	9312      	str	r3, [sp, #72]	@ 0x48
10002508:	2302      	movs	r3, #2
1000250a:	9310      	str	r3, [sp, #64]	@ 0x40
1000250c:	e78c      	b.n	10002428 <_etoa+0x480>
1000250e:	9b10      	ldr	r3, [sp, #64]	@ 0x40
10002510:	2b00      	cmp	r3, #0
10002512:	d0ed      	beq.n	100024f0 <_etoa+0x548>
10002514:	2302      	movs	r3, #2
10002516:	920f      	str	r2, [sp, #60]	@ 0x3c
10002518:	9310      	str	r3, [sp, #64]	@ 0x40
1000251a:	e785      	b.n	10002428 <_etoa+0x480>

1000251c <_vsnprintf>:
1000251c:	e92d 4ff0 	stmdb	sp!, {r4, r5, r6, r7, r8, r9, sl, fp, lr}
10002520:	b09b      	sub	sp, #108	@ 0x6c
10002522:	9c24      	ldr	r4, [sp, #144]	@ 0x90
10002524:	4d95      	ldr	r5, [pc, #596]	@ (1000277c <_vsnprintf+0x260>)
10002526:	940a      	str	r4, [sp, #40]	@ 0x28
10002528:	4c95      	ldr	r4, [pc, #596]	@ (10002780 <_vsnprintf+0x264>)
1000252a:	f1b1 0a00 	subs.w	sl, r1, #0
1000252e:	bf18      	it	ne
10002530:	4683      	movne	fp, r0
10002532:	6025      	str	r5, [r4, #0]
10002534:	7818      	ldrb	r0, [r3, #0]
10002536:	4c93      	ldr	r4, [pc, #588]	@ (10002784 <_vsnprintf+0x268>)
10002538:	4691      	mov	r9, r2
1000253a:	bf08      	it	eq
1000253c:	46a3      	moveq	fp, r4
1000253e:	9309      	str	r3, [sp, #36]	@ 0x24
10002540:	2800      	cmp	r0, #0
10002542:	f000 8293 	beq.w	10002a6c <_vsnprintf+0x550>
10002546:	f04f 0800 	mov.w	r8, #0
1000254a:	e00a      	b.n	10002562 <_vsnprintf+0x46>
1000254c:	4642      	mov	r2, r8
1000254e:	464b      	mov	r3, r9
10002550:	4651      	mov	r1, sl
10002552:	f108 0801 	add.w	r8, r8, #1
10002556:	47d8      	blx	fp
10002558:	9b09      	ldr	r3, [sp, #36]	@ 0x24
1000255a:	7818      	ldrb	r0, [r3, #0]
1000255c:	2800      	cmp	r0, #0
1000255e:	f000 80ce 	beq.w	100026fe <_vsnprintf+0x1e2>
10002562:	9b09      	ldr	r3, [sp, #36]	@ 0x24
10002564:	2825      	cmp	r0, #37	@ 0x25
10002566:	f103 0301 	add.w	r3, r3, #1
1000256a:	9309      	str	r3, [sp, #36]	@ 0x24
1000256c:	d1ee      	bne.n	1000254c <_vsnprintf+0x30>
1000256e:	461c      	mov	r4, r3
10002570:	2300      	movs	r3, #0
10002572:	4622      	mov	r2, r4
10002574:	f812 0b01 	ldrb.w	r0, [r2], #1
10002578:	f1a0 0120 	sub.w	r1, r0, #32
1000257c:	2910      	cmp	r1, #16
1000257e:	d80a      	bhi.n	10002596 <_vsnprintf+0x7a>
10002580:	e8df f001 	tbb	[pc, r1]
10002584:	3c090940 	.word	0x3c090940
10002588:	09090909 	.word	0x09090909
1000258c:	38090909 	.word	0x38090909
10002590:	09093409 	.word	0x09093409
10002594:	30          	.byte	0x30
10002595:	00          	.byte	0x00
10002596:	f1a0 0130 	sub.w	r1, r0, #48	@ 0x30
1000259a:	2909      	cmp	r1, #9
1000259c:	9409      	str	r4, [sp, #36]	@ 0x24
1000259e:	f240 808a 	bls.w	100026b6 <_vsnprintf+0x19a>
100025a2:	282a      	cmp	r0, #42	@ 0x2a
100025a4:	f000 80f0 	beq.w	10002788 <_vsnprintf+0x26c>
100025a8:	2500      	movs	r5, #0
100025aa:	282e      	cmp	r0, #46	@ 0x2e
100025ac:	f000 8096 	beq.w	100026dc <_vsnprintf+0x1c0>
100025b0:	2600      	movs	r6, #0
100025b2:	f1a0 0168 	sub.w	r1, r0, #104	@ 0x68
100025b6:	2912      	cmp	r1, #18
100025b8:	d82d      	bhi.n	10002616 <_vsnprintf+0xfa>
100025ba:	e8df f011 	tbh	[pc, r1, lsl #1]
100025be:	0149      	.short	0x0149
100025c0:	0143002c 	.word	0x0143002c
100025c4:	0138002c 	.word	0x0138002c
100025c8:	002c002c 	.word	0x002c002c
100025cc:	002c002c 	.word	0x002c002c
100025d0:	002c002c 	.word	0x002c002c
100025d4:	0027002c 	.word	0x0027002c
100025d8:	002c002c 	.word	0x002c002c
100025dc:	002c002c 	.word	0x002c002c
100025e0:	0027002c 	.word	0x0027002c
100025e4:	4614      	mov	r4, r2
100025e6:	f043 0301 	orr.w	r3, r3, #1
100025ea:	e7c2      	b.n	10002572 <_vsnprintf+0x56>
100025ec:	4614      	mov	r4, r2
100025ee:	f043 0302 	orr.w	r3, r3, #2
100025f2:	e7be      	b.n	10002572 <_vsnprintf+0x56>
100025f4:	4614      	mov	r4, r2
100025f6:	f043 0304 	orr.w	r3, r3, #4
100025fa:	e7ba      	b.n	10002572 <_vsnprintf+0x56>
100025fc:	4614      	mov	r4, r2
100025fe:	f043 0310 	orr.w	r3, r3, #16
10002602:	e7b6      	b.n	10002572 <_vsnprintf+0x56>
10002604:	4614      	mov	r4, r2
10002606:	f043 0308 	orr.w	r3, r3, #8
1000260a:	e7b2      	b.n	10002572 <_vsnprintf+0x56>
1000260c:	9909      	ldr	r1, [sp, #36]	@ 0x24
1000260e:	7848      	ldrb	r0, [r1, #1]
10002610:	f443 7380 	orr.w	r3, r3, #256	@ 0x100
10002614:	3201      	adds	r2, #1
10002616:	2867      	cmp	r0, #103	@ 0x67
10002618:	9209      	str	r2, [sp, #36]	@ 0x24
1000261a:	d87e      	bhi.n	1000271a <_vsnprintf+0x1fe>
1000261c:	2824      	cmp	r0, #36	@ 0x24
1000261e:	f240 80c1 	bls.w	100027a4 <_vsnprintf+0x288>
10002622:	f1a0 0225 	sub.w	r2, r0, #37	@ 0x25
10002626:	2a42      	cmp	r2, #66	@ 0x42
10002628:	f200 80bc 	bhi.w	100027a4 <_vsnprintf+0x288>
1000262c:	e8df f012 	tbh	[pc, r2, lsl #1]
10002630:	00ba0150 	.word	0x00ba0150
10002634:	00ba00ba 	.word	0x00ba00ba
10002638:	00ba00ba 	.word	0x00ba00ba
1000263c:	00ba00ba 	.word	0x00ba00ba
10002640:	00ba00ba 	.word	0x00ba00ba
10002644:	00ba00ba 	.word	0x00ba00ba
10002648:	00ba00ba 	.word	0x00ba00ba
1000264c:	00ba00ba 	.word	0x00ba00ba
10002650:	00ba00ba 	.word	0x00ba00ba
10002654:	00ba00ba 	.word	0x00ba00ba
10002658:	00ba00ba 	.word	0x00ba00ba
1000265c:	00ba00ba 	.word	0x00ba00ba
10002660:	00ba00ba 	.word	0x00ba00ba
10002664:	00ba00ba 	.word	0x00ba00ba
10002668:	00ba00ba 	.word	0x00ba00ba
1000266c:	00ba00ba 	.word	0x00ba00ba
10002670:	01370119 	.word	0x01370119
10002674:	00ba0119 	.word	0x00ba0119
10002678:	00ba00ba 	.word	0x00ba00ba
1000267c:	00ba00ba 	.word	0x00ba00ba
10002680:	00ba00ba 	.word	0x00ba00ba
10002684:	00ba00ba 	.word	0x00ba00ba
10002688:	00ba00ba 	.word	0x00ba00ba
1000268c:	00ba00ba 	.word	0x00ba00ba
10002690:	00ba00ba 	.word	0x00ba00ba
10002694:	01bc00ba 	.word	0x01bc00ba
10002698:	00ba00ba 	.word	0x00ba00ba
1000269c:	00ba00ba 	.word	0x00ba00ba
100026a0:	00ba00ba 	.word	0x00ba00ba
100026a4:	00ba00ba 	.word	0x00ba00ba
100026a8:	01bc00ba 	.word	0x01bc00ba
100026ac:	01bc0158 	.word	0x01bc0158
100026b0:	01370119 	.word	0x01370119
100026b4:	0119      	.short	0x0119
100026b6:	2500      	movs	r5, #0
100026b8:	e000      	b.n	100026bc <_vsnprintf+0x1a0>
100026ba:	3201      	adds	r2, #1
100026bc:	eb05 0585 	add.w	r5, r5, r5, lsl #2
100026c0:	eb00 0545 	add.w	r5, r0, r5, lsl #1
100026c4:	7810      	ldrb	r0, [r2, #0]
100026c6:	3d30      	subs	r5, #48	@ 0x30
100026c8:	f1a0 0130 	sub.w	r1, r0, #48	@ 0x30
100026cc:	2909      	cmp	r1, #9
100026ce:	d9f4      	bls.n	100026ba <_vsnprintf+0x19e>
100026d0:	282e      	cmp	r0, #46	@ 0x2e
100026d2:	9209      	str	r2, [sp, #36]	@ 0x24
100026d4:	f102 0201 	add.w	r2, r2, #1
100026d8:	f47f af6a 	bne.w	100025b0 <_vsnprintf+0x94>
100026dc:	9909      	ldr	r1, [sp, #36]	@ 0x24
100026de:	f443 6380 	orr.w	r3, r3, #1024	@ 0x400
100026e2:	7848      	ldrb	r0, [r1, #1]
100026e4:	4611      	mov	r1, r2
100026e6:	f1a0 0630 	sub.w	r6, r0, #48	@ 0x30
100026ea:	2e09      	cmp	r6, #9
100026ec:	f240 8121 	bls.w	10002932 <_vsnprintf+0x416>
100026f0:	282a      	cmp	r0, #42	@ 0x2a
100026f2:	f000 812f 	beq.w	10002954 <_vsnprintf+0x438>
100026f6:	9209      	str	r2, [sp, #36]	@ 0x24
100026f8:	2600      	movs	r6, #0
100026fa:	3201      	adds	r2, #1
100026fc:	e759      	b.n	100025b2 <_vsnprintf+0x96>
100026fe:	4644      	mov	r4, r8
10002700:	45c1      	cmp	r9, r8
10002702:	d801      	bhi.n	10002708 <_vsnprintf+0x1ec>
10002704:	f109 38ff 	add.w	r8, r9, #4294967295
10002708:	464b      	mov	r3, r9
1000270a:	4642      	mov	r2, r8
1000270c:	4651      	mov	r1, sl
1000270e:	2000      	movs	r0, #0
10002710:	47d8      	blx	fp
10002712:	4620      	mov	r0, r4
10002714:	b01b      	add	sp, #108	@ 0x6c
10002716:	e8bd 8ff0 	ldmia.w	sp!, {r4, r5, r6, r7, r8, r9, sl, fp, pc}
1000271a:	f1a0 0269 	sub.w	r2, r0, #105	@ 0x69
1000271e:	b2d2      	uxtb	r2, r2
10002720:	2a0f      	cmp	r2, #15
10002722:	d83f      	bhi.n	100027a4 <_vsnprintf+0x288>
10002724:	2101      	movs	r1, #1
10002726:	f249 0741 	movw	r7, #36929	@ 0x9041
1000272a:	4091      	lsls	r1, r2
1000272c:	4039      	ands	r1, r7
1000272e:	f040 80f3 	bne.w	10002918 <_vsnprintf+0x3fc>
10002732:	2a0a      	cmp	r2, #10
10002734:	d03d      	beq.n	100027b2 <_vsnprintf+0x296>
10002736:	2a07      	cmp	r2, #7
10002738:	d134      	bne.n	100027a4 <_vsnprintf+0x288>
1000273a:	9d0a      	ldr	r5, [sp, #40]	@ 0x28
1000273c:	f855 2b04 	ldr.w	r2, [r5], #4
10002740:	2a00      	cmp	r2, #0
10002742:	f000 8113 	beq.w	1000296c <_vsnprintf+0x450>
10002746:	f043 0021 	orr.w	r0, r3, #33	@ 0x21
1000274a:	ab12      	add	r3, sp, #72	@ 0x48
1000274c:	461f      	mov	r7, r3
1000274e:	930b      	str	r3, [sp, #44]	@ 0x2c
10002750:	e003      	b.n	1000275a <_vsnprintf+0x23e>
10002752:	2920      	cmp	r1, #32
10002754:	f000 8114 	beq.w	10002980 <_vsnprintf+0x464>
10002758:	461a      	mov	r2, r3
1000275a:	f002 040f 	and.w	r4, r2, #15
1000275e:	4623      	mov	r3, r4
10002760:	2c09      	cmp	r4, #9
10002762:	bf94      	ite	ls
10002764:	3330      	addls	r3, #48	@ 0x30
10002766:	3337      	addhi	r3, #55	@ 0x37
10002768:	2a0f      	cmp	r2, #15
1000276a:	f807 3b01 	strb.w	r3, [r7], #1
1000276e:	f101 0101 	add.w	r1, r1, #1
10002772:	ea4f 1312 	mov.w	r3, r2, lsr #4
10002776:	d8ec      	bhi.n	10002752 <_vsnprintf+0x236>
10002778:	e102      	b.n	10002980 <_vsnprintf+0x464>
1000277a:	bf00      	nop
1000277c:	1000251d 	.word	0x1000251d
10002780:	2000081c 	.word	0x2000081c
10002784:	10001861 	.word	0x10001861
10002788:	990a      	ldr	r1, [sp, #40]	@ 0x28
1000278a:	9809      	ldr	r0, [sp, #36]	@ 0x24
1000278c:	f851 5b04 	ldr.w	r5, [r1], #4
10002790:	7840      	ldrb	r0, [r0, #1]
10002792:	2d00      	cmp	r5, #0
10002794:	e9cd 2109 	strd	r2, r1, [sp, #36]	@ 0x24
10002798:	bfbc      	itt	lt
1000279a:	f043 0302 	orrlt.w	r3, r3, #2
1000279e:	426d      	neglt	r5, r5
100027a0:	3201      	adds	r2, #1
100027a2:	e702      	b.n	100025aa <_vsnprintf+0x8e>
100027a4:	4642      	mov	r2, r8
100027a6:	464b      	mov	r3, r9
100027a8:	4651      	mov	r1, sl
100027aa:	f108 0801 	add.w	r8, r8, #1
100027ae:	47d8      	blx	fp
100027b0:	e6d2      	b.n	10002558 <_vsnprintf+0x3c>
100027b2:	990a      	ldr	r1, [sp, #40]	@ 0x28
100027b4:	2e00      	cmp	r6, #0
100027b6:	f851 7b04 	ldr.w	r7, [r1], #4
100027ba:	bf18      	it	ne
100027bc:	4632      	movne	r2, r6
100027be:	7838      	ldrb	r0, [r7, #0]
100027c0:	bf08      	it	eq
100027c2:	f04f 32ff 	moveq.w	r2, #4294967295
100027c6:	2800      	cmp	r0, #0
100027c8:	f000 837b 	beq.w	10002ec2 <_vsnprintf+0x9a6>
100027cc:	18bc      	adds	r4, r7, r2
100027ce:	46a4      	mov	ip, r4
100027d0:	463a      	mov	r2, r7
100027d2:	e004      	b.n	100027de <_vsnprintf+0x2c2>
100027d4:	f812 4f01 	ldrb.w	r4, [r2, #1]!
100027d8:	2c00      	cmp	r4, #0
100027da:	f000 813f 	beq.w	10002a5c <_vsnprintf+0x540>
100027de:	4594      	cmp	ip, r2
100027e0:	d1f8      	bne.n	100027d4 <_vsnprintf+0x2b8>
100027e2:	4664      	mov	r4, ip
100027e4:	1be4      	subs	r4, r4, r7
100027e6:	055a      	lsls	r2, r3, #21
100027e8:	f140 8122 	bpl.w	10002a30 <_vsnprintf+0x514>
100027ec:	42b4      	cmp	r4, r6
100027ee:	bf28      	it	cs
100027f0:	4634      	movcs	r4, r6
100027f2:	f013 0302 	ands.w	r3, r3, #2
100027f6:	f000 8288 	beq.w	10002d0a <_vsnprintf+0x7ee>
100027fa:	2302      	movs	r3, #2
100027fc:	e9cd 510a 	strd	r5, r1, [sp, #40]	@ 0x28
10002800:	4642      	mov	r2, r8
10002802:	461d      	mov	r5, r3
10002804:	4446      	add	r6, r8
10002806:	e008      	b.n	1000281a <_vsnprintf+0x2fe>
10002808:	464b      	mov	r3, r9
1000280a:	4651      	mov	r1, sl
1000280c:	47d8      	blx	fp
1000280e:	f817 0f01 	ldrb.w	r0, [r7, #1]!
10002812:	f108 0801 	add.w	r8, r8, #1
10002816:	b110      	cbz	r0, 1000281e <_vsnprintf+0x302>
10002818:	4642      	mov	r2, r8
1000281a:	4546      	cmp	r6, r8
1000281c:	d1f4      	bne.n	10002808 <_vsnprintf+0x2ec>
1000281e:	462b      	mov	r3, r5
10002820:	990b      	ldr	r1, [sp, #44]	@ 0x2c
10002822:	9d0a      	ldr	r5, [sp, #40]	@ 0x28
10002824:	2b00      	cmp	r3, #0
10002826:	f040 8141 	bne.w	10002aac <_vsnprintf+0x590>
1000282a:	910a      	str	r1, [sp, #40]	@ 0x28
1000282c:	e694      	b.n	10002558 <_vsnprintf+0x3c>
1000282e:	9909      	ldr	r1, [sp, #36]	@ 0x24
10002830:	7848      	ldrb	r0, [r1, #1]
10002832:	286c      	cmp	r0, #108	@ 0x6c
10002834:	f47f aeec 	bne.w	10002610 <_vsnprintf+0xf4>
10002838:	460a      	mov	r2, r1
1000283a:	7888      	ldrb	r0, [r1, #2]
1000283c:	f443 7340 	orr.w	r3, r3, #768	@ 0x300
10002840:	3203      	adds	r2, #3
10002842:	e6e8      	b.n	10002616 <_vsnprintf+0xfa>
10002844:	9909      	ldr	r1, [sp, #36]	@ 0x24
10002846:	f443 7300 	orr.w	r3, r3, #512	@ 0x200
1000284a:	7848      	ldrb	r0, [r1, #1]
1000284c:	3201      	adds	r2, #1
1000284e:	e6e2      	b.n	10002616 <_vsnprintf+0xfa>
10002850:	9909      	ldr	r1, [sp, #36]	@ 0x24
10002852:	7848      	ldrb	r0, [r1, #1]
10002854:	2868      	cmp	r0, #104	@ 0x68
10002856:	f000 8103 	beq.w	10002a60 <_vsnprintf+0x544>
1000285a:	f043 0380 	orr.w	r3, r3, #128	@ 0x80
1000285e:	3201      	adds	r2, #1
10002860:	e6d9      	b.n	10002616 <_vsnprintf+0xfa>
10002862:	2867      	cmp	r0, #103	@ 0x67
10002864:	f000 80d9 	beq.w	10002a1a <_vsnprintf+0x4fe>
10002868:	2847      	cmp	r0, #71	@ 0x47
1000286a:	f000 80dc 	beq.w	10002a26 <_vsnprintf+0x50a>
1000286e:	2845      	cmp	r0, #69	@ 0x45
10002870:	f000 80db 	beq.w	10002a2a <_vsnprintf+0x50e>
10002874:	e9cd 5303 	strd	r5, r3, [sp, #12]
10002878:	9b0a      	ldr	r3, [sp, #40]	@ 0x28
1000287a:	9602      	str	r6, [sp, #8]
1000287c:	3307      	adds	r3, #7
1000287e:	f023 0307 	bic.w	r3, r3, #7
10002882:	461c      	mov	r4, r3
10002884:	4642      	mov	r2, r8
10002886:	e8f4 6702 	ldrd	r6, r7, [r4], #8
1000288a:	464b      	mov	r3, r9
1000288c:	4651      	mov	r1, sl
1000288e:	4658      	mov	r0, fp
10002890:	e9cd 6700 	strd	r6, r7, [sp]
10002894:	940a      	str	r4, [sp, #40]	@ 0x28
10002896:	f7ff fb87 	bl	10001fa8 <_etoa>
1000289a:	4680      	mov	r8, r0
1000289c:	e65c      	b.n	10002558 <_vsnprintf+0x3c>
1000289e:	2846      	cmp	r0, #70	@ 0x46
100028a0:	bf08      	it	eq
100028a2:	f043 0320 	orreq.w	r3, r3, #32
100028a6:	e9cd 5303 	strd	r5, r3, [sp, #12]
100028aa:	9b0a      	ldr	r3, [sp, #40]	@ 0x28
100028ac:	9602      	str	r6, [sp, #8]
100028ae:	3307      	adds	r3, #7
100028b0:	f023 0307 	bic.w	r3, r3, #7
100028b4:	461c      	mov	r4, r3
100028b6:	4642      	mov	r2, r8
100028b8:	e8f4 6702 	ldrd	r6, r7, [r4], #8
100028bc:	464b      	mov	r3, r9
100028be:	4651      	mov	r1, sl
100028c0:	4658      	mov	r0, fp
100028c2:	e9cd 6700 	strd	r6, r7, [sp]
100028c6:	940a      	str	r4, [sp, #40]	@ 0x28
100028c8:	f7ff f90e 	bl	10001ae8 <_ftoa>
100028cc:	4680      	mov	r8, r0
100028ce:	e643      	b.n	10002558 <_vsnprintf+0x3c>
100028d0:	4642      	mov	r2, r8
100028d2:	464b      	mov	r3, r9
100028d4:	4651      	mov	r1, sl
100028d6:	2025      	movs	r0, #37	@ 0x25
100028d8:	f108 0801 	add.w	r8, r8, #1
100028dc:	47d8      	blx	fp
100028de:	e63b      	b.n	10002558 <_vsnprintf+0x3c>
100028e0:	9a0a      	ldr	r2, [sp, #40]	@ 0x28
100028e2:	0799      	lsls	r1, r3, #30
100028e4:	f102 0404 	add.w	r4, r2, #4
100028e8:	f108 0601 	add.w	r6, r8, #1
100028ec:	f140 80c6 	bpl.w	10002a7c <_vsnprintf+0x560>
100028f0:	7810      	ldrb	r0, [r2, #0]
100028f2:	464b      	mov	r3, r9
100028f4:	4642      	mov	r2, r8
100028f6:	4651      	mov	r1, sl
100028f8:	47d8      	blx	fp
100028fa:	2d01      	cmp	r5, #1
100028fc:	bf88      	it	hi
100028fe:	44a8      	addhi	r8, r5
10002900:	f240 81bd 	bls.w	10002c7e <_vsnprintf+0x762>
10002904:	4632      	mov	r2, r6
10002906:	464b      	mov	r3, r9
10002908:	4651      	mov	r1, sl
1000290a:	2020      	movs	r0, #32
1000290c:	3601      	adds	r6, #1
1000290e:	47d8      	blx	fp
10002910:	4546      	cmp	r6, r8
10002912:	d1f7      	bne.n	10002904 <_vsnprintf+0x3e8>
10002914:	940a      	str	r4, [sp, #40]	@ 0x28
10002916:	e61f      	b.n	10002558 <_vsnprintf+0x3c>
10002918:	286f      	cmp	r0, #111	@ 0x6f
1000291a:	f000 8081 	beq.w	10002a20 <_vsnprintf+0x504>
1000291e:	f240 8248 	bls.w	10002db2 <_vsnprintf+0x896>
10002922:	2878      	cmp	r0, #120	@ 0x78
10002924:	f000 8190 	beq.w	10002c48 <_vsnprintf+0x72c>
10002928:	270a      	movs	r7, #10
1000292a:	f023 0310 	bic.w	r3, r3, #16
1000292e:	46bc      	mov	ip, r7
10002930:	e041      	b.n	100029b6 <_vsnprintf+0x49a>
10002932:	2600      	movs	r6, #0
10002934:	eb06 0686 	add.w	r6, r6, r6, lsl #2
10002938:	eb00 0046 	add.w	r0, r0, r6, lsl #1
1000293c:	f1a0 0630 	sub.w	r6, r0, #48	@ 0x30
10002940:	f811 0f01 	ldrb.w	r0, [r1, #1]!
10002944:	f1a0 0230 	sub.w	r2, r0, #48	@ 0x30
10002948:	2a09      	cmp	r2, #9
1000294a:	d9f3      	bls.n	10002934 <_vsnprintf+0x418>
1000294c:	460a      	mov	r2, r1
1000294e:	9109      	str	r1, [sp, #36]	@ 0x24
10002950:	3201      	adds	r2, #1
10002952:	e62e      	b.n	100025b2 <_vsnprintf+0x96>
10002954:	e9dd 2109 	ldrd	r2, r1, [sp, #36]	@ 0x24
10002958:	f851 6b04 	ldr.w	r6, [r1], #4
1000295c:	7890      	ldrb	r0, [r2, #2]
1000295e:	3202      	adds	r2, #2
10002960:	9209      	str	r2, [sp, #36]	@ 0x24
10002962:	910a      	str	r1, [sp, #40]	@ 0x28
10002964:	3201      	adds	r2, #1
10002966:	ea26 76e6 	bic.w	r6, r6, r6, asr #31
1000296a:	e622      	b.n	100025b2 <_vsnprintf+0x96>
1000296c:	f023 0010 	bic.w	r0, r3, #16
10002970:	f413 6280 	ands.w	r2, r3, #1024	@ 0x400
10002974:	f040 0021 	orr.w	r0, r0, #33	@ 0x21
10002978:	f43f aee7 	beq.w	1000274a <_vsnprintf+0x22e>
1000297c:	ab12      	add	r3, sp, #72	@ 0x48
1000297e:	930b      	str	r3, [sp, #44]	@ 0x2c
10002980:	9b0b      	ldr	r3, [sp, #44]	@ 0x2c
10002982:	9006      	str	r0, [sp, #24]
10002984:	9300      	str	r3, [sp, #0]
10002986:	2308      	movs	r3, #8
10002988:	2010      	movs	r0, #16
1000298a:	9305      	str	r3, [sp, #20]
1000298c:	2300      	movs	r3, #0
1000298e:	4642      	mov	r2, r8
10002990:	e9cd 3002 	strd	r3, r0, [sp, #8]
10002994:	9101      	str	r1, [sp, #4]
10002996:	464b      	mov	r3, r9
10002998:	4651      	mov	r1, sl
1000299a:	4658      	mov	r0, fp
1000299c:	9604      	str	r6, [sp, #16]
1000299e:	f7fe ffaf 	bl	10001900 <_ntoa_format>
100029a2:	950a      	str	r5, [sp, #40]	@ 0x28
100029a4:	4680      	mov	r8, r0
100029a6:	e5d7      	b.n	10002558 <_vsnprintf+0x3c>
100029a8:	2858      	cmp	r0, #88	@ 0x58
100029aa:	d062      	beq.n	10002a72 <_vsnprintf+0x556>
100029ac:	2862      	cmp	r0, #98	@ 0x62
100029ae:	f040 808f 	bne.w	10002ad0 <_vsnprintf+0x5b4>
100029b2:	2702      	movs	r7, #2
100029b4:	46bc      	mov	ip, r7
100029b6:	f413 6080 	ands.w	r0, r3, #1024	@ 0x400
100029ba:	f000 80dd 	beq.w	10002b78 <_vsnprintf+0x65c>
100029be:	f023 030d 	bic.w	r3, r3, #13
100029c2:	f413 7200 	ands.w	r2, r3, #512	@ 0x200
100029c6:	f040 8181 	bne.w	10002ccc <_vsnprintf+0x7b0>
100029ca:	990a      	ldr	r1, [sp, #40]	@ 0x28
100029cc:	1d0f      	adds	r7, r1, #4
100029ce:	f413 7180 	ands.w	r1, r3, #256	@ 0x100
100029d2:	f040 8237 	bne.w	10002e44 <_vsnprintf+0x928>
100029d6:	065c      	lsls	r4, r3, #25
100029d8:	9a0a      	ldr	r2, [sp, #40]	@ 0x28
100029da:	f140 813b 	bpl.w	10002c54 <_vsnprintf+0x738>
100029de:	7812      	ldrb	r2, [r2, #0]
100029e0:	2a00      	cmp	r2, #0
100029e2:	f040 814e 	bne.w	10002c82 <_vsnprintf+0x766>
100029e6:	f023 0310 	bic.w	r3, r3, #16
100029ea:	2800      	cmp	r0, #0
100029ec:	f000 8149 	beq.w	10002c82 <_vsnprintf+0x766>
100029f0:	4611      	mov	r1, r2
100029f2:	aa12      	add	r2, sp, #72	@ 0x48
100029f4:	920b      	str	r2, [sp, #44]	@ 0x2c
100029f6:	e9cd 5305 	strd	r5, r3, [sp, #20]
100029fa:	e9cd c603 	strd	ip, r6, [sp, #12]
100029fe:	9101      	str	r1, [sp, #4]
10002a00:	9b0b      	ldr	r3, [sp, #44]	@ 0x2c
10002a02:	4642      	mov	r2, r8
10002a04:	9300      	str	r3, [sp, #0]
10002a06:	2300      	movs	r3, #0
10002a08:	4651      	mov	r1, sl
10002a0a:	9302      	str	r3, [sp, #8]
10002a0c:	4658      	mov	r0, fp
10002a0e:	464b      	mov	r3, r9
10002a10:	f7fe ff76 	bl	10001900 <_ntoa_format>
10002a14:	970a      	str	r7, [sp, #40]	@ 0x28
10002a16:	4680      	mov	r8, r0
10002a18:	e59e      	b.n	10002558 <_vsnprintf+0x3c>
10002a1a:	f443 6300 	orr.w	r3, r3, #2048	@ 0x800
10002a1e:	e729      	b.n	10002874 <_vsnprintf+0x358>
10002a20:	2708      	movs	r7, #8
10002a22:	46bc      	mov	ip, r7
10002a24:	e7c7      	b.n	100029b6 <_vsnprintf+0x49a>
10002a26:	f443 6300 	orr.w	r3, r3, #2048	@ 0x800
10002a2a:	f043 0320 	orr.w	r3, r3, #32
10002a2e:	e721      	b.n	10002874 <_vsnprintf+0x358>
10002a30:	f013 0302 	ands.w	r3, r3, #2
10002a34:	f000 818e 	beq.w	10002d54 <_vsnprintf+0x838>
10002a38:	2302      	movs	r3, #2
10002a3a:	950a      	str	r5, [sp, #40]	@ 0x28
10002a3c:	461e      	mov	r6, r3
10002a3e:	460d      	mov	r5, r1
10002a40:	4642      	mov	r2, r8
10002a42:	464b      	mov	r3, r9
10002a44:	4651      	mov	r1, sl
10002a46:	47d8      	blx	fp
10002a48:	f817 0f01 	ldrb.w	r0, [r7, #1]!
10002a4c:	f108 0801 	add.w	r8, r8, #1
10002a50:	2800      	cmp	r0, #0
10002a52:	d1f5      	bne.n	10002a40 <_vsnprintf+0x524>
10002a54:	4629      	mov	r1, r5
10002a56:	4633      	mov	r3, r6
10002a58:	9d0a      	ldr	r5, [sp, #40]	@ 0x28
10002a5a:	e6e3      	b.n	10002824 <_vsnprintf+0x308>
10002a5c:	1bd4      	subs	r4, r2, r7
10002a5e:	e6c2      	b.n	100027e6 <_vsnprintf+0x2ca>
10002a60:	460a      	mov	r2, r1
10002a62:	7888      	ldrb	r0, [r1, #2]
10002a64:	f043 03c0 	orr.w	r3, r3, #192	@ 0xc0
10002a68:	3203      	adds	r2, #3
10002a6a:	e5d4      	b.n	10002616 <_vsnprintf+0xfa>
10002a6c:	4604      	mov	r4, r0
10002a6e:	4680      	mov	r8, r0
10002a70:	e646      	b.n	10002700 <_vsnprintf+0x1e4>
10002a72:	2710      	movs	r7, #16
10002a74:	f043 0320 	orr.w	r3, r3, #32
10002a78:	46bc      	mov	ip, r7
10002a7a:	e79c      	b.n	100029b6 <_vsnprintf+0x49a>
10002a7c:	2d01      	cmp	r5, #1
10002a7e:	f240 80f8 	bls.w	10002c72 <_vsnprintf+0x756>
10002a82:	4646      	mov	r6, r8
10002a84:	f108 37ff 	add.w	r7, r8, #4294967295
10002a88:	442f      	add	r7, r5
10002a8a:	4632      	mov	r2, r6
10002a8c:	464b      	mov	r3, r9
10002a8e:	4651      	mov	r1, sl
10002a90:	2020      	movs	r0, #32
10002a92:	3601      	adds	r6, #1
10002a94:	47d8      	blx	fp
10002a96:	42be      	cmp	r6, r7
10002a98:	d1f7      	bne.n	10002a8a <_vsnprintf+0x56e>
10002a9a:	9b0a      	ldr	r3, [sp, #40]	@ 0x28
10002a9c:	4632      	mov	r2, r6
10002a9e:	7818      	ldrb	r0, [r3, #0]
10002aa0:	4651      	mov	r1, sl
10002aa2:	464b      	mov	r3, r9
10002aa4:	47d8      	blx	fp
10002aa6:	44a8      	add	r8, r5
10002aa8:	940a      	str	r4, [sp, #40]	@ 0x28
10002aaa:	e555      	b.n	10002558 <_vsnprintf+0x3c>
10002aac:	4646      	mov	r6, r8
10002aae:	42a5      	cmp	r5, r4
10002ab0:	f67f aebb 	bls.w	1000282a <_vsnprintf+0x30e>
10002ab4:	44a8      	add	r8, r5
10002ab6:	eba8 0804 	sub.w	r8, r8, r4
10002aba:	460c      	mov	r4, r1
10002abc:	4632      	mov	r2, r6
10002abe:	464b      	mov	r3, r9
10002ac0:	4651      	mov	r1, sl
10002ac2:	2020      	movs	r0, #32
10002ac4:	3601      	adds	r6, #1
10002ac6:	47d8      	blx	fp
10002ac8:	4546      	cmp	r6, r8
10002aca:	d1f7      	bne.n	10002abc <_vsnprintf+0x5a0>
10002acc:	4621      	mov	r1, r4
10002ace:	e6ac      	b.n	1000282a <_vsnprintf+0x30e>
10002ad0:	f413 6280 	ands.w	r2, r3, #1024	@ 0x400
10002ad4:	f000 80bb 	beq.w	10002c4e <_vsnprintf+0x732>
10002ad8:	f44f 6280 	mov.w	r2, #1024	@ 0x400
10002adc:	f023 0c11 	bic.w	ip, r3, #17
10002ae0:	f41c 7700 	ands.w	r7, ip, #512	@ 0x200
10002ae4:	9b0a      	ldr	r3, [sp, #40]	@ 0x28
10002ae6:	d14a      	bne.n	10002b7e <_vsnprintf+0x662>
10002ae8:	f41c 7080 	ands.w	r0, ip, #256	@ 0x100
10002aec:	f103 0404 	add.w	r4, r3, #4
10002af0:	f040 8134 	bne.w	10002d5c <_vsnprintf+0x840>
10002af4:	f01c 0f40 	tst.w	ip, #64	@ 0x40
10002af8:	f040 80a3 	bne.w	10002c42 <_vsnprintf+0x726>
10002afc:	f01c 0f80 	tst.w	ip, #128	@ 0x80
10002b00:	f000 81d3 	beq.w	10002eaa <_vsnprintf+0x98e>
10002b04:	f9b3 1000 	ldrsh.w	r1, [r3]
10002b08:	ea81 77e1 	eor.w	r7, r1, r1, asr #31
10002b0c:	eba7 77e1 	sub.w	r7, r7, r1, asr #31
10002b10:	b2bf      	uxth	r7, r7
10002b12:	0fcb      	lsrs	r3, r1, #31
10002b14:	2900      	cmp	r1, #0
10002b16:	f000 8156 	beq.w	10002dc6 <_vsnprintf+0x8aa>
10002b1a:	463a      	mov	r2, r7
10002b1c:	a912      	add	r1, sp, #72	@ 0x48
10002b1e:	460f      	mov	r7, r1
10002b20:	f8df e3d8 	ldr.w	lr, [pc, #984]	@ 10002efc <_vsnprintf+0x9e0>
10002b24:	910b      	str	r1, [sp, #44]	@ 0x2c
10002b26:	930a      	str	r3, [sp, #40]	@ 0x28
10002b28:	950c      	str	r5, [sp, #48]	@ 0x30
10002b2a:	e001      	b.n	10002b30 <_vsnprintf+0x614>
10002b2c:	2820      	cmp	r0, #32
10002b2e:	d00f      	beq.n	10002b50 <_vsnprintf+0x634>
10002b30:	4615      	mov	r5, r2
10002b32:	fbae 1302 	umull	r1, r3, lr, r2
10002b36:	08db      	lsrs	r3, r3, #3
10002b38:	eb03 0183 	add.w	r1, r3, r3, lsl #2
10002b3c:	eba2 0141 	sub.w	r1, r2, r1, lsl #1
10002b40:	3130      	adds	r1, #48	@ 0x30
10002b42:	2d09      	cmp	r5, #9
10002b44:	461a      	mov	r2, r3
10002b46:	f100 0001 	add.w	r0, r0, #1
10002b4a:	f807 1b01 	strb.w	r1, [r7], #1
10002b4e:	d8ed      	bhi.n	10002b2c <_vsnprintf+0x610>
10002b50:	9b0a      	ldr	r3, [sp, #40]	@ 0x28
10002b52:	9d0c      	ldr	r5, [sp, #48]	@ 0x30
10002b54:	e9cd 5c05 	strd	r5, ip, [sp, #20]
10002b58:	e9cd 0301 	strd	r0, r3, [sp, #4]
10002b5c:	9604      	str	r6, [sp, #16]
10002b5e:	9b0b      	ldr	r3, [sp, #44]	@ 0x2c
10002b60:	4642      	mov	r2, r8
10002b62:	9300      	str	r3, [sp, #0]
10002b64:	230a      	movs	r3, #10
10002b66:	4651      	mov	r1, sl
10002b68:	9303      	str	r3, [sp, #12]
10002b6a:	4658      	mov	r0, fp
10002b6c:	464b      	mov	r3, r9
10002b6e:	f7fe fec7 	bl	10001900 <_ntoa_format>
10002b72:	940a      	str	r4, [sp, #40]	@ 0x28
10002b74:	4680      	mov	r8, r0
10002b76:	e4ef      	b.n	10002558 <_vsnprintf+0x3c>
10002b78:	f023 030c 	bic.w	r3, r3, #12
10002b7c:	e721      	b.n	100029c2 <_vsnprintf+0x4a6>
10002b7e:	3307      	adds	r3, #7
10002b80:	f023 0307 	bic.w	r3, r3, #7
10002b84:	4619      	mov	r1, r3
10002b86:	4608      	mov	r0, r1
10002b88:	685b      	ldr	r3, [r3, #4]
10002b8a:	f850 1b08 	ldr.w	r1, [r0], #8
10002b8e:	0fdf      	lsrs	r7, r3, #31
10002b90:	900a      	str	r0, [sp, #40]	@ 0x28
10002b92:	ea51 0003 	orrs.w	r0, r1, r3
10002b96:	d162      	bne.n	10002c5e <_vsnprintf+0x742>
10002b98:	2a00      	cmp	r2, #0
10002b9a:	f040 819f 	bne.w	10002edc <_vsnprintf+0x9c0>
10002b9e:	4613      	mov	r3, r2
10002ba0:	4611      	mov	r1, r2
10002ba2:	aa12      	add	r2, sp, #72	@ 0x48
10002ba4:	e9cd 750c 	strd	r7, r5, [sp, #48]	@ 0x30
10002ba8:	2000      	movs	r0, #0
10002baa:	4615      	mov	r5, r2
10002bac:	e9cd 680e 	strd	r6, r8, [sp, #56]	@ 0x38
10002bb0:	f8df e348 	ldr.w	lr, [pc, #840]	@ 10002efc <_vsnprintf+0x9e0>
10002bb4:	920b      	str	r2, [sp, #44]	@ 0x2c
10002bb6:	e001      	b.n	10002bbc <_vsnprintf+0x6a0>
10002bb8:	2820      	cmp	r0, #32
10002bba:	d02d      	beq.n	10002c18 <_vsnprintf+0x6fc>
10002bbc:	185a      	adds	r2, r3, r1
10002bbe:	f142 0200 	adc.w	r2, r2, #0
10002bc2:	fbae 7802 	umull	r7, r8, lr, r2
10002bc6:	f028 0703 	bic.w	r7, r8, #3
10002bca:	eb07 0798 	add.w	r7, r7, r8, lsr #2
10002bce:	1bd2      	subs	r2, r2, r7
10002bd0:	461e      	mov	r6, r3
10002bd2:	1a9b      	subs	r3, r3, r2
10002bd4:	f161 0700 	sbc.w	r7, r1, #0
10002bd8:	460c      	mov	r4, r1
10002bda:	f04f 31cc 	mov.w	r1, #3435973836	@ 0xcccccccc
10002bde:	fb01 f103 	mul.w	r1, r1, r3
10002be2:	fb0e 1107 	mla	r1, lr, r7, r1
10002be6:	fba3 730e 	umull	r7, r3, r3, lr
10002bea:	4419      	add	r1, r3
10002bec:	2305      	movs	r3, #5
10002bee:	f007 0801 	and.w	r8, r7, #1
10002bf2:	fba8 3803 	umull	r3, r8, r8, r3
10002bf6:	189b      	adds	r3, r3, r2
10002bf8:	2e0a      	cmp	r6, #10
10002bfa:	f103 0330 	add.w	r3, r3, #48	@ 0x30
10002bfe:	ea4f 0757 	mov.w	r7, r7, lsr #1
10002c02:	f174 0400 	sbcs.w	r4, r4, #0
10002c06:	f805 3b01 	strb.w	r3, [r5], #1
10002c0a:	f100 0001 	add.w	r0, r0, #1
10002c0e:	ea47 73c1 	orr.w	r3, r7, r1, lsl #31
10002c12:	ea4f 0151 	mov.w	r1, r1, lsr #1
10002c16:	d2cf      	bcs.n	10002bb8 <_vsnprintf+0x69c>
10002c18:	e9dd 750c 	ldrd	r7, r5, [sp, #48]	@ 0x30
10002c1c:	e9dd 680e 	ldrd	r6, r8, [sp, #56]	@ 0x38
10002c20:	9b0b      	ldr	r3, [sp, #44]	@ 0x2c
10002c22:	4642      	mov	r2, r8
10002c24:	9300      	str	r3, [sp, #0]
10002c26:	230a      	movs	r3, #10
10002c28:	e9cd 5c05 	strd	r5, ip, [sp, #20]
10002c2c:	e9cd 0701 	strd	r0, r7, [sp, #4]
10002c30:	9604      	str	r6, [sp, #16]
10002c32:	9303      	str	r3, [sp, #12]
10002c34:	464b      	mov	r3, r9
10002c36:	4651      	mov	r1, sl
10002c38:	4658      	mov	r0, fp
10002c3a:	f7fe fe61 	bl	10001900 <_ntoa_format>
10002c3e:	4680      	mov	r8, r0
10002c40:	e48a      	b.n	10002558 <_vsnprintf+0x3c>
10002c42:	7819      	ldrb	r1, [r3, #0]
10002c44:	460f      	mov	r7, r1
10002c46:	e764      	b.n	10002b12 <_vsnprintf+0x5f6>
10002c48:	2710      	movs	r7, #16
10002c4a:	46bc      	mov	ip, r7
10002c4c:	e6b3      	b.n	100029b6 <_vsnprintf+0x49a>
10002c4e:	f023 0c10 	bic.w	ip, r3, #16
10002c52:	e745      	b.n	10002ae0 <_vsnprintf+0x5c4>
10002c54:	061c      	lsls	r4, r3, #24
10002c56:	bf4c      	ite	mi
10002c58:	8812      	ldrhmi	r2, [r2, #0]
10002c5a:	6812      	ldrpl	r2, [r2, #0]
10002c5c:	e6c0      	b.n	100029e0 <_vsnprintf+0x4c4>
10002c5e:	460a      	mov	r2, r1
10002c60:	1e19      	subs	r1, r3, #0
10002c62:	db01      	blt.n	10002c68 <_vsnprintf+0x74c>
10002c64:	4613      	mov	r3, r2
10002c66:	e79c      	b.n	10002ba2 <_vsnprintf+0x686>
10002c68:	4252      	negs	r2, r2
10002c6a:	4613      	mov	r3, r2
10002c6c:	eb61 0141 	sbc.w	r1, r1, r1, lsl #1
10002c70:	e797      	b.n	10002ba2 <_vsnprintf+0x686>
10002c72:	4613      	mov	r3, r2
10002c74:	4651      	mov	r1, sl
10002c76:	7818      	ldrb	r0, [r3, #0]
10002c78:	4642      	mov	r2, r8
10002c7a:	464b      	mov	r3, r9
10002c7c:	47d8      	blx	fp
10002c7e:	46b0      	mov	r8, r6
10002c80:	e648      	b.n	10002914 <_vsnprintf+0x3f8>
10002c82:	f013 0f20 	tst.w	r3, #32
10002c86:	bf14      	ite	ne
10002c88:	2041      	movne	r0, #65	@ 0x41
10002c8a:	2061      	moveq	r0, #97	@ 0x61
10002c8c:	ac12      	add	r4, sp, #72	@ 0x48
10002c8e:	46a6      	mov	lr, r4
10002c90:	940b      	str	r4, [sp, #44]	@ 0x2c
10002c92:	930a      	str	r3, [sp, #40]	@ 0x28
10002c94:	f1a0 040a 	sub.w	r4, r0, #10
10002c98:	950c      	str	r5, [sp, #48]	@ 0x30
10002c9a:	e002      	b.n	10002ca2 <_vsnprintf+0x786>
10002c9c:	2920      	cmp	r1, #32
10002c9e:	d012      	beq.n	10002cc6 <_vsnprintf+0x7aa>
10002ca0:	462a      	mov	r2, r5
10002ca2:	fbb2 f5fc 	udiv	r5, r2, ip
10002ca6:	fb0c 2015 	mls	r0, ip, r5, r2
10002caa:	b2c3      	uxtb	r3, r0
10002cac:	2809      	cmp	r0, #9
10002cae:	f103 0030 	add.w	r0, r3, #48	@ 0x30
10002cb2:	bf8a      	itet	hi
10002cb4:	191b      	addhi	r3, r3, r4
10002cb6:	b2c3      	uxtbls	r3, r0
10002cb8:	b2db      	uxtbhi	r3, r3
10002cba:	4562      	cmp	r2, ip
10002cbc:	f80e 3b01 	strb.w	r3, [lr], #1
10002cc0:	f101 0101 	add.w	r1, r1, #1
10002cc4:	d2ea      	bcs.n	10002c9c <_vsnprintf+0x780>
10002cc6:	9b0a      	ldr	r3, [sp, #40]	@ 0x28
10002cc8:	9d0c      	ldr	r5, [sp, #48]	@ 0x30
10002cca:	e694      	b.n	100029f6 <_vsnprintf+0x4da>
10002ccc:	9a0a      	ldr	r2, [sp, #40]	@ 0x28
10002cce:	3207      	adds	r2, #7
10002cd0:	f022 0207 	bic.w	r2, r2, #7
10002cd4:	6851      	ldr	r1, [r2, #4]
10002cd6:	f852 4b08 	ldr.w	r4, [r2], #8
10002cda:	468e      	mov	lr, r1
10002cdc:	920a      	str	r2, [sp, #40]	@ 0x28
10002cde:	ea54 0201 	orrs.w	r2, r4, r1
10002ce2:	d176      	bne.n	10002dd2 <_vsnprintf+0x8b6>
10002ce4:	f023 0310 	bic.w	r3, r3, #16
10002ce8:	2800      	cmp	r0, #0
10002cea:	d072      	beq.n	10002dd2 <_vsnprintf+0x8b6>
10002cec:	2200      	movs	r2, #0
10002cee:	4611      	mov	r1, r2
10002cf0:	aa12      	add	r2, sp, #72	@ 0x48
10002cf2:	920b      	str	r2, [sp, #44]	@ 0x2c
10002cf4:	e9cd 5305 	strd	r5, r3, [sp, #20]
10002cf8:	9b0b      	ldr	r3, [sp, #44]	@ 0x2c
10002cfa:	4642      	mov	r2, r8
10002cfc:	9300      	str	r3, [sp, #0]
10002cfe:	2300      	movs	r3, #0
10002d00:	e9cd c603 	strd	ip, r6, [sp, #12]
10002d04:	9101      	str	r1, [sp, #4]
10002d06:	9302      	str	r3, [sp, #8]
10002d08:	e794      	b.n	10002c34 <_vsnprintf+0x718>
10002d0a:	42a5      	cmp	r5, r4
10002d0c:	bf98      	it	ls
10002d0e:	3401      	addls	r4, #1
10002d10:	f67f ad74 	bls.w	100027fc <_vsnprintf+0x2e0>
10002d14:	f44f 6380 	mov.w	r3, #1024	@ 0x400
10002d18:	e9cd 750a 	strd	r7, r5, [sp, #40]	@ 0x28
10002d1c:	eb05 0208 	add.w	r2, r5, r8
10002d20:	461f      	mov	r7, r3
10002d22:	460d      	mov	r5, r1
10002d24:	1b14      	subs	r4, r2, r4
10002d26:	4642      	mov	r2, r8
10002d28:	464b      	mov	r3, r9
10002d2a:	4651      	mov	r1, sl
10002d2c:	2020      	movs	r0, #32
10002d2e:	f108 0801 	add.w	r8, r8, #1
10002d32:	47d8      	blx	fp
10002d34:	45a0      	cmp	r8, r4
10002d36:	d1f6      	bne.n	10002d26 <_vsnprintf+0x80a>
10002d38:	463b      	mov	r3, r7
10002d3a:	9f0a      	ldr	r7, [sp, #40]	@ 0x28
10002d3c:	4629      	mov	r1, r5
10002d3e:	7838      	ldrb	r0, [r7, #0]
10002d40:	9d0b      	ldr	r5, [sp, #44]	@ 0x2c
10002d42:	1c6c      	adds	r4, r5, #1
10002d44:	2800      	cmp	r0, #0
10002d46:	f43f ad70 	beq.w	1000282a <_vsnprintf+0x30e>
10002d4a:	2b00      	cmp	r3, #0
10002d4c:	f43f ae75 	beq.w	10002a3a <_vsnprintf+0x51e>
10002d50:	2300      	movs	r3, #0
10002d52:	e553      	b.n	100027fc <_vsnprintf+0x2e0>
10002d54:	42a5      	cmp	r5, r4
10002d56:	d8df      	bhi.n	10002d18 <_vsnprintf+0x7fc>
10002d58:	3401      	adds	r4, #1
10002d5a:	e66e      	b.n	10002a3a <_vsnprintf+0x51e>
10002d5c:	6819      	ldr	r1, [r3, #0]
10002d5e:	0fcb      	lsrs	r3, r1, #31
10002d60:	2900      	cmp	r1, #0
10002d62:	f000 80a8 	beq.w	10002eb6 <_vsnprintf+0x99a>
10002d66:	ea81 72e1 	eor.w	r2, r1, r1, asr #31
10002d6a:	eba2 72e1 	sub.w	r2, r2, r1, asr #31
10002d6e:	a912      	add	r1, sp, #72	@ 0x48
10002d70:	4608      	mov	r0, r1
10002d72:	f8df e188 	ldr.w	lr, [pc, #392]	@ 10002efc <_vsnprintf+0x9e0>
10002d76:	910b      	str	r1, [sp, #44]	@ 0x2c
10002d78:	930a      	str	r3, [sp, #40]	@ 0x28
10002d7a:	950c      	str	r5, [sp, #48]	@ 0x30
10002d7c:	e001      	b.n	10002d82 <_vsnprintf+0x866>
10002d7e:	2f20      	cmp	r7, #32
10002d80:	d00f      	beq.n	10002da2 <_vsnprintf+0x886>
10002d82:	4615      	mov	r5, r2
10002d84:	fbae 1302 	umull	r1, r3, lr, r2
10002d88:	08db      	lsrs	r3, r3, #3
10002d8a:	eb03 0183 	add.w	r1, r3, r3, lsl #2
10002d8e:	eba2 0141 	sub.w	r1, r2, r1, lsl #1
10002d92:	3130      	adds	r1, #48	@ 0x30
10002d94:	2d09      	cmp	r5, #9
10002d96:	461a      	mov	r2, r3
10002d98:	f107 0701 	add.w	r7, r7, #1
10002d9c:	f800 1b01 	strb.w	r1, [r0], #1
10002da0:	d8ed      	bhi.n	10002d7e <_vsnprintf+0x862>
10002da2:	9b0a      	ldr	r3, [sp, #40]	@ 0x28
10002da4:	9d0c      	ldr	r5, [sp, #48]	@ 0x30
10002da6:	e9cd 5c05 	strd	r5, ip, [sp, #20]
10002daa:	e9cd 7301 	strd	r7, r3, [sp, #4]
10002dae:	9604      	str	r6, [sp, #16]
10002db0:	e6d5      	b.n	10002b5e <_vsnprintf+0x642>
10002db2:	2869      	cmp	r0, #105	@ 0x69
10002db4:	f023 0c10 	bic.w	ip, r3, #16
10002db8:	f040 808c 	bne.w	10002ed4 <_vsnprintf+0x9b8>
10002dbc:	f413 6280 	ands.w	r2, r3, #1024	@ 0x400
10002dc0:	f43f ae8e 	beq.w	10002ae0 <_vsnprintf+0x5c4>
10002dc4:	e688      	b.n	10002ad8 <_vsnprintf+0x5bc>
10002dc6:	2a00      	cmp	r2, #0
10002dc8:	f43f aea8 	beq.w	10002b1c <_vsnprintf+0x600>
10002dcc:	aa12      	add	r2, sp, #72	@ 0x48
10002dce:	920b      	str	r2, [sp, #44]	@ 0x2c
10002dd0:	e6c0      	b.n	10002b54 <_vsnprintf+0x638>
10002dd2:	f013 0f20 	tst.w	r3, #32
10002dd6:	bf14      	ite	ne
10002dd8:	2241      	movne	r2, #65	@ 0x41
10002dda:	2261      	moveq	r2, #97	@ 0x61
10002ddc:	2000      	movs	r0, #0
10002dde:	a912      	add	r1, sp, #72	@ 0x48
10002de0:	3a0a      	subs	r2, #10
10002de2:	e9cd 680e 	strd	r6, r8, [sp, #56]	@ 0x38
10002de6:	e9cd 350c 	strd	r3, r5, [sp, #48]	@ 0x30
10002dea:	f8cd b044 	str.w	fp, [sp, #68]	@ 0x44
10002dee:	4606      	mov	r6, r0
10002df0:	4688      	mov	r8, r1
10002df2:	4675      	mov	r5, lr
10002df4:	4693      	mov	fp, r2
10002df6:	910b      	str	r1, [sp, #44]	@ 0x2c
10002df8:	f8cd c040 	str.w	ip, [sp, #64]	@ 0x40
10002dfc:	e003      	b.n	10002e06 <_vsnprintf+0x8ea>
10002dfe:	2e20      	cmp	r6, #32
10002e00:	d017      	beq.n	10002e32 <_vsnprintf+0x916>
10002e02:	4604      	mov	r4, r0
10002e04:	460d      	mov	r5, r1
10002e06:	4629      	mov	r1, r5
10002e08:	463a      	mov	r2, r7
10002e0a:	2300      	movs	r3, #0
10002e0c:	4620      	mov	r0, r4
10002e0e:	f000 fcff 	bl	10003810 <____aeabi_uldivmod_veneer>
10002e12:	b2d2      	uxtb	r2, r2
10002e14:	2a09      	cmp	r2, #9
10002e16:	f102 0330 	add.w	r3, r2, #48	@ 0x30
10002e1a:	bf88      	it	hi
10002e1c:	eb02 030b 	addhi.w	r3, r2, fp
10002e20:	42bc      	cmp	r4, r7
10002e22:	b2db      	uxtb	r3, r3
10002e24:	f175 0500 	sbcs.w	r5, r5, #0
10002e28:	f808 3b01 	strb.w	r3, [r8], #1
10002e2c:	f106 0601 	add.w	r6, r6, #1
10002e30:	d2e5      	bcs.n	10002dfe <_vsnprintf+0x8e2>
10002e32:	4631      	mov	r1, r6
10002e34:	e9dd 350c 	ldrd	r3, r5, [sp, #48]	@ 0x30
10002e38:	e9dd cb10 	ldrd	ip, fp, [sp, #64]	@ 0x40
10002e3c:	f8dd 803c 	ldr.w	r8, [sp, #60]	@ 0x3c
10002e40:	9e0e      	ldr	r6, [sp, #56]	@ 0x38
10002e42:	e757      	b.n	10002cf4 <_vsnprintf+0x7d8>
10002e44:	990a      	ldr	r1, [sp, #40]	@ 0x28
10002e46:	6809      	ldr	r1, [r1, #0]
10002e48:	b951      	cbnz	r1, 10002e60 <_vsnprintf+0x944>
10002e4a:	f023 0310 	bic.w	r3, r3, #16
10002e4e:	b138      	cbz	r0, 10002e60 <_vsnprintf+0x944>
10002e50:	a912      	add	r1, sp, #72	@ 0x48
10002e52:	910b      	str	r1, [sp, #44]	@ 0x2c
10002e54:	e9cd 5305 	strd	r5, r3, [sp, #20]
10002e58:	e9cd c603 	strd	ip, r6, [sp, #12]
10002e5c:	9201      	str	r2, [sp, #4]
10002e5e:	e5cf      	b.n	10002a00 <_vsnprintf+0x4e4>
10002e60:	f013 0f20 	tst.w	r3, #32
10002e64:	bf14      	ite	ne
10002e66:	2041      	movne	r0, #65	@ 0x41
10002e68:	2061      	moveq	r0, #97	@ 0x61
10002e6a:	ac12      	add	r4, sp, #72	@ 0x48
10002e6c:	46a6      	mov	lr, r4
10002e6e:	940b      	str	r4, [sp, #44]	@ 0x2c
10002e70:	930a      	str	r3, [sp, #40]	@ 0x28
10002e72:	f1a0 040a 	sub.w	r4, r0, #10
10002e76:	950c      	str	r5, [sp, #48]	@ 0x30
10002e78:	e002      	b.n	10002e80 <_vsnprintf+0x964>
10002e7a:	2a20      	cmp	r2, #32
10002e7c:	d012      	beq.n	10002ea4 <_vsnprintf+0x988>
10002e7e:	4629      	mov	r1, r5
10002e80:	fbb1 f5fc 	udiv	r5, r1, ip
10002e84:	fb0c 1015 	mls	r0, ip, r5, r1
10002e88:	b2c3      	uxtb	r3, r0
10002e8a:	2809      	cmp	r0, #9
10002e8c:	f103 0030 	add.w	r0, r3, #48	@ 0x30
10002e90:	bf8a      	itet	hi
10002e92:	191b      	addhi	r3, r3, r4
10002e94:	b2c3      	uxtbls	r3, r0
10002e96:	b2db      	uxtbhi	r3, r3
10002e98:	4561      	cmp	r1, ip
10002e9a:	f80e 3b01 	strb.w	r3, [lr], #1
10002e9e:	f102 0201 	add.w	r2, r2, #1
10002ea2:	d2ea      	bcs.n	10002e7a <_vsnprintf+0x95e>
10002ea4:	9b0a      	ldr	r3, [sp, #40]	@ 0x28
10002ea6:	9d0c      	ldr	r5, [sp, #48]	@ 0x30
10002ea8:	e7d4      	b.n	10002e54 <_vsnprintf+0x938>
10002eaa:	6819      	ldr	r1, [r3, #0]
10002eac:	ea81 77e1 	eor.w	r7, r1, r1, asr #31
10002eb0:	eba7 77e1 	sub.w	r7, r7, r1, asr #31
10002eb4:	e62d      	b.n	10002b12 <_vsnprintf+0x5f6>
10002eb6:	2a00      	cmp	r2, #0
10002eb8:	f43f af59 	beq.w	10002d6e <_vsnprintf+0x852>
10002ebc:	aa12      	add	r2, sp, #72	@ 0x48
10002ebe:	920b      	str	r2, [sp, #44]	@ 0x2c
10002ec0:	e771      	b.n	10002da6 <_vsnprintf+0x88a>
10002ec2:	f413 6480 	ands.w	r4, r3, #1024	@ 0x400
10002ec6:	d00d      	beq.n	10002ee4 <_vsnprintf+0x9c8>
10002ec8:	f013 0402 	ands.w	r4, r3, #2
10002ecc:	d012      	beq.n	10002ef4 <_vsnprintf+0x9d8>
10002ece:	4604      	mov	r4, r0
10002ed0:	4646      	mov	r6, r8
10002ed2:	e5ec      	b.n	10002aae <_vsnprintf+0x592>
10002ed4:	270a      	movs	r7, #10
10002ed6:	4663      	mov	r3, ip
10002ed8:	46bc      	mov	ip, r7
10002eda:	e56c      	b.n	100029b6 <_vsnprintf+0x49a>
10002edc:	ab12      	add	r3, sp, #72	@ 0x48
10002ede:	2000      	movs	r0, #0
10002ee0:	930b      	str	r3, [sp, #44]	@ 0x2c
10002ee2:	e69d      	b.n	10002c20 <_vsnprintf+0x704>
10002ee4:	f013 0302 	ands.w	r3, r3, #2
10002ee8:	f47f ade0 	bne.w	10002aac <_vsnprintf+0x590>
10002eec:	2d00      	cmp	r5, #0
10002eee:	f47f af13 	bne.w	10002d18 <_vsnprintf+0x7fc>
10002ef2:	e49a      	b.n	1000282a <_vsnprintf+0x30e>
10002ef4:	2d00      	cmp	r5, #0
10002ef6:	f47f af0d 	bne.w	10002d14 <_vsnprintf+0x7f8>
10002efa:	e496      	b.n	1000282a <_vsnprintf+0x30e>
10002efc:	cccccccd 	.word	0xcccccccd

10002f00 <vfctprintf>:
10002f00:	b570      	push	{r4, r5, r6, lr}
10002f02:	4694      	mov	ip, r2
10002f04:	461e      	mov	r6, r3
10002f06:	4605      	mov	r5, r0
10002f08:	460c      	mov	r4, r1
10002f0a:	b084      	sub	sp, #16
10002f0c:	f04f 32ff 	mov.w	r2, #4294967295
10002f10:	4663      	mov	r3, ip
10002f12:	a902      	add	r1, sp, #8
10002f14:	9600      	str	r6, [sp, #0]
10002f16:	4803      	ldr	r0, [pc, #12]	@ (10002f24 <vfctprintf+0x24>)
10002f18:	e9cd 5402 	strd	r5, r4, [sp, #8]
10002f1c:	f7ff fafe 	bl	1000251c <_vsnprintf>
10002f20:	b004      	add	sp, #16
10002f22:	bd70      	pop	{r4, r5, r6, pc}
10002f24:	10001add 	.word	0x10001add

10002f28 <weak_raw_vprintf>:
10002f28:	b510      	push	{r4, lr}
10002f2a:	4b09      	ldr	r3, [pc, #36]	@ (10002f50 <weak_raw_vprintf+0x28>)
10002f2c:	b084      	sub	sp, #16
10002f2e:	681c      	ldr	r4, [r3, #0]
10002f30:	b14c      	cbz	r4, 10002f46 <weak_raw_vprintf+0x1e>
10002f32:	4603      	mov	r3, r0
10002f34:	9100      	str	r1, [sp, #0]
10002f36:	f04f 32ff 	mov.w	r2, #4294967295
10002f3a:	a903      	add	r1, sp, #12
10002f3c:	4805      	ldr	r0, [pc, #20]	@ (10002f54 <weak_raw_vprintf+0x2c>)
10002f3e:	47a0      	blx	r4
10002f40:	2001      	movs	r0, #1
10002f42:	b004      	add	sp, #16
10002f44:	bd10      	pop	{r4, pc}
10002f46:	f000 f97d 	bl	10003244 <__wrap_puts>
10002f4a:	4620      	mov	r0, r4
10002f4c:	b004      	add	sp, #16
10002f4e:	bd10      	pop	{r4, pc}
10002f50:	2000081c 	.word	0x2000081c
10002f54:	10001ad5 	.word	0x10001ad5

10002f58 <_exit>:
10002f58:	be00      	bkpt	0x0000
10002f5a:	e7fd      	b.n	10002f58 <_exit>

10002f5c <exit>:
10002f5c:	b508      	push	{r3, lr}
10002f5e:	f7ff fffb 	bl	10002f58 <_exit>
10002f62:	bf00      	nop

10002f64 <runtime_init>:
10002f64:	b538      	push	{r3, r4, r5, lr}
10002f66:	4c06      	ldr	r4, [pc, #24]	@ (10002f80 <runtime_init+0x1c>)
10002f68:	4d06      	ldr	r5, [pc, #24]	@ (10002f84 <runtime_init+0x20>)
10002f6a:	f7fe fa07 	bl	1000137c <runtime_run_initializers>
10002f6e:	42ac      	cmp	r4, r5
10002f70:	d204      	bcs.n	10002f7c <runtime_init+0x18>
10002f72:	f854 3b04 	ldr.w	r3, [r4], #4
10002f76:	4798      	blx	r3
10002f78:	42ac      	cmp	r4, r5
10002f7a:	d3fa      	bcc.n	10002f72 <runtime_init+0xe>
10002f7c:	bd38      	pop	{r3, r4, r5, pc}
10002f7e:	bf00      	nop
10002f80:	10003868 	.word	0x10003868
10002f84:	1000386c 	.word	0x1000386c

10002f88 <stdio_out_chars_no_crlf>:
10002f88:	6803      	ldr	r3, [r0, #0]
10002f8a:	4608      	mov	r0, r1
10002f8c:	4611      	mov	r1, r2
10002f8e:	4718      	bx	r3

10002f90 <stdio_out_chars_crlf>:
10002f90:	e92d 41f0 	stmdb	sp!, {r4, r5, r6, r7, r8, lr}
10002f94:	4615      	mov	r5, r2
10002f96:	7d42      	ldrb	r2, [r0, #21]
10002f98:	4607      	mov	r7, r0
10002f9a:	4688      	mov	r8, r1
10002f9c:	2a00      	cmp	r2, #0
10002f9e:	d046      	beq.n	1000302e <stdio_out_chars_crlf+0x9e>
10002fa0:	2d00      	cmp	r5, #0
10002fa2:	dd1d      	ble.n	10002fe0 <stdio_out_chars_crlf+0x50>
10002fa4:	780b      	ldrb	r3, [r1, #0]
10002fa6:	2b0a      	cmp	r3, #10
10002fa8:	d023      	beq.n	10002ff2 <stdio_out_chars_crlf+0x62>
10002faa:	2d01      	cmp	r5, #1
10002fac:	f04f 0c00 	mov.w	ip, #0
10002fb0:	d018      	beq.n	10002fe4 <stdio_out_chars_crlf+0x54>
10002fb2:	4646      	mov	r6, r8
10002fb4:	2401      	movs	r4, #1
10002fb6:	f816 2f01 	ldrb.w	r2, [r6, #1]!
10002fba:	4621      	mov	r1, r4
10002fbc:	2a0a      	cmp	r2, #10
10002fbe:	f104 0401 	add.w	r4, r4, #1
10002fc2:	d022      	beq.n	1000300a <stdio_out_chars_crlf+0x7a>
10002fc4:	42a5      	cmp	r5, r4
10002fc6:	d1f6      	bne.n	10002fb6 <stdio_out_chars_crlf+0x26>
10002fc8:	4565      	cmp	r5, ip
10002fca:	dc0b      	bgt.n	10002fe4 <stdio_out_chars_crlf+0x54>
10002fcc:	eb08 0305 	add.w	r3, r8, r5
10002fd0:	f813 3c01 	ldrb.w	r3, [r3, #-1]
10002fd4:	f1a3 030d 	sub.w	r3, r3, #13
10002fd8:	fab3 f383 	clz	r3, r3
10002fdc:	095b      	lsrs	r3, r3, #5
10002fde:	753b      	strb	r3, [r7, #20]
10002fe0:	e8bd 81f0 	ldmia.w	sp!, {r4, r5, r6, r7, r8, pc}
10002fe4:	683b      	ldr	r3, [r7, #0]
10002fe6:	eba5 010c 	sub.w	r1, r5, ip
10002fea:	eb08 000c 	add.w	r0, r8, ip
10002fee:	4798      	blx	r3
10002ff0:	e7ec      	b.n	10002fcc <stdio_out_chars_crlf+0x3c>
10002ff2:	7d03      	ldrb	r3, [r0, #20]
10002ff4:	2b00      	cmp	r3, #0
10002ff6:	d1d8      	bne.n	10002faa <stdio_out_chars_crlf+0x1a>
10002ff8:	6803      	ldr	r3, [r0, #0]
10002ffa:	2102      	movs	r1, #2
10002ffc:	480f      	ldr	r0, [pc, #60]	@ (1000303c <stdio_out_chars_crlf+0xac>)
10002ffe:	4798      	blx	r3
10003000:	2d01      	cmp	r5, #1
10003002:	d0e3      	beq.n	10002fcc <stdio_out_chars_crlf+0x3c>
10003004:	f04f 0c01 	mov.w	ip, #1
10003008:	e7d3      	b.n	10002fb2 <stdio_out_chars_crlf+0x22>
1000300a:	f816 3c01 	ldrb.w	r3, [r6, #-1]
1000300e:	2b0d      	cmp	r3, #13
10003010:	d0d8      	beq.n	10002fc4 <stdio_out_chars_crlf+0x34>
10003012:	458c      	cmp	ip, r1
10003014:	eb08 000c 	add.w	r0, r8, ip
10003018:	eba1 010c 	sub.w	r1, r1, ip
1000301c:	da01      	bge.n	10003022 <stdio_out_chars_crlf+0x92>
1000301e:	683b      	ldr	r3, [r7, #0]
10003020:	4798      	blx	r3
10003022:	2102      	movs	r1, #2
10003024:	4805      	ldr	r0, [pc, #20]	@ (1000303c <stdio_out_chars_crlf+0xac>)
10003026:	683b      	ldr	r3, [r7, #0]
10003028:	4798      	blx	r3
1000302a:	46a4      	mov	ip, r4
1000302c:	e7ca      	b.n	10002fc4 <stdio_out_chars_crlf+0x34>
1000302e:	4629      	mov	r1, r5
10003030:	4640      	mov	r0, r8
10003032:	683b      	ldr	r3, [r7, #0]
10003034:	e8bd 41f0 	ldmia.w	sp!, {r4, r5, r6, r7, r8, lr}
10003038:	4718      	bx	r3
1000303a:	bf00      	nop
1000303c:	10003a98 	.word	0x10003a98

10003040 <stdio_buffered_printer>:
10003040:	680b      	ldr	r3, [r1, #0]
10003042:	e92d 41f0 	stmdb	sp!, {r4, r5, r6, r7, r8, lr}
10003046:	2b80      	cmp	r3, #128	@ 0x80
10003048:	460d      	mov	r5, r1
1000304a:	4606      	mov	r6, r0
1000304c:	d005      	beq.n	1000305a <stdio_buffered_printer+0x1a>
1000304e:	1c5a      	adds	r2, r3, #1
10003050:	442b      	add	r3, r5
10003052:	602a      	str	r2, [r5, #0]
10003054:	711e      	strb	r6, [r3, #4]
10003056:	e8bd 81f0 	ldmia.w	sp!, {r4, r5, r6, r7, r8, pc}
1000305a:	4b0f      	ldr	r3, [pc, #60]	@ (10003098 <stdio_buffered_printer+0x58>)
1000305c:	681c      	ldr	r4, [r3, #0]
1000305e:	b1a4      	cbz	r4, 1000308a <stdio_buffered_printer+0x4a>
10003060:	4f0e      	ldr	r7, [pc, #56]	@ (1000309c <stdio_buffered_printer+0x5c>)
10003062:	f101 0804 	add.w	r8, r1, #4
10003066:	e001      	b.n	1000306c <stdio_buffered_printer+0x2c>
10003068:	6924      	ldr	r4, [r4, #16]
1000306a:	b174      	cbz	r4, 1000308a <stdio_buffered_printer+0x4a>
1000306c:	6823      	ldr	r3, [r4, #0]
1000306e:	2b00      	cmp	r3, #0
10003070:	d0fa      	beq.n	10003068 <stdio_buffered_printer+0x28>
10003072:	683b      	ldr	r3, [r7, #0]
10003074:	b10b      	cbz	r3, 1000307a <stdio_buffered_printer+0x3a>
10003076:	42a3      	cmp	r3, r4
10003078:	d1f6      	bne.n	10003068 <stdio_buffered_printer+0x28>
1000307a:	4620      	mov	r0, r4
1000307c:	4641      	mov	r1, r8
1000307e:	682a      	ldr	r2, [r5, #0]
10003080:	f7ff ff86 	bl	10002f90 <stdio_out_chars_crlf>
10003084:	6924      	ldr	r4, [r4, #16]
10003086:	2c00      	cmp	r4, #0
10003088:	d1f0      	bne.n	1000306c <stdio_buffered_printer+0x2c>
1000308a:	2300      	movs	r3, #0
1000308c:	2201      	movs	r2, #1
1000308e:	442b      	add	r3, r5
10003090:	602a      	str	r2, [r5, #0]
10003092:	711e      	strb	r6, [r3, #4]
10003094:	e8bd 81f0 	ldmia.w	sp!, {r4, r5, r6, r7, r8, pc}
10003098:	20000814 	.word	0x20000814
1000309c:	20000818 	.word	0x20000818

100030a0 <stdio_put_string>:
100030a0:	e92d 47f0 	stmdb	sp!, {r4, r5, r6, r7, r8, r9, sl, lr}
100030a4:	b082      	sub	sp, #8
100030a6:	460d      	mov	r5, r1
100030a8:	4691      	mov	r9, r2
100030aa:	461c      	mov	r4, r3
100030ac:	4606      	mov	r6, r0
100030ae:	f7fd ff95 	bl	10000fdc <time_us_64>
100030b2:	f04f 3cff 	mov.w	ip, #4294967295
100030b6:	f06f 4700 	mvn.w	r7, #2147483648	@ 0x80000000
100030ba:	4a2e      	ldr	r2, [pc, #184]	@ (10003174 <stdio_put_string+0xd4>)
100030bc:	1882      	adds	r2, r0, r2
100030be:	f141 0300 	adc.w	r3, r1, #0
100030c2:	4594      	cmp	ip, r2
100030c4:	eb77 0103 	sbcs.w	r1, r7, r3
100030c8:	bf3c      	itt	cc
100030ca:	4662      	movcc	r2, ip
100030cc:	463b      	movcc	r3, r7
100030ce:	482a      	ldr	r0, [pc, #168]	@ (10003178 <stdio_put_string+0xd8>)
100030d0:	f000 fba6 	bl	10003820 <__mutex_try_enter_block_until_veneer>
100030d4:	1c6b      	adds	r3, r5, #1
100030d6:	4680      	mov	r8, r0
100030d8:	d040      	beq.n	1000315c <stdio_put_string+0xbc>
100030da:	b30c      	cbz	r4, 10003120 <stdio_put_string+0x80>
100030dc:	4f27      	ldr	r7, [pc, #156]	@ (1000317c <stdio_put_string+0xdc>)
100030de:	4b28      	ldr	r3, [pc, #160]	@ (10003180 <stdio_put_string+0xe0>)
100030e0:	681c      	ldr	r4, [r3, #0]
100030e2:	b1b4      	cbz	r4, 10003112 <stdio_put_string+0x72>
100030e4:	f1b9 0f00 	cmp.w	r9, #0
100030e8:	d11c      	bne.n	10003124 <stdio_put_string+0x84>
100030ea:	f8df 909c 	ldr.w	r9, [pc, #156]	@ 10003188 <stdio_put_string+0xe8>
100030ee:	e001      	b.n	100030f4 <stdio_put_string+0x54>
100030f0:	6924      	ldr	r4, [r4, #16]
100030f2:	b174      	cbz	r4, 10003112 <stdio_put_string+0x72>
100030f4:	6823      	ldr	r3, [r4, #0]
100030f6:	2b00      	cmp	r3, #0
100030f8:	d0fa      	beq.n	100030f0 <stdio_put_string+0x50>
100030fa:	f8d9 3000 	ldr.w	r3, [r9]
100030fe:	b10b      	cbz	r3, 10003104 <stdio_put_string+0x64>
10003100:	429c      	cmp	r4, r3
10003102:	d1f5      	bne.n	100030f0 <stdio_put_string+0x50>
10003104:	4620      	mov	r0, r4
10003106:	462a      	mov	r2, r5
10003108:	4631      	mov	r1, r6
1000310a:	47b8      	blx	r7
1000310c:	6924      	ldr	r4, [r4, #16]
1000310e:	2c00      	cmp	r4, #0
10003110:	d1f0      	bne.n	100030f4 <stdio_put_string+0x54>
10003112:	f1b8 0f00 	cmp.w	r8, #0
10003116:	d126      	bne.n	10003166 <stdio_put_string+0xc6>
10003118:	4628      	mov	r0, r5
1000311a:	b002      	add	sp, #8
1000311c:	e8bd 87f0 	ldmia.w	sp!, {r4, r5, r6, r7, r8, r9, sl, pc}
10003120:	4f18      	ldr	r7, [pc, #96]	@ (10003184 <stdio_put_string+0xe4>)
10003122:	e7dc      	b.n	100030de <stdio_put_string+0x3e>
10003124:	f04f 0a0a 	mov.w	sl, #10
10003128:	f8df 905c 	ldr.w	r9, [pc, #92]	@ 10003188 <stdio_put_string+0xe8>
1000312c:	e002      	b.n	10003134 <stdio_put_string+0x94>
1000312e:	6924      	ldr	r4, [r4, #16]
10003130:	2c00      	cmp	r4, #0
10003132:	d0ee      	beq.n	10003112 <stdio_put_string+0x72>
10003134:	6823      	ldr	r3, [r4, #0]
10003136:	2b00      	cmp	r3, #0
10003138:	d0f9      	beq.n	1000312e <stdio_put_string+0x8e>
1000313a:	f8d9 3000 	ldr.w	r3, [r9]
1000313e:	b10b      	cbz	r3, 10003144 <stdio_put_string+0xa4>
10003140:	42a3      	cmp	r3, r4
10003142:	d1f4      	bne.n	1000312e <stdio_put_string+0x8e>
10003144:	462a      	mov	r2, r5
10003146:	4631      	mov	r1, r6
10003148:	4620      	mov	r0, r4
1000314a:	47b8      	blx	r7
1000314c:	2201      	movs	r2, #1
1000314e:	4620      	mov	r0, r4
10003150:	f10d 0107 	add.w	r1, sp, #7
10003154:	f88d a007 	strb.w	sl, [sp, #7]
10003158:	47b8      	blx	r7
1000315a:	e7e8      	b.n	1000312e <stdio_put_string+0x8e>
1000315c:	4630      	mov	r0, r6
1000315e:	f000 fb27 	bl	100037b0 <strlen>
10003162:	4605      	mov	r5, r0
10003164:	e7b9      	b.n	100030da <stdio_put_string+0x3a>
10003166:	4804      	ldr	r0, [pc, #16]	@ (10003178 <stdio_put_string+0xd8>)
10003168:	f000 fb56 	bl	10003818 <__mutex_exit_veneer>
1000316c:	4628      	mov	r0, r5
1000316e:	b002      	add	sp, #8
10003170:	e8bd 87f0 	ldmia.w	sp!, {r4, r5, r6, r7, r8, r9, sl, pc}
10003174:	000f4240 	.word	0x000f4240
10003178:	20000634 	.word	0x20000634
1000317c:	10002f91 	.word	0x10002f91
10003180:	20000814 	.word	0x20000814
10003184:	10002f89 	.word	0x10002f89
10003188:	20000818 	.word	0x20000818

1000318c <stdio_set_driver_enabled>:
1000318c:	4a08      	ldr	r2, [pc, #32]	@ (100031b0 <stdio_set_driver_enabled+0x24>)
1000318e:	6813      	ldr	r3, [r2, #0]
10003190:	b923      	cbnz	r3, 1000319c <stdio_set_driver_enabled+0x10>
10003192:	e00a      	b.n	100031aa <stdio_set_driver_enabled+0x1e>
10003194:	f103 0210 	add.w	r2, r3, #16
10003198:	691b      	ldr	r3, [r3, #16]
1000319a:	b133      	cbz	r3, 100031aa <stdio_set_driver_enabled+0x1e>
1000319c:	4283      	cmp	r3, r0
1000319e:	d1f9      	bne.n	10003194 <stdio_set_driver_enabled+0x8>
100031a0:	b929      	cbnz	r1, 100031ae <stdio_set_driver_enabled+0x22>
100031a2:	6918      	ldr	r0, [r3, #16]
100031a4:	6010      	str	r0, [r2, #0]
100031a6:	6119      	str	r1, [r3, #16]
100031a8:	4770      	bx	lr
100031aa:	b101      	cbz	r1, 100031ae <stdio_set_driver_enabled+0x22>
100031ac:	6010      	str	r0, [r2, #0]
100031ae:	4770      	bx	lr
100031b0:	20000814 	.word	0x20000814

100031b4 <stdio_init_all>:
100031b4:	b508      	push	{r3, lr}
100031b6:	f000 f9a3 	bl	10003500 <stdio_uart_init>
100031ba:	2001      	movs	r0, #1
100031bc:	bd08      	pop	{r3, pc}
100031be:	bf00      	nop

100031c0 <__wrap_putchar>:
100031c0:	b5f0      	push	{r4, r5, r6, r7, lr}
100031c2:	b083      	sub	sp, #12
100031c4:	4606      	mov	r6, r0
100031c6:	f88d 0007 	strb.w	r0, [sp, #7]
100031ca:	f7fd ff07 	bl	10000fdc <time_us_64>
100031ce:	f04f 35ff 	mov.w	r5, #4294967295
100031d2:	f06f 4400 	mvn.w	r4, #2147483648	@ 0x80000000
100031d6:	4a17      	ldr	r2, [pc, #92]	@ (10003234 <__wrap_putchar+0x74>)
100031d8:	1882      	adds	r2, r0, r2
100031da:	f141 0300 	adc.w	r3, r1, #0
100031de:	4295      	cmp	r5, r2
100031e0:	eb74 0103 	sbcs.w	r1, r4, r3
100031e4:	bf3c      	itt	cc
100031e6:	4623      	movcc	r3, r4
100031e8:	462a      	movcc	r2, r5
100031ea:	4813      	ldr	r0, [pc, #76]	@ (10003238 <__wrap_putchar+0x78>)
100031ec:	f000 fb18 	bl	10003820 <__mutex_try_enter_block_until_veneer>
100031f0:	4b12      	ldr	r3, [pc, #72]	@ (1000323c <__wrap_putchar+0x7c>)
100031f2:	4607      	mov	r7, r0
100031f4:	681c      	ldr	r4, [r3, #0]
100031f6:	b19c      	cbz	r4, 10003220 <__wrap_putchar+0x60>
100031f8:	4d11      	ldr	r5, [pc, #68]	@ (10003240 <__wrap_putchar+0x80>)
100031fa:	e001      	b.n	10003200 <__wrap_putchar+0x40>
100031fc:	6924      	ldr	r4, [r4, #16]
100031fe:	b17c      	cbz	r4, 10003220 <__wrap_putchar+0x60>
10003200:	6823      	ldr	r3, [r4, #0]
10003202:	2b00      	cmp	r3, #0
10003204:	d0fa      	beq.n	100031fc <__wrap_putchar+0x3c>
10003206:	682b      	ldr	r3, [r5, #0]
10003208:	b10b      	cbz	r3, 1000320e <__wrap_putchar+0x4e>
1000320a:	429c      	cmp	r4, r3
1000320c:	d1f6      	bne.n	100031fc <__wrap_putchar+0x3c>
1000320e:	4620      	mov	r0, r4
10003210:	2201      	movs	r2, #1
10003212:	f10d 0107 	add.w	r1, sp, #7
10003216:	f7ff febb 	bl	10002f90 <stdio_out_chars_crlf>
1000321a:	6924      	ldr	r4, [r4, #16]
1000321c:	2c00      	cmp	r4, #0
1000321e:	d1ef      	bne.n	10003200 <__wrap_putchar+0x40>
10003220:	b917      	cbnz	r7, 10003228 <__wrap_putchar+0x68>
10003222:	4630      	mov	r0, r6
10003224:	b003      	add	sp, #12
10003226:	bdf0      	pop	{r4, r5, r6, r7, pc}
10003228:	4803      	ldr	r0, [pc, #12]	@ (10003238 <__wrap_putchar+0x78>)
1000322a:	f000 faf5 	bl	10003818 <__mutex_exit_veneer>
1000322e:	4630      	mov	r0, r6
10003230:	b003      	add	sp, #12
10003232:	bdf0      	pop	{r4, r5, r6, r7, pc}
10003234:	000f4240 	.word	0x000f4240
10003238:	20000634 	.word	0x20000634
1000323c:	20000814 	.word	0x20000814
10003240:	20000818 	.word	0x20000818

10003244 <__wrap_puts>:
10003244:	b538      	push	{r3, r4, r5, lr}
10003246:	4604      	mov	r4, r0
10003248:	f000 fab2 	bl	100037b0 <strlen>
1000324c:	2301      	movs	r3, #1
1000324e:	4605      	mov	r5, r0
10003250:	461a      	mov	r2, r3
10003252:	4620      	mov	r0, r4
10003254:	4629      	mov	r1, r5
10003256:	f7ff ff23 	bl	100030a0 <stdio_put_string>
1000325a:	4b08      	ldr	r3, [pc, #32]	@ (1000327c <__wrap_puts+0x38>)
1000325c:	681c      	ldr	r4, [r3, #0]
1000325e:	b12c      	cbz	r4, 1000326c <__wrap_puts+0x28>
10003260:	6863      	ldr	r3, [r4, #4]
10003262:	b12b      	cbz	r3, 10003270 <__wrap_puts+0x2c>
10003264:	4798      	blx	r3
10003266:	6924      	ldr	r4, [r4, #16]
10003268:	2c00      	cmp	r4, #0
1000326a:	d1f9      	bne.n	10003260 <__wrap_puts+0x1c>
1000326c:	4628      	mov	r0, r5
1000326e:	bd38      	pop	{r3, r4, r5, pc}
10003270:	6924      	ldr	r4, [r4, #16]
10003272:	2c00      	cmp	r4, #0
10003274:	d1f4      	bne.n	10003260 <__wrap_puts+0x1c>
10003276:	4628      	mov	r0, r5
10003278:	bd38      	pop	{r3, r4, r5, pc}
1000327a:	bf00      	nop
1000327c:	20000814 	.word	0x20000814

10003280 <__wrap_vprintf>:
10003280:	e92d 41f0 	stmdb	sp!, {r4, r5, r6, r7, r8, lr}
10003284:	b0a2      	sub	sp, #136	@ 0x88
10003286:	4604      	mov	r4, r0
10003288:	460d      	mov	r5, r1
1000328a:	f7fd fea7 	bl	10000fdc <time_us_64>
1000328e:	f04f 37ff 	mov.w	r7, #4294967295
10003292:	f06f 4600 	mvn.w	r6, #2147483648	@ 0x80000000
10003296:	4a26      	ldr	r2, [pc, #152]	@ (10003330 <__wrap_vprintf+0xb0>)
10003298:	f8df 80a4 	ldr.w	r8, [pc, #164]	@ 10003340 <__wrap_vprintf+0xc0>
1000329c:	1882      	adds	r2, r0, r2
1000329e:	f141 0300 	adc.w	r3, r1, #0
100032a2:	4297      	cmp	r7, r2
100032a4:	eb76 0103 	sbcs.w	r1, r6, r3
100032a8:	bf3c      	itt	cc
100032aa:	463a      	movcc	r2, r7
100032ac:	4633      	movcc	r3, r6
100032ae:	4821      	ldr	r0, [pc, #132]	@ (10003334 <__wrap_vprintf+0xb4>)
100032b0:	f000 fab6 	bl	10003820 <__mutex_try_enter_block_until_veneer>
100032b4:	2700      	movs	r7, #0
100032b6:	462b      	mov	r3, r5
100032b8:	4622      	mov	r2, r4
100032ba:	4606      	mov	r6, r0
100032bc:	a901      	add	r1, sp, #4
100032be:	481e      	ldr	r0, [pc, #120]	@ (10003338 <__wrap_vprintf+0xb8>)
100032c0:	9701      	str	r7, [sp, #4]
100032c2:	f7ff fe1d 	bl	10002f00 <vfctprintf>
100032c6:	9b01      	ldr	r3, [sp, #4]
100032c8:	4605      	mov	r5, r0
100032ca:	f8d8 4000 	ldr.w	r4, [r8]
100032ce:	b1c3      	cbz	r3, 10003302 <__wrap_vprintf+0x82>
100032d0:	2c00      	cmp	r4, #0
100032d2:	d02b      	beq.n	1000332c <__wrap_vprintf+0xac>
100032d4:	4f19      	ldr	r7, [pc, #100]	@ (1000333c <__wrap_vprintf+0xbc>)
100032d6:	e001      	b.n	100032dc <__wrap_vprintf+0x5c>
100032d8:	6924      	ldr	r4, [r4, #16]
100032da:	b174      	cbz	r4, 100032fa <__wrap_vprintf+0x7a>
100032dc:	6823      	ldr	r3, [r4, #0]
100032de:	2b00      	cmp	r3, #0
100032e0:	d0fa      	beq.n	100032d8 <__wrap_vprintf+0x58>
100032e2:	683b      	ldr	r3, [r7, #0]
100032e4:	b10b      	cbz	r3, 100032ea <__wrap_vprintf+0x6a>
100032e6:	42a3      	cmp	r3, r4
100032e8:	d1f6      	bne.n	100032d8 <__wrap_vprintf+0x58>
100032ea:	4620      	mov	r0, r4
100032ec:	9a01      	ldr	r2, [sp, #4]
100032ee:	a902      	add	r1, sp, #8
100032f0:	f7ff fe4e 	bl	10002f90 <stdio_out_chars_crlf>
100032f4:	6924      	ldr	r4, [r4, #16]
100032f6:	2c00      	cmp	r4, #0
100032f8:	d1f0      	bne.n	100032dc <__wrap_vprintf+0x5c>
100032fa:	2300      	movs	r3, #0
100032fc:	f8d8 4000 	ldr.w	r4, [r8]
10003300:	9301      	str	r3, [sp, #4]
10003302:	b12c      	cbz	r4, 10003310 <__wrap_vprintf+0x90>
10003304:	6863      	ldr	r3, [r4, #4]
10003306:	b143      	cbz	r3, 1000331a <__wrap_vprintf+0x9a>
10003308:	4798      	blx	r3
1000330a:	6924      	ldr	r4, [r4, #16]
1000330c:	2c00      	cmp	r4, #0
1000330e:	d1f9      	bne.n	10003304 <__wrap_vprintf+0x84>
10003310:	b92e      	cbnz	r6, 1000331e <__wrap_vprintf+0x9e>
10003312:	4628      	mov	r0, r5
10003314:	b022      	add	sp, #136	@ 0x88
10003316:	e8bd 81f0 	ldmia.w	sp!, {r4, r5, r6, r7, r8, pc}
1000331a:	6924      	ldr	r4, [r4, #16]
1000331c:	e7f1      	b.n	10003302 <__wrap_vprintf+0x82>
1000331e:	4805      	ldr	r0, [pc, #20]	@ (10003334 <__wrap_vprintf+0xb4>)
10003320:	f000 fa7a 	bl	10003818 <__mutex_exit_veneer>
10003324:	4628      	mov	r0, r5
10003326:	b022      	add	sp, #136	@ 0x88
10003328:	e8bd 81f0 	ldmia.w	sp!, {r4, r5, r6, r7, r8, pc}
1000332c:	9401      	str	r4, [sp, #4]
1000332e:	e7ef      	b.n	10003310 <__wrap_vprintf+0x90>
10003330:	000f4240 	.word	0x000f4240
10003334:	20000634 	.word	0x20000634
10003338:	10003041 	.word	0x10003041
1000333c:	20000818 	.word	0x20000818
10003340:	20000814 	.word	0x20000814

10003344 <__wrap_printf>:
10003344:	b40f      	push	{r0, r1, r2, r3}
10003346:	b500      	push	{lr}
10003348:	b083      	sub	sp, #12
1000334a:	a904      	add	r1, sp, #16
1000334c:	f851 0b04 	ldr.w	r0, [r1], #4
10003350:	9101      	str	r1, [sp, #4]
10003352:	f7ff ff95 	bl	10003280 <__wrap_vprintf>
10003356:	b003      	add	sp, #12
10003358:	f85d eb04 	ldr.w	lr, [sp], #4
1000335c:	b004      	add	sp, #16
1000335e:	4770      	bx	lr

10003360 <stdio_uart_out_chars>:
10003360:	f1b1 0c00 	subs.w	ip, r1, #0
10003364:	dd1d      	ble.n	100033a2 <stdio_uart_out_chars+0x42>
10003366:	4a0f      	ldr	r2, [pc, #60]	@ (100033a4 <stdio_uart_out_chars+0x44>)
10003368:	4b0f      	ldr	r3, [pc, #60]	@ (100033a8 <stdio_uart_out_chars+0x48>)
1000336a:	6812      	ldr	r2, [r2, #0]
1000336c:	b530      	push	{r4, r5, lr}
1000336e:	1ad3      	subs	r3, r2, r3
10003370:	fab3 f383 	clz	r3, r3
10003374:	240d      	movs	r4, #13
10003376:	4d0d      	ldr	r5, [pc, #52]	@ (100033ac <stdio_uart_out_chars+0x4c>)
10003378:	095b      	lsrs	r3, r3, #5
1000337a:	1e41      	subs	r1, r0, #1
1000337c:	f935 e013 	ldrsh.w	lr, [r5, r3, lsl #1]
10003380:	448c      	add	ip, r1
10003382:	f811 0f01 	ldrb.w	r0, [r1, #1]!
10003386:	4586      	cmp	lr, r0
10003388:	d006      	beq.n	10003398 <stdio_uart_out_chars+0x38>
1000338a:	6993      	ldr	r3, [r2, #24]
1000338c:	069b      	lsls	r3, r3, #26
1000338e:	d4fc      	bmi.n	1000338a <stdio_uart_out_chars+0x2a>
10003390:	4561      	cmp	r1, ip
10003392:	6010      	str	r0, [r2, #0]
10003394:	d1f5      	bne.n	10003382 <stdio_uart_out_chars+0x22>
10003396:	bd30      	pop	{r4, r5, pc}
10003398:	6993      	ldr	r3, [r2, #24]
1000339a:	069d      	lsls	r5, r3, #26
1000339c:	d4fc      	bmi.n	10003398 <stdio_uart_out_chars+0x38>
1000339e:	6014      	str	r4, [r2, #0]
100033a0:	e7f3      	b.n	1000338a <stdio_uart_out_chars+0x2a>
100033a2:	4770      	bx	lr
100033a4:	20000860 	.word	0x20000860
100033a8:	40078000 	.word	0x40078000
100033ac:	2000085c 	.word	0x2000085c

100033b0 <stdio_uart_in_chars>:
100033b0:	4b22      	ldr	r3, [pc, #136]	@ (1000343c <stdio_uart_in_chars+0x8c>)
100033b2:	f1b1 0c00 	subs.w	ip, r1, #0
100033b6:	b410      	push	{r4}
100033b8:	681c      	ldr	r4, [r3, #0]
100033ba:	dd2e      	ble.n	1000341a <stdio_uart_in_chars+0x6a>
100033bc:	4603      	mov	r3, r0
100033be:	2000      	movs	r0, #0
100033c0:	4a1f      	ldr	r2, [pc, #124]	@ (10003440 <stdio_uart_in_chars+0x90>)
100033c2:	1e59      	subs	r1, r3, #1
100033c4:	6812      	ldr	r2, [r2, #0]
100033c6:	6993      	ldr	r3, [r2, #24]
100033c8:	06db      	lsls	r3, r3, #27
100033ca:	d417      	bmi.n	100033fc <stdio_uart_in_chars+0x4c>
100033cc:	3001      	adds	r0, #1
100033ce:	6993      	ldr	r3, [r2, #24]
100033d0:	06db      	lsls	r3, r3, #27
100033d2:	d4fc      	bmi.n	100033ce <stdio_uart_in_chars+0x1e>
100033d4:	6813      	ldr	r3, [r2, #0]
100033d6:	4584      	cmp	ip, r0
100033d8:	f801 3f01 	strb.w	r3, [r1, #1]!
100033dc:	d1f3      	bne.n	100033c6 <stdio_uart_in_chars+0x16>
100033de:	b14c      	cbz	r4, 100033f4 <stdio_uart_in_chars+0x44>
100033e0:	2150      	movs	r1, #80	@ 0x50
100033e2:	4613      	mov	r3, r2
100033e4:	6391      	str	r1, [r2, #56]	@ 0x38
100033e6:	f853 2f34 	ldr.w	r2, [r3, #52]!
100033ea:	f002 0238 	and.w	r2, r2, #56	@ 0x38
100033ee:	f503 5380 	add.w	r3, r3, #4096	@ 0x1000
100033f2:	601a      	str	r2, [r3, #0]
100033f4:	4660      	mov	r0, ip
100033f6:	f85d 4b04 	ldr.w	r4, [sp], #4
100033fa:	4770      	bx	lr
100033fc:	b14c      	cbz	r4, 10003412 <stdio_uart_in_chars+0x62>
100033fe:	2150      	movs	r1, #80	@ 0x50
10003400:	4613      	mov	r3, r2
10003402:	6391      	str	r1, [r2, #56]	@ 0x38
10003404:	f853 2f34 	ldr.w	r2, [r3, #52]!
10003408:	f002 0238 	and.w	r2, r2, #56	@ 0x38
1000340c:	f503 5380 	add.w	r3, r3, #4096	@ 0x1000
10003410:	601a      	str	r2, [r3, #0]
10003412:	b178      	cbz	r0, 10003434 <stdio_uart_in_chars+0x84>
10003414:	f85d 4b04 	ldr.w	r4, [sp], #4
10003418:	4770      	bx	lr
1000341a:	b15c      	cbz	r4, 10003434 <stdio_uart_in_chars+0x84>
1000341c:	4b08      	ldr	r3, [pc, #32]	@ (10003440 <stdio_uart_in_chars+0x90>)
1000341e:	2150      	movs	r1, #80	@ 0x50
10003420:	681a      	ldr	r2, [r3, #0]
10003422:	4613      	mov	r3, r2
10003424:	6391      	str	r1, [r2, #56]	@ 0x38
10003426:	f853 2f34 	ldr.w	r2, [r3, #52]!
1000342a:	f002 0238 	and.w	r2, r2, #56	@ 0x38
1000342e:	f503 5380 	add.w	r3, r3, #4096	@ 0x1000
10003432:	601a      	str	r2, [r3, #0]
10003434:	f06f 0002 	mvn.w	r0, #2
10003438:	e7dd      	b.n	100033f6 <stdio_uart_in_chars+0x46>
1000343a:	bf00      	nop
1000343c:	200007e0 	.word	0x200007e0
10003440:	20000860 	.word	0x20000860

10003444 <on_uart_rx>:
10003444:	4b05      	ldr	r3, [pc, #20]	@ (1000345c <on_uart_rx+0x18>)
10003446:	681b      	ldr	r3, [r3, #0]
10003448:	b133      	cbz	r3, 10003458 <on_uart_rx+0x14>
1000344a:	2100      	movs	r1, #0
1000344c:	4a04      	ldr	r2, [pc, #16]	@ (10003460 <on_uart_rx+0x1c>)
1000344e:	4805      	ldr	r0, [pc, #20]	@ (10003464 <on_uart_rx+0x20>)
10003450:	6812      	ldr	r2, [r2, #0]
10003452:	6800      	ldr	r0, [r0, #0]
10003454:	6391      	str	r1, [r2, #56]	@ 0x38
10003456:	4718      	bx	r3
10003458:	4770      	bx	lr
1000345a:	bf00      	nop
1000345c:	200007e0 	.word	0x200007e0
10003460:	20000860 	.word	0x20000860
10003464:	200007e4 	.word	0x200007e4

10003468 <stdio_uart_out_flush>:
10003468:	4b02      	ldr	r3, [pc, #8]	@ (10003474 <stdio_uart_out_flush+0xc>)
1000346a:	681a      	ldr	r2, [r3, #0]
1000346c:	6993      	ldr	r3, [r2, #24]
1000346e:	071b      	lsls	r3, r3, #28
10003470:	d4fc      	bmi.n	1000346c <stdio_uart_out_flush+0x4>
10003472:	4770      	bx	lr
10003474:	20000860 	.word	0x20000860

10003478 <stdio_uart_set_chars_available_callback>:
10003478:	b5f8      	push	{r3, r4, r5, r6, r7, lr}
1000347a:	4f1c      	ldr	r7, [pc, #112]	@ (100034ec <stdio_uart_set_chars_available_callback+0x74>)
1000347c:	4d1c      	ldr	r5, [pc, #112]	@ (100034f0 <stdio_uart_set_chars_available_callback+0x78>)
1000347e:	683a      	ldr	r2, [r7, #0]
10003480:	4e1c      	ldr	r6, [pc, #112]	@ (100034f4 <stdio_uart_set_chars_available_callback+0x7c>)
10003482:	42aa      	cmp	r2, r5
10003484:	bf14      	ite	ne
10003486:	2521      	movne	r5, #33	@ 0x21
10003488:	2522      	moveq	r5, #34	@ 0x22
1000348a:	4604      	mov	r4, r0
1000348c:	f8d6 c000 	ldr.w	ip, [r6]
10003490:	b118      	cbz	r0, 1000349a <stdio_uart_set_chars_available_callback+0x22>
10003492:	f1bc 0f00 	cmp.w	ip, #0
10003496:	d010      	beq.n	100034ba <stdio_uart_set_chars_available_callback+0x42>
10003498:	bdf8      	pop	{r3, r4, r5, r6, r7, pc}
1000349a:	f1bc 0f00 	cmp.w	ip, #0
1000349e:	d0fb      	beq.n	10003498 <stdio_uart_set_chars_available_callback+0x20>
100034a0:	4601      	mov	r1, r0
100034a2:	6390      	str	r0, [r2, #56]	@ 0x38
100034a4:	4628      	mov	r0, r5
100034a6:	f7fd f821 	bl	100004ec <irq_set_enabled>
100034aa:	4628      	mov	r0, r5
100034ac:	4912      	ldr	r1, [pc, #72]	@ (100034f8 <stdio_uart_set_chars_available_callback+0x80>)
100034ae:	f7fd f863 	bl	10000578 <irq_remove_handler>
100034b2:	4b12      	ldr	r3, [pc, #72]	@ (100034fc <stdio_uart_set_chars_available_callback+0x84>)
100034b4:	6034      	str	r4, [r6, #0]
100034b6:	601c      	str	r4, [r3, #0]
100034b8:	bdf8      	pop	{r3, r4, r5, r6, r7, pc}
100034ba:	460b      	mov	r3, r1
100034bc:	4a0f      	ldr	r2, [pc, #60]	@ (100034fc <stdio_uart_set_chars_available_callback+0x84>)
100034be:	490e      	ldr	r1, [pc, #56]	@ (100034f8 <stdio_uart_set_chars_available_callback+0x80>)
100034c0:	6030      	str	r0, [r6, #0]
100034c2:	4628      	mov	r0, r5
100034c4:	6013      	str	r3, [r2, #0]
100034c6:	f7fd f827 	bl	10000518 <irq_set_exclusive_handler>
100034ca:	2101      	movs	r1, #1
100034cc:	4628      	mov	r0, r5
100034ce:	f7fd f80d 	bl	100004ec <irq_set_enabled>
100034d2:	683a      	ldr	r2, [r7, #0]
100034d4:	2150      	movs	r1, #80	@ 0x50
100034d6:	4613      	mov	r3, r2
100034d8:	6391      	str	r1, [r2, #56]	@ 0x38
100034da:	f853 2f34 	ldr.w	r2, [r3, #52]!
100034de:	f002 0238 	and.w	r2, r2, #56	@ 0x38
100034e2:	f503 5380 	add.w	r3, r3, #4096	@ 0x1000
100034e6:	601a      	str	r2, [r3, #0]
100034e8:	bdf8      	pop	{r3, r4, r5, r6, r7, pc}
100034ea:	bf00      	nop
100034ec:	20000860 	.word	0x20000860
100034f0:	40078000 	.word	0x40078000
100034f4:	200007e0 	.word	0x200007e0
100034f8:	10003445 	.word	0x10003445
100034fc:	200007e4 	.word	0x200007e4

10003500 <stdio_uart_init>:
10003500:	b510      	push	{r4, lr}
10003502:	490e      	ldr	r1, [pc, #56]	@ (1000353c <stdio_uart_init+0x3c>)
10003504:	4c0e      	ldr	r4, [pc, #56]	@ (10003540 <stdio_uart_init+0x40>)
10003506:	480f      	ldr	r0, [pc, #60]	@ (10003544 <stdio_uart_init+0x44>)
10003508:	4a0f      	ldr	r2, [pc, #60]	@ (10003548 <stdio_uart_init+0x48>)
1000350a:	4b10      	ldr	r3, [pc, #64]	@ (1000354c <stdio_uart_init+0x4c>)
1000350c:	7800      	ldrb	r0, [r0, #0]
1000350e:	6021      	str	r1, [r4, #0]
10003510:	2000      	movs	r0, #0
10003512:	2102      	movs	r1, #2
10003514:	7812      	ldrb	r2, [r2, #0]
10003516:	781b      	ldrb	r3, [r3, #0]
10003518:	f7fc ff32 	bl	10000380 <gpio_set_function>
1000351c:	2102      	movs	r1, #2
1000351e:	2001      	movs	r0, #1
10003520:	f7fc ff2e 	bl	10000380 <gpio_set_function>
10003524:	f44f 31e1 	mov.w	r1, #115200	@ 0x1c200
10003528:	6820      	ldr	r0, [r4, #0]
1000352a:	f7fd fda1 	bl	10001070 <uart_init>
1000352e:	e8bd 4010 	ldmia.w	sp!, {r4, lr}
10003532:	2101      	movs	r1, #1
10003534:	4806      	ldr	r0, [pc, #24]	@ (10003550 <stdio_uart_init+0x50>)
10003536:	f7ff be29 	b.w	1000318c <stdio_set_driver_enabled>
1000353a:	bf00      	nop
1000353c:	40070000 	.word	0x40070000
10003540:	20000860 	.word	0x20000860
10003544:	10003ae8 	.word	0x10003ae8
10003548:	10003ae4 	.word	0x10003ae4
1000354c:	10003ae0 	.word	0x10003ae0
10003550:	2000060c 	.word	0x2000060c

10003554 <i2c_read_blocking_internal.constprop.0>:
10003554:	b570      	push	{r4, r5, r6, lr}
10003556:	2500      	movs	r5, #0
10003558:	2601      	movs	r6, #1
1000355a:	6804      	ldr	r4, [r0, #0]
1000355c:	2b00      	cmp	r3, #0
1000355e:	66e5      	str	r5, [r4, #108]	@ 0x6c
10003560:	4684      	mov	ip, r0
10003562:	6061      	str	r1, [r4, #4]
10003564:	4628      	mov	r0, r5
10003566:	f89d e010 	ldrb.w	lr, [sp, #16]
1000356a:	66e6      	str	r6, [r4, #108]	@ 0x6c
1000356c:	dd16      	ble.n	1000359c <i2c_read_blocking_internal.constprop.0+0x48>
1000356e:	1e5d      	subs	r5, r3, #1
10003570:	6f61      	ldr	r1, [r4, #116]	@ 0x74
10003572:	2910      	cmp	r1, #16
10003574:	d0fc      	beq.n	10003570 <i2c_read_blocking_internal.constprop.0+0x1c>
10003576:	b300      	cbz	r0, 100035ba <i2c_read_blocking_internal.constprop.0+0x66>
10003578:	2100      	movs	r1, #0
1000357a:	42a8      	cmp	r0, r5
1000357c:	bf04      	itt	eq
1000357e:	f08e 0601 	eoreq.w	r6, lr, #1
10003582:	ea41 2146 	orreq.w	r1, r1, r6, lsl #9
10003586:	f441 7180 	orr.w	r1, r1, #256	@ 0x100
1000358a:	6121      	str	r1, [r4, #16]
1000358c:	f8d4 1080 	ldr.w	r1, [r4, #128]	@ 0x80
10003590:	6b61      	ldr	r1, [r4, #52]	@ 0x34
10003592:	0649      	lsls	r1, r1, #25
10003594:	d505      	bpl.n	100035a2 <i2c_read_blocking_internal.constprop.0+0x4e>
10003596:	f04f 30ff 	mov.w	r0, #4294967295
1000359a:	6d63      	ldr	r3, [r4, #84]	@ 0x54
1000359c:	f88c e004 	strb.w	lr, [ip, #4]
100035a0:	bd70      	pop	{r4, r5, r6, pc}
100035a2:	6fa1      	ldr	r1, [r4, #120]	@ 0x78
100035a4:	2900      	cmp	r1, #0
100035a6:	d0f1      	beq.n	1000358c <i2c_read_blocking_internal.constprop.0+0x38>
100035a8:	6921      	ldr	r1, [r4, #16]
100035aa:	3001      	adds	r0, #1
100035ac:	4283      	cmp	r3, r0
100035ae:	f802 1b01 	strb.w	r1, [r2], #1
100035b2:	d0f3      	beq.n	1000359c <i2c_read_blocking_internal.constprop.0+0x48>
100035b4:	f8dc 4000 	ldr.w	r4, [ip]
100035b8:	e7da      	b.n	10003570 <i2c_read_blocking_internal.constprop.0+0x1c>
100035ba:	f89c 1004 	ldrb.w	r1, [ip, #4]
100035be:	0289      	lsls	r1, r1, #10
100035c0:	e7db      	b.n	1000357a <i2c_read_blocking_internal.constprop.0+0x26>
100035c2:	bf00      	nop

100035c4 <i2c_set_baudrate>:
100035c4:	b5f8      	push	{r3, r4, r5, r6, r7, lr}
100035c6:	4604      	mov	r4, r0
100035c8:	2005      	movs	r0, #5
100035ca:	460f      	mov	r7, r1
100035cc:	f7fd fe3a 	bl	10001244 <clock_get_hz>
100035d0:	eb00 0c57 	add.w	ip, r0, r7, lsr #1
100035d4:	fbbc fcf7 	udiv	ip, ip, r7
100035d8:	4d20      	ldr	r5, [pc, #128]	@ (1000365c <i2c_set_baudrate+0x98>)
100035da:	eb0c 024c 	add.w	r2, ip, ip, lsl #1
100035de:	fba5 6502 	umull	r6, r5, r5, r2
100035e2:	491f      	ldr	r1, [pc, #124]	@ (10003660 <i2c_set_baudrate+0x9c>)
100035e4:	08ae      	lsrs	r6, r5, #2
100035e6:	428f      	cmp	r7, r1
100035e8:	eb00 0340 	add.w	r3, r0, r0, lsl #1
100035ec:	ebac 0595 	sub.w	r5, ip, r5, lsr #2
100035f0:	d82e      	bhi.n	10003650 <i2c_set_baudrate+0x8c>
100035f2:	f101 41d6 	add.w	r1, r1, #1795162112	@ 0x6b000000
100035f6:	f501 01a1 	add.w	r1, r1, #5275648	@ 0x508000
100035fa:	f601 012c 	addw	r1, r1, #2092	@ 0x82c
100035fe:	fba1 1303 	umull	r1, r3, r1, r3
10003602:	0d9b      	lsrs	r3, r3, #22
10003604:	3301      	adds	r3, #1
10003606:	2100      	movs	r1, #0
10003608:	2a4f      	cmp	r2, #79	@ 0x4f
1000360a:	bf98      	it	ls
1000360c:	2201      	movls	r2, #1
1000360e:	6824      	ldr	r4, [r4, #0]
10003610:	fbb0 f0fc 	udiv	r0, r0, ip
10003614:	66e1      	str	r1, [r4, #108]	@ 0x6c
10003616:	6821      	ldr	r1, [r4, #0]
10003618:	f504 5780 	add.w	r7, r4, #4096	@ 0x1000
1000361c:	f081 0104 	eor.w	r1, r1, #4
10003620:	f001 0106 	and.w	r1, r1, #6
10003624:	6039      	str	r1, [r7, #0]
10003626:	bf88      	it	hi
10003628:	490c      	ldrhi	r1, [pc, #48]	@ (1000365c <i2c_set_baudrate+0x98>)
1000362a:	61e5      	str	r5, [r4, #28]
1000362c:	bf84      	itt	hi
1000362e:	fba1 1202 	umullhi	r1, r2, r1, r2
10003632:	0992      	lsrhi	r2, r2, #6
10003634:	6226      	str	r6, [r4, #32]
10003636:	f8c4 20a0 	str.w	r2, [r4, #160]	@ 0xa0
1000363a:	4622      	mov	r2, r4
1000363c:	2101      	movs	r1, #1
1000363e:	f852 5f7c 	ldr.w	r5, [r2, #124]!
10003642:	406b      	eors	r3, r5
10003644:	b29b      	uxth	r3, r3
10003646:	f502 5280 	add.w	r2, r2, #4096	@ 0x1000
1000364a:	6013      	str	r3, [r2, #0]
1000364c:	66e1      	str	r1, [r4, #108]	@ 0x6c
1000364e:	bdf8      	pop	{r3, r4, r5, r6, r7, pc}
10003650:	4904      	ldr	r1, [pc, #16]	@ (10003664 <i2c_set_baudrate+0xa0>)
10003652:	fba1 1303 	umull	r1, r3, r1, r3
10003656:	0ddb      	lsrs	r3, r3, #23
10003658:	3301      	adds	r3, #1
1000365a:	e7d4      	b.n	10003606 <i2c_set_baudrate+0x42>
1000365c:	cccccccd 	.word	0xcccccccd
10003660:	000f423f 	.word	0x000f423f
10003664:	55e63b89 	.word	0x55e63b89

10003668 <i2c_init>:
10003668:	4a0e      	ldr	r2, [pc, #56]	@ (100036a4 <i2c_init+0x3c>)
1000366a:	b430      	push	{r4, r5}
1000366c:	4290      	cmp	r0, r2
1000366e:	bf14      	ite	ne
10003670:	2220      	movne	r2, #32
10003672:	2210      	moveq	r2, #16
10003674:	4d0c      	ldr	r5, [pc, #48]	@ (100036a8 <i2c_init+0x40>)
10003676:	4b0d      	ldr	r3, [pc, #52]	@ (100036ac <i2c_init+0x44>)
10003678:	4c0d      	ldr	r4, [pc, #52]	@ (100036b0 <i2c_init+0x48>)
1000367a:	602a      	str	r2, [r5, #0]
1000367c:	601a      	str	r2, [r3, #0]
1000367e:	68a3      	ldr	r3, [r4, #8]
10003680:	ea32 0303 	bics.w	r3, r2, r3
10003684:	d1fb      	bne.n	1000367e <i2c_init+0x16>
10003686:	f240 1565 	movw	r5, #357	@ 0x165
1000368a:	2403      	movs	r4, #3
1000368c:	6802      	ldr	r2, [r0, #0]
1000368e:	7103      	strb	r3, [r0, #4]
10003690:	66d3      	str	r3, [r2, #108]	@ 0x6c
10003692:	6015      	str	r5, [r2, #0]
10003694:	63d3      	str	r3, [r2, #60]	@ 0x3c
10003696:	6393      	str	r3, [r2, #56]	@ 0x38
10003698:	f8c2 4088 	str.w	r4, [r2, #136]	@ 0x88
1000369c:	bc30      	pop	{r4, r5}
1000369e:	f7ff bf91 	b.w	100035c4 <i2c_set_baudrate>
100036a2:	bf00      	nop
100036a4:	2000062c 	.word	0x2000062c
100036a8:	40022000 	.word	0x40022000
100036ac:	40023000 	.word	0x40023000
100036b0:	40020000 	.word	0x40020000

100036b4 <i2c_read_blocking>:
100036b4:	b410      	push	{r4}
100036b6:	f89d 4004 	ldrb.w	r4, [sp, #4]
100036ba:	9401      	str	r4, [sp, #4]
100036bc:	f85d 4b04 	ldr.w	r4, [sp], #4
100036c0:	f7ff bf48 	b.w	10003554 <i2c_read_blocking_internal.constprop.0>

100036c4 <memcpy>:
100036c4:	4684      	mov	ip, r0
100036c6:	ea41 0300 	orr.w	r3, r1, r0
100036ca:	f013 0303 	ands.w	r3, r3, #3
100036ce:	d149      	bne.n	10003764 <memcpy+0xa0>
100036d0:	3a40      	subs	r2, #64	@ 0x40
100036d2:	d323      	bcc.n	1000371c <memcpy+0x58>
100036d4:	680b      	ldr	r3, [r1, #0]
100036d6:	6003      	str	r3, [r0, #0]
100036d8:	684b      	ldr	r3, [r1, #4]
100036da:	6043      	str	r3, [r0, #4]
100036dc:	688b      	ldr	r3, [r1, #8]
100036de:	6083      	str	r3, [r0, #8]
100036e0:	68cb      	ldr	r3, [r1, #12]
100036e2:	60c3      	str	r3, [r0, #12]
100036e4:	690b      	ldr	r3, [r1, #16]
100036e6:	6103      	str	r3, [r0, #16]
100036e8:	694b      	ldr	r3, [r1, #20]
100036ea:	6143      	str	r3, [r0, #20]
100036ec:	698b      	ldr	r3, [r1, #24]
100036ee:	6183      	str	r3, [r0, #24]
100036f0:	69cb      	ldr	r3, [r1, #28]
100036f2:	61c3      	str	r3, [r0, #28]
100036f4:	6a0b      	ldr	r3, [r1, #32]
100036f6:	6203      	str	r3, [r0, #32]
100036f8:	6a4b      	ldr	r3, [r1, #36]	@ 0x24
100036fa:	6243      	str	r3, [r0, #36]	@ 0x24
100036fc:	6a8b      	ldr	r3, [r1, #40]	@ 0x28
100036fe:	6283      	str	r3, [r0, #40]	@ 0x28
10003700:	6acb      	ldr	r3, [r1, #44]	@ 0x2c
10003702:	62c3      	str	r3, [r0, #44]	@ 0x2c
10003704:	6b0b      	ldr	r3, [r1, #48]	@ 0x30
10003706:	6303      	str	r3, [r0, #48]	@ 0x30
10003708:	6b4b      	ldr	r3, [r1, #52]	@ 0x34
1000370a:	6343      	str	r3, [r0, #52]	@ 0x34
1000370c:	6b8b      	ldr	r3, [r1, #56]	@ 0x38
1000370e:	6383      	str	r3, [r0, #56]	@ 0x38
10003710:	6bcb      	ldr	r3, [r1, #60]	@ 0x3c
10003712:	63c3      	str	r3, [r0, #60]	@ 0x3c
10003714:	3040      	adds	r0, #64	@ 0x40
10003716:	3140      	adds	r1, #64	@ 0x40
10003718:	3a40      	subs	r2, #64	@ 0x40
1000371a:	d2db      	bcs.n	100036d4 <memcpy+0x10>
1000371c:	3230      	adds	r2, #48	@ 0x30
1000371e:	d30b      	bcc.n	10003738 <memcpy+0x74>
10003720:	680b      	ldr	r3, [r1, #0]
10003722:	6003      	str	r3, [r0, #0]
10003724:	684b      	ldr	r3, [r1, #4]
10003726:	6043      	str	r3, [r0, #4]
10003728:	688b      	ldr	r3, [r1, #8]
1000372a:	6083      	str	r3, [r0, #8]
1000372c:	68cb      	ldr	r3, [r1, #12]
1000372e:	60c3      	str	r3, [r0, #12]
10003730:	3010      	adds	r0, #16
10003732:	3110      	adds	r1, #16
10003734:	3a10      	subs	r2, #16
10003736:	d2f3      	bcs.n	10003720 <memcpy+0x5c>
10003738:	320c      	adds	r2, #12
1000373a:	d305      	bcc.n	10003748 <memcpy+0x84>
1000373c:	f851 3b04 	ldr.w	r3, [r1], #4
10003740:	f840 3b04 	str.w	r3, [r0], #4
10003744:	3a04      	subs	r2, #4
10003746:	d2f9      	bcs.n	1000373c <memcpy+0x78>
10003748:	3204      	adds	r2, #4
1000374a:	d008      	beq.n	1000375e <memcpy+0x9a>
1000374c:	07d2      	lsls	r2, r2, #31
1000374e:	bf1c      	itt	ne
10003750:	f811 3b01 	ldrbne.w	r3, [r1], #1
10003754:	f800 3b01 	strbne.w	r3, [r0], #1
10003758:	d301      	bcc.n	1000375e <memcpy+0x9a>
1000375a:	880b      	ldrh	r3, [r1, #0]
1000375c:	8003      	strh	r3, [r0, #0]
1000375e:	4660      	mov	r0, ip
10003760:	4770      	bx	lr
10003762:	bf00      	nop
10003764:	2a08      	cmp	r2, #8
10003766:	d313      	bcc.n	10003790 <memcpy+0xcc>
10003768:	078b      	lsls	r3, r1, #30
1000376a:	d0b1      	beq.n	100036d0 <memcpy+0xc>
1000376c:	f010 0303 	ands.w	r3, r0, #3
10003770:	d0ae      	beq.n	100036d0 <memcpy+0xc>
10003772:	f1c3 0304 	rsb	r3, r3, #4
10003776:	1ad2      	subs	r2, r2, r3
10003778:	07db      	lsls	r3, r3, #31
1000377a:	bf1c      	itt	ne
1000377c:	f811 3b01 	ldrbne.w	r3, [r1], #1
10003780:	f800 3b01 	strbne.w	r3, [r0], #1
10003784:	d3a4      	bcc.n	100036d0 <memcpy+0xc>
10003786:	f831 3b02 	ldrh.w	r3, [r1], #2
1000378a:	f820 3b02 	strh.w	r3, [r0], #2
1000378e:	e79f      	b.n	100036d0 <memcpy+0xc>
10003790:	3a04      	subs	r2, #4
10003792:	d3d9      	bcc.n	10003748 <memcpy+0x84>
10003794:	3a01      	subs	r2, #1
10003796:	f811 3b01 	ldrb.w	r3, [r1], #1
1000379a:	f800 3b01 	strb.w	r3, [r0], #1
1000379e:	d2f9      	bcs.n	10003794 <memcpy+0xd0>
100037a0:	780b      	ldrb	r3, [r1, #0]
100037a2:	7003      	strb	r3, [r0, #0]
100037a4:	784b      	ldrb	r3, [r1, #1]
100037a6:	7043      	strb	r3, [r0, #1]
100037a8:	788b      	ldrb	r3, [r1, #2]
100037aa:	7083      	strb	r3, [r0, #2]
100037ac:	4660      	mov	r0, ip
100037ae:	4770      	bx	lr

100037b0 <strlen>:
100037b0:	f020 0103 	bic.w	r1, r0, #3
100037b4:	f010 0003 	ands.w	r0, r0, #3
100037b8:	f1c0 0000 	rsb	r0, r0, #0
100037bc:	f851 3b04 	ldr.w	r3, [r1], #4
100037c0:	f100 0c04 	add.w	ip, r0, #4
100037c4:	ea4f 0ccc 	mov.w	ip, ip, lsl #3
100037c8:	f06f 0200 	mvn.w	r2, #0
100037cc:	bf1c      	itt	ne
100037ce:	fa22 f20c 	lsrne.w	r2, r2, ip
100037d2:	4313      	orrne	r3, r2
100037d4:	f04f 0c01 	mov.w	ip, #1
100037d8:	ea4c 2c0c 	orr.w	ip, ip, ip, lsl #8
100037dc:	ea4c 4c0c 	orr.w	ip, ip, ip, lsl #16
100037e0:	eba3 020c 	sub.w	r2, r3, ip
100037e4:	ea22 0203 	bic.w	r2, r2, r3
100037e8:	ea12 12cc 	ands.w	r2, r2, ip, lsl #7
100037ec:	bf04      	itt	eq
100037ee:	f851 3b04 	ldreq.w	r3, [r1], #4
100037f2:	3004      	addeq	r0, #4
100037f4:	d0f4      	beq.n	100037e0 <strlen+0x30>
100037f6:	f1c2 0100 	rsb	r1, r2, #0
100037fa:	ea02 0201 	and.w	r2, r2, r1
100037fe:	fab2 f282 	clz	r2, r2
10003802:	f1c2 021f 	rsb	r2, r2, #31
10003806:	eb00 00d2 	add.w	r0, r0, r2, lsr #3
1000380a:	4770      	bx	lr

1000380c <_fini>:
1000380c:	b5f8      	push	{r3, r4, r5, r6, r7, lr}
1000380e:	bf00      	nop

10003810 <____aeabi_uldivmod_veneer>:
10003810:	f85f f000 	ldr.w	pc, [pc]	@ 10003814 <____aeabi_uldivmod_veneer+0x4>
10003814:	20000221 	.word	0x20000221

10003818 <__mutex_exit_veneer>:
10003818:	f85f f000 	ldr.w	pc, [pc]	@ 1000381c <__mutex_exit_veneer+0x4>
1000381c:	200001e5 	.word	0x200001e5

10003820 <__mutex_try_enter_block_until_veneer>:
10003820:	f85f f000 	ldr.w	pc, [pc]	@ 10003824 <__mutex_try_enter_block_until_veneer+0x4>
10003824:	2000017d 	.word	0x2000017d

10003828 <__pre_init_runtime_init_bootrom_reset>:
10003828:	10001429                                )...

1000382c <__pre_init_runtime_init_early_resets>:
1000382c:	1000139d                                ....

10003830 <__pre_init_runtime_init_usb_power_down>:
10003830:	100013d1                                ....

10003834 <__pre_init_runtime_init_clocks>:
10003834:	100014bd                                ....

10003838 <__pre_init_runtime_init_post_clock_resets>:
10003838:	10001409                                ....

1000383c <__pre_init_runtime_init_boot_locks_reset>:
1000383c:	10001321                                !...

10003840 <__pre_init_runtime_init_spin_locks_reset>:
10003840:	10001451                                Q...

10003844 <__pre_init_runtime_init_bootrom_locking_enable>:
10003844:	1000130d                                ....

10003848 <__pre_init_runtime_init_mutex>:
10003848:	10000835                                5...

1000384c <__pre_init_runtime_init_install_ram_vector_table>:
1000384c:	10001455                                U...

10003850 <__pre_init_runtime_init_default_alarm_pool>:
10003850:	10000bb1                                ....

10003854 <__pre_init_first_per_core_initializer>:
10003854:	1000136d                                m...

10003858 <__pre_init_runtime_init_per_core_bootrom_reset>:
10003858:	1000143d                                =...

1000385c <__pre_init_runtime_init_per_core_enable_coprocessors>:
1000385c:	100013ed                                ....

10003860 <__pre_init_spinlock_set_extexclall>:
10003860:	10000485                                ....

10003864 <__pre_init_runtime_init_per_core_irq_priorities>:
10003864:	100004ad                                ....

10003868 <__frame_dummy_init_array_entry>:
10003868:	10000211                                ....

Disassembly of section .data:

20000110 <mutex_enter_block_until>:
20000110:	f04f 4150 	mov.w	r1, #3489660928	@ 0xd0000000
20000114:	e92d 41f0 	stmdb	sp!, {r4, r5, r6, r7, r8, lr}
20000118:	2700      	movs	r7, #0
2000011a:	4604      	mov	r4, r0
2000011c:	4616      	mov	r6, r2
2000011e:	461d      	mov	r5, r3
20000120:	f8d1 8000 	ldr.w	r8, [r1]
20000124:	e008      	b.n	20000138 <mutex_enter_block_until+0x28>
20000126:	e8c1 7f8f 	stlb	r7, [r1]
2000012a:	f38c 8810 	msr	PRIMASK, ip
2000012e:	4630      	mov	r0, r6
20000130:	4629      	mov	r1, r5
20000132:	f000 fa35 	bl	200005a0 <__best_effort_wfe_or_timeout_veneer>
20000136:	b9e8      	cbnz	r0, 20000174 <mutex_enter_block_until+0x64>
20000138:	6821      	ldr	r1, [r4, #0]
2000013a:	f3ef 8c10 	mrs	ip, PRIMASK
2000013e:	b672      	cpsid	i
20000140:	e8d1 2fcf 	ldaexb	r2, [r1]
20000144:	2301      	movs	r3, #1
20000146:	2a00      	cmp	r2, #0
20000148:	d1fa      	bne.n	20000140 <mutex_enter_block_until+0x30>
2000014a:	e8c1 3f42 	strexb	r2, r3, [r1]
2000014e:	2a00      	cmp	r2, #0
20000150:	d1f6      	bne.n	20000140 <mutex_enter_block_until+0x30>
20000152:	f3bf 8f5f 	dmb	sy
20000156:	f994 3004 	ldrsb.w	r3, [r4, #4]
2000015a:	6821      	ldr	r1, [r4, #0]
2000015c:	2b00      	cmp	r3, #0
2000015e:	dae2      	bge.n	20000126 <mutex_enter_block_until+0x16>
20000160:	2300      	movs	r3, #0
20000162:	f884 8004 	strb.w	r8, [r4, #4]
20000166:	e8c1 3f8f 	stlb	r3, [r1]
2000016a:	f38c 8810 	msr	PRIMASK, ip
2000016e:	2001      	movs	r0, #1
20000170:	e8bd 81f0 	ldmia.w	sp!, {r4, r5, r6, r7, r8, pc}
20000174:	2000      	movs	r0, #0
20000176:	e8bd 81f0 	ldmia.w	sp!, {r4, r5, r6, r7, r8, pc}
2000017a:	bf00      	nop

2000017c <mutex_try_enter_block_until>:
2000017c:	b530      	push	{r4, r5, lr}
2000017e:	6804      	ldr	r4, [r0, #0]
20000180:	f3ef 8c10 	mrs	ip, PRIMASK
20000184:	b672      	cpsid	i
20000186:	e8d4 efcf 	ldaexb	lr, [r4]
2000018a:	2501      	movs	r5, #1
2000018c:	f1be 0f00 	cmp.w	lr, #0
20000190:	d1f9      	bne.n	20000186 <mutex_try_enter_block_until+0xa>
20000192:	e8c4 5f4e 	strexb	lr, r5, [r4]
20000196:	f1be 0f00 	cmp.w	lr, #0
2000019a:	d1f4      	bne.n	20000186 <mutex_try_enter_block_until+0xa>
2000019c:	f3bf 8f5f 	dmb	sy
200001a0:	f990 4004 	ldrsb.w	r4, [r0, #4]
200001a4:	6805      	ldr	r5, [r0, #0]
200001a6:	2c00      	cmp	r4, #0
200001a8:	db10      	blt.n	200001cc <mutex_try_enter_block_until+0x50>
200001aa:	2100      	movs	r1, #0
200001ac:	e8c5 1f8f 	stlb	r1, [r5]
200001b0:	f38c 8810 	msr	PRIMASK, ip
200001b4:	f04f 4550 	mov.w	r5, #3489660928	@ 0xd0000000
200001b8:	f995 5000 	ldrsb.w	r5, [r5]
200001bc:	42a5      	cmp	r5, r4
200001be:	d101      	bne.n	200001c4 <mutex_try_enter_block_until+0x48>
200001c0:	4608      	mov	r0, r1
200001c2:	bd30      	pop	{r4, r5, pc}
200001c4:	e8bd 4030 	ldmia.w	sp!, {r4, r5, lr}
200001c8:	f7ff bfa2 	b.w	20000110 <mutex_enter_block_until>
200001cc:	f04f 4250 	mov.w	r2, #3489660928	@ 0xd0000000
200001d0:	6812      	ldr	r2, [r2, #0]
200001d2:	2300      	movs	r3, #0
200001d4:	7102      	strb	r2, [r0, #4]
200001d6:	e8c5 3f8f 	stlb	r3, [r5]
200001da:	f38c 8810 	msr	PRIMASK, ip
200001de:	2001      	movs	r0, #1
200001e0:	bd30      	pop	{r4, r5, pc}
200001e2:	bf00      	nop

200001e4 <mutex_exit>:
200001e4:	6803      	ldr	r3, [r0, #0]
200001e6:	f3ef 8210 	mrs	r2, PRIMASK
200001ea:	b672      	cpsid	i
200001ec:	e8d3 cfcf 	ldaexb	ip, [r3]
200001f0:	2101      	movs	r1, #1
200001f2:	f1bc 0f00 	cmp.w	ip, #0
200001f6:	d1f9      	bne.n	200001ec <mutex_exit+0x8>
200001f8:	e8c3 1f4c 	strexb	ip, r1, [r3]
200001fc:	f1bc 0f00 	cmp.w	ip, #0
20000200:	d1f4      	bne.n	200001ec <mutex_exit+0x8>
20000202:	f3bf 8f5f 	dmb	sy
20000206:	f04f 0cff 	mov.w	ip, #255	@ 0xff
2000020a:	2300      	movs	r3, #0
2000020c:	6801      	ldr	r1, [r0, #0]
2000020e:	f880 c004 	strb.w	ip, [r0, #4]
20000212:	e8c1 3f8f 	stlb	r3, [r1]
20000216:	f382 8810 	msr	PRIMASK, r2
2000021a:	bf40      	sev
2000021c:	4770      	bx	lr
2000021e:	bf00      	nop

20000220 <__aeabi_uldivmod>:
20000220:	b953      	cbnz	r3, 20000238 <__aeabi_uldivmod+0x18>
20000222:	b94a      	cbnz	r2, 20000238 <__aeabi_uldivmod+0x18>
20000224:	2900      	cmp	r1, #0
20000226:	bf08      	it	eq
20000228:	2800      	cmpeq	r0, #0
2000022a:	bf1c      	itt	ne
2000022c:	f04f 31ff 	movne.w	r1, #4294967295
20000230:	f04f 30ff 	movne.w	r0, #4294967295
20000234:	f000 b9b2 	b.w	2000059c <__aeabi_idiv0>
20000238:	f1ad 0c08 	sub.w	ip, sp, #8
2000023c:	e96d ce04 	strd	ip, lr, [sp, #-16]!
20000240:	f000 f806 	bl	20000250 <__udivmoddi4>
20000244:	f8dd e004 	ldr.w	lr, [sp, #4]
20000248:	e9dd 2302 	ldrd	r2, r3, [sp, #8]
2000024c:	b004      	add	sp, #16
2000024e:	4770      	bx	lr

20000250 <__udivmoddi4>:
20000250:	e92d 4ff0 	stmdb	sp!, {r4, r5, r6, r7, r8, r9, sl, fp, lr}
20000254:	468c      	mov	ip, r1
20000256:	9e09      	ldr	r6, [sp, #36]	@ 0x24
20000258:	4604      	mov	r4, r0
2000025a:	460f      	mov	r7, r1
2000025c:	2b00      	cmp	r3, #0
2000025e:	d148      	bne.n	200002f2 <__udivmoddi4+0xa2>
20000260:	428a      	cmp	r2, r1
20000262:	4615      	mov	r5, r2
20000264:	d95e      	bls.n	20000324 <__udivmoddi4+0xd4>
20000266:	fab2 f382 	clz	r3, r2
2000026a:	b13b      	cbz	r3, 2000027c <__udivmoddi4+0x2c>
2000026c:	f1c3 0220 	rsb	r2, r3, #32
20000270:	409f      	lsls	r7, r3
20000272:	409d      	lsls	r5, r3
20000274:	409c      	lsls	r4, r3
20000276:	fa20 f202 	lsr.w	r2, r0, r2
2000027a:	4317      	orrs	r7, r2
2000027c:	ea4f 4e15 	mov.w	lr, r5, lsr #16
20000280:	fa1f fc85 	uxth.w	ip, r5
20000284:	0c22      	lsrs	r2, r4, #16
20000286:	fbb7 f1fe 	udiv	r1, r7, lr
2000028a:	fb0e 7711 	mls	r7, lr, r1, r7
2000028e:	fb01 f00c 	mul.w	r0, r1, ip
20000292:	ea42 4207 	orr.w	r2, r2, r7, lsl #16
20000296:	4290      	cmp	r0, r2
20000298:	d907      	bls.n	200002aa <__udivmoddi4+0x5a>
2000029a:	18aa      	adds	r2, r5, r2
2000029c:	f101 37ff 	add.w	r7, r1, #4294967295
200002a0:	d202      	bcs.n	200002a8 <__udivmoddi4+0x58>
200002a2:	4290      	cmp	r0, r2
200002a4:	f200 8158 	bhi.w	20000558 <__udivmoddi4+0x308>
200002a8:	4639      	mov	r1, r7
200002aa:	1a12      	subs	r2, r2, r0
200002ac:	b2a4      	uxth	r4, r4
200002ae:	fbb2 f0fe 	udiv	r0, r2, lr
200002b2:	fb0e 2210 	mls	r2, lr, r0, r2
200002b6:	fb00 fc0c 	mul.w	ip, r0, ip
200002ba:	ea44 4402 	orr.w	r4, r4, r2, lsl #16
200002be:	45a4      	cmp	ip, r4
200002c0:	d90b      	bls.n	200002da <__udivmoddi4+0x8a>
200002c2:	192c      	adds	r4, r5, r4
200002c4:	f100 32ff 	add.w	r2, r0, #4294967295
200002c8:	bf2c      	ite	cs
200002ca:	2701      	movcs	r7, #1
200002cc:	2700      	movcc	r7, #0
200002ce:	45a4      	cmp	ip, r4
200002d0:	d902      	bls.n	200002d8 <__udivmoddi4+0x88>
200002d2:	2f00      	cmp	r7, #0
200002d4:	f000 8143 	beq.w	2000055e <__udivmoddi4+0x30e>
200002d8:	4610      	mov	r0, r2
200002da:	ea40 4001 	orr.w	r0, r0, r1, lsl #16
200002de:	eba4 040c 	sub.w	r4, r4, ip
200002e2:	2100      	movs	r1, #0
200002e4:	b11e      	cbz	r6, 200002ee <__udivmoddi4+0x9e>
200002e6:	40dc      	lsrs	r4, r3
200002e8:	2300      	movs	r3, #0
200002ea:	e9c6 4300 	strd	r4, r3, [r6]
200002ee:	e8bd 8ff0 	ldmia.w	sp!, {r4, r5, r6, r7, r8, r9, sl, fp, pc}
200002f2:	428b      	cmp	r3, r1
200002f4:	d906      	bls.n	20000304 <__udivmoddi4+0xb4>
200002f6:	b10e      	cbz	r6, 200002fc <__udivmoddi4+0xac>
200002f8:	e9c6 0100 	strd	r0, r1, [r6]
200002fc:	2100      	movs	r1, #0
200002fe:	4608      	mov	r0, r1
20000300:	e8bd 8ff0 	ldmia.w	sp!, {r4, r5, r6, r7, r8, r9, sl, fp, pc}
20000304:	fab3 f183 	clz	r1, r3
20000308:	2900      	cmp	r1, #0
2000030a:	d151      	bne.n	200003b0 <__udivmoddi4+0x160>
2000030c:	4563      	cmp	r3, ip
2000030e:	f0c0 8116 	bcc.w	2000053e <__udivmoddi4+0x2ee>
20000312:	4282      	cmp	r2, r0
20000314:	f240 8113 	bls.w	2000053e <__udivmoddi4+0x2ee>
20000318:	4608      	mov	r0, r1
2000031a:	2e00      	cmp	r6, #0
2000031c:	d0e7      	beq.n	200002ee <__udivmoddi4+0x9e>
2000031e:	e9c6 4700 	strd	r4, r7, [r6]
20000322:	e7e4      	b.n	200002ee <__udivmoddi4+0x9e>
20000324:	2a00      	cmp	r2, #0
20000326:	f000 80af 	beq.w	20000488 <__udivmoddi4+0x238>
2000032a:	fab2 f382 	clz	r3, r2
2000032e:	2b00      	cmp	r3, #0
20000330:	f040 80c2 	bne.w	200004b8 <__udivmoddi4+0x268>
20000334:	1a8a      	subs	r2, r1, r2
20000336:	ea4f 4e15 	mov.w	lr, r5, lsr #16
2000033a:	b2af      	uxth	r7, r5
2000033c:	2101      	movs	r1, #1
2000033e:	0c20      	lsrs	r0, r4, #16
20000340:	fbb2 fcfe 	udiv	ip, r2, lr
20000344:	fb0e 221c 	mls	r2, lr, ip, r2
20000348:	ea40 4202 	orr.w	r2, r0, r2, lsl #16
2000034c:	fb07 f00c 	mul.w	r0, r7, ip
20000350:	4290      	cmp	r0, r2
20000352:	d90e      	bls.n	20000372 <__udivmoddi4+0x122>
20000354:	18aa      	adds	r2, r5, r2
20000356:	f10c 38ff 	add.w	r8, ip, #4294967295
2000035a:	bf2c      	ite	cs
2000035c:	f04f 0901 	movcs.w	r9, #1
20000360:	f04f 0900 	movcc.w	r9, #0
20000364:	4290      	cmp	r0, r2
20000366:	d903      	bls.n	20000370 <__udivmoddi4+0x120>
20000368:	f1b9 0f00 	cmp.w	r9, #0
2000036c:	f000 80f0 	beq.w	20000550 <__udivmoddi4+0x300>
20000370:	46c4      	mov	ip, r8
20000372:	1a12      	subs	r2, r2, r0
20000374:	b2a4      	uxth	r4, r4
20000376:	fbb2 f0fe 	udiv	r0, r2, lr
2000037a:	fb0e 2210 	mls	r2, lr, r0, r2
2000037e:	fb00 f707 	mul.w	r7, r0, r7
20000382:	ea44 4402 	orr.w	r4, r4, r2, lsl #16
20000386:	42a7      	cmp	r7, r4
20000388:	d90e      	bls.n	200003a8 <__udivmoddi4+0x158>
2000038a:	192c      	adds	r4, r5, r4
2000038c:	f100 32ff 	add.w	r2, r0, #4294967295
20000390:	bf2c      	ite	cs
20000392:	f04f 0e01 	movcs.w	lr, #1
20000396:	f04f 0e00 	movcc.w	lr, #0
2000039a:	42a7      	cmp	r7, r4
2000039c:	d903      	bls.n	200003a6 <__udivmoddi4+0x156>
2000039e:	f1be 0f00 	cmp.w	lr, #0
200003a2:	f000 80d2 	beq.w	2000054a <__udivmoddi4+0x2fa>
200003a6:	4610      	mov	r0, r2
200003a8:	1be4      	subs	r4, r4, r7
200003aa:	ea40 400c 	orr.w	r0, r0, ip, lsl #16
200003ae:	e799      	b.n	200002e4 <__udivmoddi4+0x94>
200003b0:	f1c1 0520 	rsb	r5, r1, #32
200003b4:	408b      	lsls	r3, r1
200003b6:	fa0c f401 	lsl.w	r4, ip, r1
200003ba:	fa00 f901 	lsl.w	r9, r0, r1
200003be:	fa22 f705 	lsr.w	r7, r2, r5
200003c2:	fa2c fc05 	lsr.w	ip, ip, r5
200003c6:	408a      	lsls	r2, r1
200003c8:	431f      	orrs	r7, r3
200003ca:	fa20 f305 	lsr.w	r3, r0, r5
200003ce:	0c38      	lsrs	r0, r7, #16
200003d0:	4323      	orrs	r3, r4
200003d2:	fa1f fe87 	uxth.w	lr, r7
200003d6:	0c1c      	lsrs	r4, r3, #16
200003d8:	fbbc f8f0 	udiv	r8, ip, r0
200003dc:	fb00 cc18 	mls	ip, r0, r8, ip
200003e0:	ea44 440c 	orr.w	r4, r4, ip, lsl #16
200003e4:	fb08 fc0e 	mul.w	ip, r8, lr
200003e8:	45a4      	cmp	ip, r4
200003ea:	d90e      	bls.n	2000040a <__udivmoddi4+0x1ba>
200003ec:	193c      	adds	r4, r7, r4
200003ee:	f108 3aff 	add.w	sl, r8, #4294967295
200003f2:	bf2c      	ite	cs
200003f4:	f04f 0b01 	movcs.w	fp, #1
200003f8:	f04f 0b00 	movcc.w	fp, #0
200003fc:	45a4      	cmp	ip, r4
200003fe:	d903      	bls.n	20000408 <__udivmoddi4+0x1b8>
20000400:	f1bb 0f00 	cmp.w	fp, #0
20000404:	f000 80b8 	beq.w	20000578 <__udivmoddi4+0x328>
20000408:	46d0      	mov	r8, sl
2000040a:	eba4 040c 	sub.w	r4, r4, ip
2000040e:	fa1f fc83 	uxth.w	ip, r3
20000412:	fbb4 f3f0 	udiv	r3, r4, r0
20000416:	fb00 4413 	mls	r4, r0, r3, r4
2000041a:	fb03 fe0e 	mul.w	lr, r3, lr
2000041e:	ea4c 4404 	orr.w	r4, ip, r4, lsl #16
20000422:	45a6      	cmp	lr, r4
20000424:	d90e      	bls.n	20000444 <__udivmoddi4+0x1f4>
20000426:	193c      	adds	r4, r7, r4
20000428:	f103 30ff 	add.w	r0, r3, #4294967295
2000042c:	bf2c      	ite	cs
2000042e:	f04f 0c01 	movcs.w	ip, #1
20000432:	f04f 0c00 	movcc.w	ip, #0
20000436:	45a6      	cmp	lr, r4
20000438:	d903      	bls.n	20000442 <__udivmoddi4+0x1f2>
2000043a:	f1bc 0f00 	cmp.w	ip, #0
2000043e:	f000 809f 	beq.w	20000580 <__udivmoddi4+0x330>
20000442:	4603      	mov	r3, r0
20000444:	ea43 4008 	orr.w	r0, r3, r8, lsl #16
20000448:	eba4 040e 	sub.w	r4, r4, lr
2000044c:	fba0 ec02 	umull	lr, ip, r0, r2
20000450:	4564      	cmp	r4, ip
20000452:	4673      	mov	r3, lr
20000454:	46e0      	mov	r8, ip
20000456:	d302      	bcc.n	2000045e <__udivmoddi4+0x20e>
20000458:	d107      	bne.n	2000046a <__udivmoddi4+0x21a>
2000045a:	45f1      	cmp	r9, lr
2000045c:	d205      	bcs.n	2000046a <__udivmoddi4+0x21a>
2000045e:	ebbe 0302 	subs.w	r3, lr, r2
20000462:	eb6c 0c07 	sbc.w	ip, ip, r7
20000466:	3801      	subs	r0, #1
20000468:	46e0      	mov	r8, ip
2000046a:	b15e      	cbz	r6, 20000484 <__udivmoddi4+0x234>
2000046c:	ebb9 0203 	subs.w	r2, r9, r3
20000470:	eb64 0408 	sbc.w	r4, r4, r8
20000474:	fa04 f505 	lsl.w	r5, r4, r5
20000478:	fa22 f301 	lsr.w	r3, r2, r1
2000047c:	40cc      	lsrs	r4, r1
2000047e:	431d      	orrs	r5, r3
20000480:	e9c6 5400 	strd	r5, r4, [r6]
20000484:	2100      	movs	r1, #0
20000486:	e732      	b.n	200002ee <__udivmoddi4+0x9e>
20000488:	0842      	lsrs	r2, r0, #1
2000048a:	462f      	mov	r7, r5
2000048c:	084b      	lsrs	r3, r1, #1
2000048e:	46ac      	mov	ip, r5
20000490:	ea42 72c1 	orr.w	r2, r2, r1, lsl #31
20000494:	46ae      	mov	lr, r5
20000496:	07c4      	lsls	r4, r0, #31
20000498:	0c11      	lsrs	r1, r2, #16
2000049a:	b292      	uxth	r2, r2
2000049c:	ea41 4103 	orr.w	r1, r1, r3, lsl #16
200004a0:	ea42 4201 	orr.w	r2, r2, r1, lsl #16
200004a4:	fbb1 f1f5 	udiv	r1, r1, r5
200004a8:	fbb3 f0f5 	udiv	r0, r3, r5
200004ac:	231f      	movs	r3, #31
200004ae:	eba2 020c 	sub.w	r2, r2, ip
200004b2:	ea41 4100 	orr.w	r1, r1, r0, lsl #16
200004b6:	e742      	b.n	2000033e <__udivmoddi4+0xee>
200004b8:	409d      	lsls	r5, r3
200004ba:	f1c3 0220 	rsb	r2, r3, #32
200004be:	4099      	lsls	r1, r3
200004c0:	409c      	lsls	r4, r3
200004c2:	fa2c fc02 	lsr.w	ip, ip, r2
200004c6:	ea4f 4e15 	mov.w	lr, r5, lsr #16
200004ca:	fa20 f202 	lsr.w	r2, r0, r2
200004ce:	b2af      	uxth	r7, r5
200004d0:	fbbc f8fe 	udiv	r8, ip, lr
200004d4:	430a      	orrs	r2, r1
200004d6:	fb0e cc18 	mls	ip, lr, r8, ip
200004da:	0c11      	lsrs	r1, r2, #16
200004dc:	ea41 410c 	orr.w	r1, r1, ip, lsl #16
200004e0:	fb08 fc07 	mul.w	ip, r8, r7
200004e4:	458c      	cmp	ip, r1
200004e6:	d950      	bls.n	2000058a <__udivmoddi4+0x33a>
200004e8:	1869      	adds	r1, r5, r1
200004ea:	f108 30ff 	add.w	r0, r8, #4294967295
200004ee:	bf2c      	ite	cs
200004f0:	f04f 0901 	movcs.w	r9, #1
200004f4:	f04f 0900 	movcc.w	r9, #0
200004f8:	458c      	cmp	ip, r1
200004fa:	d902      	bls.n	20000502 <__udivmoddi4+0x2b2>
200004fc:	f1b9 0f00 	cmp.w	r9, #0
20000500:	d030      	beq.n	20000564 <__udivmoddi4+0x314>
20000502:	eba1 010c 	sub.w	r1, r1, ip
20000506:	fbb1 f8fe 	udiv	r8, r1, lr
2000050a:	fb08 fc07 	mul.w	ip, r8, r7
2000050e:	fb0e 1118 	mls	r1, lr, r8, r1
20000512:	b292      	uxth	r2, r2
20000514:	ea42 4201 	orr.w	r2, r2, r1, lsl #16
20000518:	4562      	cmp	r2, ip
2000051a:	d234      	bcs.n	20000586 <__udivmoddi4+0x336>
2000051c:	18aa      	adds	r2, r5, r2
2000051e:	f108 31ff 	add.w	r1, r8, #4294967295
20000522:	bf2c      	ite	cs
20000524:	f04f 0901 	movcs.w	r9, #1
20000528:	f04f 0900 	movcc.w	r9, #0
2000052c:	4562      	cmp	r2, ip
2000052e:	d2be      	bcs.n	200004ae <__udivmoddi4+0x25e>
20000530:	f1b9 0f00 	cmp.w	r9, #0
20000534:	d1bb      	bne.n	200004ae <__udivmoddi4+0x25e>
20000536:	f1a8 0102 	sub.w	r1, r8, #2
2000053a:	442a      	add	r2, r5
2000053c:	e7b7      	b.n	200004ae <__udivmoddi4+0x25e>
2000053e:	1a84      	subs	r4, r0, r2
20000540:	eb6c 0203 	sbc.w	r2, ip, r3
20000544:	2001      	movs	r0, #1
20000546:	4617      	mov	r7, r2
20000548:	e6e7      	b.n	2000031a <__udivmoddi4+0xca>
2000054a:	442c      	add	r4, r5
2000054c:	3802      	subs	r0, #2
2000054e:	e72b      	b.n	200003a8 <__udivmoddi4+0x158>
20000550:	f1ac 0c02 	sub.w	ip, ip, #2
20000554:	442a      	add	r2, r5
20000556:	e70c      	b.n	20000372 <__udivmoddi4+0x122>
20000558:	3902      	subs	r1, #2
2000055a:	442a      	add	r2, r5
2000055c:	e6a5      	b.n	200002aa <__udivmoddi4+0x5a>
2000055e:	442c      	add	r4, r5
20000560:	3802      	subs	r0, #2
20000562:	e6ba      	b.n	200002da <__udivmoddi4+0x8a>
20000564:	eba5 0c0c 	sub.w	ip, r5, ip
20000568:	f1a8 0002 	sub.w	r0, r8, #2
2000056c:	4461      	add	r1, ip
2000056e:	fbb1 f8fe 	udiv	r8, r1, lr
20000572:	fb08 fc07 	mul.w	ip, r8, r7
20000576:	e7ca      	b.n	2000050e <__udivmoddi4+0x2be>
20000578:	f1a8 0802 	sub.w	r8, r8, #2
2000057c:	443c      	add	r4, r7
2000057e:	e744      	b.n	2000040a <__udivmoddi4+0x1ba>
20000580:	3b02      	subs	r3, #2
20000582:	443c      	add	r4, r7
20000584:	e75e      	b.n	20000444 <__udivmoddi4+0x1f4>
20000586:	4641      	mov	r1, r8
20000588:	e791      	b.n	200004ae <__udivmoddi4+0x25e>
2000058a:	eba1 010c 	sub.w	r1, r1, ip
2000058e:	4640      	mov	r0, r8
20000590:	fbb1 f8fe 	udiv	r8, r1, lr
20000594:	fb08 fc07 	mul.w	ip, r8, r7
20000598:	e7b9      	b.n	2000050e <__udivmoddi4+0x2be>
2000059a:	bf00      	nop

2000059c <__aeabi_idiv0>:
2000059c:	4770      	bx	lr
2000059e:	bf00      	nop

200005a0 <__best_effort_wfe_or_timeout_veneer>:
200005a0:	f85f f000 	ldr.w	pc, [pc]	@ 200005a4 <__best_effort_wfe_or_timeout_veneer+0x4>
200005a4:	10000ed5 	.word	0x10000ed5

200005a8 <striped_spin_lock_num>:
200005a8:	00000010                                ....

200005ac <irq_handler_chain_slots>:
200005ac:	00000000 	.word	0x00000000
200005b0:	00010000 	.word	0x00010000
	...
200005bc:	00020000 	.word	0x00020000
	...
200005c8:	00030000 	.word	0x00030000
	...
200005d4:	00ff0000 	.word	0x00ff0000
200005d8:	00000000 	.word	0x00000000

200005dc <irq_handler_chain_first_slot>:
200005dc:	b501      	push	{r0, lr}
200005de:	6848      	ldr	r0, [r1, #4]
200005e0:	3101      	adds	r1, #1
200005e2:	468e      	mov	lr, r1
200005e4:	4700      	bx	r0

200005e6 <irq_handler_chain_remove_tail>:
200005e6:	4670      	mov	r0, lr
200005e8:	3809      	subs	r0, #9
200005ea:	4901      	ldr	r1, [pc, #4]	@ (200005f0 <irq_handler_chain_remove_tail+0xa>)
200005ec:	4788      	blx	r1
200005ee:	bd01      	pop	{r0, pc}
200005f0:	1000076d 	.word	0x1000076d

200005f4 <default_alarm_pool>:
	...
20000608:	20000640                                @.. 

2000060c <stdio_uart>:
2000060c:	10003361 10003469 100033b1 10003479     a3..i4...3..y4..
2000061c:	00000000 00000100                       ........

20000624 <i2c1_inst>:
20000624:	40098000 00000000                       ...@....

2000062c <i2c0_inst>:
2000062c:	40090000 00000000                       ...@....

20000634 <print_mutex>:
	...
